ARM GAS   			page 1


   1              	 .cpu cortex-m4
   2              	 .arch armv7e-m
   3              	 .fpu fpv4-sp-d16
   4              	 .eabi_attribute 27,1
   5              	 .eabi_attribute 28,1
   6              	 .eabi_attribute 20,1
   7              	 .eabi_attribute 21,1
   8              	 .eabi_attribute 23,3
   9              	 .eabi_attribute 24,1
  10              	 .eabi_attribute 25,1
  11              	 .eabi_attribute 26,1
  12              	 .eabi_attribute 30,6
  13              	 .eabi_attribute 34,0
  14              	 .eabi_attribute 18,4
  15              	 .file "GUI_X_OS.c"
  16              	 .text
  17              	.Ltext0:
  18              	 .cfi_sections .debug_frame
  19              	 .section .bss._ZL7osMutex,"aw",%nobits
  20              	 .align 2
  21              	 .type _ZL7osMutex,%object
  22              	 .size _ZL7osMutex,4
  23              	_ZL7osMutex:
  24 0000 00000000 	 .space 4
  25              	 .section .bss._ZL11osSemaphore,"aw",%nobits
  26              	 .align 2
  27              	 .type _ZL11osSemaphore,%object
  28              	 .size _ZL11osSemaphore,4
  29              	_ZL11osSemaphore:
  30 0000 00000000 	 .space 4
  31              	 .section .text.GUI_X_GetTime,"ax",%progbits
  32              	 .align 1
  33              	 .global GUI_X_GetTime
  34              	 .syntax unified
  35              	 .thumb
  36              	 .thumb_func
  37              	 .type GUI_X_GetTime,%function
  38              	GUI_X_GetTime:
  39              	 .fnstart
  40              	.LFB29:
  41              	 .file 1 "C:\\Users\\niels\\Documents\\Elektrotechniek\\Jaar 2\\ECS\\ECSL\\software\\STM32\\STM32Basis\\HAL\\gemeenschappelijk\\Libraries\\Middlewares\\ST\\STemWin\\OS\\GUI_X_OS.c"
   1:C:\Users\niels\Documents\Elektrotechniek\Jaar 2\ECS\ECSL\software\STM32\STM32Basis\HAL\gemeenschappelijk\Libraries\Middlewares\ST\STemWin\OS\GUI_X_OS.c **** /*********************************************************************
   2:C:\Users\niels\Documents\Elektrotechniek\Jaar 2\ECS\ECSL\software\STM32\STM32Basis\HAL\gemeenschappelijk\Libraries\Middlewares\ST\STemWin\OS\GUI_X_OS.c **** *          Portions COPYRIGHT 2016 STMicroelectronics                *
   3:C:\Users\niels\Documents\Elektrotechniek\Jaar 2\ECS\ECSL\software\STM32\STM32Basis\HAL\gemeenschappelijk\Libraries\Middlewares\ST\STemWin\OS\GUI_X_OS.c **** *          Portions SEGGER Microcontroller GmbH & Co. KG             *
   4:C:\Users\niels\Documents\Elektrotechniek\Jaar 2\ECS\ECSL\software\STM32\STM32Basis\HAL\gemeenschappelijk\Libraries\Middlewares\ST\STemWin\OS\GUI_X_OS.c **** *        Solutions for real time microcontroller applications        *
   5:C:\Users\niels\Documents\Elektrotechniek\Jaar 2\ECS\ECSL\software\STM32\STM32Basis\HAL\gemeenschappelijk\Libraries\Middlewares\ST\STemWin\OS\GUI_X_OS.c **** **********************************************************************
   6:C:\Users\niels\Documents\Elektrotechniek\Jaar 2\ECS\ECSL\software\STM32\STM32Basis\HAL\gemeenschappelijk\Libraries\Middlewares\ST\STemWin\OS\GUI_X_OS.c **** *                                                                    *
   7:C:\Users\niels\Documents\Elektrotechniek\Jaar 2\ECS\ECSL\software\STM32\STM32Basis\HAL\gemeenschappelijk\Libraries\Middlewares\ST\STemWin\OS\GUI_X_OS.c **** *        (c) 1996 - 2015  SEGGER Microcontroller GmbH & Co. KG       *
   8:C:\Users\niels\Documents\Elektrotechniek\Jaar 2\ECS\ECSL\software\STM32\STM32Basis\HAL\gemeenschappelijk\Libraries\Middlewares\ST\STemWin\OS\GUI_X_OS.c **** *                                                                    *
   9:C:\Users\niels\Documents\Elektrotechniek\Jaar 2\ECS\ECSL\software\STM32\STM32Basis\HAL\gemeenschappelijk\Libraries\Middlewares\ST\STemWin\OS\GUI_X_OS.c **** *        Internet: www.segger.com    Support:  support@segger.com    *
  10:C:\Users\niels\Documents\Elektrotechniek\Jaar 2\ECS\ECSL\software\STM32\STM32Basis\HAL\gemeenschappelijk\Libraries\Middlewares\ST\STemWin\OS\GUI_X_OS.c **** *                                                                    *
  11:C:\Users\niels\Documents\Elektrotechniek\Jaar 2\ECS\ECSL\software\STM32\STM32Basis\HAL\gemeenschappelijk\Libraries\Middlewares\ST\STemWin\OS\GUI_X_OS.c **** **********************************************************************
  12:C:\Users\niels\Documents\Elektrotechniek\Jaar 2\ECS\ECSL\software\STM32\STM32Basis\HAL\gemeenschappelijk\Libraries\Middlewares\ST\STemWin\OS\GUI_X_OS.c **** 
  13:C:\Users\niels\Documents\Elektrotechniek\Jaar 2\ECS\ECSL\software\STM32\STM32Basis\HAL\gemeenschappelijk\Libraries\Middlewares\ST\STemWin\OS\GUI_X_OS.c **** ** emWin V5.32 - Graphical user interface for embedded applications **
  14:C:\Users\niels\Documents\Elektrotechniek\Jaar 2\ECS\ECSL\software\STM32\STM32Basis\HAL\gemeenschappelijk\Libraries\Middlewares\ST\STemWin\OS\GUI_X_OS.c **** All  Intellectual Property rights  in the Software belongs to  SEGGER.
  15:C:\Users\niels\Documents\Elektrotechniek\Jaar 2\ECS\ECSL\software\STM32\STM32Basis\HAL\gemeenschappelijk\Libraries\Middlewares\ST\STemWin\OS\GUI_X_OS.c **** emWin is protected by  international copyright laws.  Knowledge of the
  16:C:\Users\niels\Documents\Elektrotechniek\Jaar 2\ECS\ECSL\software\STM32\STM32Basis\HAL\gemeenschappelijk\Libraries\Middlewares\ST\STemWin\OS\GUI_X_OS.c **** source code may not be used to write a similar product.  This file may
ARM GAS   			page 2


  17:C:\Users\niels\Documents\Elektrotechniek\Jaar 2\ECS\ECSL\software\STM32\STM32Basis\HAL\gemeenschappelijk\Libraries\Middlewares\ST\STemWin\OS\GUI_X_OS.c **** only be used in accordance with the following terms:
  18:C:\Users\niels\Documents\Elektrotechniek\Jaar 2\ECS\ECSL\software\STM32\STM32Basis\HAL\gemeenschappelijk\Libraries\Middlewares\ST\STemWin\OS\GUI_X_OS.c **** 
  19:C:\Users\niels\Documents\Elektrotechniek\Jaar 2\ECS\ECSL\software\STM32\STM32Basis\HAL\gemeenschappelijk\Libraries\Middlewares\ST\STemWin\OS\GUI_X_OS.c **** The  software has  been licensed  to STMicroelectronics International
  20:C:\Users\niels\Documents\Elektrotechniek\Jaar 2\ECS\ECSL\software\STM32\STM32Basis\HAL\gemeenschappelijk\Libraries\Middlewares\ST\STemWin\OS\GUI_X_OS.c **** N.V. a Dutch company with a Swiss branch and its headquarters in Plan-
  21:C:\Users\niels\Documents\Elektrotechniek\Jaar 2\ECS\ECSL\software\STM32\STM32Basis\HAL\gemeenschappelijk\Libraries\Middlewares\ST\STemWin\OS\GUI_X_OS.c **** les-Ouates, Geneva, 39 Chemin du Champ des Filles, Switzerland for the
  22:C:\Users\niels\Documents\Elektrotechniek\Jaar 2\ECS\ECSL\software\STM32\STM32Basis\HAL\gemeenschappelijk\Libraries\Middlewares\ST\STemWin\OS\GUI_X_OS.c **** purposes of creating libraries for ARM Cortex-M-based 32-bit microcon_
  23:C:\Users\niels\Documents\Elektrotechniek\Jaar 2\ECS\ECSL\software\STM32\STM32Basis\HAL\gemeenschappelijk\Libraries\Middlewares\ST\STemWin\OS\GUI_X_OS.c **** troller products commercialized by Licensee only, sublicensed and dis_
  24:C:\Users\niels\Documents\Elektrotechniek\Jaar 2\ECS\ECSL\software\STM32\STM32Basis\HAL\gemeenschappelijk\Libraries\Middlewares\ST\STemWin\OS\GUI_X_OS.c **** tributed under the terms and conditions of the End User License Agree_
  25:C:\Users\niels\Documents\Elektrotechniek\Jaar 2\ECS\ECSL\software\STM32\STM32Basis\HAL\gemeenschappelijk\Libraries\Middlewares\ST\STemWin\OS\GUI_X_OS.c **** ment supplied by STMicroelectronics International N.V.
  26:C:\Users\niels\Documents\Elektrotechniek\Jaar 2\ECS\ECSL\software\STM32\STM32Basis\HAL\gemeenschappelijk\Libraries\Middlewares\ST\STemWin\OS\GUI_X_OS.c **** Full source code is available at: www.segger.com
  27:C:\Users\niels\Documents\Elektrotechniek\Jaar 2\ECS\ECSL\software\STM32\STM32Basis\HAL\gemeenschappelijk\Libraries\Middlewares\ST\STemWin\OS\GUI_X_OS.c **** 
  28:C:\Users\niels\Documents\Elektrotechniek\Jaar 2\ECS\ECSL\software\STM32\STM32Basis\HAL\gemeenschappelijk\Libraries\Middlewares\ST\STemWin\OS\GUI_X_OS.c **** We appreciate your understanding and fairness.
  29:C:\Users\niels\Documents\Elektrotechniek\Jaar 2\ECS\ECSL\software\STM32\STM32Basis\HAL\gemeenschappelijk\Libraries\Middlewares\ST\STemWin\OS\GUI_X_OS.c **** ----------------------------------------------------------------------
  30:C:\Users\niels\Documents\Elektrotechniek\Jaar 2\ECS\ECSL\software\STM32\STM32Basis\HAL\gemeenschappelijk\Libraries\Middlewares\ST\STemWin\OS\GUI_X_OS.c **** File        : GUI_X.C
  31:C:\Users\niels\Documents\Elektrotechniek\Jaar 2\ECS\ECSL\software\STM32\STM32Basis\HAL\gemeenschappelijk\Libraries\Middlewares\ST\STemWin\OS\GUI_X_OS.c **** Purpose     : This file provides emWin Interface with FreeRTOS
  32:C:\Users\niels\Documents\Elektrotechniek\Jaar 2\ECS\ECSL\software\STM32\STM32Basis\HAL\gemeenschappelijk\Libraries\Middlewares\ST\STemWin\OS\GUI_X_OS.c **** ---------------------------END-OF-HEADER------------------------------
  33:C:\Users\niels\Documents\Elektrotechniek\Jaar 2\ECS\ECSL\software\STM32\STM32Basis\HAL\gemeenschappelijk\Libraries\Middlewares\ST\STemWin\OS\GUI_X_OS.c **** */
  34:C:\Users\niels\Documents\Elektrotechniek\Jaar 2\ECS\ECSL\software\STM32\STM32Basis\HAL\gemeenschappelijk\Libraries\Middlewares\ST\STemWin\OS\GUI_X_OS.c **** 
  35:C:\Users\niels\Documents\Elektrotechniek\Jaar 2\ECS\ECSL\software\STM32\STM32Basis\HAL\gemeenschappelijk\Libraries\Middlewares\ST\STemWin\OS\GUI_X_OS.c **** /**
  36:C:\Users\niels\Documents\Elektrotechniek\Jaar 2\ECS\ECSL\software\STM32\STM32Basis\HAL\gemeenschappelijk\Libraries\Middlewares\ST\STemWin\OS\GUI_X_OS.c ****   ******************************************************************************
  37:C:\Users\niels\Documents\Elektrotechniek\Jaar 2\ECS\ECSL\software\STM32\STM32Basis\HAL\gemeenschappelijk\Libraries\Middlewares\ST\STemWin\OS\GUI_X_OS.c ****   * @attention
  38:C:\Users\niels\Documents\Elektrotechniek\Jaar 2\ECS\ECSL\software\STM32\STM32Basis\HAL\gemeenschappelijk\Libraries\Middlewares\ST\STemWin\OS\GUI_X_OS.c ****   *
  39:C:\Users\niels\Documents\Elektrotechniek\Jaar 2\ECS\ECSL\software\STM32\STM32Basis\HAL\gemeenschappelijk\Libraries\Middlewares\ST\STemWin\OS\GUI_X_OS.c ****   * Licensed under MCD-ST Liberty SW License Agreement V2, (the "License");
  40:C:\Users\niels\Documents\Elektrotechniek\Jaar 2\ECS\ECSL\software\STM32\STM32Basis\HAL\gemeenschappelijk\Libraries\Middlewares\ST\STemWin\OS\GUI_X_OS.c ****   * You may not use this file except in compliance with the License.
  41:C:\Users\niels\Documents\Elektrotechniek\Jaar 2\ECS\ECSL\software\STM32\STM32Basis\HAL\gemeenschappelijk\Libraries\Middlewares\ST\STemWin\OS\GUI_X_OS.c ****   * You may obtain a copy of the License at:
  42:C:\Users\niels\Documents\Elektrotechniek\Jaar 2\ECS\ECSL\software\STM32\STM32Basis\HAL\gemeenschappelijk\Libraries\Middlewares\ST\STemWin\OS\GUI_X_OS.c ****   *
  43:C:\Users\niels\Documents\Elektrotechniek\Jaar 2\ECS\ECSL\software\STM32\STM32Basis\HAL\gemeenschappelijk\Libraries\Middlewares\ST\STemWin\OS\GUI_X_OS.c ****   *        http://www.st.com/software_license_agreement_liberty_v2
  44:C:\Users\niels\Documents\Elektrotechniek\Jaar 2\ECS\ECSL\software\STM32\STM32Basis\HAL\gemeenschappelijk\Libraries\Middlewares\ST\STemWin\OS\GUI_X_OS.c ****   *
  45:C:\Users\niels\Documents\Elektrotechniek\Jaar 2\ECS\ECSL\software\STM32\STM32Basis\HAL\gemeenschappelijk\Libraries\Middlewares\ST\STemWin\OS\GUI_X_OS.c ****   * Unless required by applicable law or agreed to in writing, software 
  46:C:\Users\niels\Documents\Elektrotechniek\Jaar 2\ECS\ECSL\software\STM32\STM32Basis\HAL\gemeenschappelijk\Libraries\Middlewares\ST\STemWin\OS\GUI_X_OS.c ****   * distributed under the License is distributed on an "AS IS" BASIS, 
  47:C:\Users\niels\Documents\Elektrotechniek\Jaar 2\ECS\ECSL\software\STM32\STM32Basis\HAL\gemeenschappelijk\Libraries\Middlewares\ST\STemWin\OS\GUI_X_OS.c ****   * WITHOUT WARRANTIES OR CONDITIONS OF ANY KIND, either express or implied.
  48:C:\Users\niels\Documents\Elektrotechniek\Jaar 2\ECS\ECSL\software\STM32\STM32Basis\HAL\gemeenschappelijk\Libraries\Middlewares\ST\STemWin\OS\GUI_X_OS.c ****   * See the License for the specific language governing permissions and
  49:C:\Users\niels\Documents\Elektrotechniek\Jaar 2\ECS\ECSL\software\STM32\STM32Basis\HAL\gemeenschappelijk\Libraries\Middlewares\ST\STemWin\OS\GUI_X_OS.c ****   * limitations under the License.
  50:C:\Users\niels\Documents\Elektrotechniek\Jaar 2\ECS\ECSL\software\STM32\STM32Basis\HAL\gemeenschappelijk\Libraries\Middlewares\ST\STemWin\OS\GUI_X_OS.c ****   *
  51:C:\Users\niels\Documents\Elektrotechniek\Jaar 2\ECS\ECSL\software\STM32\STM32Basis\HAL\gemeenschappelijk\Libraries\Middlewares\ST\STemWin\OS\GUI_X_OS.c ****   ******************************************************************************
  52:C:\Users\niels\Documents\Elektrotechniek\Jaar 2\ECS\ECSL\software\STM32\STM32Basis\HAL\gemeenschappelijk\Libraries\Middlewares\ST\STemWin\OS\GUI_X_OS.c ****   */
  53:C:\Users\niels\Documents\Elektrotechniek\Jaar 2\ECS\ECSL\software\STM32\STM32Basis\HAL\gemeenschappelijk\Libraries\Middlewares\ST\STemWin\OS\GUI_X_OS.c **** 
  54:C:\Users\niels\Documents\Elektrotechniek\Jaar 2\ECS\ECSL\software\STM32\STM32Basis\HAL\gemeenschappelijk\Libraries\Middlewares\ST\STemWin\OS\GUI_X_OS.c **** /* Includes ------------------------------------------------------------------*/
  55:C:\Users\niels\Documents\Elektrotechniek\Jaar 2\ECS\ECSL\software\STM32\STM32Basis\HAL\gemeenschappelijk\Libraries\Middlewares\ST\STemWin\OS\GUI_X_OS.c **** 
  56:C:\Users\niels\Documents\Elektrotechniek\Jaar 2\ECS\ECSL\software\STM32\STM32Basis\HAL\gemeenschappelijk\Libraries\Middlewares\ST\STemWin\OS\GUI_X_OS.c **** #include "GUI.h"
  57:C:\Users\niels\Documents\Elektrotechniek\Jaar 2\ECS\ECSL\software\STM32\STM32Basis\HAL\gemeenschappelijk\Libraries\Middlewares\ST\STemWin\OS\GUI_X_OS.c ****     
  58:C:\Users\niels\Documents\Elektrotechniek\Jaar 2\ECS\ECSL\software\STM32\STM32Basis\HAL\gemeenschappelijk\Libraries\Middlewares\ST\STemWin\OS\GUI_X_OS.c ****     /* FreeRTOS include files */
  59:C:\Users\niels\Documents\Elektrotechniek\Jaar 2\ECS\ECSL\software\STM32\STM32Basis\HAL\gemeenschappelijk\Libraries\Middlewares\ST\STemWin\OS\GUI_X_OS.c **** #include "cmsis_os.h"
  60:C:\Users\niels\Documents\Elektrotechniek\Jaar 2\ECS\ECSL\software\STM32\STM32Basis\HAL\gemeenschappelijk\Libraries\Middlewares\ST\STemWin\OS\GUI_X_OS.c ****     
  61:C:\Users\niels\Documents\Elektrotechniek\Jaar 2\ECS\ECSL\software\STM32\STM32Basis\HAL\gemeenschappelijk\Libraries\Middlewares\ST\STemWin\OS\GUI_X_OS.c **** /*********************************************************************
  62:C:\Users\niels\Documents\Elektrotechniek\Jaar 2\ECS\ECSL\software\STM32\STM32Basis\HAL\gemeenschappelijk\Libraries\Middlewares\ST\STemWin\OS\GUI_X_OS.c **** *
  63:C:\Users\niels\Documents\Elektrotechniek\Jaar 2\ECS\ECSL\software\STM32\STM32Basis\HAL\gemeenschappelijk\Libraries\Middlewares\ST\STemWin\OS\GUI_X_OS.c **** * Global data
  64:C:\Users\niels\Documents\Elektrotechniek\Jaar 2\ECS\ECSL\software\STM32\STM32Basis\HAL\gemeenschappelijk\Libraries\Middlewares\ST\STemWin\OS\GUI_X_OS.c **** */
  65:C:\Users\niels\Documents\Elektrotechniek\Jaar 2\ECS\ECSL\software\STM32\STM32Basis\HAL\gemeenschappelijk\Libraries\Middlewares\ST\STemWin\OS\GUI_X_OS.c **** static osMutexId osMutex;
  66:C:\Users\niels\Documents\Elektrotechniek\Jaar 2\ECS\ECSL\software\STM32\STM32Basis\HAL\gemeenschappelijk\Libraries\Middlewares\ST\STemWin\OS\GUI_X_OS.c **** static osSemaphoreId osSemaphore;
  67:C:\Users\niels\Documents\Elektrotechniek\Jaar 2\ECS\ECSL\software\STM32\STM32Basis\HAL\gemeenschappelijk\Libraries\Middlewares\ST\STemWin\OS\GUI_X_OS.c **** /*********************************************************************
  68:C:\Users\niels\Documents\Elektrotechniek\Jaar 2\ECS\ECSL\software\STM32\STM32Basis\HAL\gemeenschappelijk\Libraries\Middlewares\ST\STemWin\OS\GUI_X_OS.c **** *
  69:C:\Users\niels\Documents\Elektrotechniek\Jaar 2\ECS\ECSL\software\STM32\STM32Basis\HAL\gemeenschappelijk\Libraries\Middlewares\ST\STemWin\OS\GUI_X_OS.c **** * Timing:
  70:C:\Users\niels\Documents\Elektrotechniek\Jaar 2\ECS\ECSL\software\STM32\STM32Basis\HAL\gemeenschappelijk\Libraries\Middlewares\ST\STemWin\OS\GUI_X_OS.c **** * GUI_X_GetTime()
  71:C:\Users\niels\Documents\Elektrotechniek\Jaar 2\ECS\ECSL\software\STM32\STM32Basis\HAL\gemeenschappelijk\Libraries\Middlewares\ST\STemWin\OS\GUI_X_OS.c **** * GUI_X_Delay(int)
  72:C:\Users\niels\Documents\Elektrotechniek\Jaar 2\ECS\ECSL\software\STM32\STM32Basis\HAL\gemeenschappelijk\Libraries\Middlewares\ST\STemWin\OS\GUI_X_OS.c **** 
  73:C:\Users\niels\Documents\Elektrotechniek\Jaar 2\ECS\ECSL\software\STM32\STM32Basis\HAL\gemeenschappelijk\Libraries\Middlewares\ST\STemWin\OS\GUI_X_OS.c **** Some timing dependent routines require a GetTime
ARM GAS   			page 3


  74:C:\Users\niels\Documents\Elektrotechniek\Jaar 2\ECS\ECSL\software\STM32\STM32Basis\HAL\gemeenschappelijk\Libraries\Middlewares\ST\STemWin\OS\GUI_X_OS.c **** and delay function. Default time unit (tick), normally is
  75:C:\Users\niels\Documents\Elektrotechniek\Jaar 2\ECS\ECSL\software\STM32\STM32Basis\HAL\gemeenschappelijk\Libraries\Middlewares\ST\STemWin\OS\GUI_X_OS.c **** 1 ms.
  76:C:\Users\niels\Documents\Elektrotechniek\Jaar 2\ECS\ECSL\software\STM32\STM32Basis\HAL\gemeenschappelijk\Libraries\Middlewares\ST\STemWin\OS\GUI_X_OS.c **** */
  77:C:\Users\niels\Documents\Elektrotechniek\Jaar 2\ECS\ECSL\software\STM32\STM32Basis\HAL\gemeenschappelijk\Libraries\Middlewares\ST\STemWin\OS\GUI_X_OS.c **** 
  78:C:\Users\niels\Documents\Elektrotechniek\Jaar 2\ECS\ECSL\software\STM32\STM32Basis\HAL\gemeenschappelijk\Libraries\Middlewares\ST\STemWin\OS\GUI_X_OS.c **** int GUI_X_GetTime(void)
  79:C:\Users\niels\Documents\Elektrotechniek\Jaar 2\ECS\ECSL\software\STM32\STM32Basis\HAL\gemeenschappelijk\Libraries\Middlewares\ST\STemWin\OS\GUI_X_OS.c **** {
  42              	 .loc 1 79 1
  43              	 .cfi_startproc
  44              	 
  45              	 
  46 0000 80B5     	 push {r7,lr}
  47              	 .save {r7,lr}
  48              	 .cfi_def_cfa_offset 8
  49              	 .cfi_offset 7,-8
  50              	 .cfi_offset 14,-4
  51              	 .setfp r7,sp,#0
  52 0002 00AF     	 add r7,sp,#0
  53              	 .cfi_def_cfa_register 7
  80:C:\Users\niels\Documents\Elektrotechniek\Jaar 2\ECS\ECSL\software\STM32\STM32Basis\HAL\gemeenschappelijk\Libraries\Middlewares\ST\STemWin\OS\GUI_X_OS.c ****   return ((int) xTaskGetTickCount());
  54              	 .loc 1 80 34
  55 0004 FFF7FEFF 	 bl xTaskGetTickCount
  56 0008 0346     	 mov r3,r0
  81:C:\Users\niels\Documents\Elektrotechniek\Jaar 2\ECS\ECSL\software\STM32\STM32Basis\HAL\gemeenschappelijk\Libraries\Middlewares\ST\STemWin\OS\GUI_X_OS.c **** }
  57              	 .loc 1 81 1
  58 000a 1846     	 mov r0,r3
  59 000c 80BD     	 pop {r7,pc}
  60              	 .cfi_endproc
  61              	.LFE29:
  62              	 .fnend
  63              	 .size GUI_X_GetTime,.-GUI_X_GetTime
  64              	 .section .text.GUI_X_Delay,"ax",%progbits
  65              	 .align 1
  66              	 .global GUI_X_Delay
  67              	 .syntax unified
  68              	 .thumb
  69              	 .thumb_func
  70              	 .type GUI_X_Delay,%function
  71              	GUI_X_Delay:
  72              	 .fnstart
  73              	.LFB30:
  82:C:\Users\niels\Documents\Elektrotechniek\Jaar 2\ECS\ECSL\software\STM32\STM32Basis\HAL\gemeenschappelijk\Libraries\Middlewares\ST\STemWin\OS\GUI_X_OS.c **** 
  83:C:\Users\niels\Documents\Elektrotechniek\Jaar 2\ECS\ECSL\software\STM32\STM32Basis\HAL\gemeenschappelijk\Libraries\Middlewares\ST\STemWin\OS\GUI_X_OS.c **** void GUI_X_Delay(int ms)
  84:C:\Users\niels\Documents\Elektrotechniek\Jaar 2\ECS\ECSL\software\STM32\STM32Basis\HAL\gemeenschappelijk\Libraries\Middlewares\ST\STemWin\OS\GUI_X_OS.c **** {
  74              	 .loc 1 84 1
  75              	 .cfi_startproc
  76              	 
  77              	 
  78 0000 80B5     	 push {r7,lr}
  79              	 .save {r7,lr}
  80              	 .cfi_def_cfa_offset 8
  81              	 .cfi_offset 7,-8
  82              	 .cfi_offset 14,-4
  83              	 .pad #8
  84 0002 82B0     	 sub sp,sp,#8
  85              	 .cfi_def_cfa_offset 16
  86              	 .setfp r7,sp,#0
  87 0004 00AF     	 add r7,sp,#0
ARM GAS   			page 4


  88              	 .cfi_def_cfa_register 7
  89 0006 7860     	 str r0,[r7,#4]
  85:C:\Users\niels\Documents\Elektrotechniek\Jaar 2\ECS\ECSL\software\STM32\STM32Basis\HAL\gemeenschappelijk\Libraries\Middlewares\ST\STemWin\OS\GUI_X_OS.c ****   vTaskDelay( ms );
  90              	 .loc 1 85 13
  91 0008 7B68     	 ldr r3,[r7,#4]
  92 000a 1846     	 mov r0,r3
  93 000c FFF7FEFF 	 bl vTaskDelay
  86:C:\Users\niels\Documents\Elektrotechniek\Jaar 2\ECS\ECSL\software\STM32\STM32Basis\HAL\gemeenschappelijk\Libraries\Middlewares\ST\STemWin\OS\GUI_X_OS.c **** }
  94              	 .loc 1 86 1
  95 0010 00BF     	 nop
  96 0012 0837     	 adds r7,r7,#8
  97              	 .cfi_def_cfa_offset 8
  98 0014 BD46     	 mov sp,r7
  99              	 .cfi_def_cfa_register 13
 100              	 
 101 0016 80BD     	 pop {r7,pc}
 102              	 .cfi_endproc
 103              	.LFE30:
 104              	 .fnend
 105              	 .size GUI_X_Delay,.-GUI_X_Delay
 106              	 .section .text.GUI_X_Init,"ax",%progbits
 107              	 .align 1
 108              	 .global GUI_X_Init
 109              	 .syntax unified
 110              	 .thumb
 111              	 .thumb_func
 112              	 .type GUI_X_Init,%function
 113              	GUI_X_Init:
 114              	 .fnstart
 115              	.LFB31:
  87:C:\Users\niels\Documents\Elektrotechniek\Jaar 2\ECS\ECSL\software\STM32\STM32Basis\HAL\gemeenschappelijk\Libraries\Middlewares\ST\STemWin\OS\GUI_X_OS.c **** 
  88:C:\Users\niels\Documents\Elektrotechniek\Jaar 2\ECS\ECSL\software\STM32\STM32Basis\HAL\gemeenschappelijk\Libraries\Middlewares\ST\STemWin\OS\GUI_X_OS.c **** /*********************************************************************
  89:C:\Users\niels\Documents\Elektrotechniek\Jaar 2\ECS\ECSL\software\STM32\STM32Basis\HAL\gemeenschappelijk\Libraries\Middlewares\ST\STemWin\OS\GUI_X_OS.c **** *
  90:C:\Users\niels\Documents\Elektrotechniek\Jaar 2\ECS\ECSL\software\STM32\STM32Basis\HAL\gemeenschappelijk\Libraries\Middlewares\ST\STemWin\OS\GUI_X_OS.c **** * GUI_X_Init()
  91:C:\Users\niels\Documents\Elektrotechniek\Jaar 2\ECS\ECSL\software\STM32\STM32Basis\HAL\gemeenschappelijk\Libraries\Middlewares\ST\STemWin\OS\GUI_X_OS.c **** *
  92:C:\Users\niels\Documents\Elektrotechniek\Jaar 2\ECS\ECSL\software\STM32\STM32Basis\HAL\gemeenschappelijk\Libraries\Middlewares\ST\STemWin\OS\GUI_X_OS.c **** * Note:
  93:C:\Users\niels\Documents\Elektrotechniek\Jaar 2\ECS\ECSL\software\STM32\STM32Basis\HAL\gemeenschappelijk\Libraries\Middlewares\ST\STemWin\OS\GUI_X_OS.c **** * GUI_X_Init() is called from GUI_Init is a possibility to init
  94:C:\Users\niels\Documents\Elektrotechniek\Jaar 2\ECS\ECSL\software\STM32\STM32Basis\HAL\gemeenschappelijk\Libraries\Middlewares\ST\STemWin\OS\GUI_X_OS.c **** * some hardware which needs to be up and running before the GUI.
  95:C:\Users\niels\Documents\Elektrotechniek\Jaar 2\ECS\ECSL\software\STM32\STM32Basis\HAL\gemeenschappelijk\Libraries\Middlewares\ST\STemWin\OS\GUI_X_OS.c **** * If not required, leave this routine blank.
  96:C:\Users\niels\Documents\Elektrotechniek\Jaar 2\ECS\ECSL\software\STM32\STM32Basis\HAL\gemeenschappelijk\Libraries\Middlewares\ST\STemWin\OS\GUI_X_OS.c **** */
  97:C:\Users\niels\Documents\Elektrotechniek\Jaar 2\ECS\ECSL\software\STM32\STM32Basis\HAL\gemeenschappelijk\Libraries\Middlewares\ST\STemWin\OS\GUI_X_OS.c **** 
  98:C:\Users\niels\Documents\Elektrotechniek\Jaar 2\ECS\ECSL\software\STM32\STM32Basis\HAL\gemeenschappelijk\Libraries\Middlewares\ST\STemWin\OS\GUI_X_OS.c **** void GUI_X_Init(void) {
 116              	 .loc 1 98 23
 117              	 .cfi_startproc
 118              	 
 119              	 
 120              	 
 121 0000 80B4     	 push {r7}
 122              	 .cfi_def_cfa_offset 4
 123              	 .cfi_offset 7,-4
 124 0002 00AF     	 add r7,sp,#0
 125              	 .cfi_def_cfa_register 7
  99:C:\Users\niels\Documents\Elektrotechniek\Jaar 2\ECS\ECSL\software\STM32\STM32Basis\HAL\gemeenschappelijk\Libraries\Middlewares\ST\STemWin\OS\GUI_X_OS.c **** }
 126              	 .loc 1 99 1
 127 0004 00BF     	 nop
 128 0006 BD46     	 mov sp,r7
 129              	 .cfi_def_cfa_register 13
ARM GAS   			page 5


 130              	 
 131 0008 5DF8047B 	 ldr r7,[sp],#4
 132              	 .cfi_restore 7
 133              	 .cfi_def_cfa_offset 0
 134 000c 7047     	 bx lr
 135              	 .cfi_endproc
 136              	.LFE31:
 137              	 .cantunwind
 138              	 .fnend
 139              	 .size GUI_X_Init,.-GUI_X_Init
 140              	 .section .text.GUI_X_ExecIdle,"ax",%progbits
 141              	 .align 1
 142              	 .global GUI_X_ExecIdle
 143              	 .syntax unified
 144              	 .thumb
 145              	 .thumb_func
 146              	 .type GUI_X_ExecIdle,%function
 147              	GUI_X_ExecIdle:
 148              	 .fnstart
 149              	.LFB32:
 100:C:\Users\niels\Documents\Elektrotechniek\Jaar 2\ECS\ECSL\software\STM32\STM32Basis\HAL\gemeenschappelijk\Libraries\Middlewares\ST\STemWin\OS\GUI_X_OS.c **** 
 101:C:\Users\niels\Documents\Elektrotechniek\Jaar 2\ECS\ECSL\software\STM32\STM32Basis\HAL\gemeenschappelijk\Libraries\Middlewares\ST\STemWin\OS\GUI_X_OS.c **** 
 102:C:\Users\niels\Documents\Elektrotechniek\Jaar 2\ECS\ECSL\software\STM32\STM32Basis\HAL\gemeenschappelijk\Libraries\Middlewares\ST\STemWin\OS\GUI_X_OS.c **** /*********************************************************************
 103:C:\Users\niels\Documents\Elektrotechniek\Jaar 2\ECS\ECSL\software\STM32\STM32Basis\HAL\gemeenschappelijk\Libraries\Middlewares\ST\STemWin\OS\GUI_X_OS.c **** *
 104:C:\Users\niels\Documents\Elektrotechniek\Jaar 2\ECS\ECSL\software\STM32\STM32Basis\HAL\gemeenschappelijk\Libraries\Middlewares\ST\STemWin\OS\GUI_X_OS.c **** * GUI_X_ExecIdle
 105:C:\Users\niels\Documents\Elektrotechniek\Jaar 2\ECS\ECSL\software\STM32\STM32Basis\HAL\gemeenschappelijk\Libraries\Middlewares\ST\STemWin\OS\GUI_X_OS.c **** *
 106:C:\Users\niels\Documents\Elektrotechniek\Jaar 2\ECS\ECSL\software\STM32\STM32Basis\HAL\gemeenschappelijk\Libraries\Middlewares\ST\STemWin\OS\GUI_X_OS.c **** * Note:
 107:C:\Users\niels\Documents\Elektrotechniek\Jaar 2\ECS\ECSL\software\STM32\STM32Basis\HAL\gemeenschappelijk\Libraries\Middlewares\ST\STemWin\OS\GUI_X_OS.c **** * Called if WM is in idle state
 108:C:\Users\niels\Documents\Elektrotechniek\Jaar 2\ECS\ECSL\software\STM32\STM32Basis\HAL\gemeenschappelijk\Libraries\Middlewares\ST\STemWin\OS\GUI_X_OS.c **** */
 109:C:\Users\niels\Documents\Elektrotechniek\Jaar 2\ECS\ECSL\software\STM32\STM32Basis\HAL\gemeenschappelijk\Libraries\Middlewares\ST\STemWin\OS\GUI_X_OS.c **** 
 110:C:\Users\niels\Documents\Elektrotechniek\Jaar 2\ECS\ECSL\software\STM32\STM32Basis\HAL\gemeenschappelijk\Libraries\Middlewares\ST\STemWin\OS\GUI_X_OS.c **** void GUI_X_ExecIdle(void) {}
 150              	 .loc 1 110 27
 151              	 .cfi_startproc
 152              	 
 153              	 
 154              	 
 155 0000 80B4     	 push {r7}
 156              	 .cfi_def_cfa_offset 4
 157              	 .cfi_offset 7,-4
 158 0002 00AF     	 add r7,sp,#0
 159              	 .cfi_def_cfa_register 7
 160              	 .loc 1 110 28
 161 0004 00BF     	 nop
 162 0006 BD46     	 mov sp,r7
 163              	 .cfi_def_cfa_register 13
 164              	 
 165 0008 5DF8047B 	 ldr r7,[sp],#4
 166              	 .cfi_restore 7
 167              	 .cfi_def_cfa_offset 0
 168 000c 7047     	 bx lr
 169              	 .cfi_endproc
 170              	.LFE32:
 171              	 .cantunwind
 172              	 .fnend
 173              	 .size GUI_X_ExecIdle,.-GUI_X_ExecIdle
 174              	 .section .text.GUI_X_InitOS,"ax",%progbits
 175              	 .align 1
ARM GAS   			page 6


 176              	 .global GUI_X_InitOS
 177              	 .syntax unified
 178              	 .thumb
 179              	 .thumb_func
 180              	 .type GUI_X_InitOS,%function
 181              	GUI_X_InitOS:
 182              	 .fnstart
 183              	.LFB33:
 111:C:\Users\niels\Documents\Elektrotechniek\Jaar 2\ECS\ECSL\software\STM32\STM32Basis\HAL\gemeenschappelijk\Libraries\Middlewares\ST\STemWin\OS\GUI_X_OS.c **** 
 112:C:\Users\niels\Documents\Elektrotechniek\Jaar 2\ECS\ECSL\software\STM32\STM32Basis\HAL\gemeenschappelijk\Libraries\Middlewares\ST\STemWin\OS\GUI_X_OS.c **** /*********************************************************************
 113:C:\Users\niels\Documents\Elektrotechniek\Jaar 2\ECS\ECSL\software\STM32\STM32Basis\HAL\gemeenschappelijk\Libraries\Middlewares\ST\STemWin\OS\GUI_X_OS.c **** *
 114:C:\Users\niels\Documents\Elektrotechniek\Jaar 2\ECS\ECSL\software\STM32\STM32Basis\HAL\gemeenschappelijk\Libraries\Middlewares\ST\STemWin\OS\GUI_X_OS.c **** * Multitasking:
 115:C:\Users\niels\Documents\Elektrotechniek\Jaar 2\ECS\ECSL\software\STM32\STM32Basis\HAL\gemeenschappelijk\Libraries\Middlewares\ST\STemWin\OS\GUI_X_OS.c **** *
 116:C:\Users\niels\Documents\Elektrotechniek\Jaar 2\ECS\ECSL\software\STM32\STM32Basis\HAL\gemeenschappelijk\Libraries\Middlewares\ST\STemWin\OS\GUI_X_OS.c **** * GUI_X_InitOS()
 117:C:\Users\niels\Documents\Elektrotechniek\Jaar 2\ECS\ECSL\software\STM32\STM32Basis\HAL\gemeenschappelijk\Libraries\Middlewares\ST\STemWin\OS\GUI_X_OS.c **** * GUI_X_GetTaskId()
 118:C:\Users\niels\Documents\Elektrotechniek\Jaar 2\ECS\ECSL\software\STM32\STM32Basis\HAL\gemeenschappelijk\Libraries\Middlewares\ST\STemWin\OS\GUI_X_OS.c **** * GUI_X_Lock()
 119:C:\Users\niels\Documents\Elektrotechniek\Jaar 2\ECS\ECSL\software\STM32\STM32Basis\HAL\gemeenschappelijk\Libraries\Middlewares\ST\STemWin\OS\GUI_X_OS.c **** * GUI_X_Unlock()
 120:C:\Users\niels\Documents\Elektrotechniek\Jaar 2\ECS\ECSL\software\STM32\STM32Basis\HAL\gemeenschappelijk\Libraries\Middlewares\ST\STemWin\OS\GUI_X_OS.c **** *
 121:C:\Users\niels\Documents\Elektrotechniek\Jaar 2\ECS\ECSL\software\STM32\STM32Basis\HAL\gemeenschappelijk\Libraries\Middlewares\ST\STemWin\OS\GUI_X_OS.c **** * Note:
 122:C:\Users\niels\Documents\Elektrotechniek\Jaar 2\ECS\ECSL\software\STM32\STM32Basis\HAL\gemeenschappelijk\Libraries\Middlewares\ST\STemWin\OS\GUI_X_OS.c **** * The following routines are required only if emWin is used in a
 123:C:\Users\niels\Documents\Elektrotechniek\Jaar 2\ECS\ECSL\software\STM32\STM32Basis\HAL\gemeenschappelijk\Libraries\Middlewares\ST\STemWin\OS\GUI_X_OS.c **** * true multi task environment, which means you have more than one
 124:C:\Users\niels\Documents\Elektrotechniek\Jaar 2\ECS\ECSL\software\STM32\STM32Basis\HAL\gemeenschappelijk\Libraries\Middlewares\ST\STemWin\OS\GUI_X_OS.c **** * thread using the emWin API.
 125:C:\Users\niels\Documents\Elektrotechniek\Jaar 2\ECS\ECSL\software\STM32\STM32Basis\HAL\gemeenschappelijk\Libraries\Middlewares\ST\STemWin\OS\GUI_X_OS.c **** * In this case the
 126:C:\Users\niels\Documents\Elektrotechniek\Jaar 2\ECS\ECSL\software\STM32\STM32Basis\HAL\gemeenschappelijk\Libraries\Middlewares\ST\STemWin\OS\GUI_X_OS.c **** * #define GUI_OS 1
 127:C:\Users\niels\Documents\Elektrotechniek\Jaar 2\ECS\ECSL\software\STM32\STM32Basis\HAL\gemeenschappelijk\Libraries\Middlewares\ST\STemWin\OS\GUI_X_OS.c **** * needs to be in GUIConf.h
 128:C:\Users\niels\Documents\Elektrotechniek\Jaar 2\ECS\ECSL\software\STM32\STM32Basis\HAL\gemeenschappelijk\Libraries\Middlewares\ST\STemWin\OS\GUI_X_OS.c **** */
 129:C:\Users\niels\Documents\Elektrotechniek\Jaar 2\ECS\ECSL\software\STM32\STM32Basis\HAL\gemeenschappelijk\Libraries\Middlewares\ST\STemWin\OS\GUI_X_OS.c **** 
 130:C:\Users\niels\Documents\Elektrotechniek\Jaar 2\ECS\ECSL\software\STM32\STM32Basis\HAL\gemeenschappelijk\Libraries\Middlewares\ST\STemWin\OS\GUI_X_OS.c **** /* Init OS */
 131:C:\Users\niels\Documents\Elektrotechniek\Jaar 2\ECS\ECSL\software\STM32\STM32Basis\HAL\gemeenschappelijk\Libraries\Middlewares\ST\STemWin\OS\GUI_X_OS.c **** void GUI_X_InitOS(void)
 132:C:\Users\niels\Documents\Elektrotechniek\Jaar 2\ECS\ECSL\software\STM32\STM32Basis\HAL\gemeenschappelijk\Libraries\Middlewares\ST\STemWin\OS\GUI_X_OS.c **** { 
 184              	 .loc 1 132 1
 185              	 .cfi_startproc
 186              	 
 187              	 
 188 0000 80B5     	 push {r7,lr}
 189              	 .save {r7,lr}
 190              	 .cfi_def_cfa_offset 8
 191              	 .cfi_offset 7,-8
 192              	 .cfi_offset 14,-4
 193              	 .pad #8
 194 0002 82B0     	 sub sp,sp,#8
 195              	 .cfi_def_cfa_offset 16
 196              	 .setfp r7,sp,#0
 197 0004 00AF     	 add r7,sp,#0
 198              	 .cfi_def_cfa_register 7
 133:C:\Users\niels\Documents\Elektrotechniek\Jaar 2\ECS\ECSL\software\STM32\STM32Basis\HAL\gemeenschappelijk\Libraries\Middlewares\ST\STemWin\OS\GUI_X_OS.c ****   /* Create Mutex lock */
 134:C:\Users\niels\Documents\Elektrotechniek\Jaar 2\ECS\ECSL\software\STM32\STM32Basis\HAL\gemeenschappelijk\Libraries\Middlewares\ST\STemWin\OS\GUI_X_OS.c ****   osMutexDef(MUTEX);
 199              	 .loc 1 134 3
 200 0006 0023     	 movs r3,#0
 201 0008 7B60     	 str r3,[r7,#4]
 135:C:\Users\niels\Documents\Elektrotechniek\Jaar 2\ECS\ECSL\software\STM32\STM32Basis\HAL\gemeenschappelijk\Libraries\Middlewares\ST\STemWin\OS\GUI_X_OS.c ****   
 136:C:\Users\niels\Documents\Elektrotechniek\Jaar 2\ECS\ECSL\software\STM32\STM32Basis\HAL\gemeenschappelijk\Libraries\Middlewares\ST\STemWin\OS\GUI_X_OS.c ****   /* Create the Mutex used by the two threads */
 137:C:\Users\niels\Documents\Elektrotechniek\Jaar 2\ECS\ECSL\software\STM32\STM32Basis\HAL\gemeenschappelijk\Libraries\Middlewares\ST\STemWin\OS\GUI_X_OS.c ****   osMutex = osMutexCreate(osMutex(MUTEX));
 202              	 .loc 1 137 26
 203 000a 3B1D     	 adds r3,r7,#4
 204 000c 1846     	 mov r0,r3
 205 000e FFF7FEFF 	 bl osMutexCreate
ARM GAS   			page 7


 206 0012 0346     	 mov r3,r0
 207              	 .loc 1 137 11
 208 0014 074A     	 ldr r2,.L7
 209 0016 1360     	 str r3,[r2]
 138:C:\Users\niels\Documents\Elektrotechniek\Jaar 2\ECS\ECSL\software\STM32\STM32Basis\HAL\gemeenschappelijk\Libraries\Middlewares\ST\STemWin\OS\GUI_X_OS.c ****   
 139:C:\Users\niels\Documents\Elektrotechniek\Jaar 2\ECS\ECSL\software\STM32\STM32Basis\HAL\gemeenschappelijk\Libraries\Middlewares\ST\STemWin\OS\GUI_X_OS.c ****   /* Create Semaphore lock */
 140:C:\Users\niels\Documents\Elektrotechniek\Jaar 2\ECS\ECSL\software\STM32\STM32Basis\HAL\gemeenschappelijk\Libraries\Middlewares\ST\STemWin\OS\GUI_X_OS.c ****   osSemaphoreDef(SEM);
 210              	 .loc 1 140 3
 211 0018 0023     	 movs r3,#0
 212 001a 3B60     	 str r3,[r7]
 141:C:\Users\niels\Documents\Elektrotechniek\Jaar 2\ECS\ECSL\software\STM32\STM32Basis\HAL\gemeenschappelijk\Libraries\Middlewares\ST\STemWin\OS\GUI_X_OS.c ****   
 142:C:\Users\niels\Documents\Elektrotechniek\Jaar 2\ECS\ECSL\software\STM32\STM32Basis\HAL\gemeenschappelijk\Libraries\Middlewares\ST\STemWin\OS\GUI_X_OS.c ****   /* Create the Semaphore used by the two threads */
 143:C:\Users\niels\Documents\Elektrotechniek\Jaar 2\ECS\ECSL\software\STM32\STM32Basis\HAL\gemeenschappelijk\Libraries\Middlewares\ST\STemWin\OS\GUI_X_OS.c ****   osSemaphore= osSemaphoreCreate(osSemaphore(SEM), 1);  
 213              	 .loc 1 143 33
 214 001c 3B46     	 mov r3,r7
 215 001e 0121     	 movs r1,#1
 216 0020 1846     	 mov r0,r3
 217 0022 FFF7FEFF 	 bl osSemaphoreCreate
 218 0026 0346     	 mov r3,r0
 219              	 .loc 1 143 14
 220 0028 034A     	 ldr r2,.L7+4
 221 002a 1360     	 str r3,[r2]
 144:C:\Users\niels\Documents\Elektrotechniek\Jaar 2\ECS\ECSL\software\STM32\STM32Basis\HAL\gemeenschappelijk\Libraries\Middlewares\ST\STemWin\OS\GUI_X_OS.c **** }
 222              	 .loc 1 144 1
 223 002c 00BF     	 nop
 224 002e 0837     	 adds r7,r7,#8
 225              	 .cfi_def_cfa_offset 8
 226 0030 BD46     	 mov sp,r7
 227              	 .cfi_def_cfa_register 13
 228              	 
 229 0032 80BD     	 pop {r7,pc}
 230              	.L8:
 231              	 .align 2
 232              	.L7:
 233 0034 00000000 	 .word _ZL7osMutex
 234 0038 00000000 	 .word _ZL11osSemaphore
 235              	 .cfi_endproc
 236              	.LFE33:
 237              	 .fnend
 238              	 .size GUI_X_InitOS,.-GUI_X_InitOS
 239              	 .section .text.GUI_X_Unlock,"ax",%progbits
 240              	 .align 1
 241              	 .global GUI_X_Unlock
 242              	 .syntax unified
 243              	 .thumb
 244              	 .thumb_func
 245              	 .type GUI_X_Unlock,%function
 246              	GUI_X_Unlock:
 247              	 .fnstart
 248              	.LFB34:
 145:C:\Users\niels\Documents\Elektrotechniek\Jaar 2\ECS\ECSL\software\STM32\STM32Basis\HAL\gemeenschappelijk\Libraries\Middlewares\ST\STemWin\OS\GUI_X_OS.c **** 
 146:C:\Users\niels\Documents\Elektrotechniek\Jaar 2\ECS\ECSL\software\STM32\STM32Basis\HAL\gemeenschappelijk\Libraries\Middlewares\ST\STemWin\OS\GUI_X_OS.c **** void GUI_X_Unlock(void)
 147:C:\Users\niels\Documents\Elektrotechniek\Jaar 2\ECS\ECSL\software\STM32\STM32Basis\HAL\gemeenschappelijk\Libraries\Middlewares\ST\STemWin\OS\GUI_X_OS.c **** { 
 249              	 .loc 1 147 1
 250              	 .cfi_startproc
 251              	 
 252              	 
ARM GAS   			page 8


 253 0000 80B5     	 push {r7,lr}
 254              	 .save {r7,lr}
 255              	 .cfi_def_cfa_offset 8
 256              	 .cfi_offset 7,-8
 257              	 .cfi_offset 14,-4
 258              	 .setfp r7,sp,#0
 259 0002 00AF     	 add r7,sp,#0
 260              	 .cfi_def_cfa_register 7
 148:C:\Users\niels\Documents\Elektrotechniek\Jaar 2\ECS\ECSL\software\STM32\STM32Basis\HAL\gemeenschappelijk\Libraries\Middlewares\ST\STemWin\OS\GUI_X_OS.c ****   osMutexRelease(osMutex);
 261              	 .loc 1 148 17
 262 0004 034B     	 ldr r3,.L10
 263 0006 1B68     	 ldr r3,[r3]
 264 0008 1846     	 mov r0,r3
 265 000a FFF7FEFF 	 bl osMutexRelease
 149:C:\Users\niels\Documents\Elektrotechniek\Jaar 2\ECS\ECSL\software\STM32\STM32Basis\HAL\gemeenschappelijk\Libraries\Middlewares\ST\STemWin\OS\GUI_X_OS.c **** }
 266              	 .loc 1 149 1
 267 000e 00BF     	 nop
 268 0010 80BD     	 pop {r7,pc}
 269              	.L11:
 270 0012 00BF     	 .align 2
 271              	.L10:
 272 0014 00000000 	 .word _ZL7osMutex
 273              	 .cfi_endproc
 274              	.LFE34:
 275              	 .fnend
 276              	 .size GUI_X_Unlock,.-GUI_X_Unlock
 277              	 .section .text.GUI_X_Lock,"ax",%progbits
 278              	 .align 1
 279              	 .global GUI_X_Lock
 280              	 .syntax unified
 281              	 .thumb
 282              	 .thumb_func
 283              	 .type GUI_X_Lock,%function
 284              	GUI_X_Lock:
 285              	 .fnstart
 286              	.LFB35:
 150:C:\Users\niels\Documents\Elektrotechniek\Jaar 2\ECS\ECSL\software\STM32\STM32Basis\HAL\gemeenschappelijk\Libraries\Middlewares\ST\STemWin\OS\GUI_X_OS.c **** 
 151:C:\Users\niels\Documents\Elektrotechniek\Jaar 2\ECS\ECSL\software\STM32\STM32Basis\HAL\gemeenschappelijk\Libraries\Middlewares\ST\STemWin\OS\GUI_X_OS.c **** void GUI_X_Lock(void)
 152:C:\Users\niels\Documents\Elektrotechniek\Jaar 2\ECS\ECSL\software\STM32\STM32Basis\HAL\gemeenschappelijk\Libraries\Middlewares\ST\STemWin\OS\GUI_X_OS.c **** {
 287              	 .loc 1 152 1
 288              	 .cfi_startproc
 289              	 
 290              	 
 291 0000 80B5     	 push {r7,lr}
 292              	 .save {r7,lr}
 293              	 .cfi_def_cfa_offset 8
 294              	 .cfi_offset 7,-8
 295              	 .cfi_offset 14,-4
 296              	 .setfp r7,sp,#0
 297 0002 00AF     	 add r7,sp,#0
 298              	 .cfi_def_cfa_register 7
 153:C:\Users\niels\Documents\Elektrotechniek\Jaar 2\ECS\ECSL\software\STM32\STM32Basis\HAL\gemeenschappelijk\Libraries\Middlewares\ST\STemWin\OS\GUI_X_OS.c ****   osMutexWait(osMutex , osWaitForever) ;
 299              	 .loc 1 153 14
 300 0004 044B     	 ldr r3,.L13
 301 0006 1B68     	 ldr r3,[r3]
 302 0008 4FF0FF31 	 mov r1,#-1
 303 000c 1846     	 mov r0,r3
ARM GAS   			page 9


 304 000e FFF7FEFF 	 bl osMutexWait
 154:C:\Users\niels\Documents\Elektrotechniek\Jaar 2\ECS\ECSL\software\STM32\STM32Basis\HAL\gemeenschappelijk\Libraries\Middlewares\ST\STemWin\OS\GUI_X_OS.c **** }
 305              	 .loc 1 154 1
 306 0012 00BF     	 nop
 307 0014 80BD     	 pop {r7,pc}
 308              	.L14:
 309 0016 00BF     	 .align 2
 310              	.L13:
 311 0018 00000000 	 .word _ZL7osMutex
 312              	 .cfi_endproc
 313              	.LFE35:
 314              	 .fnend
 315              	 .size GUI_X_Lock,.-GUI_X_Lock
 316              	 .section .text.GUI_X_GetTaskId,"ax",%progbits
 317              	 .align 1
 318              	 .global GUI_X_GetTaskId
 319              	 .syntax unified
 320              	 .thumb
 321              	 .thumb_func
 322              	 .type GUI_X_GetTaskId,%function
 323              	GUI_X_GetTaskId:
 324              	 .fnstart
 325              	.LFB36:
 155:C:\Users\niels\Documents\Elektrotechniek\Jaar 2\ECS\ECSL\software\STM32\STM32Basis\HAL\gemeenschappelijk\Libraries\Middlewares\ST\STemWin\OS\GUI_X_OS.c **** 
 156:C:\Users\niels\Documents\Elektrotechniek\Jaar 2\ECS\ECSL\software\STM32\STM32Basis\HAL\gemeenschappelijk\Libraries\Middlewares\ST\STemWin\OS\GUI_X_OS.c **** /* Get Task handle */
 157:C:\Users\niels\Documents\Elektrotechniek\Jaar 2\ECS\ECSL\software\STM32\STM32Basis\HAL\gemeenschappelijk\Libraries\Middlewares\ST\STemWin\OS\GUI_X_OS.c **** U32 GUI_X_GetTaskId(void) 
 158:C:\Users\niels\Documents\Elektrotechniek\Jaar 2\ECS\ECSL\software\STM32\STM32Basis\HAL\gemeenschappelijk\Libraries\Middlewares\ST\STemWin\OS\GUI_X_OS.c **** { 
 326              	 .loc 1 158 1
 327              	 .cfi_startproc
 328              	 
 329              	 
 330 0000 80B5     	 push {r7,lr}
 331              	 .save {r7,lr}
 332              	 .cfi_def_cfa_offset 8
 333              	 .cfi_offset 7,-8
 334              	 .cfi_offset 14,-4
 335              	 .setfp r7,sp,#0
 336 0002 00AF     	 add r7,sp,#0
 337              	 .cfi_def_cfa_register 7
 159:C:\Users\niels\Documents\Elektrotechniek\Jaar 2\ECS\ECSL\software\STM32\STM32Basis\HAL\gemeenschappelijk\Libraries\Middlewares\ST\STemWin\OS\GUI_X_OS.c ****   return ((U32) osThreadGetId());
 338              	 .loc 1 159 30
 339 0004 FFF7FEFF 	 bl osThreadGetId
 340 0008 0346     	 mov r3,r0
 160:C:\Users\niels\Documents\Elektrotechniek\Jaar 2\ECS\ECSL\software\STM32\STM32Basis\HAL\gemeenschappelijk\Libraries\Middlewares\ST\STemWin\OS\GUI_X_OS.c **** }
 341              	 .loc 1 160 1
 342 000a 1846     	 mov r0,r3
 343 000c 80BD     	 pop {r7,pc}
 344              	 .cfi_endproc
 345              	.LFE36:
 346              	 .fnend
 347              	 .size GUI_X_GetTaskId,.-GUI_X_GetTaskId
 348              	 .section .text.GUI_X_WaitEvent,"ax",%progbits
 349              	 .align 1
 350              	 .global GUI_X_WaitEvent
 351              	 .syntax unified
 352              	 .thumb
 353              	 .thumb_func
ARM GAS   			page 10


 354              	 .type GUI_X_WaitEvent,%function
 355              	GUI_X_WaitEvent:
 356              	 .fnstart
 357              	.LFB37:
 161:C:\Users\niels\Documents\Elektrotechniek\Jaar 2\ECS\ECSL\software\STM32\STM32Basis\HAL\gemeenschappelijk\Libraries\Middlewares\ST\STemWin\OS\GUI_X_OS.c **** 
 162:C:\Users\niels\Documents\Elektrotechniek\Jaar 2\ECS\ECSL\software\STM32\STM32Basis\HAL\gemeenschappelijk\Libraries\Middlewares\ST\STemWin\OS\GUI_X_OS.c **** 
 163:C:\Users\niels\Documents\Elektrotechniek\Jaar 2\ECS\ECSL\software\STM32\STM32Basis\HAL\gemeenschappelijk\Libraries\Middlewares\ST\STemWin\OS\GUI_X_OS.c **** void GUI_X_WaitEvent (void) 
 164:C:\Users\niels\Documents\Elektrotechniek\Jaar 2\ECS\ECSL\software\STM32\STM32Basis\HAL\gemeenschappelijk\Libraries\Middlewares\ST\STemWin\OS\GUI_X_OS.c **** {
 358              	 .loc 1 164 1
 359              	 .cfi_startproc
 360              	 
 361              	 
 362 0000 80B5     	 push {r7,lr}
 363              	 .save {r7,lr}
 364              	 .cfi_def_cfa_offset 8
 365              	 .cfi_offset 7,-8
 366              	 .cfi_offset 14,-4
 367              	 .setfp r7,sp,#0
 368 0002 00AF     	 add r7,sp,#0
 369              	 .cfi_def_cfa_register 7
 165:C:\Users\niels\Documents\Elektrotechniek\Jaar 2\ECS\ECSL\software\STM32\STM32Basis\HAL\gemeenschappelijk\Libraries\Middlewares\ST\STemWin\OS\GUI_X_OS.c ****   osSemaphoreWait(osSemaphore , osWaitForever) ;
 370              	 .loc 1 165 18
 371 0004 044B     	 ldr r3,.L18
 372 0006 1B68     	 ldr r3,[r3]
 373 0008 4FF0FF31 	 mov r1,#-1
 374 000c 1846     	 mov r0,r3
 375 000e FFF7FEFF 	 bl osSemaphoreWait
 166:C:\Users\niels\Documents\Elektrotechniek\Jaar 2\ECS\ECSL\software\STM32\STM32Basis\HAL\gemeenschappelijk\Libraries\Middlewares\ST\STemWin\OS\GUI_X_OS.c **** }
 376              	 .loc 1 166 1
 377 0012 00BF     	 nop
 378 0014 80BD     	 pop {r7,pc}
 379              	.L19:
 380 0016 00BF     	 .align 2
 381              	.L18:
 382 0018 00000000 	 .word _ZL11osSemaphore
 383              	 .cfi_endproc
 384              	.LFE37:
 385              	 .fnend
 386              	 .size GUI_X_WaitEvent,.-GUI_X_WaitEvent
 387              	 .section .text.GUI_X_SignalEvent,"ax",%progbits
 388              	 .align 1
 389              	 .global GUI_X_SignalEvent
 390              	 .syntax unified
 391              	 .thumb
 392              	 .thumb_func
 393              	 .type GUI_X_SignalEvent,%function
 394              	GUI_X_SignalEvent:
 395              	 .fnstart
 396              	.LFB38:
 167:C:\Users\niels\Documents\Elektrotechniek\Jaar 2\ECS\ECSL\software\STM32\STM32Basis\HAL\gemeenschappelijk\Libraries\Middlewares\ST\STemWin\OS\GUI_X_OS.c **** 
 168:C:\Users\niels\Documents\Elektrotechniek\Jaar 2\ECS\ECSL\software\STM32\STM32Basis\HAL\gemeenschappelijk\Libraries\Middlewares\ST\STemWin\OS\GUI_X_OS.c **** 
 169:C:\Users\niels\Documents\Elektrotechniek\Jaar 2\ECS\ECSL\software\STM32\STM32Basis\HAL\gemeenschappelijk\Libraries\Middlewares\ST\STemWin\OS\GUI_X_OS.c **** void GUI_X_SignalEvent (void) 
 170:C:\Users\niels\Documents\Elektrotechniek\Jaar 2\ECS\ECSL\software\STM32\STM32Basis\HAL\gemeenschappelijk\Libraries\Middlewares\ST\STemWin\OS\GUI_X_OS.c **** {
 397              	 .loc 1 170 1
 398              	 .cfi_startproc
 399              	 
 400              	 
ARM GAS   			page 11


 401 0000 80B5     	 push {r7,lr}
 402              	 .save {r7,lr}
 403              	 .cfi_def_cfa_offset 8
 404              	 .cfi_offset 7,-8
 405              	 .cfi_offset 14,-4
 406              	 .setfp r7,sp,#0
 407 0002 00AF     	 add r7,sp,#0
 408              	 .cfi_def_cfa_register 7
 171:C:\Users\niels\Documents\Elektrotechniek\Jaar 2\ECS\ECSL\software\STM32\STM32Basis\HAL\gemeenschappelijk\Libraries\Middlewares\ST\STemWin\OS\GUI_X_OS.c ****   osMutexRelease(osSemaphore);
 409              	 .loc 1 171 17
 410 0004 034B     	 ldr r3,.L21
 411 0006 1B68     	 ldr r3,[r3]
 412 0008 1846     	 mov r0,r3
 413 000a FFF7FEFF 	 bl osMutexRelease
 172:C:\Users\niels\Documents\Elektrotechniek\Jaar 2\ECS\ECSL\software\STM32\STM32Basis\HAL\gemeenschappelijk\Libraries\Middlewares\ST\STemWin\OS\GUI_X_OS.c **** }
 414              	 .loc 1 172 1
 415 000e 00BF     	 nop
 416 0010 80BD     	 pop {r7,pc}
 417              	.L22:
 418 0012 00BF     	 .align 2
 419              	.L21:
 420 0014 00000000 	 .word _ZL11osSemaphore
 421              	 .cfi_endproc
 422              	.LFE38:
 423              	 .fnend
 424              	 .size GUI_X_SignalEvent,.-GUI_X_SignalEvent
 425              	 .section .text.GUI_X_Log,"ax",%progbits
 426              	 .align 1
 427              	 .global GUI_X_Log
 428              	 .syntax unified
 429              	 .thumb
 430              	 .thumb_func
 431              	 .type GUI_X_Log,%function
 432              	GUI_X_Log:
 433              	 .fnstart
 434              	.LFB39:
 173:C:\Users\niels\Documents\Elektrotechniek\Jaar 2\ECS\ECSL\software\STM32\STM32Basis\HAL\gemeenschappelijk\Libraries\Middlewares\ST\STemWin\OS\GUI_X_OS.c **** 
 174:C:\Users\niels\Documents\Elektrotechniek\Jaar 2\ECS\ECSL\software\STM32\STM32Basis\HAL\gemeenschappelijk\Libraries\Middlewares\ST\STemWin\OS\GUI_X_OS.c **** /*********************************************************************
 175:C:\Users\niels\Documents\Elektrotechniek\Jaar 2\ECS\ECSL\software\STM32\STM32Basis\HAL\gemeenschappelijk\Libraries\Middlewares\ST\STemWin\OS\GUI_X_OS.c **** *
 176:C:\Users\niels\Documents\Elektrotechniek\Jaar 2\ECS\ECSL\software\STM32\STM32Basis\HAL\gemeenschappelijk\Libraries\Middlewares\ST\STemWin\OS\GUI_X_OS.c **** * Logging: OS dependent
 177:C:\Users\niels\Documents\Elektrotechniek\Jaar 2\ECS\ECSL\software\STM32\STM32Basis\HAL\gemeenschappelijk\Libraries\Middlewares\ST\STemWin\OS\GUI_X_OS.c **** 
 178:C:\Users\niels\Documents\Elektrotechniek\Jaar 2\ECS\ECSL\software\STM32\STM32Basis\HAL\gemeenschappelijk\Libraries\Middlewares\ST\STemWin\OS\GUI_X_OS.c **** Note:
 179:C:\Users\niels\Documents\Elektrotechniek\Jaar 2\ECS\ECSL\software\STM32\STM32Basis\HAL\gemeenschappelijk\Libraries\Middlewares\ST\STemWin\OS\GUI_X_OS.c **** Logging is used in higher debug levels only. The typical target
 180:C:\Users\niels\Documents\Elektrotechniek\Jaar 2\ECS\ECSL\software\STM32\STM32Basis\HAL\gemeenschappelijk\Libraries\Middlewares\ST\STemWin\OS\GUI_X_OS.c **** build does not use logging and does therefor not require any of
 181:C:\Users\niels\Documents\Elektrotechniek\Jaar 2\ECS\ECSL\software\STM32\STM32Basis\HAL\gemeenschappelijk\Libraries\Middlewares\ST\STemWin\OS\GUI_X_OS.c **** the logging routines below. For a release build without logging
 182:C:\Users\niels\Documents\Elektrotechniek\Jaar 2\ECS\ECSL\software\STM32\STM32Basis\HAL\gemeenschappelijk\Libraries\Middlewares\ST\STemWin\OS\GUI_X_OS.c **** the routines below may be eliminated to save some space.
 183:C:\Users\niels\Documents\Elektrotechniek\Jaar 2\ECS\ECSL\software\STM32\STM32Basis\HAL\gemeenschappelijk\Libraries\Middlewares\ST\STemWin\OS\GUI_X_OS.c **** (If the linker is not function aware and eliminates unreferenced
 184:C:\Users\niels\Documents\Elektrotechniek\Jaar 2\ECS\ECSL\software\STM32\STM32Basis\HAL\gemeenschappelijk\Libraries\Middlewares\ST\STemWin\OS\GUI_X_OS.c **** functions automatically)
 185:C:\Users\niels\Documents\Elektrotechniek\Jaar 2\ECS\ECSL\software\STM32\STM32Basis\HAL\gemeenschappelijk\Libraries\Middlewares\ST\STemWin\OS\GUI_X_OS.c **** 
 186:C:\Users\niels\Documents\Elektrotechniek\Jaar 2\ECS\ECSL\software\STM32\STM32Basis\HAL\gemeenschappelijk\Libraries\Middlewares\ST\STemWin\OS\GUI_X_OS.c **** */
 187:C:\Users\niels\Documents\Elektrotechniek\Jaar 2\ECS\ECSL\software\STM32\STM32Basis\HAL\gemeenschappelijk\Libraries\Middlewares\ST\STemWin\OS\GUI_X_OS.c **** 
 188:C:\Users\niels\Documents\Elektrotechniek\Jaar 2\ECS\ECSL\software\STM32\STM32Basis\HAL\gemeenschappelijk\Libraries\Middlewares\ST\STemWin\OS\GUI_X_OS.c **** void GUI_X_Log (const char *s) { }
 435              	 .loc 1 188 32
 436              	 .cfi_startproc
 437              	 
 438              	 
 439              	 
ARM GAS   			page 12


 440 0000 80B4     	 push {r7}
 441              	 .cfi_def_cfa_offset 4
 442              	 .cfi_offset 7,-4
 443 0002 83B0     	 sub sp,sp,#12
 444              	 .cfi_def_cfa_offset 16
 445 0004 00AF     	 add r7,sp,#0
 446              	 .cfi_def_cfa_register 7
 447 0006 7860     	 str r0,[r7,#4]
 448              	 .loc 1 188 34
 449 0008 00BF     	 nop
 450 000a 0C37     	 adds r7,r7,#12
 451              	 .cfi_def_cfa_offset 4
 452 000c BD46     	 mov sp,r7
 453              	 .cfi_def_cfa_register 13
 454              	 
 455 000e 5DF8047B 	 ldr r7,[sp],#4
 456              	 .cfi_restore 7
 457              	 .cfi_def_cfa_offset 0
 458 0012 7047     	 bx lr
 459              	 .cfi_endproc
 460              	.LFE39:
 461              	 .cantunwind
 462              	 .fnend
 463              	 .size GUI_X_Log,.-GUI_X_Log
 464              	 .section .text.GUI_X_Warn,"ax",%progbits
 465              	 .align 1
 466              	 .global GUI_X_Warn
 467              	 .syntax unified
 468              	 .thumb
 469              	 .thumb_func
 470              	 .type GUI_X_Warn,%function
 471              	GUI_X_Warn:
 472              	 .fnstart
 473              	.LFB40:
 189:C:\Users\niels\Documents\Elektrotechniek\Jaar 2\ECS\ECSL\software\STM32\STM32Basis\HAL\gemeenschappelijk\Libraries\Middlewares\ST\STemWin\OS\GUI_X_OS.c **** void GUI_X_Warn (const char *s) { }
 474              	 .loc 1 189 33
 475              	 .cfi_startproc
 476              	 
 477              	 
 478              	 
 479 0000 80B4     	 push {r7}
 480              	 .cfi_def_cfa_offset 4
 481              	 .cfi_offset 7,-4
 482 0002 83B0     	 sub sp,sp,#12
 483              	 .cfi_def_cfa_offset 16
 484 0004 00AF     	 add r7,sp,#0
 485              	 .cfi_def_cfa_register 7
 486 0006 7860     	 str r0,[r7,#4]
 487              	 .loc 1 189 35
 488 0008 00BF     	 nop
 489 000a 0C37     	 adds r7,r7,#12
 490              	 .cfi_def_cfa_offset 4
 491 000c BD46     	 mov sp,r7
 492              	 .cfi_def_cfa_register 13
 493              	 
 494 000e 5DF8047B 	 ldr r7,[sp],#4
 495              	 .cfi_restore 7
ARM GAS   			page 13


 496              	 .cfi_def_cfa_offset 0
 497 0012 7047     	 bx lr
 498              	 .cfi_endproc
 499              	.LFE40:
 500              	 .cantunwind
 501              	 .fnend
 502              	 .size GUI_X_Warn,.-GUI_X_Warn
 503              	 .section .text.GUI_X_ErrorOut,"ax",%progbits
 504              	 .align 1
 505              	 .global GUI_X_ErrorOut
 506              	 .syntax unified
 507              	 .thumb
 508              	 .thumb_func
 509              	 .type GUI_X_ErrorOut,%function
 510              	GUI_X_ErrorOut:
 511              	 .fnstart
 512              	.LFB41:
 190:C:\Users\niels\Documents\Elektrotechniek\Jaar 2\ECS\ECSL\software\STM32\STM32Basis\HAL\gemeenschappelijk\Libraries\Middlewares\ST\STemWin\OS\GUI_X_OS.c **** void GUI_X_ErrorOut(const char *s) { }
 513              	 .loc 1 190 36
 514              	 .cfi_startproc
 515              	 
 516              	 
 517              	 
 518 0000 80B4     	 push {r7}
 519              	 .cfi_def_cfa_offset 4
 520              	 .cfi_offset 7,-4
 521 0002 83B0     	 sub sp,sp,#12
 522              	 .cfi_def_cfa_offset 16
 523 0004 00AF     	 add r7,sp,#0
 524              	 .cfi_def_cfa_register 7
 525 0006 7860     	 str r0,[r7,#4]
 526              	 .loc 1 190 38
 527 0008 00BF     	 nop
 528 000a 0C37     	 adds r7,r7,#12
 529              	 .cfi_def_cfa_offset 4
 530 000c BD46     	 mov sp,r7
 531              	 .cfi_def_cfa_register 13
 532              	 
 533 000e 5DF8047B 	 ldr r7,[sp],#4
 534              	 .cfi_restore 7
 535              	 .cfi_def_cfa_offset 0
 536 0012 7047     	 bx lr
 537              	 .cfi_endproc
 538              	.LFE41:
 539              	 .cantunwind
 540              	 .fnend
 541              	 .size GUI_X_ErrorOut,.-GUI_X_ErrorOut
 542              	 .text
 543              	.Letext0:
 544              	 .file 2 "c:\\progra~2\\gnuarm~1\\102021~1.10\\arm-none-eabi\\include\\machine\\_default_types.h"
 545              	 .file 3 "c:\\progra~2\\gnuarm~1\\102021~1.10\\arm-none-eabi\\include\\sys\\_stdint.h"
 546              	 .file 4 "C:/Users/niels/DOCUME~1/ELEKTR~1/JAAR2~1/ECS/ECSL/software/STM32/STM32B~1/HAL/GEMEEN~1/THIRD_~1/FreeRTOS/Source/include/queue.h"
 547              	 .file 5 "C:/Users/niels/DOCUME~1/ELEKTR~1/JAAR2~1/ECS/ECSL/software/STM32/STM32B~1/HAL/GEMEEN~1/THIRD_~1/FreeRTOS/Source/include/semphr.h"
 548              	 .file 6 "C:/Users/niels/DOCUME~1/ELEKTR~1/JAAR2~1/ECS/ECSL/software/STM32/STM32B~1/HAL/GEMEEN~1/THIRD_~1/FreeRTOS/Source/CMSIS_~1/cmsis_os.h"