ARM GAS   			page 1


   1              	 .cpu cortex-m4
   2              	 .arch armv7e-m
   3              	 .fpu fpv4-sp-d16
   4              	 .eabi_attribute 27,1
   5              	 .eabi_attribute 28,1
   6              	 .eabi_attribute 20,1
   7              	 .eabi_attribute 21,1
   8              	 .eabi_attribute 23,3
   9              	 .eabi_attribute 24,1
  10              	 .eabi_attribute 25,1
  11              	 .eabi_attribute 26,1
  12              	 .eabi_attribute 30,6
  13              	 .eabi_attribute 34,0
  14              	 .eabi_attribute 18,4
  15              	 .file "cread_write_lock.cpp"
  16              	 .text
  17              	.Ltext0:
  18              	 .cfi_sections .debug_frame
  19              	 .section .rodata._ZStL19piecewise_construct,"a"
  20              	 .align 2
  21              	 .type _ZStL19piecewise_construct,%object
  22              	 .size _ZStL19piecewise_construct,1
  23              	_ZStL19piecewise_construct:
  24 0000 00       	 .space 1
  25              	 .section .text._ZL20__gthread_key_deletei,"ax",%progbits
  26              	 .align 1
  27              	 .syntax unified
  28              	 .thumb
  29              	 .thumb_func
  30              	 .type _ZL20__gthread_key_deletei,%function
  31              	_ZL20__gthread_key_deletei:
  32              	.LFB602:
  33              	 .file 1 "c:\\progra~2\\gnuarm~1\\102021~1.10\\arm-none-eabi\\include\\c++\\10.3.1\\arm-none-eabi\\thumb\\v7e-m+fp\\hard\\bits\\gthr-default.h"
   1:c:\progra~2\gnuarm~1\102021~1.10\arm-none-eabi\include\c++\10.3.1\arm-none-eabi\thumb\v7e-m+fp\hard\bits\gthr-default.h **** /* Threads compatibility routines for libgcc2 and libobjc.  */
   2:c:\progra~2\gnuarm~1\102021~1.10\arm-none-eabi\include\c++\10.3.1\arm-none-eabi\thumb\v7e-m+fp\hard\bits\gthr-default.h **** /* Compile this one with gcc.  */
   3:c:\progra~2\gnuarm~1\102021~1.10\arm-none-eabi\include\c++\10.3.1\arm-none-eabi\thumb\v7e-m+fp\hard\bits\gthr-default.h **** /* Copyright (C) 1997-2020 Free Software Foundation, Inc.
   4:c:\progra~2\gnuarm~1\102021~1.10\arm-none-eabi\include\c++\10.3.1\arm-none-eabi\thumb\v7e-m+fp\hard\bits\gthr-default.h **** 
   5:c:\progra~2\gnuarm~1\102021~1.10\arm-none-eabi\include\c++\10.3.1\arm-none-eabi\thumb\v7e-m+fp\hard\bits\gthr-default.h **** This file is part of GCC.
   6:c:\progra~2\gnuarm~1\102021~1.10\arm-none-eabi\include\c++\10.3.1\arm-none-eabi\thumb\v7e-m+fp\hard\bits\gthr-default.h **** 
   7:c:\progra~2\gnuarm~1\102021~1.10\arm-none-eabi\include\c++\10.3.1\arm-none-eabi\thumb\v7e-m+fp\hard\bits\gthr-default.h **** GCC is free software; you can redistribute it and/or modify it under
   8:c:\progra~2\gnuarm~1\102021~1.10\arm-none-eabi\include\c++\10.3.1\arm-none-eabi\thumb\v7e-m+fp\hard\bits\gthr-default.h **** the terms of the GNU General Public License as published by the Free
   9:c:\progra~2\gnuarm~1\102021~1.10\arm-none-eabi\include\c++\10.3.1\arm-none-eabi\thumb\v7e-m+fp\hard\bits\gthr-default.h **** Software Foundation; either version 3, or (at your option) any later
  10:c:\progra~2\gnuarm~1\102021~1.10\arm-none-eabi\include\c++\10.3.1\arm-none-eabi\thumb\v7e-m+fp\hard\bits\gthr-default.h **** version.
  11:c:\progra~2\gnuarm~1\102021~1.10\arm-none-eabi\include\c++\10.3.1\arm-none-eabi\thumb\v7e-m+fp\hard\bits\gthr-default.h **** 
  12:c:\progra~2\gnuarm~1\102021~1.10\arm-none-eabi\include\c++\10.3.1\arm-none-eabi\thumb\v7e-m+fp\hard\bits\gthr-default.h **** GCC is distributed in the hope that it will be useful, but WITHOUT ANY
  13:c:\progra~2\gnuarm~1\102021~1.10\arm-none-eabi\include\c++\10.3.1\arm-none-eabi\thumb\v7e-m+fp\hard\bits\gthr-default.h **** WARRANTY; without even the implied warranty of MERCHANTABILITY or
  14:c:\progra~2\gnuarm~1\102021~1.10\arm-none-eabi\include\c++\10.3.1\arm-none-eabi\thumb\v7e-m+fp\hard\bits\gthr-default.h **** FITNESS FOR A PARTICULAR PURPOSE.  See the GNU General Public License
  15:c:\progra~2\gnuarm~1\102021~1.10\arm-none-eabi\include\c++\10.3.1\arm-none-eabi\thumb\v7e-m+fp\hard\bits\gthr-default.h **** for more details.
  16:c:\progra~2\gnuarm~1\102021~1.10\arm-none-eabi\include\c++\10.3.1\arm-none-eabi\thumb\v7e-m+fp\hard\bits\gthr-default.h **** 
  17:c:\progra~2\gnuarm~1\102021~1.10\arm-none-eabi\include\c++\10.3.1\arm-none-eabi\thumb\v7e-m+fp\hard\bits\gthr-default.h **** Under Section 7 of GPL version 3, you are granted additional
  18:c:\progra~2\gnuarm~1\102021~1.10\arm-none-eabi\include\c++\10.3.1\arm-none-eabi\thumb\v7e-m+fp\hard\bits\gthr-default.h **** permissions described in the GCC Runtime Library Exception, version
  19:c:\progra~2\gnuarm~1\102021~1.10\arm-none-eabi\include\c++\10.3.1\arm-none-eabi\thumb\v7e-m+fp\hard\bits\gthr-default.h **** 3.1, as published by the Free Software Foundation.
  20:c:\progra~2\gnuarm~1\102021~1.10\arm-none-eabi\include\c++\10.3.1\arm-none-eabi\thumb\v7e-m+fp\hard\bits\gthr-default.h **** 
  21:c:\progra~2\gnuarm~1\102021~1.10\arm-none-eabi\include\c++\10.3.1\arm-none-eabi\thumb\v7e-m+fp\hard\bits\gthr-default.h **** You should have received a copy of the GNU General Public License and
  22:c:\progra~2\gnuarm~1\102021~1.10\arm-none-eabi\include\c++\10.3.1\arm-none-eabi\thumb\v7e-m+fp\hard\bits\gthr-default.h **** a copy of the GCC Runtime Library Exception along with this program;
  23:c:\progra~2\gnuarm~1\102021~1.10\arm-none-eabi\include\c++\10.3.1\arm-none-eabi\thumb\v7e-m+fp\hard\bits\gthr-default.h **** see the files COPYING3 and COPYING.RUNTIME respectively.  If not, see
  24:c:\progra~2\gnuarm~1\102021~1.10\arm-none-eabi\include\c++\10.3.1\arm-none-eabi\thumb\v7e-m+fp\hard\bits\gthr-default.h **** <http://www.gnu.org/licenses/>.  */
ARM GAS   			page 2


  25:c:\progra~2\gnuarm~1\102021~1.10\arm-none-eabi\include\c++\10.3.1\arm-none-eabi\thumb\v7e-m+fp\hard\bits\gthr-default.h **** 
  26:c:\progra~2\gnuarm~1\102021~1.10\arm-none-eabi\include\c++\10.3.1\arm-none-eabi\thumb\v7e-m+fp\hard\bits\gthr-default.h **** #ifndef _GLIBCXX_GCC_GTHR_SINGLE_H
  27:c:\progra~2\gnuarm~1\102021~1.10\arm-none-eabi\include\c++\10.3.1\arm-none-eabi\thumb\v7e-m+fp\hard\bits\gthr-default.h **** #define _GLIBCXX_GCC_GTHR_SINGLE_H
  28:c:\progra~2\gnuarm~1\102021~1.10\arm-none-eabi\include\c++\10.3.1\arm-none-eabi\thumb\v7e-m+fp\hard\bits\gthr-default.h **** 
  29:c:\progra~2\gnuarm~1\102021~1.10\arm-none-eabi\include\c++\10.3.1\arm-none-eabi\thumb\v7e-m+fp\hard\bits\gthr-default.h **** /* Just provide compatibility for mutex handling.  */
  30:c:\progra~2\gnuarm~1\102021~1.10\arm-none-eabi\include\c++\10.3.1\arm-none-eabi\thumb\v7e-m+fp\hard\bits\gthr-default.h **** 
  31:c:\progra~2\gnuarm~1\102021~1.10\arm-none-eabi\include\c++\10.3.1\arm-none-eabi\thumb\v7e-m+fp\hard\bits\gthr-default.h **** typedef int __gthread_key_t;
  32:c:\progra~2\gnuarm~1\102021~1.10\arm-none-eabi\include\c++\10.3.1\arm-none-eabi\thumb\v7e-m+fp\hard\bits\gthr-default.h **** typedef int __gthread_once_t;
  33:c:\progra~2\gnuarm~1\102021~1.10\arm-none-eabi\include\c++\10.3.1\arm-none-eabi\thumb\v7e-m+fp\hard\bits\gthr-default.h **** typedef int __gthread_mutex_t;
  34:c:\progra~2\gnuarm~1\102021~1.10\arm-none-eabi\include\c++\10.3.1\arm-none-eabi\thumb\v7e-m+fp\hard\bits\gthr-default.h **** typedef int __gthread_recursive_mutex_t;
  35:c:\progra~2\gnuarm~1\102021~1.10\arm-none-eabi\include\c++\10.3.1\arm-none-eabi\thumb\v7e-m+fp\hard\bits\gthr-default.h **** 
  36:c:\progra~2\gnuarm~1\102021~1.10\arm-none-eabi\include\c++\10.3.1\arm-none-eabi\thumb\v7e-m+fp\hard\bits\gthr-default.h **** #define __GTHREAD_ONCE_INIT 0
  37:c:\progra~2\gnuarm~1\102021~1.10\arm-none-eabi\include\c++\10.3.1\arm-none-eabi\thumb\v7e-m+fp\hard\bits\gthr-default.h **** #define __GTHREAD_MUTEX_INIT 0
  38:c:\progra~2\gnuarm~1\102021~1.10\arm-none-eabi\include\c++\10.3.1\arm-none-eabi\thumb\v7e-m+fp\hard\bits\gthr-default.h **** #define __GTHREAD_MUTEX_INIT_FUNCTION(mx) do {} while (0)
  39:c:\progra~2\gnuarm~1\102021~1.10\arm-none-eabi\include\c++\10.3.1\arm-none-eabi\thumb\v7e-m+fp\hard\bits\gthr-default.h **** #define __GTHREAD_RECURSIVE_MUTEX_INIT 0
  40:c:\progra~2\gnuarm~1\102021~1.10\arm-none-eabi\include\c++\10.3.1\arm-none-eabi\thumb\v7e-m+fp\hard\bits\gthr-default.h **** 
  41:c:\progra~2\gnuarm~1\102021~1.10\arm-none-eabi\include\c++\10.3.1\arm-none-eabi\thumb\v7e-m+fp\hard\bits\gthr-default.h **** #define _GLIBCXX_UNUSED __attribute__((__unused__))
  42:c:\progra~2\gnuarm~1\102021~1.10\arm-none-eabi\include\c++\10.3.1\arm-none-eabi\thumb\v7e-m+fp\hard\bits\gthr-default.h **** 
  43:c:\progra~2\gnuarm~1\102021~1.10\arm-none-eabi\include\c++\10.3.1\arm-none-eabi\thumb\v7e-m+fp\hard\bits\gthr-default.h **** #ifdef _LIBOBJC
  44:c:\progra~2\gnuarm~1\102021~1.10\arm-none-eabi\include\c++\10.3.1\arm-none-eabi\thumb\v7e-m+fp\hard\bits\gthr-default.h **** 
  45:c:\progra~2\gnuarm~1\102021~1.10\arm-none-eabi\include\c++\10.3.1\arm-none-eabi\thumb\v7e-m+fp\hard\bits\gthr-default.h **** /* Thread local storage for a single thread */
  46:c:\progra~2\gnuarm~1\102021~1.10\arm-none-eabi\include\c++\10.3.1\arm-none-eabi\thumb\v7e-m+fp\hard\bits\gthr-default.h **** static void *thread_local_storage = NULL;
  47:c:\progra~2\gnuarm~1\102021~1.10\arm-none-eabi\include\c++\10.3.1\arm-none-eabi\thumb\v7e-m+fp\hard\bits\gthr-default.h **** 
  48:c:\progra~2\gnuarm~1\102021~1.10\arm-none-eabi\include\c++\10.3.1\arm-none-eabi\thumb\v7e-m+fp\hard\bits\gthr-default.h **** /* Backend initialization functions */
  49:c:\progra~2\gnuarm~1\102021~1.10\arm-none-eabi\include\c++\10.3.1\arm-none-eabi\thumb\v7e-m+fp\hard\bits\gthr-default.h **** 
  50:c:\progra~2\gnuarm~1\102021~1.10\arm-none-eabi\include\c++\10.3.1\arm-none-eabi\thumb\v7e-m+fp\hard\bits\gthr-default.h **** /* Initialize the threads subsystem.  */
  51:c:\progra~2\gnuarm~1\102021~1.10\arm-none-eabi\include\c++\10.3.1\arm-none-eabi\thumb\v7e-m+fp\hard\bits\gthr-default.h **** static inline int
  52:c:\progra~2\gnuarm~1\102021~1.10\arm-none-eabi\include\c++\10.3.1\arm-none-eabi\thumb\v7e-m+fp\hard\bits\gthr-default.h **** __gthread_objc_init_thread_system (void)
  53:c:\progra~2\gnuarm~1\102021~1.10\arm-none-eabi\include\c++\10.3.1\arm-none-eabi\thumb\v7e-m+fp\hard\bits\gthr-default.h **** {
  54:c:\progra~2\gnuarm~1\102021~1.10\arm-none-eabi\include\c++\10.3.1\arm-none-eabi\thumb\v7e-m+fp\hard\bits\gthr-default.h ****   /* No thread support available */
  55:c:\progra~2\gnuarm~1\102021~1.10\arm-none-eabi\include\c++\10.3.1\arm-none-eabi\thumb\v7e-m+fp\hard\bits\gthr-default.h ****   return -1;
  56:c:\progra~2\gnuarm~1\102021~1.10\arm-none-eabi\include\c++\10.3.1\arm-none-eabi\thumb\v7e-m+fp\hard\bits\gthr-default.h **** }
  57:c:\progra~2\gnuarm~1\102021~1.10\arm-none-eabi\include\c++\10.3.1\arm-none-eabi\thumb\v7e-m+fp\hard\bits\gthr-default.h **** 
  58:c:\progra~2\gnuarm~1\102021~1.10\arm-none-eabi\include\c++\10.3.1\arm-none-eabi\thumb\v7e-m+fp\hard\bits\gthr-default.h **** /* Close the threads subsystem.  */
  59:c:\progra~2\gnuarm~1\102021~1.10\arm-none-eabi\include\c++\10.3.1\arm-none-eabi\thumb\v7e-m+fp\hard\bits\gthr-default.h **** static inline int
  60:c:\progra~2\gnuarm~1\102021~1.10\arm-none-eabi\include\c++\10.3.1\arm-none-eabi\thumb\v7e-m+fp\hard\bits\gthr-default.h **** __gthread_objc_close_thread_system (void)
  61:c:\progra~2\gnuarm~1\102021~1.10\arm-none-eabi\include\c++\10.3.1\arm-none-eabi\thumb\v7e-m+fp\hard\bits\gthr-default.h **** {
  62:c:\progra~2\gnuarm~1\102021~1.10\arm-none-eabi\include\c++\10.3.1\arm-none-eabi\thumb\v7e-m+fp\hard\bits\gthr-default.h ****   /* No thread support available */
  63:c:\progra~2\gnuarm~1\102021~1.10\arm-none-eabi\include\c++\10.3.1\arm-none-eabi\thumb\v7e-m+fp\hard\bits\gthr-default.h ****   return -1;
  64:c:\progra~2\gnuarm~1\102021~1.10\arm-none-eabi\include\c++\10.3.1\arm-none-eabi\thumb\v7e-m+fp\hard\bits\gthr-default.h **** }
  65:c:\progra~2\gnuarm~1\102021~1.10\arm-none-eabi\include\c++\10.3.1\arm-none-eabi\thumb\v7e-m+fp\hard\bits\gthr-default.h **** 
  66:c:\progra~2\gnuarm~1\102021~1.10\arm-none-eabi\include\c++\10.3.1\arm-none-eabi\thumb\v7e-m+fp\hard\bits\gthr-default.h **** /* Backend thread functions */
  67:c:\progra~2\gnuarm~1\102021~1.10\arm-none-eabi\include\c++\10.3.1\arm-none-eabi\thumb\v7e-m+fp\hard\bits\gthr-default.h **** 
  68:c:\progra~2\gnuarm~1\102021~1.10\arm-none-eabi\include\c++\10.3.1\arm-none-eabi\thumb\v7e-m+fp\hard\bits\gthr-default.h **** /* Create a new thread of execution.  */
  69:c:\progra~2\gnuarm~1\102021~1.10\arm-none-eabi\include\c++\10.3.1\arm-none-eabi\thumb\v7e-m+fp\hard\bits\gthr-default.h **** static inline objc_thread_t
  70:c:\progra~2\gnuarm~1\102021~1.10\arm-none-eabi\include\c++\10.3.1\arm-none-eabi\thumb\v7e-m+fp\hard\bits\gthr-default.h **** __gthread_objc_thread_detach (void (* func)(void *), void * arg _GLIBCXX_UNUSED)
  71:c:\progra~2\gnuarm~1\102021~1.10\arm-none-eabi\include\c++\10.3.1\arm-none-eabi\thumb\v7e-m+fp\hard\bits\gthr-default.h **** {
  72:c:\progra~2\gnuarm~1\102021~1.10\arm-none-eabi\include\c++\10.3.1\arm-none-eabi\thumb\v7e-m+fp\hard\bits\gthr-default.h ****   /* No thread support available */
  73:c:\progra~2\gnuarm~1\102021~1.10\arm-none-eabi\include\c++\10.3.1\arm-none-eabi\thumb\v7e-m+fp\hard\bits\gthr-default.h ****   return NULL;
  74:c:\progra~2\gnuarm~1\102021~1.10\arm-none-eabi\include\c++\10.3.1\arm-none-eabi\thumb\v7e-m+fp\hard\bits\gthr-default.h **** }
  75:c:\progra~2\gnuarm~1\102021~1.10\arm-none-eabi\include\c++\10.3.1\arm-none-eabi\thumb\v7e-m+fp\hard\bits\gthr-default.h **** 
  76:c:\progra~2\gnuarm~1\102021~1.10\arm-none-eabi\include\c++\10.3.1\arm-none-eabi\thumb\v7e-m+fp\hard\bits\gthr-default.h **** /* Set the current thread's priority.  */
  77:c:\progra~2\gnuarm~1\102021~1.10\arm-none-eabi\include\c++\10.3.1\arm-none-eabi\thumb\v7e-m+fp\hard\bits\gthr-default.h **** static inline int
  78:c:\progra~2\gnuarm~1\102021~1.10\arm-none-eabi\include\c++\10.3.1\arm-none-eabi\thumb\v7e-m+fp\hard\bits\gthr-default.h **** __gthread_objc_thread_set_priority (int priority _GLIBCXX_UNUSED)
  79:c:\progra~2\gnuarm~1\102021~1.10\arm-none-eabi\include\c++\10.3.1\arm-none-eabi\thumb\v7e-m+fp\hard\bits\gthr-default.h **** {
  80:c:\progra~2\gnuarm~1\102021~1.10\arm-none-eabi\include\c++\10.3.1\arm-none-eabi\thumb\v7e-m+fp\hard\bits\gthr-default.h ****   /* No thread support available */
  81:c:\progra~2\gnuarm~1\102021~1.10\arm-none-eabi\include\c++\10.3.1\arm-none-eabi\thumb\v7e-m+fp\hard\bits\gthr-default.h ****   return -1;
ARM GAS   			page 3


  82:c:\progra~2\gnuarm~1\102021~1.10\arm-none-eabi\include\c++\10.3.1\arm-none-eabi\thumb\v7e-m+fp\hard\bits\gthr-default.h **** }
  83:c:\progra~2\gnuarm~1\102021~1.10\arm-none-eabi\include\c++\10.3.1\arm-none-eabi\thumb\v7e-m+fp\hard\bits\gthr-default.h **** 
  84:c:\progra~2\gnuarm~1\102021~1.10\arm-none-eabi\include\c++\10.3.1\arm-none-eabi\thumb\v7e-m+fp\hard\bits\gthr-default.h **** /* Return the current thread's priority.  */
  85:c:\progra~2\gnuarm~1\102021~1.10\arm-none-eabi\include\c++\10.3.1\arm-none-eabi\thumb\v7e-m+fp\hard\bits\gthr-default.h **** static inline int
  86:c:\progra~2\gnuarm~1\102021~1.10\arm-none-eabi\include\c++\10.3.1\arm-none-eabi\thumb\v7e-m+fp\hard\bits\gthr-default.h **** __gthread_objc_thread_get_priority (void)
  87:c:\progra~2\gnuarm~1\102021~1.10\arm-none-eabi\include\c++\10.3.1\arm-none-eabi\thumb\v7e-m+fp\hard\bits\gthr-default.h **** {
  88:c:\progra~2\gnuarm~1\102021~1.10\arm-none-eabi\include\c++\10.3.1\arm-none-eabi\thumb\v7e-m+fp\hard\bits\gthr-default.h ****   return OBJC_THREAD_INTERACTIVE_PRIORITY;
  89:c:\progra~2\gnuarm~1\102021~1.10\arm-none-eabi\include\c++\10.3.1\arm-none-eabi\thumb\v7e-m+fp\hard\bits\gthr-default.h **** }
  90:c:\progra~2\gnuarm~1\102021~1.10\arm-none-eabi\include\c++\10.3.1\arm-none-eabi\thumb\v7e-m+fp\hard\bits\gthr-default.h **** 
  91:c:\progra~2\gnuarm~1\102021~1.10\arm-none-eabi\include\c++\10.3.1\arm-none-eabi\thumb\v7e-m+fp\hard\bits\gthr-default.h **** /* Yield our process time to another thread.  */
  92:c:\progra~2\gnuarm~1\102021~1.10\arm-none-eabi\include\c++\10.3.1\arm-none-eabi\thumb\v7e-m+fp\hard\bits\gthr-default.h **** static inline void
  93:c:\progra~2\gnuarm~1\102021~1.10\arm-none-eabi\include\c++\10.3.1\arm-none-eabi\thumb\v7e-m+fp\hard\bits\gthr-default.h **** __gthread_objc_thread_yield (void)
  94:c:\progra~2\gnuarm~1\102021~1.10\arm-none-eabi\include\c++\10.3.1\arm-none-eabi\thumb\v7e-m+fp\hard\bits\gthr-default.h **** {
  95:c:\progra~2\gnuarm~1\102021~1.10\arm-none-eabi\include\c++\10.3.1\arm-none-eabi\thumb\v7e-m+fp\hard\bits\gthr-default.h ****   return;
  96:c:\progra~2\gnuarm~1\102021~1.10\arm-none-eabi\include\c++\10.3.1\arm-none-eabi\thumb\v7e-m+fp\hard\bits\gthr-default.h **** }
  97:c:\progra~2\gnuarm~1\102021~1.10\arm-none-eabi\include\c++\10.3.1\arm-none-eabi\thumb\v7e-m+fp\hard\bits\gthr-default.h **** 
  98:c:\progra~2\gnuarm~1\102021~1.10\arm-none-eabi\include\c++\10.3.1\arm-none-eabi\thumb\v7e-m+fp\hard\bits\gthr-default.h **** /* Terminate the current thread.  */
  99:c:\progra~2\gnuarm~1\102021~1.10\arm-none-eabi\include\c++\10.3.1\arm-none-eabi\thumb\v7e-m+fp\hard\bits\gthr-default.h **** static inline int
 100:c:\progra~2\gnuarm~1\102021~1.10\arm-none-eabi\include\c++\10.3.1\arm-none-eabi\thumb\v7e-m+fp\hard\bits\gthr-default.h **** __gthread_objc_thread_exit (void)
 101:c:\progra~2\gnuarm~1\102021~1.10\arm-none-eabi\include\c++\10.3.1\arm-none-eabi\thumb\v7e-m+fp\hard\bits\gthr-default.h **** {
 102:c:\progra~2\gnuarm~1\102021~1.10\arm-none-eabi\include\c++\10.3.1\arm-none-eabi\thumb\v7e-m+fp\hard\bits\gthr-default.h ****   /* No thread support available */
 103:c:\progra~2\gnuarm~1\102021~1.10\arm-none-eabi\include\c++\10.3.1\arm-none-eabi\thumb\v7e-m+fp\hard\bits\gthr-default.h ****   /* Should we really exit the program */
 104:c:\progra~2\gnuarm~1\102021~1.10\arm-none-eabi\include\c++\10.3.1\arm-none-eabi\thumb\v7e-m+fp\hard\bits\gthr-default.h ****   /* exit (&__objc_thread_exit_status); */
 105:c:\progra~2\gnuarm~1\102021~1.10\arm-none-eabi\include\c++\10.3.1\arm-none-eabi\thumb\v7e-m+fp\hard\bits\gthr-default.h ****   return -1;
 106:c:\progra~2\gnuarm~1\102021~1.10\arm-none-eabi\include\c++\10.3.1\arm-none-eabi\thumb\v7e-m+fp\hard\bits\gthr-default.h **** }
 107:c:\progra~2\gnuarm~1\102021~1.10\arm-none-eabi\include\c++\10.3.1\arm-none-eabi\thumb\v7e-m+fp\hard\bits\gthr-default.h **** 
 108:c:\progra~2\gnuarm~1\102021~1.10\arm-none-eabi\include\c++\10.3.1\arm-none-eabi\thumb\v7e-m+fp\hard\bits\gthr-default.h **** /* Returns an integer value which uniquely describes a thread.  */
 109:c:\progra~2\gnuarm~1\102021~1.10\arm-none-eabi\include\c++\10.3.1\arm-none-eabi\thumb\v7e-m+fp\hard\bits\gthr-default.h **** static inline objc_thread_t
 110:c:\progra~2\gnuarm~1\102021~1.10\arm-none-eabi\include\c++\10.3.1\arm-none-eabi\thumb\v7e-m+fp\hard\bits\gthr-default.h **** __gthread_objc_thread_id (void)
 111:c:\progra~2\gnuarm~1\102021~1.10\arm-none-eabi\include\c++\10.3.1\arm-none-eabi\thumb\v7e-m+fp\hard\bits\gthr-default.h **** {
 112:c:\progra~2\gnuarm~1\102021~1.10\arm-none-eabi\include\c++\10.3.1\arm-none-eabi\thumb\v7e-m+fp\hard\bits\gthr-default.h ****   /* No thread support, use 1.  */
 113:c:\progra~2\gnuarm~1\102021~1.10\arm-none-eabi\include\c++\10.3.1\arm-none-eabi\thumb\v7e-m+fp\hard\bits\gthr-default.h ****   return (objc_thread_t) 1;
 114:c:\progra~2\gnuarm~1\102021~1.10\arm-none-eabi\include\c++\10.3.1\arm-none-eabi\thumb\v7e-m+fp\hard\bits\gthr-default.h **** }
 115:c:\progra~2\gnuarm~1\102021~1.10\arm-none-eabi\include\c++\10.3.1\arm-none-eabi\thumb\v7e-m+fp\hard\bits\gthr-default.h **** 
 116:c:\progra~2\gnuarm~1\102021~1.10\arm-none-eabi\include\c++\10.3.1\arm-none-eabi\thumb\v7e-m+fp\hard\bits\gthr-default.h **** /* Sets the thread's local storage pointer.  */
 117:c:\progra~2\gnuarm~1\102021~1.10\arm-none-eabi\include\c++\10.3.1\arm-none-eabi\thumb\v7e-m+fp\hard\bits\gthr-default.h **** static inline int
 118:c:\progra~2\gnuarm~1\102021~1.10\arm-none-eabi\include\c++\10.3.1\arm-none-eabi\thumb\v7e-m+fp\hard\bits\gthr-default.h **** __gthread_objc_thread_set_data (void *value)
 119:c:\progra~2\gnuarm~1\102021~1.10\arm-none-eabi\include\c++\10.3.1\arm-none-eabi\thumb\v7e-m+fp\hard\bits\gthr-default.h **** {
 120:c:\progra~2\gnuarm~1\102021~1.10\arm-none-eabi\include\c++\10.3.1\arm-none-eabi\thumb\v7e-m+fp\hard\bits\gthr-default.h ****   thread_local_storage = value;
 121:c:\progra~2\gnuarm~1\102021~1.10\arm-none-eabi\include\c++\10.3.1\arm-none-eabi\thumb\v7e-m+fp\hard\bits\gthr-default.h ****   return 0;
 122:c:\progra~2\gnuarm~1\102021~1.10\arm-none-eabi\include\c++\10.3.1\arm-none-eabi\thumb\v7e-m+fp\hard\bits\gthr-default.h **** }
 123:c:\progra~2\gnuarm~1\102021~1.10\arm-none-eabi\include\c++\10.3.1\arm-none-eabi\thumb\v7e-m+fp\hard\bits\gthr-default.h **** 
 124:c:\progra~2\gnuarm~1\102021~1.10\arm-none-eabi\include\c++\10.3.1\arm-none-eabi\thumb\v7e-m+fp\hard\bits\gthr-default.h **** /* Returns the thread's local storage pointer.  */
 125:c:\progra~2\gnuarm~1\102021~1.10\arm-none-eabi\include\c++\10.3.1\arm-none-eabi\thumb\v7e-m+fp\hard\bits\gthr-default.h **** static inline void *
 126:c:\progra~2\gnuarm~1\102021~1.10\arm-none-eabi\include\c++\10.3.1\arm-none-eabi\thumb\v7e-m+fp\hard\bits\gthr-default.h **** __gthread_objc_thread_get_data (void)
 127:c:\progra~2\gnuarm~1\102021~1.10\arm-none-eabi\include\c++\10.3.1\arm-none-eabi\thumb\v7e-m+fp\hard\bits\gthr-default.h **** {
 128:c:\progra~2\gnuarm~1\102021~1.10\arm-none-eabi\include\c++\10.3.1\arm-none-eabi\thumb\v7e-m+fp\hard\bits\gthr-default.h ****   return thread_local_storage;
 129:c:\progra~2\gnuarm~1\102021~1.10\arm-none-eabi\include\c++\10.3.1\arm-none-eabi\thumb\v7e-m+fp\hard\bits\gthr-default.h **** }
 130:c:\progra~2\gnuarm~1\102021~1.10\arm-none-eabi\include\c++\10.3.1\arm-none-eabi\thumb\v7e-m+fp\hard\bits\gthr-default.h **** 
 131:c:\progra~2\gnuarm~1\102021~1.10\arm-none-eabi\include\c++\10.3.1\arm-none-eabi\thumb\v7e-m+fp\hard\bits\gthr-default.h **** /* Backend mutex functions */
 132:c:\progra~2\gnuarm~1\102021~1.10\arm-none-eabi\include\c++\10.3.1\arm-none-eabi\thumb\v7e-m+fp\hard\bits\gthr-default.h **** 
 133:c:\progra~2\gnuarm~1\102021~1.10\arm-none-eabi\include\c++\10.3.1\arm-none-eabi\thumb\v7e-m+fp\hard\bits\gthr-default.h **** /* Allocate a mutex.  */
 134:c:\progra~2\gnuarm~1\102021~1.10\arm-none-eabi\include\c++\10.3.1\arm-none-eabi\thumb\v7e-m+fp\hard\bits\gthr-default.h **** static inline int
 135:c:\progra~2\gnuarm~1\102021~1.10\arm-none-eabi\include\c++\10.3.1\arm-none-eabi\thumb\v7e-m+fp\hard\bits\gthr-default.h **** __gthread_objc_mutex_allocate (objc_mutex_t mutex _GLIBCXX_UNUSED)
 136:c:\progra~2\gnuarm~1\102021~1.10\arm-none-eabi\include\c++\10.3.1\arm-none-eabi\thumb\v7e-m+fp\hard\bits\gthr-default.h **** {
 137:c:\progra~2\gnuarm~1\102021~1.10\arm-none-eabi\include\c++\10.3.1\arm-none-eabi\thumb\v7e-m+fp\hard\bits\gthr-default.h ****   return 0;
 138:c:\progra~2\gnuarm~1\102021~1.10\arm-none-eabi\include\c++\10.3.1\arm-none-eabi\thumb\v7e-m+fp\hard\bits\gthr-default.h **** }
ARM GAS   			page 4


 139:c:\progra~2\gnuarm~1\102021~1.10\arm-none-eabi\include\c++\10.3.1\arm-none-eabi\thumb\v7e-m+fp\hard\bits\gthr-default.h **** 
 140:c:\progra~2\gnuarm~1\102021~1.10\arm-none-eabi\include\c++\10.3.1\arm-none-eabi\thumb\v7e-m+fp\hard\bits\gthr-default.h **** /* Deallocate a mutex.  */
 141:c:\progra~2\gnuarm~1\102021~1.10\arm-none-eabi\include\c++\10.3.1\arm-none-eabi\thumb\v7e-m+fp\hard\bits\gthr-default.h **** static inline int
 142:c:\progra~2\gnuarm~1\102021~1.10\arm-none-eabi\include\c++\10.3.1\arm-none-eabi\thumb\v7e-m+fp\hard\bits\gthr-default.h **** __gthread_objc_mutex_deallocate (objc_mutex_t mutex _GLIBCXX_UNUSED)
 143:c:\progra~2\gnuarm~1\102021~1.10\arm-none-eabi\include\c++\10.3.1\arm-none-eabi\thumb\v7e-m+fp\hard\bits\gthr-default.h **** {
 144:c:\progra~2\gnuarm~1\102021~1.10\arm-none-eabi\include\c++\10.3.1\arm-none-eabi\thumb\v7e-m+fp\hard\bits\gthr-default.h ****   return 0;
 145:c:\progra~2\gnuarm~1\102021~1.10\arm-none-eabi\include\c++\10.3.1\arm-none-eabi\thumb\v7e-m+fp\hard\bits\gthr-default.h **** }
 146:c:\progra~2\gnuarm~1\102021~1.10\arm-none-eabi\include\c++\10.3.1\arm-none-eabi\thumb\v7e-m+fp\hard\bits\gthr-default.h **** 
 147:c:\progra~2\gnuarm~1\102021~1.10\arm-none-eabi\include\c++\10.3.1\arm-none-eabi\thumb\v7e-m+fp\hard\bits\gthr-default.h **** /* Grab a lock on a mutex.  */
 148:c:\progra~2\gnuarm~1\102021~1.10\arm-none-eabi\include\c++\10.3.1\arm-none-eabi\thumb\v7e-m+fp\hard\bits\gthr-default.h **** static inline int
 149:c:\progra~2\gnuarm~1\102021~1.10\arm-none-eabi\include\c++\10.3.1\arm-none-eabi\thumb\v7e-m+fp\hard\bits\gthr-default.h **** __gthread_objc_mutex_lock (objc_mutex_t mutex _GLIBCXX_UNUSED)
 150:c:\progra~2\gnuarm~1\102021~1.10\arm-none-eabi\include\c++\10.3.1\arm-none-eabi\thumb\v7e-m+fp\hard\bits\gthr-default.h **** {
 151:c:\progra~2\gnuarm~1\102021~1.10\arm-none-eabi\include\c++\10.3.1\arm-none-eabi\thumb\v7e-m+fp\hard\bits\gthr-default.h ****   /* There can only be one thread, so we always get the lock */
 152:c:\progra~2\gnuarm~1\102021~1.10\arm-none-eabi\include\c++\10.3.1\arm-none-eabi\thumb\v7e-m+fp\hard\bits\gthr-default.h ****   return 0;
 153:c:\progra~2\gnuarm~1\102021~1.10\arm-none-eabi\include\c++\10.3.1\arm-none-eabi\thumb\v7e-m+fp\hard\bits\gthr-default.h **** }
 154:c:\progra~2\gnuarm~1\102021~1.10\arm-none-eabi\include\c++\10.3.1\arm-none-eabi\thumb\v7e-m+fp\hard\bits\gthr-default.h **** 
 155:c:\progra~2\gnuarm~1\102021~1.10\arm-none-eabi\include\c++\10.3.1\arm-none-eabi\thumb\v7e-m+fp\hard\bits\gthr-default.h **** /* Try to grab a lock on a mutex.  */
 156:c:\progra~2\gnuarm~1\102021~1.10\arm-none-eabi\include\c++\10.3.1\arm-none-eabi\thumb\v7e-m+fp\hard\bits\gthr-default.h **** static inline int
 157:c:\progra~2\gnuarm~1\102021~1.10\arm-none-eabi\include\c++\10.3.1\arm-none-eabi\thumb\v7e-m+fp\hard\bits\gthr-default.h **** __gthread_objc_mutex_trylock (objc_mutex_t mutex _GLIBCXX_UNUSED)
 158:c:\progra~2\gnuarm~1\102021~1.10\arm-none-eabi\include\c++\10.3.1\arm-none-eabi\thumb\v7e-m+fp\hard\bits\gthr-default.h **** {
 159:c:\progra~2\gnuarm~1\102021~1.10\arm-none-eabi\include\c++\10.3.1\arm-none-eabi\thumb\v7e-m+fp\hard\bits\gthr-default.h ****   /* There can only be one thread, so we always get the lock */
 160:c:\progra~2\gnuarm~1\102021~1.10\arm-none-eabi\include\c++\10.3.1\arm-none-eabi\thumb\v7e-m+fp\hard\bits\gthr-default.h ****   return 0;
 161:c:\progra~2\gnuarm~1\102021~1.10\arm-none-eabi\include\c++\10.3.1\arm-none-eabi\thumb\v7e-m+fp\hard\bits\gthr-default.h **** }
 162:c:\progra~2\gnuarm~1\102021~1.10\arm-none-eabi\include\c++\10.3.1\arm-none-eabi\thumb\v7e-m+fp\hard\bits\gthr-default.h **** 
 163:c:\progra~2\gnuarm~1\102021~1.10\arm-none-eabi\include\c++\10.3.1\arm-none-eabi\thumb\v7e-m+fp\hard\bits\gthr-default.h **** /* Unlock the mutex */
 164:c:\progra~2\gnuarm~1\102021~1.10\arm-none-eabi\include\c++\10.3.1\arm-none-eabi\thumb\v7e-m+fp\hard\bits\gthr-default.h **** static inline int
 165:c:\progra~2\gnuarm~1\102021~1.10\arm-none-eabi\include\c++\10.3.1\arm-none-eabi\thumb\v7e-m+fp\hard\bits\gthr-default.h **** __gthread_objc_mutex_unlock (objc_mutex_t mutex _GLIBCXX_UNUSED)
 166:c:\progra~2\gnuarm~1\102021~1.10\arm-none-eabi\include\c++\10.3.1\arm-none-eabi\thumb\v7e-m+fp\hard\bits\gthr-default.h **** {
 167:c:\progra~2\gnuarm~1\102021~1.10\arm-none-eabi\include\c++\10.3.1\arm-none-eabi\thumb\v7e-m+fp\hard\bits\gthr-default.h ****   return 0;
 168:c:\progra~2\gnuarm~1\102021~1.10\arm-none-eabi\include\c++\10.3.1\arm-none-eabi\thumb\v7e-m+fp\hard\bits\gthr-default.h **** }
 169:c:\progra~2\gnuarm~1\102021~1.10\arm-none-eabi\include\c++\10.3.1\arm-none-eabi\thumb\v7e-m+fp\hard\bits\gthr-default.h **** 
 170:c:\progra~2\gnuarm~1\102021~1.10\arm-none-eabi\include\c++\10.3.1\arm-none-eabi\thumb\v7e-m+fp\hard\bits\gthr-default.h **** /* Backend condition mutex functions */
 171:c:\progra~2\gnuarm~1\102021~1.10\arm-none-eabi\include\c++\10.3.1\arm-none-eabi\thumb\v7e-m+fp\hard\bits\gthr-default.h **** 
 172:c:\progra~2\gnuarm~1\102021~1.10\arm-none-eabi\include\c++\10.3.1\arm-none-eabi\thumb\v7e-m+fp\hard\bits\gthr-default.h **** /* Allocate a condition.  */
 173:c:\progra~2\gnuarm~1\102021~1.10\arm-none-eabi\include\c++\10.3.1\arm-none-eabi\thumb\v7e-m+fp\hard\bits\gthr-default.h **** static inline int
 174:c:\progra~2\gnuarm~1\102021~1.10\arm-none-eabi\include\c++\10.3.1\arm-none-eabi\thumb\v7e-m+fp\hard\bits\gthr-default.h **** __gthread_objc_condition_allocate (objc_condition_t condition _GLIBCXX_UNUSED)
 175:c:\progra~2\gnuarm~1\102021~1.10\arm-none-eabi\include\c++\10.3.1\arm-none-eabi\thumb\v7e-m+fp\hard\bits\gthr-default.h **** {
 176:c:\progra~2\gnuarm~1\102021~1.10\arm-none-eabi\include\c++\10.3.1\arm-none-eabi\thumb\v7e-m+fp\hard\bits\gthr-default.h ****   return 0;
 177:c:\progra~2\gnuarm~1\102021~1.10\arm-none-eabi\include\c++\10.3.1\arm-none-eabi\thumb\v7e-m+fp\hard\bits\gthr-default.h **** }
 178:c:\progra~2\gnuarm~1\102021~1.10\arm-none-eabi\include\c++\10.3.1\arm-none-eabi\thumb\v7e-m+fp\hard\bits\gthr-default.h **** 
 179:c:\progra~2\gnuarm~1\102021~1.10\arm-none-eabi\include\c++\10.3.1\arm-none-eabi\thumb\v7e-m+fp\hard\bits\gthr-default.h **** /* Deallocate a condition.  */
 180:c:\progra~2\gnuarm~1\102021~1.10\arm-none-eabi\include\c++\10.3.1\arm-none-eabi\thumb\v7e-m+fp\hard\bits\gthr-default.h **** static inline int
 181:c:\progra~2\gnuarm~1\102021~1.10\arm-none-eabi\include\c++\10.3.1\arm-none-eabi\thumb\v7e-m+fp\hard\bits\gthr-default.h **** __gthread_objc_condition_deallocate (objc_condition_t condition _GLIBCXX_UNUSED)
 182:c:\progra~2\gnuarm~1\102021~1.10\arm-none-eabi\include\c++\10.3.1\arm-none-eabi\thumb\v7e-m+fp\hard\bits\gthr-default.h **** {
 183:c:\progra~2\gnuarm~1\102021~1.10\arm-none-eabi\include\c++\10.3.1\arm-none-eabi\thumb\v7e-m+fp\hard\bits\gthr-default.h ****   return 0;
 184:c:\progra~2\gnuarm~1\102021~1.10\arm-none-eabi\include\c++\10.3.1\arm-none-eabi\thumb\v7e-m+fp\hard\bits\gthr-default.h **** }
 185:c:\progra~2\gnuarm~1\102021~1.10\arm-none-eabi\include\c++\10.3.1\arm-none-eabi\thumb\v7e-m+fp\hard\bits\gthr-default.h **** 
 186:c:\progra~2\gnuarm~1\102021~1.10\arm-none-eabi\include\c++\10.3.1\arm-none-eabi\thumb\v7e-m+fp\hard\bits\gthr-default.h **** /* Wait on the condition */
 187:c:\progra~2\gnuarm~1\102021~1.10\arm-none-eabi\include\c++\10.3.1\arm-none-eabi\thumb\v7e-m+fp\hard\bits\gthr-default.h **** static inline int
 188:c:\progra~2\gnuarm~1\102021~1.10\arm-none-eabi\include\c++\10.3.1\arm-none-eabi\thumb\v7e-m+fp\hard\bits\gthr-default.h **** __gthread_objc_condition_wait (objc_condition_t condition _GLIBCXX_UNUSED,
 189:c:\progra~2\gnuarm~1\102021~1.10\arm-none-eabi\include\c++\10.3.1\arm-none-eabi\thumb\v7e-m+fp\hard\bits\gthr-default.h **** 			       objc_mutex_t mutex _GLIBCXX_UNUSED)
 190:c:\progra~2\gnuarm~1\102021~1.10\arm-none-eabi\include\c++\10.3.1\arm-none-eabi\thumb\v7e-m+fp\hard\bits\gthr-default.h **** {
 191:c:\progra~2\gnuarm~1\102021~1.10\arm-none-eabi\include\c++\10.3.1\arm-none-eabi\thumb\v7e-m+fp\hard\bits\gthr-default.h ****   return 0;
 192:c:\progra~2\gnuarm~1\102021~1.10\arm-none-eabi\include\c++\10.3.1\arm-none-eabi\thumb\v7e-m+fp\hard\bits\gthr-default.h **** }
 193:c:\progra~2\gnuarm~1\102021~1.10\arm-none-eabi\include\c++\10.3.1\arm-none-eabi\thumb\v7e-m+fp\hard\bits\gthr-default.h **** 
 194:c:\progra~2\gnuarm~1\102021~1.10\arm-none-eabi\include\c++\10.3.1\arm-none-eabi\thumb\v7e-m+fp\hard\bits\gthr-default.h **** /* Wake up all threads waiting on this condition.  */
 195:c:\progra~2\gnuarm~1\102021~1.10\arm-none-eabi\include\c++\10.3.1\arm-none-eabi\thumb\v7e-m+fp\hard\bits\gthr-default.h **** static inline int
ARM GAS   			page 5


 196:c:\progra~2\gnuarm~1\102021~1.10\arm-none-eabi\include\c++\10.3.1\arm-none-eabi\thumb\v7e-m+fp\hard\bits\gthr-default.h **** __gthread_objc_condition_broadcast (objc_condition_t condition _GLIBCXX_UNUSED)
 197:c:\progra~2\gnuarm~1\102021~1.10\arm-none-eabi\include\c++\10.3.1\arm-none-eabi\thumb\v7e-m+fp\hard\bits\gthr-default.h **** {
 198:c:\progra~2\gnuarm~1\102021~1.10\arm-none-eabi\include\c++\10.3.1\arm-none-eabi\thumb\v7e-m+fp\hard\bits\gthr-default.h ****   return 0;
 199:c:\progra~2\gnuarm~1\102021~1.10\arm-none-eabi\include\c++\10.3.1\arm-none-eabi\thumb\v7e-m+fp\hard\bits\gthr-default.h **** }
 200:c:\progra~2\gnuarm~1\102021~1.10\arm-none-eabi\include\c++\10.3.1\arm-none-eabi\thumb\v7e-m+fp\hard\bits\gthr-default.h **** 
 201:c:\progra~2\gnuarm~1\102021~1.10\arm-none-eabi\include\c++\10.3.1\arm-none-eabi\thumb\v7e-m+fp\hard\bits\gthr-default.h **** /* Wake up one thread waiting on this condition.  */
 202:c:\progra~2\gnuarm~1\102021~1.10\arm-none-eabi\include\c++\10.3.1\arm-none-eabi\thumb\v7e-m+fp\hard\bits\gthr-default.h **** static inline int
 203:c:\progra~2\gnuarm~1\102021~1.10\arm-none-eabi\include\c++\10.3.1\arm-none-eabi\thumb\v7e-m+fp\hard\bits\gthr-default.h **** __gthread_objc_condition_signal (objc_condition_t condition _GLIBCXX_UNUSED)
 204:c:\progra~2\gnuarm~1\102021~1.10\arm-none-eabi\include\c++\10.3.1\arm-none-eabi\thumb\v7e-m+fp\hard\bits\gthr-default.h **** {
 205:c:\progra~2\gnuarm~1\102021~1.10\arm-none-eabi\include\c++\10.3.1\arm-none-eabi\thumb\v7e-m+fp\hard\bits\gthr-default.h ****   return 0;
 206:c:\progra~2\gnuarm~1\102021~1.10\arm-none-eabi\include\c++\10.3.1\arm-none-eabi\thumb\v7e-m+fp\hard\bits\gthr-default.h **** }
 207:c:\progra~2\gnuarm~1\102021~1.10\arm-none-eabi\include\c++\10.3.1\arm-none-eabi\thumb\v7e-m+fp\hard\bits\gthr-default.h **** 
 208:c:\progra~2\gnuarm~1\102021~1.10\arm-none-eabi\include\c++\10.3.1\arm-none-eabi\thumb\v7e-m+fp\hard\bits\gthr-default.h **** #else /* _LIBOBJC */
 209:c:\progra~2\gnuarm~1\102021~1.10\arm-none-eabi\include\c++\10.3.1\arm-none-eabi\thumb\v7e-m+fp\hard\bits\gthr-default.h **** 
 210:c:\progra~2\gnuarm~1\102021~1.10\arm-none-eabi\include\c++\10.3.1\arm-none-eabi\thumb\v7e-m+fp\hard\bits\gthr-default.h **** static inline int
 211:c:\progra~2\gnuarm~1\102021~1.10\arm-none-eabi\include\c++\10.3.1\arm-none-eabi\thumb\v7e-m+fp\hard\bits\gthr-default.h **** __gthread_active_p (void)
 212:c:\progra~2\gnuarm~1\102021~1.10\arm-none-eabi\include\c++\10.3.1\arm-none-eabi\thumb\v7e-m+fp\hard\bits\gthr-default.h **** {
 213:c:\progra~2\gnuarm~1\102021~1.10\arm-none-eabi\include\c++\10.3.1\arm-none-eabi\thumb\v7e-m+fp\hard\bits\gthr-default.h ****   return 0;
 214:c:\progra~2\gnuarm~1\102021~1.10\arm-none-eabi\include\c++\10.3.1\arm-none-eabi\thumb\v7e-m+fp\hard\bits\gthr-default.h **** }
 215:c:\progra~2\gnuarm~1\102021~1.10\arm-none-eabi\include\c++\10.3.1\arm-none-eabi\thumb\v7e-m+fp\hard\bits\gthr-default.h **** 
 216:c:\progra~2\gnuarm~1\102021~1.10\arm-none-eabi\include\c++\10.3.1\arm-none-eabi\thumb\v7e-m+fp\hard\bits\gthr-default.h **** static inline int
 217:c:\progra~2\gnuarm~1\102021~1.10\arm-none-eabi\include\c++\10.3.1\arm-none-eabi\thumb\v7e-m+fp\hard\bits\gthr-default.h **** __gthread_once (__gthread_once_t *__once _GLIBCXX_UNUSED, void (*__func) (void) _GLIBCXX_UNUSED)
 218:c:\progra~2\gnuarm~1\102021~1.10\arm-none-eabi\include\c++\10.3.1\arm-none-eabi\thumb\v7e-m+fp\hard\bits\gthr-default.h **** {
 219:c:\progra~2\gnuarm~1\102021~1.10\arm-none-eabi\include\c++\10.3.1\arm-none-eabi\thumb\v7e-m+fp\hard\bits\gthr-default.h ****   return 0;
 220:c:\progra~2\gnuarm~1\102021~1.10\arm-none-eabi\include\c++\10.3.1\arm-none-eabi\thumb\v7e-m+fp\hard\bits\gthr-default.h **** }
 221:c:\progra~2\gnuarm~1\102021~1.10\arm-none-eabi\include\c++\10.3.1\arm-none-eabi\thumb\v7e-m+fp\hard\bits\gthr-default.h **** 
 222:c:\progra~2\gnuarm~1\102021~1.10\arm-none-eabi\include\c++\10.3.1\arm-none-eabi\thumb\v7e-m+fp\hard\bits\gthr-default.h **** static inline int _GLIBCXX_UNUSED
 223:c:\progra~2\gnuarm~1\102021~1.10\arm-none-eabi\include\c++\10.3.1\arm-none-eabi\thumb\v7e-m+fp\hard\bits\gthr-default.h **** __gthread_key_create (__gthread_key_t *__key _GLIBCXX_UNUSED, void (*__func) (void *) _GLIBCXX_UNUS
 224:c:\progra~2\gnuarm~1\102021~1.10\arm-none-eabi\include\c++\10.3.1\arm-none-eabi\thumb\v7e-m+fp\hard\bits\gthr-default.h **** {
 225:c:\progra~2\gnuarm~1\102021~1.10\arm-none-eabi\include\c++\10.3.1\arm-none-eabi\thumb\v7e-m+fp\hard\bits\gthr-default.h ****   return 0;
 226:c:\progra~2\gnuarm~1\102021~1.10\arm-none-eabi\include\c++\10.3.1\arm-none-eabi\thumb\v7e-m+fp\hard\bits\gthr-default.h **** }
 227:c:\progra~2\gnuarm~1\102021~1.10\arm-none-eabi\include\c++\10.3.1\arm-none-eabi\thumb\v7e-m+fp\hard\bits\gthr-default.h **** 
 228:c:\progra~2\gnuarm~1\102021~1.10\arm-none-eabi\include\c++\10.3.1\arm-none-eabi\thumb\v7e-m+fp\hard\bits\gthr-default.h **** static int _GLIBCXX_UNUSED
 229:c:\progra~2\gnuarm~1\102021~1.10\arm-none-eabi\include\c++\10.3.1\arm-none-eabi\thumb\v7e-m+fp\hard\bits\gthr-default.h **** __gthread_key_delete (__gthread_key_t __key _GLIBCXX_UNUSED)
 230:c:\progra~2\gnuarm~1\102021~1.10\arm-none-eabi\include\c++\10.3.1\arm-none-eabi\thumb\v7e-m+fp\hard\bits\gthr-default.h **** {
  34              	 .loc 1 230 1
  35              	 .cfi_startproc
  36              	 
  37              	 
  38              	 
  39 0000 80B4     	 push {r7}
  40              	 .cfi_def_cfa_offset 4
  41              	 .cfi_offset 7,-4
  42 0002 83B0     	 sub sp,sp,#12
  43              	 .cfi_def_cfa_offset 16
  44 0004 00AF     	 add r7,sp,#0
  45              	 .cfi_def_cfa_register 7
  46 0006 7860     	 str r0,[r7,#4]
 231:c:\progra~2\gnuarm~1\102021~1.10\arm-none-eabi\include\c++\10.3.1\arm-none-eabi\thumb\v7e-m+fp\hard\bits\gthr-default.h ****   return 0;
  47              	 .loc 1 231 10
  48 0008 0023     	 movs r3,#0
 232:c:\progra~2\gnuarm~1\102021~1.10\arm-none-eabi\include\c++\10.3.1\arm-none-eabi\thumb\v7e-m+fp\hard\bits\gthr-default.h **** }
  49              	 .loc 1 232 1
  50 000a 1846     	 mov r0,r3
  51 000c 0C37     	 adds r7,r7,#12
  52              	 .cfi_def_cfa_offset 4
  53 000e BD46     	 mov sp,r7
ARM GAS   			page 6


  54              	 .cfi_def_cfa_register 13
  55              	 
  56 0010 5DF8047B 	 ldr r7,[sp],#4
  57              	 .cfi_restore 7
  58              	 .cfi_def_cfa_offset 0
  59 0014 7047     	 bx lr
  60              	 .cfi_endproc
  61              	.LFE602:
  62              	 .size _ZL20__gthread_key_deletei,.-_ZL20__gthread_key_deletei
  63              	 .section .rodata
  64              	 .align 2
  65              	.LC0:
  66 0000 52656164 	 .ascii "ReadLock != NULL\000"
  66      4C6F636B 
  66      20213D20 
  66      4E554C4C 
  66      00
  67 0011 000000   	 .align 2
  68              	.LC1:
  69 0014 6370705F 	 .ascii "cpp_freertos::ReadWriteLock::ReadWriteLock()\000"
  69      66726565 
  69      72746F73 
  69      3A3A5265 
  69      61645772 
  70 0041 000000   	 .align 2
  71              	.LC2:
  72 0044 433A5C55 	 .ascii "C:\\Users\\niels\\Documents\\Elektrotechniek\\Jaar "
  72      73657273 
  72      5C6E6965 
  72      6C735C44 
  72      6F63756D 
  73 0072 325C4543 	 .ascii "2\\ECS\\ECSL\\software\\STM32\\STM32Basis\\HAL\\gem"
  73      535C4543 
  73      534C5C73 
  73      6F667477 
  73      6172655C 
  74 009e 65656E73 	 .ascii "eenschappelijk\\Third_Party\\freertos-addons-1.1.0\\"
  74      63686170 
  74      70656C69 
  74      6A6B5C54 
  74      68697264 
  75 00cf 632B2B5C 	 .ascii "c++\\Source\\cread_write_lock.cpp\000"
  75      536F7572 
  75      63655C63 
  75      72656164 
  75      5F777269 
  76 00ef 00       	 .align 2
  77              	.LC3:
  78 00f0 66616C73 	 .ascii "false\000"
  78      6500
  79              	 .section .text._ZN12cpp_freertos13ReadWriteLockC2Ev,"ax",%progbits
  80              	 .align 1
  81              	 .global _ZN12cpp_freertos13ReadWriteLockC2Ev
  82              	 .syntax unified
  83              	 .thumb
  84              	 .thumb_func
  85              	 .type _ZN12cpp_freertos13ReadWriteLockC2Ev,%function
ARM GAS   			page 7


  86              	_ZN12cpp_freertos13ReadWriteLockC2Ev:
  87              	.LFB976:
  88              	 .file 2 "C:\\Users\\niels\\Documents\\Elektrotechniek\\Jaar 2\\ECS\\ECSL\\software\\STM32\\STM32Basis\\HAL\\gemeenschappelijk\\Third_Party\\freertos-addons-1.1.0\\c++\\Source\\cread_write_lock.cpp"
   1:C:\Users\niels\Documents\Elektrotechniek\Jaar 2\ECS\ECSL\software\STM32\STM32Basis\HAL\gemeenschappelijk\Third_Party\freertos-addons-1.1.0\c++\Source\cread_write_lock.cpp **** /****************************************************************************
   2:C:\Users\niels\Documents\Elektrotechniek\Jaar 2\ECS\ECSL\software\STM32\STM32Basis\HAL\gemeenschappelijk\Third_Party\freertos-addons-1.1.0\c++\Source\cread_write_lock.cpp ****  *
   3:C:\Users\niels\Documents\Elektrotechniek\Jaar 2\ECS\ECSL\software\STM32\STM32Basis\HAL\gemeenschappelijk\Third_Party\freertos-addons-1.1.0\c++\Source\cread_write_lock.cpp ****  *  Copyright (c) 2016, Michael Becker (michael.f.becker@gmail.com)
   4:C:\Users\niels\Documents\Elektrotechniek\Jaar 2\ECS\ECSL\software\STM32\STM32Basis\HAL\gemeenschappelijk\Third_Party\freertos-addons-1.1.0\c++\Source\cread_write_lock.cpp ****  *
   5:C:\Users\niels\Documents\Elektrotechniek\Jaar 2\ECS\ECSL\software\STM32\STM32Basis\HAL\gemeenschappelijk\Third_Party\freertos-addons-1.1.0\c++\Source\cread_write_lock.cpp ****  *  This file is part of the FreeRTOS C++ Wrappers project.
   6:C:\Users\niels\Documents\Elektrotechniek\Jaar 2\ECS\ECSL\software\STM32\STM32Basis\HAL\gemeenschappelijk\Third_Party\freertos-addons-1.1.0\c++\Source\cread_write_lock.cpp ****  *
   7:C:\Users\niels\Documents\Elektrotechniek\Jaar 2\ECS\ECSL\software\STM32\STM32Basis\HAL\gemeenschappelijk\Third_Party\freertos-addons-1.1.0\c++\Source\cread_write_lock.cpp ****  *  The FreeRTOS C++ Wrappers project is free software: you can redistribute
   8:C:\Users\niels\Documents\Elektrotechniek\Jaar 2\ECS\ECSL\software\STM32\STM32Basis\HAL\gemeenschappelijk\Third_Party\freertos-addons-1.1.0\c++\Source\cread_write_lock.cpp ****  *  it and/or modify it under the terms of the GNU General Public License as
   9:C:\Users\niels\Documents\Elektrotechniek\Jaar 2\ECS\ECSL\software\STM32\STM32Basis\HAL\gemeenschappelijk\Third_Party\freertos-addons-1.1.0\c++\Source\cread_write_lock.cpp ****  *  published by the Free Software Foundation, either version 2
  10:C:\Users\niels\Documents\Elektrotechniek\Jaar 2\ECS\ECSL\software\STM32\STM32Basis\HAL\gemeenschappelijk\Third_Party\freertos-addons-1.1.0\c++\Source\cread_write_lock.cpp ****  *  of the License, or (at your option) any later version.
  11:C:\Users\niels\Documents\Elektrotechniek\Jaar 2\ECS\ECSL\software\STM32\STM32Basis\HAL\gemeenschappelijk\Third_Party\freertos-addons-1.1.0\c++\Source\cread_write_lock.cpp ****  *
  12:C:\Users\niels\Documents\Elektrotechniek\Jaar 2\ECS\ECSL\software\STM32\STM32Basis\HAL\gemeenschappelijk\Third_Party\freertos-addons-1.1.0\c++\Source\cread_write_lock.cpp ****  *  The FreeRTOS C++ Wrappers project is distributed in the hope that it will
  13:C:\Users\niels\Documents\Elektrotechniek\Jaar 2\ECS\ECSL\software\STM32\STM32Basis\HAL\gemeenschappelijk\Third_Party\freertos-addons-1.1.0\c++\Source\cread_write_lock.cpp ****  *  be useful, but WITHOUT ANY WARRANTY; without even the implied warranty of
  14:C:\Users\niels\Documents\Elektrotechniek\Jaar 2\ECS\ECSL\software\STM32\STM32Basis\HAL\gemeenschappelijk\Third_Party\freertos-addons-1.1.0\c++\Source\cread_write_lock.cpp ****  *  MERCHANTABILITY or FITNESS FOR A PARTICULAR PURPOSE.  See the
  15:C:\Users\niels\Documents\Elektrotechniek\Jaar 2\ECS\ECSL\software\STM32\STM32Basis\HAL\gemeenschappelijk\Third_Party\freertos-addons-1.1.0\c++\Source\cread_write_lock.cpp ****  *  GNU General Public License for more details.
  16:C:\Users\niels\Documents\Elektrotechniek\Jaar 2\ECS\ECSL\software\STM32\STM32Basis\HAL\gemeenschappelijk\Third_Party\freertos-addons-1.1.0\c++\Source\cread_write_lock.cpp ****  *
  17:C:\Users\niels\Documents\Elektrotechniek\Jaar 2\ECS\ECSL\software\STM32\STM32Basis\HAL\gemeenschappelijk\Third_Party\freertos-addons-1.1.0\c++\Source\cread_write_lock.cpp ****  *  You should have received a copy of the GNU General Public License
  18:C:\Users\niels\Documents\Elektrotechniek\Jaar 2\ECS\ECSL\software\STM32\STM32Basis\HAL\gemeenschappelijk\Third_Party\freertos-addons-1.1.0\c++\Source\cread_write_lock.cpp ****  *  along with the FreeRTOS C++ Wrappers project.
  19:C:\Users\niels\Documents\Elektrotechniek\Jaar 2\ECS\ECSL\software\STM32\STM32Basis\HAL\gemeenschappelijk\Third_Party\freertos-addons-1.1.0\c++\Source\cread_write_lock.cpp ****  *  If not, see <http://www.gnu.org/licenses/>.
  20:C:\Users\niels\Documents\Elektrotechniek\Jaar 2\ECS\ECSL\software\STM32\STM32Basis\HAL\gemeenschappelijk\Third_Party\freertos-addons-1.1.0\c++\Source\cread_write_lock.cpp ****  *
  21:C:\Users\niels\Documents\Elektrotechniek\Jaar 2\ECS\ECSL\software\STM32\STM32Basis\HAL\gemeenschappelijk\Third_Party\freertos-addons-1.1.0\c++\Source\cread_write_lock.cpp ****  ***************************************************************************/
  22:C:\Users\niels\Documents\Elektrotechniek\Jaar 2\ECS\ECSL\software\STM32\STM32Basis\HAL\gemeenschappelijk\Third_Party\freertos-addons-1.1.0\c++\Source\cread_write_lock.cpp **** #include <assert.h>
  23:C:\Users\niels\Documents\Elektrotechniek\Jaar 2\ECS\ECSL\software\STM32\STM32Basis\HAL\gemeenschappelijk\Third_Party\freertos-addons-1.1.0\c++\Source\cread_write_lock.cpp **** #include "read_write_lock.hpp"
  24:C:\Users\niels\Documents\Elektrotechniek\Jaar 2\ECS\ECSL\software\STM32\STM32Basis\HAL\gemeenschappelijk\Third_Party\freertos-addons-1.1.0\c++\Source\cread_write_lock.cpp **** 
  25:C:\Users\niels\Documents\Elektrotechniek\Jaar 2\ECS\ECSL\software\STM32\STM32Basis\HAL\gemeenschappelijk\Third_Party\freertos-addons-1.1.0\c++\Source\cread_write_lock.cpp **** 
  26:C:\Users\niels\Documents\Elektrotechniek\Jaar 2\ECS\ECSL\software\STM32\STM32Basis\HAL\gemeenschappelijk\Third_Party\freertos-addons-1.1.0\c++\Source\cread_write_lock.cpp **** using namespace cpp_freertos;
  27:C:\Users\niels\Documents\Elektrotechniek\Jaar 2\ECS\ECSL\software\STM32\STM32Basis\HAL\gemeenschappelijk\Third_Party\freertos-addons-1.1.0\c++\Source\cread_write_lock.cpp **** 
  28:C:\Users\niels\Documents\Elektrotechniek\Jaar 2\ECS\ECSL\software\STM32\STM32Basis\HAL\gemeenschappelijk\Third_Party\freertos-addons-1.1.0\c++\Source\cread_write_lock.cpp **** 
  29:C:\Users\niels\Documents\Elektrotechniek\Jaar 2\ECS\ECSL\software\STM32\STM32Basis\HAL\gemeenschappelijk\Third_Party\freertos-addons-1.1.0\c++\Source\cread_write_lock.cpp **** ReadWriteLock::ReadWriteLock()
  89              	 .loc 2 29 1
  90              	 .cfi_startproc
  91              	 
  92              	 
  93 0000 80B5     	 push {r7,lr}
  94              	 .cfi_def_cfa_offset 8
  95              	 .cfi_offset 7,-8
  96              	 .cfi_offset 14,-4
  97 0002 82B0     	 sub sp,sp,#8
  98              	 .cfi_def_cfa_offset 16
  99 0004 00AF     	 add r7,sp,#0
 100              	 .cfi_def_cfa_register 7
 101 0006 7860     	 str r0,[r7,#4]
 102              	.LBB2:
  30:C:\Users\niels\Documents\Elektrotechniek\Jaar 2\ECS\ECSL\software\STM32\STM32Basis\HAL\gemeenschappelijk\Third_Party\freertos-addons-1.1.0\c++\Source\cread_write_lock.cpp ****     : ReadCount(0)
 103              	 .loc 2 30 18
 104 0008 1C4A     	 ldr r2,.L7
 105 000a 7B68     	 ldr r3,[r7,#4]
 106 000c 1A60     	 str r2,[r3]
 107 000e 7B68     	 ldr r3,[r7,#4]
 108 0010 0022     	 movs r2,#0
 109 0012 5A60     	 str r2,[r3,#4]
  31:C:\Users\niels\Documents\Elektrotechniek\Jaar 2\ECS\ECSL\software\STM32\STM32Basis\HAL\gemeenschappelijk\Third_Party\freertos-addons-1.1.0\c++\Source\cread_write_lock.cpp **** {
  32:C:\Users\niels\Documents\Elektrotechniek\Jaar 2\ECS\ECSL\software\STM32\STM32Basis\HAL\gemeenschappelijk\Third_Party\freertos-addons-1.1.0\c++\Source\cread_write_lock.cpp ****     ReadLock = xSemaphoreCreateMutex();
 110              	 .loc 2 32 16
ARM GAS   			page 8


 111 0014 0120     	 movs r0,#1
 112 0016 FFF7FEFF 	 bl xQueueCreateMutex
 113 001a 0246     	 mov r2,r0
 114              	 .loc 2 32 14
 115 001c 7B68     	 ldr r3,[r7,#4]
 116 001e 9A60     	 str r2,[r3,#8]
  33:C:\Users\niels\Documents\Elektrotechniek\Jaar 2\ECS\ECSL\software\STM32\STM32Basis\HAL\gemeenschappelijk\Third_Party\freertos-addons-1.1.0\c++\Source\cread_write_lock.cpp ****     assert(ReadLock != NULL);
 117              	 .loc 2 33 5
 118 0020 7B68     	 ldr r3,[r7,#4]
 119 0022 9B68     	 ldr r3,[r3,#8]
 120 0024 002B     	 cmp r3,#0
 121 0026 05D1     	 bne .L4
 122              	 .loc 2 33 5 is_stmt 0 discriminator 1
 123 0028 154B     	 ldr r3,.L7+4
 124 002a 164A     	 ldr r2,.L7+8
 125 002c 2121     	 movs r1,#33
 126 002e 1648     	 ldr r0,.L7+12
 127 0030 FFF7FEFF 	 bl __assert_func
 128              	.L4:
  34:C:\Users\niels\Documents\Elektrotechniek\Jaar 2\ECS\ECSL\software\STM32\STM32Basis\HAL\gemeenschappelijk\Third_Party\freertos-addons-1.1.0\c++\Source\cread_write_lock.cpp **** 
  35:C:\Users\niels\Documents\Elektrotechniek\Jaar 2\ECS\ECSL\software\STM32\STM32Basis\HAL\gemeenschappelijk\Third_Party\freertos-addons-1.1.0\c++\Source\cread_write_lock.cpp ****     //
  36:C:\Users\niels\Documents\Elektrotechniek\Jaar 2\ECS\ECSL\software\STM32\STM32Basis\HAL\gemeenschappelijk\Third_Party\freertos-addons-1.1.0\c++\Source\cread_write_lock.cpp ****     //  ResourceLock CANNOT be a mutex. In FreeRTOS, as in most OS's,
  37:C:\Users\niels\Documents\Elektrotechniek\Jaar 2\ECS\ECSL\software\STM32\STM32Basis\HAL\gemeenschappelijk\Third_Party\freertos-addons-1.1.0\c++\Source\cread_write_lock.cpp ****     //  a thread is not allowed to unlock another thread's mutex. But
  38:C:\Users\niels\Documents\Elektrotechniek\Jaar 2\ECS\ECSL\software\STM32\STM32Basis\HAL\gemeenschappelijk\Third_Party\freertos-addons-1.1.0\c++\Source\cread_write_lock.cpp ****     //  the very nature of a Reader Lock allows an arbitrary ordering 
  39:C:\Users\niels\Documents\Elektrotechniek\Jaar 2\ECS\ECSL\software\STM32\STM32Basis\HAL\gemeenschappelijk\Third_Party\freertos-addons-1.1.0\c++\Source\cread_write_lock.cpp ****     //  of unlocks when multiple threads hold the reader lock. 
  40:C:\Users\niels\Documents\Elektrotechniek\Jaar 2\ECS\ECSL\software\STM32\STM32Basis\HAL\gemeenschappelijk\Third_Party\freertos-addons-1.1.0\c++\Source\cread_write_lock.cpp ****     //  Semaphores are not subject to this constraint.
  41:C:\Users\niels\Documents\Elektrotechniek\Jaar 2\ECS\ECSL\software\STM32\STM32Basis\HAL\gemeenschappelijk\Third_Party\freertos-addons-1.1.0\c++\Source\cread_write_lock.cpp ****     //
  42:C:\Users\niels\Documents\Elektrotechniek\Jaar 2\ECS\ECSL\software\STM32\STM32Basis\HAL\gemeenschappelijk\Third_Party\freertos-addons-1.1.0\c++\Source\cread_write_lock.cpp ****     ResourceLock = xSemaphoreCreateBinary();
 129              	 .loc 2 42 20 is_stmt 1
 130 0034 0322     	 movs r2,#3
 131 0036 0021     	 movs r1,#0
 132 0038 0120     	 movs r0,#1
 133 003a FFF7FEFF 	 bl xQueueGenericCreate
 134 003e 0246     	 mov r2,r0
 135              	 .loc 2 42 18
 136 0040 7B68     	 ldr r3,[r7,#4]
 137 0042 DA60     	 str r2,[r3,#12]
  43:C:\Users\niels\Documents\Elektrotechniek\Jaar 2\ECS\ECSL\software\STM32\STM32Basis\HAL\gemeenschappelijk\Third_Party\freertos-addons-1.1.0\c++\Source\cread_write_lock.cpp ****     if (ResourceLock == NULL) {
 138              	 .loc 2 43 9
 139 0044 7B68     	 ldr r3,[r7,#4]
 140 0046 DB68     	 ldr r3,[r3,#12]
 141              	 .loc 2 43 5
 142 0048 002B     	 cmp r3,#0
 143 004a 0AD1     	 bne .L5
  44:C:\Users\niels\Documents\Elektrotechniek\Jaar 2\ECS\ECSL\software\STM32\STM32Basis\HAL\gemeenschappelijk\Third_Party\freertos-addons-1.1.0\c++\Source\cread_write_lock.cpp ****         vSemaphoreDelete(ReadLock);
 144              	 .loc 2 44 9
 145 004c 7B68     	 ldr r3,[r7,#4]
 146 004e 9B68     	 ldr r3,[r3,#8]
 147 0050 1846     	 mov r0,r3
 148 0052 FFF7FEFF 	 bl vQueueDelete
  45:C:\Users\niels\Documents\Elektrotechniek\Jaar 2\ECS\ECSL\software\STM32\STM32Basis\HAL\gemeenschappelijk\Third_Party\freertos-addons-1.1.0\c++\Source\cread_write_lock.cpp ****         assert(false);
 149              	 .loc 2 45 9
 150 0056 0D4B     	 ldr r3,.L7+16
 151 0058 0A4A     	 ldr r2,.L7+8
 152 005a 2D21     	 movs r1,#45
 153 005c 0A48     	 ldr r0,.L7+12
 154 005e FFF7FEFF 	 bl __assert_func
ARM GAS   			page 9


 155              	.L5:
  46:C:\Users\niels\Documents\Elektrotechniek\Jaar 2\ECS\ECSL\software\STM32\STM32Basis\HAL\gemeenschappelijk\Third_Party\freertos-addons-1.1.0\c++\Source\cread_write_lock.cpp ****     }
  47:C:\Users\niels\Documents\Elektrotechniek\Jaar 2\ECS\ECSL\software\STM32\STM32Basis\HAL\gemeenschappelijk\Third_Party\freertos-addons-1.1.0\c++\Source\cread_write_lock.cpp **** 
  48:C:\Users\niels\Documents\Elektrotechniek\Jaar 2\ECS\ECSL\software\STM32\STM32Basis\HAL\gemeenschappelijk\Third_Party\freertos-addons-1.1.0\c++\Source\cread_write_lock.cpp ****     //
  49:C:\Users\niels\Documents\Elektrotechniek\Jaar 2\ECS\ECSL\software\STM32\STM32Basis\HAL\gemeenschappelijk\Third_Party\freertos-addons-1.1.0\c++\Source\cread_write_lock.cpp ****     //  Initialize it as "full", so it behaves similar to a mutex.
  50:C:\Users\niels\Documents\Elektrotechniek\Jaar 2\ECS\ECSL\software\STM32\STM32Basis\HAL\gemeenschappelijk\Third_Party\freertos-addons-1.1.0\c++\Source\cread_write_lock.cpp ****     //
  51:C:\Users\niels\Documents\Elektrotechniek\Jaar 2\ECS\ECSL\software\STM32\STM32Basis\HAL\gemeenschappelijk\Third_Party\freertos-addons-1.1.0\c++\Source\cread_write_lock.cpp ****     xSemaphoreGive(ResourceLock);
 156              	 .loc 2 51 5
 157 0062 7B68     	 ldr r3,[r7,#4]
 158 0064 D868     	 ldr r0,[r3,#12]
 159 0066 0023     	 movs r3,#0
 160 0068 0022     	 movs r2,#0
 161 006a 0021     	 movs r1,#0
 162 006c FFF7FEFF 	 bl xQueueGenericSend
 163              	.LBE2:
  52:C:\Users\niels\Documents\Elektrotechniek\Jaar 2\ECS\ECSL\software\STM32\STM32Basis\HAL\gemeenschappelijk\Third_Party\freertos-addons-1.1.0\c++\Source\cread_write_lock.cpp **** }
 164              	 .loc 2 52 1
 165 0070 7B68     	 ldr r3,[r7,#4]
 166 0072 1846     	 mov r0,r3
 167 0074 0837     	 adds r7,r7,#8
 168              	 .cfi_def_cfa_offset 8
 169 0076 BD46     	 mov sp,r7
 170              	 .cfi_def_cfa_register 13
 171              	 
 172 0078 80BD     	 pop {r7,pc}
 173              	.L8:
 174 007a 00BF     	 .align 2
 175              	.L7:
 176 007c 08000000 	 .word _ZTVN12cpp_freertos13ReadWriteLockE+8
 177 0080 00000000 	 .word .LC0
 178 0084 14000000 	 .word .LC1
 179 0088 44000000 	 .word .LC2
 180 008c F0000000 	 .word .LC3
 181              	 .cfi_endproc
 182              	.LFE976:
 183              	 .size _ZN12cpp_freertos13ReadWriteLockC2Ev,.-_ZN12cpp_freertos13ReadWriteLockC2Ev
 184              	 .global _ZN12cpp_freertos13ReadWriteLockC1Ev
 185              	 .thumb_set _ZN12cpp_freertos13ReadWriteLockC1Ev,_ZN12cpp_freertos13ReadWriteLockC2Ev
 186              	 .section .text._ZN12cpp_freertos13ReadWriteLockD2Ev,"ax",%progbits
 187              	 .align 1
 188              	 .global _ZN12cpp_freertos13ReadWriteLockD2Ev
 189              	 .syntax unified
 190              	 .thumb
 191              	 .thumb_func
 192              	 .type _ZN12cpp_freertos13ReadWriteLockD2Ev,%function
 193              	_ZN12cpp_freertos13ReadWriteLockD2Ev:
 194              	.LFB979:
  53:C:\Users\niels\Documents\Elektrotechniek\Jaar 2\ECS\ECSL\software\STM32\STM32Basis\HAL\gemeenschappelijk\Third_Party\freertos-addons-1.1.0\c++\Source\cread_write_lock.cpp **** 
  54:C:\Users\niels\Documents\Elektrotechniek\Jaar 2\ECS\ECSL\software\STM32\STM32Basis\HAL\gemeenschappelijk\Third_Party\freertos-addons-1.1.0\c++\Source\cread_write_lock.cpp **** 
  55:C:\Users\niels\Documents\Elektrotechniek\Jaar 2\ECS\ECSL\software\STM32\STM32Basis\HAL\gemeenschappelijk\Third_Party\freertos-addons-1.1.0\c++\Source\cread_write_lock.cpp **** ReadWriteLock::~ReadWriteLock()
 195              	 .loc 2 55 1
 196              	 .cfi_startproc
 197              	 
 198              	 
 199 0000 80B5     	 push {r7,lr}
 200              	 .cfi_def_cfa_offset 8
 201              	 .cfi_offset 7,-8
ARM GAS   			page 10


 202              	 .cfi_offset 14,-4
 203 0002 82B0     	 sub sp,sp,#8
 204              	 .cfi_def_cfa_offset 16
 205 0004 00AF     	 add r7,sp,#0
 206              	 .cfi_def_cfa_register 7
 207 0006 7860     	 str r0,[r7,#4]
 208              	.LBB3:
 209              	 .loc 2 55 31
 210 0008 084A     	 ldr r2,.L11
 211 000a 7B68     	 ldr r3,[r7,#4]
 212 000c 1A60     	 str r2,[r3]
  56:C:\Users\niels\Documents\Elektrotechniek\Jaar 2\ECS\ECSL\software\STM32\STM32Basis\HAL\gemeenschappelijk\Third_Party\freertos-addons-1.1.0\c++\Source\cread_write_lock.cpp **** {
  57:C:\Users\niels\Documents\Elektrotechniek\Jaar 2\ECS\ECSL\software\STM32\STM32Basis\HAL\gemeenschappelijk\Third_Party\freertos-addons-1.1.0\c++\Source\cread_write_lock.cpp ****     vSemaphoreDelete(ReadLock);
 213              	 .loc 2 57 5
 214 000e 7B68     	 ldr r3,[r7,#4]
 215 0010 9B68     	 ldr r3,[r3,#8]
 216 0012 1846     	 mov r0,r3
 217 0014 FFF7FEFF 	 bl vQueueDelete
  58:C:\Users\niels\Documents\Elektrotechniek\Jaar 2\ECS\ECSL\software\STM32\STM32Basis\HAL\gemeenschappelijk\Third_Party\freertos-addons-1.1.0\c++\Source\cread_write_lock.cpp ****     vSemaphoreDelete(ResourceLock);
 218              	 .loc 2 58 5
 219 0018 7B68     	 ldr r3,[r7,#4]
 220 001a DB68     	 ldr r3,[r3,#12]
 221 001c 1846     	 mov r0,r3
 222 001e FFF7FEFF 	 bl vQueueDelete
 223              	.LBE3:
  59:C:\Users\niels\Documents\Elektrotechniek\Jaar 2\ECS\ECSL\software\STM32\STM32Basis\HAL\gemeenschappelijk\Third_Party\freertos-addons-1.1.0\c++\Source\cread_write_lock.cpp **** }
 224              	 .loc 2 59 1
 225 0022 7B68     	 ldr r3,[r7,#4]
 226 0024 1846     	 mov r0,r3
 227 0026 0837     	 adds r7,r7,#8
 228              	 .cfi_def_cfa_offset 8
 229 0028 BD46     	 mov sp,r7
 230              	 .cfi_def_cfa_register 13
 231              	 
 232 002a 80BD     	 pop {r7,pc}
 233              	.L12:
 234              	 .align 2
 235              	.L11:
 236 002c 08000000 	 .word _ZTVN12cpp_freertos13ReadWriteLockE+8
 237              	 .cfi_endproc
 238              	.LFE979:
 239              	 .size _ZN12cpp_freertos13ReadWriteLockD2Ev,.-_ZN12cpp_freertos13ReadWriteLockD2Ev
 240              	 .global _ZN12cpp_freertos13ReadWriteLockD1Ev
 241              	 .thumb_set _ZN12cpp_freertos13ReadWriteLockD1Ev,_ZN12cpp_freertos13ReadWriteLockD2Ev
 242              	 .section .text._ZN12cpp_freertos13ReadWriteLockD0Ev,"ax",%progbits
 243              	 .align 1
 244              	 .global _ZN12cpp_freertos13ReadWriteLockD0Ev
 245              	 .syntax unified
 246              	 .thumb
 247              	 .thumb_func
 248              	 .type _ZN12cpp_freertos13ReadWriteLockD0Ev,%function
 249              	_ZN12cpp_freertos13ReadWriteLockD0Ev:
 250              	.LFB981:
  55:C:\Users\niels\Documents\Elektrotechniek\Jaar 2\ECS\ECSL\software\STM32\STM32Basis\HAL\gemeenschappelijk\Third_Party\freertos-addons-1.1.0\c++\Source\cread_write_lock.cpp **** {
 251              	 .loc 2 55 1
 252              	 .cfi_startproc
 253              	 
ARM GAS   			page 11


 254              	 
 255 0000 80B5     	 push {r7,lr}
 256              	 .cfi_def_cfa_offset 8
 257              	 .cfi_offset 7,-8
 258              	 .cfi_offset 14,-4
 259 0002 82B0     	 sub sp,sp,#8
 260              	 .cfi_def_cfa_offset 16
 261 0004 00AF     	 add r7,sp,#0
 262              	 .cfi_def_cfa_register 7
 263 0006 7860     	 str r0,[r7,#4]
 264              	 .loc 2 59 1
 265 0008 7868     	 ldr r0,[r7,#4]
 266 000a FFF7FEFF 	 bl _ZN12cpp_freertos13ReadWriteLockD1Ev
 267 000e 7868     	 ldr r0,[r7,#4]
 268 0010 FFF7FEFF 	 bl _ZdlPv
 269 0014 7B68     	 ldr r3,[r7,#4]
 270 0016 1846     	 mov r0,r3
 271 0018 0837     	 adds r7,r7,#8
 272              	 .cfi_def_cfa_offset 8
 273 001a BD46     	 mov sp,r7
 274              	 .cfi_def_cfa_register 13
 275              	 
 276 001c 80BD     	 pop {r7,pc}
 277              	 .cfi_endproc
 278              	.LFE981:
 279              	 .size _ZN12cpp_freertos13ReadWriteLockD0Ev,.-_ZN12cpp_freertos13ReadWriteLockD0Ev
 280              	 .section .text._ZN12cpp_freertos25ReadWriteLockPreferReader10ReaderLockEv,"ax",%progbits
 281              	 .align 1
 282              	 .global _ZN12cpp_freertos25ReadWriteLockPreferReader10ReaderLockEv
 283              	 .syntax unified
 284              	 .thumb
 285              	 .thumb_func
 286              	 .type _ZN12cpp_freertos25ReadWriteLockPreferReader10ReaderLockEv,%function
 287              	_ZN12cpp_freertos25ReadWriteLockPreferReader10ReaderLockEv:
 288              	.LFB982:
  60:C:\Users\niels\Documents\Elektrotechniek\Jaar 2\ECS\ECSL\software\STM32\STM32Basis\HAL\gemeenschappelijk\Third_Party\freertos-addons-1.1.0\c++\Source\cread_write_lock.cpp **** 
  61:C:\Users\niels\Documents\Elektrotechniek\Jaar 2\ECS\ECSL\software\STM32\STM32Basis\HAL\gemeenschappelijk\Third_Party\freertos-addons-1.1.0\c++\Source\cread_write_lock.cpp **** 
  62:C:\Users\niels\Documents\Elektrotechniek\Jaar 2\ECS\ECSL\software\STM32\STM32Basis\HAL\gemeenschappelijk\Third_Party\freertos-addons-1.1.0\c++\Source\cread_write_lock.cpp **** void ReadWriteLockPreferReader::ReaderLock()
  63:C:\Users\niels\Documents\Elektrotechniek\Jaar 2\ECS\ECSL\software\STM32\STM32Basis\HAL\gemeenschappelijk\Third_Party\freertos-addons-1.1.0\c++\Source\cread_write_lock.cpp **** {
 289              	 .loc 2 63 1
 290              	 .cfi_startproc
 291              	 
 292              	 
 293 0000 80B5     	 push {r7,lr}
 294              	 .cfi_def_cfa_offset 8
 295              	 .cfi_offset 7,-8
 296              	 .cfi_offset 14,-4
 297 0002 82B0     	 sub sp,sp,#8
 298              	 .cfi_def_cfa_offset 16
 299 0004 00AF     	 add r7,sp,#0
 300              	 .cfi_def_cfa_register 7
 301 0006 7860     	 str r0,[r7,#4]
  64:C:\Users\niels\Documents\Elektrotechniek\Jaar 2\ECS\ECSL\software\STM32\STM32Basis\HAL\gemeenschappelijk\Third_Party\freertos-addons-1.1.0\c++\Source\cread_write_lock.cpp ****     xSemaphoreTake(ReadLock, portMAX_DELAY);
 302              	 .loc 2 64 5
 303 0008 7B68     	 ldr r3,[r7,#4]
 304 000a 9868     	 ldr r0,[r3,#8]
 305 000c 0023     	 movs r3,#0
ARM GAS   			page 12


 306 000e 4FF0FF32 	 mov r2,#-1
 307 0012 0021     	 movs r1,#0
 308 0014 FFF7FEFF 	 bl xQueueGenericReceive
  65:C:\Users\niels\Documents\Elektrotechniek\Jaar 2\ECS\ECSL\software\STM32\STM32Basis\HAL\gemeenschappelijk\Third_Party\freertos-addons-1.1.0\c++\Source\cread_write_lock.cpp **** 
  66:C:\Users\niels\Documents\Elektrotechniek\Jaar 2\ECS\ECSL\software\STM32\STM32Basis\HAL\gemeenschappelijk\Third_Party\freertos-addons-1.1.0\c++\Source\cread_write_lock.cpp ****     ReadCount++;
 309              	 .loc 2 66 5
 310 0018 7B68     	 ldr r3,[r7,#4]
 311 001a 5B68     	 ldr r3,[r3,#4]
 312              	 .loc 2 66 14
 313 001c 5A1C     	 adds r2,r3,#1
 314 001e 7B68     	 ldr r3,[r7,#4]
 315 0020 5A60     	 str r2,[r3,#4]
  67:C:\Users\niels\Documents\Elektrotechniek\Jaar 2\ECS\ECSL\software\STM32\STM32Basis\HAL\gemeenschappelijk\Third_Party\freertos-addons-1.1.0\c++\Source\cread_write_lock.cpp ****     if (ReadCount == 1) {
 316              	 .loc 2 67 9
 317 0022 7B68     	 ldr r3,[r7,#4]
 318 0024 5B68     	 ldr r3,[r3,#4]
 319              	 .loc 2 67 5
 320 0026 012B     	 cmp r3,#1
 321 0028 07D1     	 bne .L16
  68:C:\Users\niels\Documents\Elektrotechniek\Jaar 2\ECS\ECSL\software\STM32\STM32Basis\HAL\gemeenschappelijk\Third_Party\freertos-addons-1.1.0\c++\Source\cread_write_lock.cpp ****         xSemaphoreTake(ResourceLock, portMAX_DELAY);
 322              	 .loc 2 68 9
 323 002a 7B68     	 ldr r3,[r7,#4]
 324 002c D868     	 ldr r0,[r3,#12]
 325 002e 0023     	 movs r3,#0
 326 0030 4FF0FF32 	 mov r2,#-1
 327 0034 0021     	 movs r1,#0
 328 0036 FFF7FEFF 	 bl xQueueGenericReceive
 329              	.L16:
  69:C:\Users\niels\Documents\Elektrotechniek\Jaar 2\ECS\ECSL\software\STM32\STM32Basis\HAL\gemeenschappelijk\Third_Party\freertos-addons-1.1.0\c++\Source\cread_write_lock.cpp ****     }
  70:C:\Users\niels\Documents\Elektrotechniek\Jaar 2\ECS\ECSL\software\STM32\STM32Basis\HAL\gemeenschappelijk\Third_Party\freertos-addons-1.1.0\c++\Source\cread_write_lock.cpp **** 
  71:C:\Users\niels\Documents\Elektrotechniek\Jaar 2\ECS\ECSL\software\STM32\STM32Basis\HAL\gemeenschappelijk\Third_Party\freertos-addons-1.1.0\c++\Source\cread_write_lock.cpp ****     xSemaphoreGive(ReadLock);
 330              	 .loc 2 71 5
 331 003a 7B68     	 ldr r3,[r7,#4]
 332 003c 9868     	 ldr r0,[r3,#8]
 333 003e 0023     	 movs r3,#0
 334 0040 0022     	 movs r2,#0
 335 0042 0021     	 movs r1,#0
 336 0044 FFF7FEFF 	 bl xQueueGenericSend
  72:C:\Users\niels\Documents\Elektrotechniek\Jaar 2\ECS\ECSL\software\STM32\STM32Basis\HAL\gemeenschappelijk\Third_Party\freertos-addons-1.1.0\c++\Source\cread_write_lock.cpp **** }
 337              	 .loc 2 72 1
 338 0048 00BF     	 nop
 339 004a 0837     	 adds r7,r7,#8
 340              	 .cfi_def_cfa_offset 8
 341 004c BD46     	 mov sp,r7
 342              	 .cfi_def_cfa_register 13
 343              	 
 344 004e 80BD     	 pop {r7,pc}
 345              	 .cfi_endproc
 346              	.LFE982:
 347              	 .size _ZN12cpp_freertos25ReadWriteLockPreferReader10ReaderLockEv,.-_ZN12cpp_freertos25ReadWriteLockPreferReader10ReaderLockEv
 348              	 .section .text._ZN12cpp_freertos25ReadWriteLockPreferReader12ReaderUnlockEv,"ax",%progbits
 349              	 .align 1
 350              	 .global _ZN12cpp_freertos25ReadWriteLockPreferReader12ReaderUnlockEv
 351              	 .syntax unified
 352              	 .thumb
 353              	 .thumb_func
 354              	 .type _ZN12cpp_freertos25ReadWriteLockPreferReader12ReaderUnlockEv,%function
ARM GAS   			page 13


 355              	_ZN12cpp_freertos25ReadWriteLockPreferReader12ReaderUnlockEv:
 356              	.LFB983:
  73:C:\Users\niels\Documents\Elektrotechniek\Jaar 2\ECS\ECSL\software\STM32\STM32Basis\HAL\gemeenschappelijk\Third_Party\freertos-addons-1.1.0\c++\Source\cread_write_lock.cpp **** 
  74:C:\Users\niels\Documents\Elektrotechniek\Jaar 2\ECS\ECSL\software\STM32\STM32Basis\HAL\gemeenschappelijk\Third_Party\freertos-addons-1.1.0\c++\Source\cread_write_lock.cpp **** 
  75:C:\Users\niels\Documents\Elektrotechniek\Jaar 2\ECS\ECSL\software\STM32\STM32Basis\HAL\gemeenschappelijk\Third_Party\freertos-addons-1.1.0\c++\Source\cread_write_lock.cpp **** void ReadWriteLockPreferReader::ReaderUnlock()
  76:C:\Users\niels\Documents\Elektrotechniek\Jaar 2\ECS\ECSL\software\STM32\STM32Basis\HAL\gemeenschappelijk\Third_Party\freertos-addons-1.1.0\c++\Source\cread_write_lock.cpp **** {
 357              	 .loc 2 76 1
 358              	 .cfi_startproc
 359              	 
 360              	 
 361 0000 80B5     	 push {r7,lr}
 362              	 .cfi_def_cfa_offset 8
 363              	 .cfi_offset 7,-8
 364              	 .cfi_offset 14,-4
 365 0002 82B0     	 sub sp,sp,#8
 366              	 .cfi_def_cfa_offset 16
 367 0004 00AF     	 add r7,sp,#0
 368              	 .cfi_def_cfa_register 7
 369 0006 7860     	 str r0,[r7,#4]
  77:C:\Users\niels\Documents\Elektrotechniek\Jaar 2\ECS\ECSL\software\STM32\STM32Basis\HAL\gemeenschappelijk\Third_Party\freertos-addons-1.1.0\c++\Source\cread_write_lock.cpp ****     xSemaphoreTake(ReadLock, portMAX_DELAY);
 370              	 .loc 2 77 5
 371 0008 7B68     	 ldr r3,[r7,#4]
 372 000a 9868     	 ldr r0,[r3,#8]
 373 000c 0023     	 movs r3,#0
 374 000e 4FF0FF32 	 mov r2,#-1
 375 0012 0021     	 movs r1,#0
 376 0014 FFF7FEFF 	 bl xQueueGenericReceive
  78:C:\Users\niels\Documents\Elektrotechniek\Jaar 2\ECS\ECSL\software\STM32\STM32Basis\HAL\gemeenschappelijk\Third_Party\freertos-addons-1.1.0\c++\Source\cread_write_lock.cpp **** 
  79:C:\Users\niels\Documents\Elektrotechniek\Jaar 2\ECS\ECSL\software\STM32\STM32Basis\HAL\gemeenschappelijk\Third_Party\freertos-addons-1.1.0\c++\Source\cread_write_lock.cpp ****     ReadCount--;
 377              	 .loc 2 79 5
 378 0018 7B68     	 ldr r3,[r7,#4]
 379 001a 5B68     	 ldr r3,[r3,#4]
 380              	 .loc 2 79 14
 381 001c 5A1E     	 subs r2,r3,#1
 382 001e 7B68     	 ldr r3,[r7,#4]
 383 0020 5A60     	 str r2,[r3,#4]
  80:C:\Users\niels\Documents\Elektrotechniek\Jaar 2\ECS\ECSL\software\STM32\STM32Basis\HAL\gemeenschappelijk\Third_Party\freertos-addons-1.1.0\c++\Source\cread_write_lock.cpp ****     if (ReadCount == 0) {
 384              	 .loc 2 80 9
 385 0022 7B68     	 ldr r3,[r7,#4]
 386 0024 5B68     	 ldr r3,[r3,#4]
 387              	 .loc 2 80 5
 388 0026 002B     	 cmp r3,#0
 389 0028 06D1     	 bne .L18
  81:C:\Users\niels\Documents\Elektrotechniek\Jaar 2\ECS\ECSL\software\STM32\STM32Basis\HAL\gemeenschappelijk\Third_Party\freertos-addons-1.1.0\c++\Source\cread_write_lock.cpp ****         xSemaphoreGive(ResourceLock);
 390              	 .loc 2 81 9
 391 002a 7B68     	 ldr r3,[r7,#4]
 392 002c D868     	 ldr r0,[r3,#12]
 393 002e 0023     	 movs r3,#0
 394 0030 0022     	 movs r2,#0
 395 0032 0021     	 movs r1,#0
 396 0034 FFF7FEFF 	 bl xQueueGenericSend
 397              	.L18:
  82:C:\Users\niels\Documents\Elektrotechniek\Jaar 2\ECS\ECSL\software\STM32\STM32Basis\HAL\gemeenschappelijk\Third_Party\freertos-addons-1.1.0\c++\Source\cread_write_lock.cpp ****     }
  83:C:\Users\niels\Documents\Elektrotechniek\Jaar 2\ECS\ECSL\software\STM32\STM32Basis\HAL\gemeenschappelijk\Third_Party\freertos-addons-1.1.0\c++\Source\cread_write_lock.cpp **** 
  84:C:\Users\niels\Documents\Elektrotechniek\Jaar 2\ECS\ECSL\software\STM32\STM32Basis\HAL\gemeenschappelijk\Third_Party\freertos-addons-1.1.0\c++\Source\cread_write_lock.cpp ****     xSemaphoreGive(ReadLock);
 398              	 .loc 2 84 5
 399 0038 7B68     	 ldr r3,[r7,#4]
ARM GAS   			page 14


 400 003a 9868     	 ldr r0,[r3,#8]
 401 003c 0023     	 movs r3,#0
 402 003e 0022     	 movs r2,#0
 403 0040 0021     	 movs r1,#0
 404 0042 FFF7FEFF 	 bl xQueueGenericSend
  85:C:\Users\niels\Documents\Elektrotechniek\Jaar 2\ECS\ECSL\software\STM32\STM32Basis\HAL\gemeenschappelijk\Third_Party\freertos-addons-1.1.0\c++\Source\cread_write_lock.cpp **** }
 405              	 .loc 2 85 1
 406 0046 00BF     	 nop
 407 0048 0837     	 adds r7,r7,#8
 408              	 .cfi_def_cfa_offset 8
 409 004a BD46     	 mov sp,r7
 410              	 .cfi_def_cfa_register 13
 411              	 
 412 004c 80BD     	 pop {r7,pc}
 413              	 .cfi_endproc
 414              	.LFE983:
 415              	 .size _ZN12cpp_freertos25ReadWriteLockPreferReader12ReaderUnlockEv,.-_ZN12cpp_freertos25ReadWriteLockPreferReader12ReaderUnlockEv
 416              	 .section .text._ZN12cpp_freertos25ReadWriteLockPreferReader10WriterLockEv,"ax",%progbits
 417              	 .align 1
 418              	 .global _ZN12cpp_freertos25ReadWriteLockPreferReader10WriterLockEv
 419              	 .syntax unified
 420              	 .thumb
 421              	 .thumb_func
 422              	 .type _ZN12cpp_freertos25ReadWriteLockPreferReader10WriterLockEv,%function
 423              	_ZN12cpp_freertos25ReadWriteLockPreferReader10WriterLockEv:
 424              	.LFB984:
  86:C:\Users\niels\Documents\Elektrotechniek\Jaar 2\ECS\ECSL\software\STM32\STM32Basis\HAL\gemeenschappelijk\Third_Party\freertos-addons-1.1.0\c++\Source\cread_write_lock.cpp **** 
  87:C:\Users\niels\Documents\Elektrotechniek\Jaar 2\ECS\ECSL\software\STM32\STM32Basis\HAL\gemeenschappelijk\Third_Party\freertos-addons-1.1.0\c++\Source\cread_write_lock.cpp **** 
  88:C:\Users\niels\Documents\Elektrotechniek\Jaar 2\ECS\ECSL\software\STM32\STM32Basis\HAL\gemeenschappelijk\Third_Party\freertos-addons-1.1.0\c++\Source\cread_write_lock.cpp **** void ReadWriteLockPreferReader::WriterLock()
  89:C:\Users\niels\Documents\Elektrotechniek\Jaar 2\ECS\ECSL\software\STM32\STM32Basis\HAL\gemeenschappelijk\Third_Party\freertos-addons-1.1.0\c++\Source\cread_write_lock.cpp **** {
 425              	 .loc 2 89 1
 426              	 .cfi_startproc
 427              	 
 428              	 
 429 0000 80B5     	 push {r7,lr}
 430              	 .cfi_def_cfa_offset 8
 431              	 .cfi_offset 7,-8
 432              	 .cfi_offset 14,-4
 433 0002 82B0     	 sub sp,sp,#8
 434              	 .cfi_def_cfa_offset 16
 435 0004 00AF     	 add r7,sp,#0
 436              	 .cfi_def_cfa_register 7
 437 0006 7860     	 str r0,[r7,#4]
  90:C:\Users\niels\Documents\Elektrotechniek\Jaar 2\ECS\ECSL\software\STM32\STM32Basis\HAL\gemeenschappelijk\Third_Party\freertos-addons-1.1.0\c++\Source\cread_write_lock.cpp ****     xSemaphoreTake(ResourceLock, portMAX_DELAY);
 438              	 .loc 2 90 5
 439 0008 7B68     	 ldr r3,[r7,#4]
 440 000a D868     	 ldr r0,[r3,#12]
 441 000c 0023     	 movs r3,#0
 442 000e 4FF0FF32 	 mov r2,#-1
 443 0012 0021     	 movs r1,#0
 444 0014 FFF7FEFF 	 bl xQueueGenericReceive
  91:C:\Users\niels\Documents\Elektrotechniek\Jaar 2\ECS\ECSL\software\STM32\STM32Basis\HAL\gemeenschappelijk\Third_Party\freertos-addons-1.1.0\c++\Source\cread_write_lock.cpp **** }
 445              	 .loc 2 91 1
 446 0018 00BF     	 nop
 447 001a 0837     	 adds r7,r7,#8
 448              	 .cfi_def_cfa_offset 8
 449 001c BD46     	 mov sp,r7
ARM GAS   			page 15


 450              	 .cfi_def_cfa_register 13
 451              	 
 452 001e 80BD     	 pop {r7,pc}
 453              	 .cfi_endproc
 454              	.LFE984:
 455              	 .size _ZN12cpp_freertos25ReadWriteLockPreferReader10WriterLockEv,.-_ZN12cpp_freertos25ReadWriteLockPreferReader10WriterLockEv
 456              	 .section .text._ZN12cpp_freertos25ReadWriteLockPreferReader12WriterUnlockEv,"ax",%progbits
 457              	 .align 1
 458              	 .global _ZN12cpp_freertos25ReadWriteLockPreferReader12WriterUnlockEv
 459              	 .syntax unified
 460              	 .thumb
 461              	 .thumb_func
 462              	 .type _ZN12cpp_freertos25ReadWriteLockPreferReader12WriterUnlockEv,%function
 463              	_ZN12cpp_freertos25ReadWriteLockPreferReader12WriterUnlockEv:
 464              	.LFB985:
  92:C:\Users\niels\Documents\Elektrotechniek\Jaar 2\ECS\ECSL\software\STM32\STM32Basis\HAL\gemeenschappelijk\Third_Party\freertos-addons-1.1.0\c++\Source\cread_write_lock.cpp **** 
  93:C:\Users\niels\Documents\Elektrotechniek\Jaar 2\ECS\ECSL\software\STM32\STM32Basis\HAL\gemeenschappelijk\Third_Party\freertos-addons-1.1.0\c++\Source\cread_write_lock.cpp **** 
  94:C:\Users\niels\Documents\Elektrotechniek\Jaar 2\ECS\ECSL\software\STM32\STM32Basis\HAL\gemeenschappelijk\Third_Party\freertos-addons-1.1.0\c++\Source\cread_write_lock.cpp **** void ReadWriteLockPreferReader::WriterUnlock()
  95:C:\Users\niels\Documents\Elektrotechniek\Jaar 2\ECS\ECSL\software\STM32\STM32Basis\HAL\gemeenschappelijk\Third_Party\freertos-addons-1.1.0\c++\Source\cread_write_lock.cpp **** {
 465              	 .loc 2 95 1
 466              	 .cfi_startproc
 467              	 
 468              	 
 469 0000 80B5     	 push {r7,lr}
 470              	 .cfi_def_cfa_offset 8
 471              	 .cfi_offset 7,-8
 472              	 .cfi_offset 14,-4
 473 0002 82B0     	 sub sp,sp,#8
 474              	 .cfi_def_cfa_offset 16
 475 0004 00AF     	 add r7,sp,#0
 476              	 .cfi_def_cfa_register 7
 477 0006 7860     	 str r0,[r7,#4]
  96:C:\Users\niels\Documents\Elektrotechniek\Jaar 2\ECS\ECSL\software\STM32\STM32Basis\HAL\gemeenschappelijk\Third_Party\freertos-addons-1.1.0\c++\Source\cread_write_lock.cpp ****     xSemaphoreGive(ResourceLock);
 478              	 .loc 2 96 5
 479 0008 7B68     	 ldr r3,[r7,#4]
 480 000a D868     	 ldr r0,[r3,#12]
 481 000c 0023     	 movs r3,#0
 482 000e 0022     	 movs r2,#0
 483 0010 0021     	 movs r1,#0
 484 0012 FFF7FEFF 	 bl xQueueGenericSend
  97:C:\Users\niels\Documents\Elektrotechniek\Jaar 2\ECS\ECSL\software\STM32\STM32Basis\HAL\gemeenschappelijk\Third_Party\freertos-addons-1.1.0\c++\Source\cread_write_lock.cpp **** }
 485              	 .loc 2 97 1
 486 0016 00BF     	 nop
 487 0018 0837     	 adds r7,r7,#8
 488              	 .cfi_def_cfa_offset 8
 489 001a BD46     	 mov sp,r7
 490              	 .cfi_def_cfa_register 13
 491              	 
 492 001c 80BD     	 pop {r7,pc}
 493              	 .cfi_endproc
 494              	.LFE985:
 495              	 .size _ZN12cpp_freertos25ReadWriteLockPreferReader12WriterUnlockEv,.-_ZN12cpp_freertos25ReadWriteLockPreferReader12WriterUnlockEv
 496              	 .section .rodata
 497 00f6 0000     	 .align 2
 498              	.LC4:
 499 00f8 57726974 	 .ascii "WriteLock != NULL\000"
 499      654C6F63 
ARM GAS   			page 16


 499      6B20213D 
 499      204E554C 
 499      4C00
 500 010a 0000     	 .align 2
 501              	.LC5:
 502 010c 6370705F 	 .ascii "cpp_freertos::ReadWriteLockPreferWriter::ReadWriteL"
 502      66726565 
 502      72746F73 
 502      3A3A5265 
 502      61645772 
 503 013f 6F636B50 	 .ascii "ockPreferWriter()\000"
 503      72656665 
 503      72577269 
 503      74657228 
 503      2900
 504              	 .section .text._ZN12cpp_freertos25ReadWriteLockPreferWriterC2Ev,"ax",%progbits
 505              	 .align 1
 506              	 .global _ZN12cpp_freertos25ReadWriteLockPreferWriterC2Ev
 507              	 .syntax unified
 508              	 .thumb
 509              	 .thumb_func
 510              	 .type _ZN12cpp_freertos25ReadWriteLockPreferWriterC2Ev,%function
 511              	_ZN12cpp_freertos25ReadWriteLockPreferWriterC2Ev:
 512              	.LFB987:
  98:C:\Users\niels\Documents\Elektrotechniek\Jaar 2\ECS\ECSL\software\STM32\STM32Basis\HAL\gemeenschappelijk\Third_Party\freertos-addons-1.1.0\c++\Source\cread_write_lock.cpp **** 
  99:C:\Users\niels\Documents\Elektrotechniek\Jaar 2\ECS\ECSL\software\STM32\STM32Basis\HAL\gemeenschappelijk\Third_Party\freertos-addons-1.1.0\c++\Source\cread_write_lock.cpp **** 
 100:C:\Users\niels\Documents\Elektrotechniek\Jaar 2\ECS\ECSL\software\STM32\STM32Basis\HAL\gemeenschappelijk\Third_Party\freertos-addons-1.1.0\c++\Source\cread_write_lock.cpp **** ReadWriteLockPreferWriter::ReadWriteLockPreferWriter()
 513              	 .loc 2 100 1
 514              	 .cfi_startproc
 515              	 
 516              	 
 517 0000 80B5     	 push {r7,lr}
 518              	 .cfi_def_cfa_offset 8
 519              	 .cfi_offset 7,-8
 520              	 .cfi_offset 14,-4
 521 0002 82B0     	 sub sp,sp,#8
 522              	 .cfi_def_cfa_offset 16
 523 0004 00AF     	 add r7,sp,#0
 524              	 .cfi_def_cfa_register 7
 525 0006 7860     	 str r0,[r7,#4]
 526              	.LBB4:
 101:C:\Users\niels\Documents\Elektrotechniek\Jaar 2\ECS\ECSL\software\STM32\STM32Basis\HAL\gemeenschappelijk\Third_Party\freertos-addons-1.1.0\c++\Source\cread_write_lock.cpp ****     : ReadWriteLock(),
 102:C:\Users\niels\Documents\Elektrotechniek\Jaar 2\ECS\ECSL\software\STM32\STM32Basis\HAL\gemeenschappelijk\Third_Party\freertos-addons-1.1.0\c++\Source\cread_write_lock.cpp ****       WriteCount(0)
 527              	 .loc 2 102 19
 528 0008 7B68     	 ldr r3,[r7,#4]
 529 000a 1846     	 mov r0,r3
 530 000c FFF7FEFF 	 bl _ZN12cpp_freertos13ReadWriteLockC2Ev
 531 0010 1C4A     	 ldr r2,.L25
 532 0012 7B68     	 ldr r3,[r7,#4]
 533 0014 1A60     	 str r2,[r3]
 534 0016 7B68     	 ldr r3,[r7,#4]
 535 0018 0022     	 movs r2,#0
 536 001a 1A61     	 str r2,[r3,#16]
 103:C:\Users\niels\Documents\Elektrotechniek\Jaar 2\ECS\ECSL\software\STM32\STM32Basis\HAL\gemeenschappelijk\Third_Party\freertos-addons-1.1.0\c++\Source\cread_write_lock.cpp **** {
 104:C:\Users\niels\Documents\Elektrotechniek\Jaar 2\ECS\ECSL\software\STM32\STM32Basis\HAL\gemeenschappelijk\Third_Party\freertos-addons-1.1.0\c++\Source\cread_write_lock.cpp ****     WriteLock = xSemaphoreCreateMutex();
 537              	 .loc 2 104 17
 538 001c 0120     	 movs r0,#1
ARM GAS   			page 17


 539 001e FFF7FEFF 	 bl xQueueCreateMutex
 540 0022 0246     	 mov r2,r0
 541              	 .loc 2 104 15
 542 0024 7B68     	 ldr r3,[r7,#4]
 543 0026 5A61     	 str r2,[r3,#20]
 105:C:\Users\niels\Documents\Elektrotechniek\Jaar 2\ECS\ECSL\software\STM32\STM32Basis\HAL\gemeenschappelijk\Third_Party\freertos-addons-1.1.0\c++\Source\cread_write_lock.cpp **** 	assert(WriteLock != NULL);
 544              	 .loc 2 105 2
 545 0028 7B68     	 ldr r3,[r7,#4]
 546 002a 5B69     	 ldr r3,[r3,#20]
 547 002c 002B     	 cmp r3,#0
 548 002e 05D1     	 bne .L22
 549              	 .loc 2 105 2 is_stmt 0 discriminator 1
 550 0030 154B     	 ldr r3,.L25+4
 551 0032 164A     	 ldr r2,.L25+8
 552 0034 6921     	 movs r1,#105
 553 0036 1648     	 ldr r0,.L25+12
 554 0038 FFF7FEFF 	 bl __assert_func
 555              	.L22:
 106:C:\Users\niels\Documents\Elektrotechniek\Jaar 2\ECS\ECSL\software\STM32\STM32Basis\HAL\gemeenschappelijk\Third_Party\freertos-addons-1.1.0\c++\Source\cread_write_lock.cpp **** 
 107:C:\Users\niels\Documents\Elektrotechniek\Jaar 2\ECS\ECSL\software\STM32\STM32Basis\HAL\gemeenschappelijk\Third_Party\freertos-addons-1.1.0\c++\Source\cread_write_lock.cpp ****     //
 108:C:\Users\niels\Documents\Elektrotechniek\Jaar 2\ECS\ECSL\software\STM32\STM32Basis\HAL\gemeenschappelijk\Third_Party\freertos-addons-1.1.0\c++\Source\cread_write_lock.cpp ****     //  BlockReadersLock CANNOT be a mutex. In FreeRTOS, as in most OS's,
 109:C:\Users\niels\Documents\Elektrotechniek\Jaar 2\ECS\ECSL\software\STM32\STM32Basis\HAL\gemeenschappelijk\Third_Party\freertos-addons-1.1.0\c++\Source\cread_write_lock.cpp ****     //  a thread is not allowed to unlock another thread's mutex. But
 110:C:\Users\niels\Documents\Elektrotechniek\Jaar 2\ECS\ECSL\software\STM32\STM32Basis\HAL\gemeenschappelijk\Third_Party\freertos-addons-1.1.0\c++\Source\cread_write_lock.cpp ****     //  the very nature of a Reader Lock allows an arbitrary ordering 
 111:C:\Users\niels\Documents\Elektrotechniek\Jaar 2\ECS\ECSL\software\STM32\STM32Basis\HAL\gemeenschappelijk\Third_Party\freertos-addons-1.1.0\c++\Source\cread_write_lock.cpp ****     //  of unlocks when multiple threads hold the reader lock. 
 112:C:\Users\niels\Documents\Elektrotechniek\Jaar 2\ECS\ECSL\software\STM32\STM32Basis\HAL\gemeenschappelijk\Third_Party\freertos-addons-1.1.0\c++\Source\cread_write_lock.cpp ****     //  Semaphores are not subject to this constraint.
 113:C:\Users\niels\Documents\Elektrotechniek\Jaar 2\ECS\ECSL\software\STM32\STM32Basis\HAL\gemeenschappelijk\Third_Party\freertos-addons-1.1.0\c++\Source\cread_write_lock.cpp ****     //
 114:C:\Users\niels\Documents\Elektrotechniek\Jaar 2\ECS\ECSL\software\STM32\STM32Basis\HAL\gemeenschappelijk\Third_Party\freertos-addons-1.1.0\c++\Source\cread_write_lock.cpp ****     BlockReadersLock = xSemaphoreCreateBinary();
 556              	 .loc 2 114 24 is_stmt 1
 557 003c 0322     	 movs r2,#3
 558 003e 0021     	 movs r1,#0
 559 0040 0120     	 movs r0,#1
 560 0042 FFF7FEFF 	 bl xQueueGenericCreate
 561 0046 0246     	 mov r2,r0
 562              	 .loc 2 114 22
 563 0048 7B68     	 ldr r3,[r7,#4]
 564 004a 9A61     	 str r2,[r3,#24]
 115:C:\Users\niels\Documents\Elektrotechniek\Jaar 2\ECS\ECSL\software\STM32\STM32Basis\HAL\gemeenschappelijk\Third_Party\freertos-addons-1.1.0\c++\Source\cread_write_lock.cpp ****     if (BlockReadersLock == NULL) {
 565              	 .loc 2 115 9
 566 004c 7B68     	 ldr r3,[r7,#4]
 567 004e 9B69     	 ldr r3,[r3,#24]
 568              	 .loc 2 115 5
 569 0050 002B     	 cmp r3,#0
 570 0052 0AD1     	 bne .L23
 116:C:\Users\niels\Documents\Elektrotechniek\Jaar 2\ECS\ECSL\software\STM32\STM32Basis\HAL\gemeenschappelijk\Third_Party\freertos-addons-1.1.0\c++\Source\cread_write_lock.cpp ****         vSemaphoreDelete(WriteLock);
 571              	 .loc 2 116 9
 572 0054 7B68     	 ldr r3,[r7,#4]
 573 0056 5B69     	 ldr r3,[r3,#20]
 574 0058 1846     	 mov r0,r3
 575 005a FFF7FEFF 	 bl vQueueDelete
 117:C:\Users\niels\Documents\Elektrotechniek\Jaar 2\ECS\ECSL\software\STM32\STM32Basis\HAL\gemeenschappelijk\Third_Party\freertos-addons-1.1.0\c++\Source\cread_write_lock.cpp ****         assert(false);
 576              	 .loc 2 117 9
 577 005e 0D4B     	 ldr r3,.L25+16
 578 0060 0A4A     	 ldr r2,.L25+8
 579 0062 7521     	 movs r1,#117
 580 0064 0A48     	 ldr r0,.L25+12
 581 0066 FFF7FEFF 	 bl __assert_func
 582              	.L23:
ARM GAS   			page 18


 118:C:\Users\niels\Documents\Elektrotechniek\Jaar 2\ECS\ECSL\software\STM32\STM32Basis\HAL\gemeenschappelijk\Third_Party\freertos-addons-1.1.0\c++\Source\cread_write_lock.cpp ****     }
 119:C:\Users\niels\Documents\Elektrotechniek\Jaar 2\ECS\ECSL\software\STM32\STM32Basis\HAL\gemeenschappelijk\Third_Party\freertos-addons-1.1.0\c++\Source\cread_write_lock.cpp **** 
 120:C:\Users\niels\Documents\Elektrotechniek\Jaar 2\ECS\ECSL\software\STM32\STM32Basis\HAL\gemeenschappelijk\Third_Party\freertos-addons-1.1.0\c++\Source\cread_write_lock.cpp ****     //
 121:C:\Users\niels\Documents\Elektrotechniek\Jaar 2\ECS\ECSL\software\STM32\STM32Basis\HAL\gemeenschappelijk\Third_Party\freertos-addons-1.1.0\c++\Source\cread_write_lock.cpp ****     //  Initialize it as "full", so it behaves similar to a mutex.
 122:C:\Users\niels\Documents\Elektrotechniek\Jaar 2\ECS\ECSL\software\STM32\STM32Basis\HAL\gemeenschappelijk\Third_Party\freertos-addons-1.1.0\c++\Source\cread_write_lock.cpp ****     //
 123:C:\Users\niels\Documents\Elektrotechniek\Jaar 2\ECS\ECSL\software\STM32\STM32Basis\HAL\gemeenschappelijk\Third_Party\freertos-addons-1.1.0\c++\Source\cread_write_lock.cpp ****     xSemaphoreGive(BlockReadersLock);
 583              	 .loc 2 123 5
 584 006a 7B68     	 ldr r3,[r7,#4]
 585 006c 9869     	 ldr r0,[r3,#24]
 586 006e 0023     	 movs r3,#0
 587 0070 0022     	 movs r2,#0
 588 0072 0021     	 movs r1,#0
 589 0074 FFF7FEFF 	 bl xQueueGenericSend
 590              	.LBE4:
 124:C:\Users\niels\Documents\Elektrotechniek\Jaar 2\ECS\ECSL\software\STM32\STM32Basis\HAL\gemeenschappelijk\Third_Party\freertos-addons-1.1.0\c++\Source\cread_write_lock.cpp **** }
 591              	 .loc 2 124 1
 592 0078 7B68     	 ldr r3,[r7,#4]
 593 007a 1846     	 mov r0,r3
 594 007c 0837     	 adds r7,r7,#8
 595              	 .cfi_def_cfa_offset 8
 596 007e BD46     	 mov sp,r7
 597              	 .cfi_def_cfa_register 13
 598              	 
 599 0080 80BD     	 pop {r7,pc}
 600              	.L26:
 601 0082 00BF     	 .align 2
 602              	.L25:
 603 0084 08000000 	 .word _ZTVN12cpp_freertos25ReadWriteLockPreferWriterE+8
 604 0088 F8000000 	 .word .LC4
 605 008c 0C010000 	 .word .LC5
 606 0090 44000000 	 .word .LC2
 607 0094 F0000000 	 .word .LC3
 608              	 .cfi_endproc
 609              	.LFE987:
 610              	 .size _ZN12cpp_freertos25ReadWriteLockPreferWriterC2Ev,.-_ZN12cpp_freertos25ReadWriteLockPreferWriterC2Ev
 611              	 .global _ZN12cpp_freertos25ReadWriteLockPreferWriterC1Ev
 612              	 .thumb_set _ZN12cpp_freertos25ReadWriteLockPreferWriterC1Ev,_ZN12cpp_freertos25ReadWriteLockPreferWriterC2Ev
 613              	 .section .text._ZN12cpp_freertos25ReadWriteLockPreferWriterD2Ev,"ax",%progbits
 614              	 .align 1
 615              	 .global _ZN12cpp_freertos25ReadWriteLockPreferWriterD2Ev
 616              	 .syntax unified
 617              	 .thumb
 618              	 .thumb_func
 619              	 .type _ZN12cpp_freertos25ReadWriteLockPreferWriterD2Ev,%function
 620              	_ZN12cpp_freertos25ReadWriteLockPreferWriterD2Ev:
 621              	.LFB990:
 125:C:\Users\niels\Documents\Elektrotechniek\Jaar 2\ECS\ECSL\software\STM32\STM32Basis\HAL\gemeenschappelijk\Third_Party\freertos-addons-1.1.0\c++\Source\cread_write_lock.cpp **** 
 126:C:\Users\niels\Documents\Elektrotechniek\Jaar 2\ECS\ECSL\software\STM32\STM32Basis\HAL\gemeenschappelijk\Third_Party\freertos-addons-1.1.0\c++\Source\cread_write_lock.cpp **** 
 127:C:\Users\niels\Documents\Elektrotechniek\Jaar 2\ECS\ECSL\software\STM32\STM32Basis\HAL\gemeenschappelijk\Third_Party\freertos-addons-1.1.0\c++\Source\cread_write_lock.cpp **** ReadWriteLockPreferWriter::~ReadWriteLockPreferWriter()
 622              	 .loc 2 127 1
 623              	 .cfi_startproc
 624              	 
 625              	 
 626 0000 80B5     	 push {r7,lr}
 627              	 .cfi_def_cfa_offset 8
 628              	 .cfi_offset 7,-8
 629              	 .cfi_offset 14,-4
ARM GAS   			page 19


 630 0002 82B0     	 sub sp,sp,#8
 631              	 .cfi_def_cfa_offset 16
 632 0004 00AF     	 add r7,sp,#0
 633              	 .cfi_def_cfa_register 7
 634 0006 7860     	 str r0,[r7,#4]
 635              	.LBB5:
 636              	 .loc 2 127 55
 637 0008 0A4A     	 ldr r2,.L29
 638 000a 7B68     	 ldr r3,[r7,#4]
 639 000c 1A60     	 str r2,[r3]
 128:C:\Users\niels\Documents\Elektrotechniek\Jaar 2\ECS\ECSL\software\STM32\STM32Basis\HAL\gemeenschappelijk\Third_Party\freertos-addons-1.1.0\c++\Source\cread_write_lock.cpp **** {
 129:C:\Users\niels\Documents\Elektrotechniek\Jaar 2\ECS\ECSL\software\STM32\STM32Basis\HAL\gemeenschappelijk\Third_Party\freertos-addons-1.1.0\c++\Source\cread_write_lock.cpp ****     vSemaphoreDelete(WriteLock);
 640              	 .loc 2 129 5
 641 000e 7B68     	 ldr r3,[r7,#4]
 642 0010 5B69     	 ldr r3,[r3,#20]
 643 0012 1846     	 mov r0,r3
 644 0014 FFF7FEFF 	 bl vQueueDelete
 130:C:\Users\niels\Documents\Elektrotechniek\Jaar 2\ECS\ECSL\software\STM32\STM32Basis\HAL\gemeenschappelijk\Third_Party\freertos-addons-1.1.0\c++\Source\cread_write_lock.cpp ****     vSemaphoreDelete(BlockReadersLock);
 645              	 .loc 2 130 5
 646 0018 7B68     	 ldr r3,[r7,#4]
 647 001a 9B69     	 ldr r3,[r3,#24]
 648 001c 1846     	 mov r0,r3
 649 001e FFF7FEFF 	 bl vQueueDelete
 127:C:\Users\niels\Documents\Elektrotechniek\Jaar 2\ECS\ECSL\software\STM32\STM32Basis\HAL\gemeenschappelijk\Third_Party\freertos-addons-1.1.0\c++\Source\cread_write_lock.cpp **** {
 650              	 .loc 2 127 55
 651 0022 7B68     	 ldr r3,[r7,#4]
 652 0024 1846     	 mov r0,r3
 653 0026 FFF7FEFF 	 bl _ZN12cpp_freertos13ReadWriteLockD2Ev
 654              	.LBE5:
 131:C:\Users\niels\Documents\Elektrotechniek\Jaar 2\ECS\ECSL\software\STM32\STM32Basis\HAL\gemeenschappelijk\Third_Party\freertos-addons-1.1.0\c++\Source\cread_write_lock.cpp **** }
 655              	 .loc 2 131 1
 656 002a 7B68     	 ldr r3,[r7,#4]
 657 002c 1846     	 mov r0,r3
 658 002e 0837     	 adds r7,r7,#8
 659              	 .cfi_def_cfa_offset 8
 660 0030 BD46     	 mov sp,r7
 661              	 .cfi_def_cfa_register 13
 662              	 
 663 0032 80BD     	 pop {r7,pc}
 664              	.L30:
 665              	 .align 2
 666              	.L29:
 667 0034 08000000 	 .word _ZTVN12cpp_freertos25ReadWriteLockPreferWriterE+8
 668              	 .cfi_endproc
 669              	.LFE990:
 670              	 .size _ZN12cpp_freertos25ReadWriteLockPreferWriterD2Ev,.-_ZN12cpp_freertos25ReadWriteLockPreferWriterD2Ev
 671              	 .global _ZN12cpp_freertos25ReadWriteLockPreferWriterD1Ev
 672              	 .thumb_set _ZN12cpp_freertos25ReadWriteLockPreferWriterD1Ev,_ZN12cpp_freertos25ReadWriteLockPreferWriterD2Ev
 673              	 .section .text._ZN12cpp_freertos25ReadWriteLockPreferWriterD0Ev,"ax",%progbits
 674              	 .align 1
 675              	 .global _ZN12cpp_freertos25ReadWriteLockPreferWriterD0Ev
 676              	 .syntax unified
 677              	 .thumb
 678              	 .thumb_func
 679              	 .type _ZN12cpp_freertos25ReadWriteLockPreferWriterD0Ev,%function
 680              	_ZN12cpp_freertos25ReadWriteLockPreferWriterD0Ev:
 681              	.LFB992:
ARM GAS   			page 20


 127:C:\Users\niels\Documents\Elektrotechniek\Jaar 2\ECS\ECSL\software\STM32\STM32Basis\HAL\gemeenschappelijk\Third_Party\freertos-addons-1.1.0\c++\Source\cread_write_lock.cpp **** {
 682              	 .loc 2 127 1
 683              	 .cfi_startproc
 684              	 
 685              	 
 686 0000 80B5     	 push {r7,lr}
 687              	 .cfi_def_cfa_offset 8
 688              	 .cfi_offset 7,-8
 689              	 .cfi_offset 14,-4
 690 0002 82B0     	 sub sp,sp,#8
 691              	 .cfi_def_cfa_offset 16
 692 0004 00AF     	 add r7,sp,#0
 693              	 .cfi_def_cfa_register 7
 694 0006 7860     	 str r0,[r7,#4]
 695              	 .loc 2 131 1
 696 0008 7868     	 ldr r0,[r7,#4]
 697 000a FFF7FEFF 	 bl _ZN12cpp_freertos25ReadWriteLockPreferWriterD1Ev
 698 000e 7868     	 ldr r0,[r7,#4]
 699 0010 FFF7FEFF 	 bl _ZdlPv
 700 0014 7B68     	 ldr r3,[r7,#4]
 701 0016 1846     	 mov r0,r3
 702 0018 0837     	 adds r7,r7,#8
 703              	 .cfi_def_cfa_offset 8
 704 001a BD46     	 mov sp,r7
 705              	 .cfi_def_cfa_register 13
 706              	 
 707 001c 80BD     	 pop {r7,pc}
 708              	 .cfi_endproc
 709              	.LFE992:
 710              	 .size _ZN12cpp_freertos25ReadWriteLockPreferWriterD0Ev,.-_ZN12cpp_freertos25ReadWriteLockPreferWriterD0Ev
 711              	 .section .text._ZN12cpp_freertos25ReadWriteLockPreferWriter10ReaderLockEv,"ax",%progbits
 712              	 .align 1
 713              	 .global _ZN12cpp_freertos25ReadWriteLockPreferWriter10ReaderLockEv
 714              	 .syntax unified
 715              	 .thumb
 716              	 .thumb_func
 717              	 .type _ZN12cpp_freertos25ReadWriteLockPreferWriter10ReaderLockEv,%function
 718              	_ZN12cpp_freertos25ReadWriteLockPreferWriter10ReaderLockEv:
 719              	.LFB993:
 132:C:\Users\niels\Documents\Elektrotechniek\Jaar 2\ECS\ECSL\software\STM32\STM32Basis\HAL\gemeenschappelijk\Third_Party\freertos-addons-1.1.0\c++\Source\cread_write_lock.cpp **** 
 133:C:\Users\niels\Documents\Elektrotechniek\Jaar 2\ECS\ECSL\software\STM32\STM32Basis\HAL\gemeenschappelijk\Third_Party\freertos-addons-1.1.0\c++\Source\cread_write_lock.cpp **** 
 134:C:\Users\niels\Documents\Elektrotechniek\Jaar 2\ECS\ECSL\software\STM32\STM32Basis\HAL\gemeenschappelijk\Third_Party\freertos-addons-1.1.0\c++\Source\cread_write_lock.cpp **** void ReadWriteLockPreferWriter::ReaderLock()
 135:C:\Users\niels\Documents\Elektrotechniek\Jaar 2\ECS\ECSL\software\STM32\STM32Basis\HAL\gemeenschappelijk\Third_Party\freertos-addons-1.1.0\c++\Source\cread_write_lock.cpp **** {
 720              	 .loc 2 135 1
 721              	 .cfi_startproc
 722              	 
 723              	 
 724 0000 80B5     	 push {r7,lr}
 725              	 .cfi_def_cfa_offset 8
 726              	 .cfi_offset 7,-8
 727              	 .cfi_offset 14,-4
 728 0002 82B0     	 sub sp,sp,#8
 729              	 .cfi_def_cfa_offset 16
 730 0004 00AF     	 add r7,sp,#0
 731              	 .cfi_def_cfa_register 7
 732 0006 7860     	 str r0,[r7,#4]
 136:C:\Users\niels\Documents\Elektrotechniek\Jaar 2\ECS\ECSL\software\STM32\STM32Basis\HAL\gemeenschappelijk\Third_Party\freertos-addons-1.1.0\c++\Source\cread_write_lock.cpp ****     xSemaphoreTake(BlockReadersLock, portMAX_DELAY);
ARM GAS   			page 21


 733              	 .loc 2 136 5
 734 0008 7B68     	 ldr r3,[r7,#4]
 735 000a 9869     	 ldr r0,[r3,#24]
 736 000c 0023     	 movs r3,#0
 737 000e 4FF0FF32 	 mov r2,#-1
 738 0012 0021     	 movs r1,#0
 739 0014 FFF7FEFF 	 bl xQueueGenericReceive
 137:C:\Users\niels\Documents\Elektrotechniek\Jaar 2\ECS\ECSL\software\STM32\STM32Basis\HAL\gemeenschappelijk\Third_Party\freertos-addons-1.1.0\c++\Source\cread_write_lock.cpp ****     xSemaphoreTake(ReadLock, portMAX_DELAY);
 740              	 .loc 2 137 5
 741 0018 7B68     	 ldr r3,[r7,#4]
 742 001a 9868     	 ldr r0,[r3,#8]
 743 001c 0023     	 movs r3,#0
 744 001e 4FF0FF32 	 mov r2,#-1
 745 0022 0021     	 movs r1,#0
 746 0024 FFF7FEFF 	 bl xQueueGenericReceive
 138:C:\Users\niels\Documents\Elektrotechniek\Jaar 2\ECS\ECSL\software\STM32\STM32Basis\HAL\gemeenschappelijk\Third_Party\freertos-addons-1.1.0\c++\Source\cread_write_lock.cpp **** 
 139:C:\Users\niels\Documents\Elektrotechniek\Jaar 2\ECS\ECSL\software\STM32\STM32Basis\HAL\gemeenschappelijk\Third_Party\freertos-addons-1.1.0\c++\Source\cread_write_lock.cpp ****     ReadCount++;
 747              	 .loc 2 139 5
 748 0028 7B68     	 ldr r3,[r7,#4]
 749 002a 5B68     	 ldr r3,[r3,#4]
 750              	 .loc 2 139 14
 751 002c 5A1C     	 adds r2,r3,#1
 752 002e 7B68     	 ldr r3,[r7,#4]
 753 0030 5A60     	 str r2,[r3,#4]
 140:C:\Users\niels\Documents\Elektrotechniek\Jaar 2\ECS\ECSL\software\STM32\STM32Basis\HAL\gemeenschappelijk\Third_Party\freertos-addons-1.1.0\c++\Source\cread_write_lock.cpp ****     if (ReadCount == 1) {
 754              	 .loc 2 140 9
 755 0032 7B68     	 ldr r3,[r7,#4]
 756 0034 5B68     	 ldr r3,[r3,#4]
 757              	 .loc 2 140 5
 758 0036 012B     	 cmp r3,#1
 759 0038 07D1     	 bne .L34
 141:C:\Users\niels\Documents\Elektrotechniek\Jaar 2\ECS\ECSL\software\STM32\STM32Basis\HAL\gemeenschappelijk\Third_Party\freertos-addons-1.1.0\c++\Source\cread_write_lock.cpp ****         xSemaphoreTake(ResourceLock, portMAX_DELAY);
 760              	 .loc 2 141 9
 761 003a 7B68     	 ldr r3,[r7,#4]
 762 003c D868     	 ldr r0,[r3,#12]
 763 003e 0023     	 movs r3,#0
 764 0040 4FF0FF32 	 mov r2,#-1
 765 0044 0021     	 movs r1,#0
 766 0046 FFF7FEFF 	 bl xQueueGenericReceive
 767              	.L34:
 142:C:\Users\niels\Documents\Elektrotechniek\Jaar 2\ECS\ECSL\software\STM32\STM32Basis\HAL\gemeenschappelijk\Third_Party\freertos-addons-1.1.0\c++\Source\cread_write_lock.cpp ****     }
 143:C:\Users\niels\Documents\Elektrotechniek\Jaar 2\ECS\ECSL\software\STM32\STM32Basis\HAL\gemeenschappelijk\Third_Party\freertos-addons-1.1.0\c++\Source\cread_write_lock.cpp **** 
 144:C:\Users\niels\Documents\Elektrotechniek\Jaar 2\ECS\ECSL\software\STM32\STM32Basis\HAL\gemeenschappelijk\Third_Party\freertos-addons-1.1.0\c++\Source\cread_write_lock.cpp ****     xSemaphoreGive(ReadLock);
 768              	 .loc 2 144 5
 769 004a 7B68     	 ldr r3,[r7,#4]
 770 004c 9868     	 ldr r0,[r3,#8]
 771 004e 0023     	 movs r3,#0
 772 0050 0022     	 movs r2,#0
 773 0052 0021     	 movs r1,#0
 774 0054 FFF7FEFF 	 bl xQueueGenericSend
 145:C:\Users\niels\Documents\Elektrotechniek\Jaar 2\ECS\ECSL\software\STM32\STM32Basis\HAL\gemeenschappelijk\Third_Party\freertos-addons-1.1.0\c++\Source\cread_write_lock.cpp ****     xSemaphoreGive(BlockReadersLock);
 775              	 .loc 2 145 5
 776 0058 7B68     	 ldr r3,[r7,#4]
 777 005a 9869     	 ldr r0,[r3,#24]
 778 005c 0023     	 movs r3,#0
 779 005e 0022     	 movs r2,#0
 780 0060 0021     	 movs r1,#0
ARM GAS   			page 22


 781 0062 FFF7FEFF 	 bl xQueueGenericSend
 146:C:\Users\niels\Documents\Elektrotechniek\Jaar 2\ECS\ECSL\software\STM32\STM32Basis\HAL\gemeenschappelijk\Third_Party\freertos-addons-1.1.0\c++\Source\cread_write_lock.cpp **** }
 782              	 .loc 2 146 1
 783 0066 00BF     	 nop
 784 0068 0837     	 adds r7,r7,#8
 785              	 .cfi_def_cfa_offset 8
 786 006a BD46     	 mov sp,r7
 787              	 .cfi_def_cfa_register 13
 788              	 
 789 006c 80BD     	 pop {r7,pc}
 790              	 .cfi_endproc
 791              	.LFE993:
 792              	 .size _ZN12cpp_freertos25ReadWriteLockPreferWriter10ReaderLockEv,.-_ZN12cpp_freertos25ReadWriteLockPreferWriter10ReaderLockEv
 793              	 .section .text._ZN12cpp_freertos25ReadWriteLockPreferWriter12ReaderUnlockEv,"ax",%progbits
 794              	 .align 1
 795              	 .global _ZN12cpp_freertos25ReadWriteLockPreferWriter12ReaderUnlockEv
 796              	 .syntax unified
 797              	 .thumb
 798              	 .thumb_func
 799              	 .type _ZN12cpp_freertos25ReadWriteLockPreferWriter12ReaderUnlockEv,%function
 800              	_ZN12cpp_freertos25ReadWriteLockPreferWriter12ReaderUnlockEv:
 801              	.LFB994:
 147:C:\Users\niels\Documents\Elektrotechniek\Jaar 2\ECS\ECSL\software\STM32\STM32Basis\HAL\gemeenschappelijk\Third_Party\freertos-addons-1.1.0\c++\Source\cread_write_lock.cpp **** 
 148:C:\Users\niels\Documents\Elektrotechniek\Jaar 2\ECS\ECSL\software\STM32\STM32Basis\HAL\gemeenschappelijk\Third_Party\freertos-addons-1.1.0\c++\Source\cread_write_lock.cpp **** 
 149:C:\Users\niels\Documents\Elektrotechniek\Jaar 2\ECS\ECSL\software\STM32\STM32Basis\HAL\gemeenschappelijk\Third_Party\freertos-addons-1.1.0\c++\Source\cread_write_lock.cpp **** void ReadWriteLockPreferWriter::ReaderUnlock()
 150:C:\Users\niels\Documents\Elektrotechniek\Jaar 2\ECS\ECSL\software\STM32\STM32Basis\HAL\gemeenschappelijk\Third_Party\freertos-addons-1.1.0\c++\Source\cread_write_lock.cpp **** {
 802              	 .loc 2 150 1
 803              	 .cfi_startproc
 804              	 
 805              	 
 806 0000 80B5     	 push {r7,lr}
 807              	 .cfi_def_cfa_offset 8
 808              	 .cfi_offset 7,-8
 809              	 .cfi_offset 14,-4
 810 0002 82B0     	 sub sp,sp,#8
 811              	 .cfi_def_cfa_offset 16
 812 0004 00AF     	 add r7,sp,#0
 813              	 .cfi_def_cfa_register 7
 814 0006 7860     	 str r0,[r7,#4]
 151:C:\Users\niels\Documents\Elektrotechniek\Jaar 2\ECS\ECSL\software\STM32\STM32Basis\HAL\gemeenschappelijk\Third_Party\freertos-addons-1.1.0\c++\Source\cread_write_lock.cpp ****     xSemaphoreTake(ReadLock, portMAX_DELAY);
 815              	 .loc 2 151 5
 816 0008 7B68     	 ldr r3,[r7,#4]
 817 000a 9868     	 ldr r0,[r3,#8]
 818 000c 0023     	 movs r3,#0
 819 000e 4FF0FF32 	 mov r2,#-1
 820 0012 0021     	 movs r1,#0
 821 0014 FFF7FEFF 	 bl xQueueGenericReceive
 152:C:\Users\niels\Documents\Elektrotechniek\Jaar 2\ECS\ECSL\software\STM32\STM32Basis\HAL\gemeenschappelijk\Third_Party\freertos-addons-1.1.0\c++\Source\cread_write_lock.cpp **** 
 153:C:\Users\niels\Documents\Elektrotechniek\Jaar 2\ECS\ECSL\software\STM32\STM32Basis\HAL\gemeenschappelijk\Third_Party\freertos-addons-1.1.0\c++\Source\cread_write_lock.cpp ****     ReadCount--;
 822              	 .loc 2 153 5
 823 0018 7B68     	 ldr r3,[r7,#4]
 824 001a 5B68     	 ldr r3,[r3,#4]
 825              	 .loc 2 153 14
 826 001c 5A1E     	 subs r2,r3,#1
 827 001e 7B68     	 ldr r3,[r7,#4]
 828 0020 5A60     	 str r2,[r3,#4]
 154:C:\Users\niels\Documents\Elektrotechniek\Jaar 2\ECS\ECSL\software\STM32\STM32Basis\HAL\gemeenschappelijk\Third_Party\freertos-addons-1.1.0\c++\Source\cread_write_lock.cpp ****     if (ReadCount == 0) {
ARM GAS   			page 23


 829              	 .loc 2 154 9
 830 0022 7B68     	 ldr r3,[r7,#4]
 831 0024 5B68     	 ldr r3,[r3,#4]
 832              	 .loc 2 154 5
 833 0026 002B     	 cmp r3,#0
 834 0028 06D1     	 bne .L36
 155:C:\Users\niels\Documents\Elektrotechniek\Jaar 2\ECS\ECSL\software\STM32\STM32Basis\HAL\gemeenschappelijk\Third_Party\freertos-addons-1.1.0\c++\Source\cread_write_lock.cpp ****         xSemaphoreGive(ResourceLock);
 835              	 .loc 2 155 9
 836 002a 7B68     	 ldr r3,[r7,#4]
 837 002c D868     	 ldr r0,[r3,#12]
 838 002e 0023     	 movs r3,#0
 839 0030 0022     	 movs r2,#0
 840 0032 0021     	 movs r1,#0
 841 0034 FFF7FEFF 	 bl xQueueGenericSend
 842              	.L36:
 156:C:\Users\niels\Documents\Elektrotechniek\Jaar 2\ECS\ECSL\software\STM32\STM32Basis\HAL\gemeenschappelijk\Third_Party\freertos-addons-1.1.0\c++\Source\cread_write_lock.cpp ****     }
 157:C:\Users\niels\Documents\Elektrotechniek\Jaar 2\ECS\ECSL\software\STM32\STM32Basis\HAL\gemeenschappelijk\Third_Party\freertos-addons-1.1.0\c++\Source\cread_write_lock.cpp **** 
 158:C:\Users\niels\Documents\Elektrotechniek\Jaar 2\ECS\ECSL\software\STM32\STM32Basis\HAL\gemeenschappelijk\Third_Party\freertos-addons-1.1.0\c++\Source\cread_write_lock.cpp ****     xSemaphoreGive(ReadLock);
 843              	 .loc 2 158 5
 844 0038 7B68     	 ldr r3,[r7,#4]
 845 003a 9868     	 ldr r0,[r3,#8]
 846 003c 0023     	 movs r3,#0
 847 003e 0022     	 movs r2,#0
 848 0040 0021     	 movs r1,#0
 849 0042 FFF7FEFF 	 bl xQueueGenericSend
 159:C:\Users\niels\Documents\Elektrotechniek\Jaar 2\ECS\ECSL\software\STM32\STM32Basis\HAL\gemeenschappelijk\Third_Party\freertos-addons-1.1.0\c++\Source\cread_write_lock.cpp **** }
 850              	 .loc 2 159 1
 851 0046 00BF     	 nop
 852 0048 0837     	 adds r7,r7,#8
 853              	 .cfi_def_cfa_offset 8
 854 004a BD46     	 mov sp,r7
 855              	 .cfi_def_cfa_register 13
 856              	 
 857 004c 80BD     	 pop {r7,pc}
 858              	 .cfi_endproc
 859              	.LFE994:
 860              	 .size _ZN12cpp_freertos25ReadWriteLockPreferWriter12ReaderUnlockEv,.-_ZN12cpp_freertos25ReadWriteLockPreferWriter12ReaderUnlockEv
 861              	 .section .text._ZN12cpp_freertos25ReadWriteLockPreferWriter10WriterLockEv,"ax",%progbits
 862              	 .align 1
 863              	 .global _ZN12cpp_freertos25ReadWriteLockPreferWriter10WriterLockEv
 864              	 .syntax unified
 865              	 .thumb
 866              	 .thumb_func
 867              	 .type _ZN12cpp_freertos25ReadWriteLockPreferWriter10WriterLockEv,%function
 868              	_ZN12cpp_freertos25ReadWriteLockPreferWriter10WriterLockEv:
 869              	.LFB995:
 160:C:\Users\niels\Documents\Elektrotechniek\Jaar 2\ECS\ECSL\software\STM32\STM32Basis\HAL\gemeenschappelijk\Third_Party\freertos-addons-1.1.0\c++\Source\cread_write_lock.cpp **** 
 161:C:\Users\niels\Documents\Elektrotechniek\Jaar 2\ECS\ECSL\software\STM32\STM32Basis\HAL\gemeenschappelijk\Third_Party\freertos-addons-1.1.0\c++\Source\cread_write_lock.cpp **** 
 162:C:\Users\niels\Documents\Elektrotechniek\Jaar 2\ECS\ECSL\software\STM32\STM32Basis\HAL\gemeenschappelijk\Third_Party\freertos-addons-1.1.0\c++\Source\cread_write_lock.cpp **** void ReadWriteLockPreferWriter::WriterLock()
 163:C:\Users\niels\Documents\Elektrotechniek\Jaar 2\ECS\ECSL\software\STM32\STM32Basis\HAL\gemeenschappelijk\Third_Party\freertos-addons-1.1.0\c++\Source\cread_write_lock.cpp **** {
 870              	 .loc 2 163 1
 871              	 .cfi_startproc
 872              	 
 873              	 
 874 0000 80B5     	 push {r7,lr}
 875              	 .cfi_def_cfa_offset 8
 876              	 .cfi_offset 7,-8
ARM GAS   			page 24


 877              	 .cfi_offset 14,-4
 878 0002 82B0     	 sub sp,sp,#8
 879              	 .cfi_def_cfa_offset 16
 880 0004 00AF     	 add r7,sp,#0
 881              	 .cfi_def_cfa_register 7
 882 0006 7860     	 str r0,[r7,#4]
 164:C:\Users\niels\Documents\Elektrotechniek\Jaar 2\ECS\ECSL\software\STM32\STM32Basis\HAL\gemeenschappelijk\Third_Party\freertos-addons-1.1.0\c++\Source\cread_write_lock.cpp ****     xSemaphoreTake(WriteLock, portMAX_DELAY);
 883              	 .loc 2 164 5
 884 0008 7B68     	 ldr r3,[r7,#4]
 885 000a 5869     	 ldr r0,[r3,#20]
 886 000c 0023     	 movs r3,#0
 887 000e 4FF0FF32 	 mov r2,#-1
 888 0012 0021     	 movs r1,#0
 889 0014 FFF7FEFF 	 bl xQueueGenericReceive
 165:C:\Users\niels\Documents\Elektrotechniek\Jaar 2\ECS\ECSL\software\STM32\STM32Basis\HAL\gemeenschappelijk\Third_Party\freertos-addons-1.1.0\c++\Source\cread_write_lock.cpp **** 
 166:C:\Users\niels\Documents\Elektrotechniek\Jaar 2\ECS\ECSL\software\STM32\STM32Basis\HAL\gemeenschappelijk\Third_Party\freertos-addons-1.1.0\c++\Source\cread_write_lock.cpp ****     WriteCount++;
 890              	 .loc 2 166 5
 891 0018 7B68     	 ldr r3,[r7,#4]
 892 001a 1B69     	 ldr r3,[r3,#16]
 893              	 .loc 2 166 15
 894 001c 5A1C     	 adds r2,r3,#1
 895 001e 7B68     	 ldr r3,[r7,#4]
 896 0020 1A61     	 str r2,[r3,#16]
 167:C:\Users\niels\Documents\Elektrotechniek\Jaar 2\ECS\ECSL\software\STM32\STM32Basis\HAL\gemeenschappelijk\Third_Party\freertos-addons-1.1.0\c++\Source\cread_write_lock.cpp ****     if (WriteCount == 1) {
 897              	 .loc 2 167 9
 898 0022 7B68     	 ldr r3,[r7,#4]
 899 0024 1B69     	 ldr r3,[r3,#16]
 900              	 .loc 2 167 5
 901 0026 012B     	 cmp r3,#1
 902 0028 07D1     	 bne .L38
 168:C:\Users\niels\Documents\Elektrotechniek\Jaar 2\ECS\ECSL\software\STM32\STM32Basis\HAL\gemeenschappelijk\Third_Party\freertos-addons-1.1.0\c++\Source\cread_write_lock.cpp ****         xSemaphoreTake(BlockReadersLock, portMAX_DELAY);
 903              	 .loc 2 168 9
 904 002a 7B68     	 ldr r3,[r7,#4]
 905 002c 9869     	 ldr r0,[r3,#24]
 906 002e 0023     	 movs r3,#0
 907 0030 4FF0FF32 	 mov r2,#-1
 908 0034 0021     	 movs r1,#0
 909 0036 FFF7FEFF 	 bl xQueueGenericReceive
 910              	.L38:
 169:C:\Users\niels\Documents\Elektrotechniek\Jaar 2\ECS\ECSL\software\STM32\STM32Basis\HAL\gemeenschappelijk\Third_Party\freertos-addons-1.1.0\c++\Source\cread_write_lock.cpp ****     }
 170:C:\Users\niels\Documents\Elektrotechniek\Jaar 2\ECS\ECSL\software\STM32\STM32Basis\HAL\gemeenschappelijk\Third_Party\freertos-addons-1.1.0\c++\Source\cread_write_lock.cpp **** 
 171:C:\Users\niels\Documents\Elektrotechniek\Jaar 2\ECS\ECSL\software\STM32\STM32Basis\HAL\gemeenschappelijk\Third_Party\freertos-addons-1.1.0\c++\Source\cread_write_lock.cpp ****     xSemaphoreGive(WriteLock);
 911              	 .loc 2 171 5
 912 003a 7B68     	 ldr r3,[r7,#4]
 913 003c 5869     	 ldr r0,[r3,#20]
 914 003e 0023     	 movs r3,#0
 915 0040 0022     	 movs r2,#0
 916 0042 0021     	 movs r1,#0
 917 0044 FFF7FEFF 	 bl xQueueGenericSend
 172:C:\Users\niels\Documents\Elektrotechniek\Jaar 2\ECS\ECSL\software\STM32\STM32Basis\HAL\gemeenschappelijk\Third_Party\freertos-addons-1.1.0\c++\Source\cread_write_lock.cpp **** 
 173:C:\Users\niels\Documents\Elektrotechniek\Jaar 2\ECS\ECSL\software\STM32\STM32Basis\HAL\gemeenschappelijk\Third_Party\freertos-addons-1.1.0\c++\Source\cread_write_lock.cpp ****     xSemaphoreTake(ResourceLock, portMAX_DELAY);
 918              	 .loc 2 173 5
 919 0048 7B68     	 ldr r3,[r7,#4]
 920 004a D868     	 ldr r0,[r3,#12]
 921 004c 0023     	 movs r3,#0
 922 004e 4FF0FF32 	 mov r2,#-1
 923 0052 0021     	 movs r1,#0
ARM GAS   			page 25


 924 0054 FFF7FEFF 	 bl xQueueGenericReceive
 174:C:\Users\niels\Documents\Elektrotechniek\Jaar 2\ECS\ECSL\software\STM32\STM32Basis\HAL\gemeenschappelijk\Third_Party\freertos-addons-1.1.0\c++\Source\cread_write_lock.cpp **** }
 925              	 .loc 2 174 1
 926 0058 00BF     	 nop
 927 005a 0837     	 adds r7,r7,#8
 928              	 .cfi_def_cfa_offset 8
 929 005c BD46     	 mov sp,r7
 930              	 .cfi_def_cfa_register 13
 931              	 
 932 005e 80BD     	 pop {r7,pc}
 933              	 .cfi_endproc
 934              	.LFE995:
 935              	 .size _ZN12cpp_freertos25ReadWriteLockPreferWriter10WriterLockEv,.-_ZN12cpp_freertos25ReadWriteLockPreferWriter10WriterLockEv
 936              	 .section .text._ZN12cpp_freertos25ReadWriteLockPreferWriter12WriterUnlockEv,"ax",%progbits
 937              	 .align 1
 938              	 .global _ZN12cpp_freertos25ReadWriteLockPreferWriter12WriterUnlockEv
 939              	 .syntax unified
 940              	 .thumb
 941              	 .thumb_func
 942              	 .type _ZN12cpp_freertos25ReadWriteLockPreferWriter12WriterUnlockEv,%function
 943              	_ZN12cpp_freertos25ReadWriteLockPreferWriter12WriterUnlockEv:
 944              	.LFB996:
 175:C:\Users\niels\Documents\Elektrotechniek\Jaar 2\ECS\ECSL\software\STM32\STM32Basis\HAL\gemeenschappelijk\Third_Party\freertos-addons-1.1.0\c++\Source\cread_write_lock.cpp **** 
 176:C:\Users\niels\Documents\Elektrotechniek\Jaar 2\ECS\ECSL\software\STM32\STM32Basis\HAL\gemeenschappelijk\Third_Party\freertos-addons-1.1.0\c++\Source\cread_write_lock.cpp **** 
 177:C:\Users\niels\Documents\Elektrotechniek\Jaar 2\ECS\ECSL\software\STM32\STM32Basis\HAL\gemeenschappelijk\Third_Party\freertos-addons-1.1.0\c++\Source\cread_write_lock.cpp **** void ReadWriteLockPreferWriter::WriterUnlock()
 178:C:\Users\niels\Documents\Elektrotechniek\Jaar 2\ECS\ECSL\software\STM32\STM32Basis\HAL\gemeenschappelijk\Third_Party\freertos-addons-1.1.0\c++\Source\cread_write_lock.cpp **** {
 945              	 .loc 2 178 1
 946              	 .cfi_startproc
 947              	 
 948              	 
 949 0000 80B5     	 push {r7,lr}
 950              	 .cfi_def_cfa_offset 8
 951              	 .cfi_offset 7,-8
 952              	 .cfi_offset 14,-4
 953 0002 82B0     	 sub sp,sp,#8
 954              	 .cfi_def_cfa_offset 16
 955 0004 00AF     	 add r7,sp,#0
 956              	 .cfi_def_cfa_register 7
 957 0006 7860     	 str r0,[r7,#4]
 179:C:\Users\niels\Documents\Elektrotechniek\Jaar 2\ECS\ECSL\software\STM32\STM32Basis\HAL\gemeenschappelijk\Third_Party\freertos-addons-1.1.0\c++\Source\cread_write_lock.cpp ****     xSemaphoreGive(ResourceLock);
 958              	 .loc 2 179 5
 959 0008 7B68     	 ldr r3,[r7,#4]
 960 000a D868     	 ldr r0,[r3,#12]
 961 000c 0023     	 movs r3,#0
 962 000e 0022     	 movs r2,#0
 963 0010 0021     	 movs r1,#0
 964 0012 FFF7FEFF 	 bl xQueueGenericSend
 180:C:\Users\niels\Documents\Elektrotechniek\Jaar 2\ECS\ECSL\software\STM32\STM32Basis\HAL\gemeenschappelijk\Third_Party\freertos-addons-1.1.0\c++\Source\cread_write_lock.cpp **** 
 181:C:\Users\niels\Documents\Elektrotechniek\Jaar 2\ECS\ECSL\software\STM32\STM32Basis\HAL\gemeenschappelijk\Third_Party\freertos-addons-1.1.0\c++\Source\cread_write_lock.cpp ****     xSemaphoreTake(WriteLock, portMAX_DELAY);
 965              	 .loc 2 181 5
 966 0016 7B68     	 ldr r3,[r7,#4]
 967 0018 5869     	 ldr r0,[r3,#20]
 968 001a 0023     	 movs r3,#0
 969 001c 4FF0FF32 	 mov r2,#-1
 970 0020 0021     	 movs r1,#0
 971 0022 FFF7FEFF 	 bl xQueueGenericReceive
 182:C:\Users\niels\Documents\Elektrotechniek\Jaar 2\ECS\ECSL\software\STM32\STM32Basis\HAL\gemeenschappelijk\Third_Party\freertos-addons-1.1.0\c++\Source\cread_write_lock.cpp **** 
ARM GAS   			page 26


 183:C:\Users\niels\Documents\Elektrotechniek\Jaar 2\ECS\ECSL\software\STM32\STM32Basis\HAL\gemeenschappelijk\Third_Party\freertos-addons-1.1.0\c++\Source\cread_write_lock.cpp ****     WriteCount--;
 972              	 .loc 2 183 5
 973 0026 7B68     	 ldr r3,[r7,#4]
 974 0028 1B69     	 ldr r3,[r3,#16]
 975              	 .loc 2 183 15
 976 002a 5A1E     	 subs r2,r3,#1
 977 002c 7B68     	 ldr r3,[r7,#4]
 978 002e 1A61     	 str r2,[r3,#16]
 184:C:\Users\niels\Documents\Elektrotechniek\Jaar 2\ECS\ECSL\software\STM32\STM32Basis\HAL\gemeenschappelijk\Third_Party\freertos-addons-1.1.0\c++\Source\cread_write_lock.cpp ****     if (WriteCount == 0) {
 979              	 .loc 2 184 9
 980 0030 7B68     	 ldr r3,[r7,#4]
 981 0032 1B69     	 ldr r3,[r3,#16]
 982              	 .loc 2 184 5
 983 0034 002B     	 cmp r3,#0
 984 0036 06D1     	 bne .L40
 185:C:\Users\niels\Documents\Elektrotechniek\Jaar 2\ECS\ECSL\software\STM32\STM32Basis\HAL\gemeenschappelijk\Third_Party\freertos-addons-1.1.0\c++\Source\cread_write_lock.cpp ****         xSemaphoreGive(BlockReadersLock);
 985              	 .loc 2 185 9
 986 0038 7B68     	 ldr r3,[r7,#4]
 987 003a 9869     	 ldr r0,[r3,#24]
 988 003c 0023     	 movs r3,#0
 989 003e 0022     	 movs r2,#0
 990 0040 0021     	 movs r1,#0
 991 0042 FFF7FEFF 	 bl xQueueGenericSend
 992              	.L40:
 186:C:\Users\niels\Documents\Elektrotechniek\Jaar 2\ECS\ECSL\software\STM32\STM32Basis\HAL\gemeenschappelijk\Third_Party\freertos-addons-1.1.0\c++\Source\cread_write_lock.cpp ****     }
 187:C:\Users\niels\Documents\Elektrotechniek\Jaar 2\ECS\ECSL\software\STM32\STM32Basis\HAL\gemeenschappelijk\Third_Party\freertos-addons-1.1.0\c++\Source\cread_write_lock.cpp **** 
 188:C:\Users\niels\Documents\Elektrotechniek\Jaar 2\ECS\ECSL\software\STM32\STM32Basis\HAL\gemeenschappelijk\Third_Party\freertos-addons-1.1.0\c++\Source\cread_write_lock.cpp ****     xSemaphoreGive(WriteLock);
 993              	 .loc 2 188 5
 994 0046 7B68     	 ldr r3,[r7,#4]
 995 0048 5869     	 ldr r0,[r3,#20]
 996 004a 0023     	 movs r3,#0
 997 004c 0022     	 movs r2,#0
 998 004e 0021     	 movs r1,#0
 999 0050 FFF7FEFF 	 bl xQueueGenericSend
 189:C:\Users\niels\Documents\Elektrotechniek\Jaar 2\ECS\ECSL\software\STM32\STM32Basis\HAL\gemeenschappelijk\Third_Party\freertos-addons-1.1.0\c++\Source\cread_write_lock.cpp **** }
 1000              	 .loc 2 189 1
 1001 0054 00BF     	 nop
 1002 0056 0837     	 adds r7,r7,#8
 1003              	 .cfi_def_cfa_offset 8
 1004 0058 BD46     	 mov sp,r7
 1005              	 .cfi_def_cfa_register 13
 1006              	 
 1007 005a 80BD     	 pop {r7,pc}
 1008              	 .cfi_endproc
 1009              	.LFE996:
 1010              	 .size _ZN12cpp_freertos25ReadWriteLockPreferWriter12WriterUnlockEv,.-_ZN12cpp_freertos25ReadWriteLockPreferWriter12WriterUnlockEv
 1011              	 .global _ZTVN12cpp_freertos25ReadWriteLockPreferWriterE
 1012              	 .section .rodata._ZTVN12cpp_freertos25ReadWriteLockPreferWriterE,"a"
 1013              	 .align 2
 1014              	 .type _ZTVN12cpp_freertos25ReadWriteLockPreferWriterE,%object
 1015              	 .size _ZTVN12cpp_freertos25ReadWriteLockPreferWriterE,32
 1016              	_ZTVN12cpp_freertos25ReadWriteLockPreferWriterE:
 1017 0000 00000000 	 .word 0
 1018 0004 00000000 	 .word 0
 1019 0008 00000000 	 .word _ZN12cpp_freertos25ReadWriteLockPreferWriterD1Ev
 1020 000c 00000000 	 .word _ZN12cpp_freertos25ReadWriteLockPreferWriterD0Ev
 1021 0010 00000000 	 .word _ZN12cpp_freertos25ReadWriteLockPreferWriter10ReaderLockEv
ARM GAS   			page 27


 1022 0014 00000000 	 .word _ZN12cpp_freertos25ReadWriteLockPreferWriter12ReaderUnlockEv
 1023 0018 00000000 	 .word _ZN12cpp_freertos25ReadWriteLockPreferWriter10WriterLockEv
 1024 001c 00000000 	 .word _ZN12cpp_freertos25ReadWriteLockPreferWriter12WriterUnlockEv
 1025              	 .global _ZTVN12cpp_freertos25ReadWriteLockPreferReaderE
 1026              	 .section .rodata._ZTVN12cpp_freertos25ReadWriteLockPreferReaderE,"a"
 1027              	 .align 2
 1028              	 .type _ZTVN12cpp_freertos25ReadWriteLockPreferReaderE,%object
 1029              	 .size _ZTVN12cpp_freertos25ReadWriteLockPreferReaderE,32
 1030              	_ZTVN12cpp_freertos25ReadWriteLockPreferReaderE:
 1031 0000 00000000 	 .word 0
 1032 0004 00000000 	 .word 0
 1033 0008 00000000 	 .word _ZN12cpp_freertos25ReadWriteLockPreferReaderD1Ev
 1034 000c 00000000 	 .word _ZN12cpp_freertos25ReadWriteLockPreferReaderD0Ev
 1035 0010 00000000 	 .word _ZN12cpp_freertos25ReadWriteLockPreferReader10ReaderLockEv
 1036 0014 00000000 	 .word _ZN12cpp_freertos25ReadWriteLockPreferReader12ReaderUnlockEv
 1037 0018 00000000 	 .word _ZN12cpp_freertos25ReadWriteLockPreferReader10WriterLockEv
 1038 001c 00000000 	 .word _ZN12cpp_freertos25ReadWriteLockPreferReader12WriterUnlockEv
 1039              	 .section .text._ZN12cpp_freertos25ReadWriteLockPreferReaderD2Ev,"axG",%progbits,_ZN12cpp_freertos25ReadWriteLockPreferReaderD5Ev,comdat
 1040              	 .align 1
 1041              	 .weak _ZN12cpp_freertos25ReadWriteLockPreferReaderD2Ev
 1042              	 .syntax unified
 1043              	 .thumb
 1044              	 .thumb_func
 1045              	 .type _ZN12cpp_freertos25ReadWriteLockPreferReaderD2Ev,%function
 1046              	_ZN12cpp_freertos25ReadWriteLockPreferReaderD2Ev:
 1047              	.LFB1299:
 1048              	 .file 3 "C:/Users/niels/DOCUME~1/ELEKTR~1/JAAR2~1/ECS/ECSL/software/STM32/STM32B~1/HAL/GEMEEN~1/THIRD_~1/FREERT~1.0/C__~1/Source/include/read_write_lock.hpp"
   1:C:/Users/niels/DOCUME~1/ELEKTR~1/JAAR2~1/ECS/ECSL/software/STM32/STM32B~1/HAL/GEMEEN~1/THIRD_~1/FREERT~1.0/C__~1/Source/include\read_write_lock.hpp **** /****************************************************************************
   2:C:/Users/niels/DOCUME~1/ELEKTR~1/JAAR2~1/ECS/ECSL/software/STM32/STM32B~1/HAL/GEMEEN~1/THIRD_~1/FREERT~1.0/C__~1/Source/include\read_write_lock.hpp ****  *
   3:C:/Users/niels/DOCUME~1/ELEKTR~1/JAAR2~1/ECS/ECSL/software/STM32/STM32B~1/HAL/GEMEEN~1/THIRD_~1/FREERT~1.0/C__~1/Source/include\read_write_lock.hpp ****  *  Copyright (c) 2016, Michael Becker (michael.f.becker@gmail.com)
   4:C:/Users/niels/DOCUME~1/ELEKTR~1/JAAR2~1/ECS/ECSL/software/STM32/STM32B~1/HAL/GEMEEN~1/THIRD_~1/FREERT~1.0/C__~1/Source/include\read_write_lock.hpp ****  *
   5:C:/Users/niels/DOCUME~1/ELEKTR~1/JAAR2~1/ECS/ECSL/software/STM32/STM32B~1/HAL/GEMEEN~1/THIRD_~1/FREERT~1.0/C__~1/Source/include\read_write_lock.hpp ****  *  This file is part of the FreeRTOS C++ Wrappers project.
   6:C:/Users/niels/DOCUME~1/ELEKTR~1/JAAR2~1/ECS/ECSL/software/STM32/STM32B~1/HAL/GEMEEN~1/THIRD_~1/FREERT~1.0/C__~1/Source/include\read_write_lock.hpp ****  *
   7:C:/Users/niels/DOCUME~1/ELEKTR~1/JAAR2~1/ECS/ECSL/software/STM32/STM32B~1/HAL/GEMEEN~1/THIRD_~1/FREERT~1.0/C__~1/Source/include\read_write_lock.hpp ****  *  The FreeRTOS C++ Wrappers project is free software: you can redistribute
   8:C:/Users/niels/DOCUME~1/ELEKTR~1/JAAR2~1/ECS/ECSL/software/STM32/STM32B~1/HAL/GEMEEN~1/THIRD_~1/FREERT~1.0/C__~1/Source/include\read_write_lock.hpp ****  *  it and/or modify it under the terms of the GNU General Public License as
   9:C:/Users/niels/DOCUME~1/ELEKTR~1/JAAR2~1/ECS/ECSL/software/STM32/STM32B~1/HAL/GEMEEN~1/THIRD_~1/FREERT~1.0/C__~1/Source/include\read_write_lock.hpp ****  *  published by the Free Software Foundation, either version 2
  10:C:/Users/niels/DOCUME~1/ELEKTR~1/JAAR2~1/ECS/ECSL/software/STM32/STM32B~1/HAL/GEMEEN~1/THIRD_~1/FREERT~1.0/C__~1/Source/include\read_write_lock.hpp ****  *  of the License, or (at your option) any later version.
  11:C:/Users/niels/DOCUME~1/ELEKTR~1/JAAR2~1/ECS/ECSL/software/STM32/STM32B~1/HAL/GEMEEN~1/THIRD_~1/FREERT~1.0/C__~1/Source/include\read_write_lock.hpp ****  *
  12:C:/Users/niels/DOCUME~1/ELEKTR~1/JAAR2~1/ECS/ECSL/software/STM32/STM32B~1/HAL/GEMEEN~1/THIRD_~1/FREERT~1.0/C__~1/Source/include\read_write_lock.hpp ****  *  The FreeRTOS C++ Wrappers project is distributed in the hope that it will
  13:C:/Users/niels/DOCUME~1/ELEKTR~1/JAAR2~1/ECS/ECSL/software/STM32/STM32B~1/HAL/GEMEEN~1/THIRD_~1/FREERT~1.0/C__~1/Source/include\read_write_lock.hpp ****  *  be useful, but WITHOUT ANY WARRANTY; without even the implied warranty of
  14:C:/Users/niels/DOCUME~1/ELEKTR~1/JAAR2~1/ECS/ECSL/software/STM32/STM32B~1/HAL/GEMEEN~1/THIRD_~1/FREERT~1.0/C__~1/Source/include\read_write_lock.hpp ****  *  MERCHANTABILITY or FITNESS FOR A PARTICULAR PURPOSE.  See the
  15:C:/Users/niels/DOCUME~1/ELEKTR~1/JAAR2~1/ECS/ECSL/software/STM32/STM32B~1/HAL/GEMEEN~1/THIRD_~1/FREERT~1.0/C__~1/Source/include\read_write_lock.hpp ****  *  GNU General Public License for more details.
  16:C:/Users/niels/DOCUME~1/ELEKTR~1/JAAR2~1/ECS/ECSL/software/STM32/STM32B~1/HAL/GEMEEN~1/THIRD_~1/FREERT~1.0/C__~1/Source/include\read_write_lock.hpp ****  *
  17:C:/Users/niels/DOCUME~1/ELEKTR~1/JAAR2~1/ECS/ECSL/software/STM32/STM32B~1/HAL/GEMEEN~1/THIRD_~1/FREERT~1.0/C__~1/Source/include\read_write_lock.hpp ****  *  You should have received a copy of the GNU General Public License
  18:C:/Users/niels/DOCUME~1/ELEKTR~1/JAAR2~1/ECS/ECSL/software/STM32/STM32B~1/HAL/GEMEEN~1/THIRD_~1/FREERT~1.0/C__~1/Source/include\read_write_lock.hpp ****  *  along with the FreeRTOS C++ Wrappers project.
  19:C:/Users/niels/DOCUME~1/ELEKTR~1/JAAR2~1/ECS/ECSL/software/STM32/STM32B~1/HAL/GEMEEN~1/THIRD_~1/FREERT~1.0/C__~1/Source/include\read_write_lock.hpp ****  *  If not, see <http://www.gnu.org/licenses/>.
  20:C:/Users/niels/DOCUME~1/ELEKTR~1/JAAR2~1/ECS/ECSL/software/STM32/STM32B~1/HAL/GEMEEN~1/THIRD_~1/FREERT~1.0/C__~1/Source/include\read_write_lock.hpp ****  *
  21:C:/Users/niels/DOCUME~1/ELEKTR~1/JAAR2~1/ECS/ECSL/software/STM32/STM32B~1/HAL/GEMEEN~1/THIRD_~1/FREERT~1.0/C__~1/Source/include\read_write_lock.hpp ****  ***************************************************************************/
  22:C:/Users/niels/DOCUME~1/ELEKTR~1/JAAR2~1/ECS/ECSL/software/STM32/STM32B~1/HAL/GEMEEN~1/THIRD_~1/FREERT~1.0/C__~1/Source/include\read_write_lock.hpp **** #ifndef READ_WRITE_LOCK_HPP_
  23:C:/Users/niels/DOCUME~1/ELEKTR~1/JAAR2~1/ECS/ECSL/software/STM32/STM32B~1/HAL/GEMEEN~1/THIRD_~1/FREERT~1.0/C__~1/Source/include\read_write_lock.hpp **** #define READ_WRITE_LOCK_HPP_
  24:C:/Users/niels/DOCUME~1/ELEKTR~1/JAAR2~1/ECS/ECSL/software/STM32/STM32B~1/HAL/GEMEEN~1/THIRD_~1/FREERT~1.0/C__~1/Source/include\read_write_lock.hpp **** 
  25:C:/Users/niels/DOCUME~1/ELEKTR~1/JAAR2~1/ECS/ECSL/software/STM32/STM32B~1/HAL/GEMEEN~1/THIRD_~1/FREERT~1.0/C__~1/Source/include\read_write_lock.hpp **** 
  26:C:/Users/niels/DOCUME~1/ELEKTR~1/JAAR2~1/ECS/ECSL/software/STM32/STM32B~1/HAL/GEMEEN~1/THIRD_~1/FREERT~1.0/C__~1/Source/include\read_write_lock.hpp **** #include <exception>
  27:C:/Users/niels/DOCUME~1/ELEKTR~1/JAAR2~1/ECS/ECSL/software/STM32/STM32B~1/HAL/GEMEEN~1/THIRD_~1/FREERT~1.0/C__~1/Source/include\read_write_lock.hpp **** #include <string>
  28:C:/Users/niels/DOCUME~1/ELEKTR~1/JAAR2~1/ECS/ECSL/software/STM32/STM32B~1/HAL/GEMEEN~1/THIRD_~1/FREERT~1.0/C__~1/Source/include\read_write_lock.hpp **** #include "FreeRTOS.h"
  29:C:/Users/niels/DOCUME~1/ELEKTR~1/JAAR2~1/ECS/ECSL/software/STM32/STM32B~1/HAL/GEMEEN~1/THIRD_~1/FREERT~1.0/C__~1/Source/include\read_write_lock.hpp **** #include "semphr.h"
  30:C:/Users/niels/DOCUME~1/ELEKTR~1/JAAR2~1/ECS/ECSL/software/STM32/STM32B~1/HAL/GEMEEN~1/THIRD_~1/FREERT~1.0/C__~1/Source/include\read_write_lock.hpp **** // TODO - explore replacing sprintf with stringstream
ARM GAS   			page 28


  31:C:/Users/niels/DOCUME~1/ELEKTR~1/JAAR2~1/ECS/ECSL/software/STM32/STM32B~1/HAL/GEMEEN~1/THIRD_~1/FREERT~1.0/C__~1/Source/include\read_write_lock.hpp **** #include <cstdio>
  32:C:/Users/niels/DOCUME~1/ELEKTR~1/JAAR2~1/ECS/ECSL/software/STM32/STM32B~1/HAL/GEMEEN~1/THIRD_~1/FREERT~1.0/C__~1/Source/include\read_write_lock.hpp **** 
  33:C:/Users/niels/DOCUME~1/ELEKTR~1/JAAR2~1/ECS/ECSL/software/STM32/STM32B~1/HAL/GEMEEN~1/THIRD_~1/FREERT~1.0/C__~1/Source/include\read_write_lock.hpp **** 
  34:C:/Users/niels/DOCUME~1/ELEKTR~1/JAAR2~1/ECS/ECSL/software/STM32/STM32B~1/HAL/GEMEEN~1/THIRD_~1/FREERT~1.0/C__~1/Source/include\read_write_lock.hpp **** namespace cpp_freertos {
  35:C:/Users/niels/DOCUME~1/ELEKTR~1/JAAR2~1/ECS/ECSL/software/STM32/STM32B~1/HAL/GEMEEN~1/THIRD_~1/FREERT~1.0/C__~1/Source/include\read_write_lock.hpp **** 
  36:C:/Users/niels/DOCUME~1/ELEKTR~1/JAAR2~1/ECS/ECSL/software/STM32/STM32B~1/HAL/GEMEEN~1/THIRD_~1/FREERT~1.0/C__~1/Source/include\read_write_lock.hpp **** 
  37:C:/Users/niels/DOCUME~1/ELEKTR~1/JAAR2~1/ECS/ECSL/software/STM32/STM32B~1/HAL/GEMEEN~1/THIRD_~1/FREERT~1.0/C__~1/Source/include\read_write_lock.hpp **** /**
  38:C:/Users/niels/DOCUME~1/ELEKTR~1/JAAR2~1/ECS/ECSL/software/STM32/STM32B~1/HAL/GEMEEN~1/THIRD_~1/FREERT~1.0/C__~1/Source/include\read_write_lock.hpp ****  *  This is the exception that is thrown if a ReadWriteLock constructor fails.
  39:C:/Users/niels/DOCUME~1/ELEKTR~1/JAAR2~1/ECS/ECSL/software/STM32/STM32B~1/HAL/GEMEEN~1/THIRD_~1/FREERT~1.0/C__~1/Source/include\read_write_lock.hpp ****  */
  40:C:/Users/niels/DOCUME~1/ELEKTR~1/JAAR2~1/ECS/ECSL/software/STM32/STM32B~1/HAL/GEMEEN~1/THIRD_~1/FREERT~1.0/C__~1/Source/include\read_write_lock.hpp **** class ReadWriteLockCreateException : public std::exception {
  41:C:/Users/niels/DOCUME~1/ELEKTR~1/JAAR2~1/ECS/ECSL/software/STM32/STM32B~1/HAL/GEMEEN~1/THIRD_~1/FREERT~1.0/C__~1/Source/include\read_write_lock.hpp **** 
  42:C:/Users/niels/DOCUME~1/ELEKTR~1/JAAR2~1/ECS/ECSL/software/STM32/STM32B~1/HAL/GEMEEN~1/THIRD_~1/FREERT~1.0/C__~1/Source/include\read_write_lock.hpp ****     public:
  43:C:/Users/niels/DOCUME~1/ELEKTR~1/JAAR2~1/ECS/ECSL/software/STM32/STM32B~1/HAL/GEMEEN~1/THIRD_~1/FREERT~1.0/C__~1/Source/include\read_write_lock.hpp ****         /**
  44:C:/Users/niels/DOCUME~1/ELEKTR~1/JAAR2~1/ECS/ECSL/software/STM32/STM32B~1/HAL/GEMEEN~1/THIRD_~1/FREERT~1.0/C__~1/Source/include\read_write_lock.hpp ****          *  Create the exception.
  45:C:/Users/niels/DOCUME~1/ELEKTR~1/JAAR2~1/ECS/ECSL/software/STM32/STM32B~1/HAL/GEMEEN~1/THIRD_~1/FREERT~1.0/C__~1/Source/include\read_write_lock.hpp ****          */
  46:C:/Users/niels/DOCUME~1/ELEKTR~1/JAAR2~1/ECS/ECSL/software/STM32/STM32B~1/HAL/GEMEEN~1/THIRD_~1/FREERT~1.0/C__~1/Source/include\read_write_lock.hpp ****         ReadWriteLockCreateException()
  47:C:/Users/niels/DOCUME~1/ELEKTR~1/JAAR2~1/ECS/ECSL/software/STM32/STM32B~1/HAL/GEMEEN~1/THIRD_~1/FREERT~1.0/C__~1/Source/include\read_write_lock.hpp ****         {
  48:C:/Users/niels/DOCUME~1/ELEKTR~1/JAAR2~1/ECS/ECSL/software/STM32/STM32B~1/HAL/GEMEEN~1/THIRD_~1/FREERT~1.0/C__~1/Source/include\read_write_lock.hpp ****             sprintf(errorString, "ReadWriteLock Constructor Failed");
  49:C:/Users/niels/DOCUME~1/ELEKTR~1/JAAR2~1/ECS/ECSL/software/STM32/STM32B~1/HAL/GEMEEN~1/THIRD_~1/FREERT~1.0/C__~1/Source/include\read_write_lock.hpp ****         }
  50:C:/Users/niels/DOCUME~1/ELEKTR~1/JAAR2~1/ECS/ECSL/software/STM32/STM32B~1/HAL/GEMEEN~1/THIRD_~1/FREERT~1.0/C__~1/Source/include\read_write_lock.hpp **** 
  51:C:/Users/niels/DOCUME~1/ELEKTR~1/JAAR2~1/ECS/ECSL/software/STM32/STM32B~1/HAL/GEMEEN~1/THIRD_~1/FREERT~1.0/C__~1/Source/include\read_write_lock.hpp ****         /**
  52:C:/Users/niels/DOCUME~1/ELEKTR~1/JAAR2~1/ECS/ECSL/software/STM32/STM32B~1/HAL/GEMEEN~1/THIRD_~1/FREERT~1.0/C__~1/Source/include\read_write_lock.hpp ****          *  Get what happened as a string.
  53:C:/Users/niels/DOCUME~1/ELEKTR~1/JAAR2~1/ECS/ECSL/software/STM32/STM32B~1/HAL/GEMEEN~1/THIRD_~1/FREERT~1.0/C__~1/Source/include\read_write_lock.hpp ****          *  We are overriding the base implementation here.
  54:C:/Users/niels/DOCUME~1/ELEKTR~1/JAAR2~1/ECS/ECSL/software/STM32/STM32B~1/HAL/GEMEEN~1/THIRD_~1/FREERT~1.0/C__~1/Source/include\read_write_lock.hpp ****          */
  55:C:/Users/niels/DOCUME~1/ELEKTR~1/JAAR2~1/ECS/ECSL/software/STM32/STM32B~1/HAL/GEMEEN~1/THIRD_~1/FREERT~1.0/C__~1/Source/include\read_write_lock.hpp ****         virtual const char *what() const throw()
  56:C:/Users/niels/DOCUME~1/ELEKTR~1/JAAR2~1/ECS/ECSL/software/STM32/STM32B~1/HAL/GEMEEN~1/THIRD_~1/FREERT~1.0/C__~1/Source/include\read_write_lock.hpp ****         {
  57:C:/Users/niels/DOCUME~1/ELEKTR~1/JAAR2~1/ECS/ECSL/software/STM32/STM32B~1/HAL/GEMEEN~1/THIRD_~1/FREERT~1.0/C__~1/Source/include\read_write_lock.hpp ****             return errorString;
  58:C:/Users/niels/DOCUME~1/ELEKTR~1/JAAR2~1/ECS/ECSL/software/STM32/STM32B~1/HAL/GEMEEN~1/THIRD_~1/FREERT~1.0/C__~1/Source/include\read_write_lock.hpp ****         }
  59:C:/Users/niels/DOCUME~1/ELEKTR~1/JAAR2~1/ECS/ECSL/software/STM32/STM32B~1/HAL/GEMEEN~1/THIRD_~1/FREERT~1.0/C__~1/Source/include\read_write_lock.hpp **** 
  60:C:/Users/niels/DOCUME~1/ELEKTR~1/JAAR2~1/ECS/ECSL/software/STM32/STM32B~1/HAL/GEMEEN~1/THIRD_~1/FREERT~1.0/C__~1/Source/include\read_write_lock.hpp ****     private:
  61:C:/Users/niels/DOCUME~1/ELEKTR~1/JAAR2~1/ECS/ECSL/software/STM32/STM32B~1/HAL/GEMEEN~1/THIRD_~1/FREERT~1.0/C__~1/Source/include\read_write_lock.hpp ****         /**
  62:C:/Users/niels/DOCUME~1/ELEKTR~1/JAAR2~1/ECS/ECSL/software/STM32/STM32B~1/HAL/GEMEEN~1/THIRD_~1/FREERT~1.0/C__~1/Source/include\read_write_lock.hpp ****          *  A text string representing what failed.
  63:C:/Users/niels/DOCUME~1/ELEKTR~1/JAAR2~1/ECS/ECSL/software/STM32/STM32B~1/HAL/GEMEEN~1/THIRD_~1/FREERT~1.0/C__~1/Source/include\read_write_lock.hpp ****          */
  64:C:/Users/niels/DOCUME~1/ELEKTR~1/JAAR2~1/ECS/ECSL/software/STM32/STM32B~1/HAL/GEMEEN~1/THIRD_~1/FREERT~1.0/C__~1/Source/include\read_write_lock.hpp ****         char errorString[80];
  65:C:/Users/niels/DOCUME~1/ELEKTR~1/JAAR2~1/ECS/ECSL/software/STM32/STM32B~1/HAL/GEMEEN~1/THIRD_~1/FREERT~1.0/C__~1/Source/include\read_write_lock.hpp **** };
  66:C:/Users/niels/DOCUME~1/ELEKTR~1/JAAR2~1/ECS/ECSL/software/STM32/STM32B~1/HAL/GEMEEN~1/THIRD_~1/FREERT~1.0/C__~1/Source/include\read_write_lock.hpp **** 
  67:C:/Users/niels/DOCUME~1/ELEKTR~1/JAAR2~1/ECS/ECSL/software/STM32/STM32B~1/HAL/GEMEEN~1/THIRD_~1/FREERT~1.0/C__~1/Source/include\read_write_lock.hpp **** 
  68:C:/Users/niels/DOCUME~1/ELEKTR~1/JAAR2~1/ECS/ECSL/software/STM32/STM32B~1/HAL/GEMEEN~1/THIRD_~1/FREERT~1.0/C__~1/Source/include\read_write_lock.hpp **** /**
  69:C:/Users/niels/DOCUME~1/ELEKTR~1/JAAR2~1/ECS/ECSL/software/STM32/STM32B~1/HAL/GEMEEN~1/THIRD_~1/FREERT~1.0/C__~1/Source/include\read_write_lock.hpp ****  *  Abstract base class encapsulating a Reader/Writer lock.
  70:C:/Users/niels/DOCUME~1/ELEKTR~1/JAAR2~1/ECS/ECSL/software/STM32/STM32B~1/HAL/GEMEEN~1/THIRD_~1/FREERT~1.0/C__~1/Source/include\read_write_lock.hpp ****  *
  71:C:/Users/niels/DOCUME~1/ELEKTR~1/JAAR2~1/ECS/ECSL/software/STM32/STM32B~1/HAL/GEMEEN~1/THIRD_~1/FREERT~1.0/C__~1/Source/include\read_write_lock.hpp ****  *  These locks are based on mutexs and cannot be used in any way from
  72:C:/Users/niels/DOCUME~1/ELEKTR~1/JAAR2~1/ECS/ECSL/software/STM32/STM32B~1/HAL/GEMEEN~1/THIRD_~1/FREERT~1.0/C__~1/Source/include\read_write_lock.hpp ****  *  ISR context. Likewise, these locks block indefinitely.
  73:C:/Users/niels/DOCUME~1/ELEKTR~1/JAAR2~1/ECS/ECSL/software/STM32/STM32B~1/HAL/GEMEEN~1/THIRD_~1/FREERT~1.0/C__~1/Source/include\read_write_lock.hpp ****  *
  74:C:/Users/niels/DOCUME~1/ELEKTR~1/JAAR2~1/ECS/ECSL/software/STM32/STM32B~1/HAL/GEMEEN~1/THIRD_~1/FREERT~1.0/C__~1/Source/include\read_write_lock.hpp ****  *  @note It is expected that an application will instantiate one of the
  75:C:/Users/niels/DOCUME~1/ELEKTR~1/JAAR2~1/ECS/ECSL/software/STM32/STM32B~1/HAL/GEMEEN~1/THIRD_~1/FREERT~1.0/C__~1/Source/include\read_write_lock.hpp ****  *        derived classes and use that object for synchronization. It is
  76:C:/Users/niels/DOCUME~1/ELEKTR~1/JAAR2~1/ECS/ECSL/software/STM32/STM32B~1/HAL/GEMEEN~1/THIRD_~1/FREERT~1.0/C__~1/Source/include\read_write_lock.hpp ****  *        not expected that a user or application will derive from these
  77:C:/Users/niels/DOCUME~1/ELEKTR~1/JAAR2~1/ECS/ECSL/software/STM32/STM32B~1/HAL/GEMEEN~1/THIRD_~1/FREERT~1.0/C__~1/Source/include\read_write_lock.hpp ****  *        classes.
  78:C:/Users/niels/DOCUME~1/ELEKTR~1/JAAR2~1/ECS/ECSL/software/STM32/STM32B~1/HAL/GEMEEN~1/THIRD_~1/FREERT~1.0/C__~1/Source/include\read_write_lock.hpp ****  */
  79:C:/Users/niels/DOCUME~1/ELEKTR~1/JAAR2~1/ECS/ECSL/software/STM32/STM32B~1/HAL/GEMEEN~1/THIRD_~1/FREERT~1.0/C__~1/Source/include\read_write_lock.hpp **** class ReadWriteLock {
  80:C:/Users/niels/DOCUME~1/ELEKTR~1/JAAR2~1/ECS/ECSL/software/STM32/STM32B~1/HAL/GEMEEN~1/THIRD_~1/FREERT~1.0/C__~1/Source/include\read_write_lock.hpp **** 
  81:C:/Users/niels/DOCUME~1/ELEKTR~1/JAAR2~1/ECS/ECSL/software/STM32/STM32B~1/HAL/GEMEEN~1/THIRD_~1/FREERT~1.0/C__~1/Source/include\read_write_lock.hpp ****     /////////////////////////////////////////////////////////////////////////
  82:C:/Users/niels/DOCUME~1/ELEKTR~1/JAAR2~1/ECS/ECSL/software/STM32/STM32B~1/HAL/GEMEEN~1/THIRD_~1/FREERT~1.0/C__~1/Source/include\read_write_lock.hpp ****     //
  83:C:/Users/niels/DOCUME~1/ELEKTR~1/JAAR2~1/ECS/ECSL/software/STM32/STM32B~1/HAL/GEMEEN~1/THIRD_~1/FREERT~1.0/C__~1/Source/include\read_write_lock.hpp ****     //  Public API
  84:C:/Users/niels/DOCUME~1/ELEKTR~1/JAAR2~1/ECS/ECSL/software/STM32/STM32B~1/HAL/GEMEEN~1/THIRD_~1/FREERT~1.0/C__~1/Source/include\read_write_lock.hpp ****     //
  85:C:/Users/niels/DOCUME~1/ELEKTR~1/JAAR2~1/ECS/ECSL/software/STM32/STM32B~1/HAL/GEMEEN~1/THIRD_~1/FREERT~1.0/C__~1/Source/include\read_write_lock.hpp ****     /////////////////////////////////////////////////////////////////////////
  86:C:/Users/niels/DOCUME~1/ELEKTR~1/JAAR2~1/ECS/ECSL/software/STM32/STM32B~1/HAL/GEMEEN~1/THIRD_~1/FREERT~1.0/C__~1/Source/include\read_write_lock.hpp ****     public:
  87:C:/Users/niels/DOCUME~1/ELEKTR~1/JAAR2~1/ECS/ECSL/software/STM32/STM32B~1/HAL/GEMEEN~1/THIRD_~1/FREERT~1.0/C__~1/Source/include\read_write_lock.hpp ****         /**
ARM GAS   			page 29


  88:C:/Users/niels/DOCUME~1/ELEKTR~1/JAAR2~1/ECS/ECSL/software/STM32/STM32B~1/HAL/GEMEEN~1/THIRD_~1/FREERT~1.0/C__~1/Source/include\read_write_lock.hpp ****          *  Constructor
  89:C:/Users/niels/DOCUME~1/ELEKTR~1/JAAR2~1/ECS/ECSL/software/STM32/STM32B~1/HAL/GEMEEN~1/THIRD_~1/FREERT~1.0/C__~1/Source/include\read_write_lock.hpp ****          *
  90:C:/Users/niels/DOCUME~1/ELEKTR~1/JAAR2~1/ECS/ECSL/software/STM32/STM32B~1/HAL/GEMEEN~1/THIRD_~1/FREERT~1.0/C__~1/Source/include\read_write_lock.hpp ****          *  @throws ReadWriteLockCreateException on failure.
  91:C:/Users/niels/DOCUME~1/ELEKTR~1/JAAR2~1/ECS/ECSL/software/STM32/STM32B~1/HAL/GEMEEN~1/THIRD_~1/FREERT~1.0/C__~1/Source/include\read_write_lock.hpp ****          */
  92:C:/Users/niels/DOCUME~1/ELEKTR~1/JAAR2~1/ECS/ECSL/software/STM32/STM32B~1/HAL/GEMEEN~1/THIRD_~1/FREERT~1.0/C__~1/Source/include\read_write_lock.hpp ****         ReadWriteLock();
  93:C:/Users/niels/DOCUME~1/ELEKTR~1/JAAR2~1/ECS/ECSL/software/STM32/STM32B~1/HAL/GEMEEN~1/THIRD_~1/FREERT~1.0/C__~1/Source/include\read_write_lock.hpp **** 
  94:C:/Users/niels/DOCUME~1/ELEKTR~1/JAAR2~1/ECS/ECSL/software/STM32/STM32B~1/HAL/GEMEEN~1/THIRD_~1/FREERT~1.0/C__~1/Source/include\read_write_lock.hpp ****         /**
  95:C:/Users/niels/DOCUME~1/ELEKTR~1/JAAR2~1/ECS/ECSL/software/STM32/STM32B~1/HAL/GEMEEN~1/THIRD_~1/FREERT~1.0/C__~1/Source/include\read_write_lock.hpp ****          *  Destructor
  96:C:/Users/niels/DOCUME~1/ELEKTR~1/JAAR2~1/ECS/ECSL/software/STM32/STM32B~1/HAL/GEMEEN~1/THIRD_~1/FREERT~1.0/C__~1/Source/include\read_write_lock.hpp ****          */
  97:C:/Users/niels/DOCUME~1/ELEKTR~1/JAAR2~1/ECS/ECSL/software/STM32/STM32B~1/HAL/GEMEEN~1/THIRD_~1/FREERT~1.0/C__~1/Source/include\read_write_lock.hpp ****         virtual ~ReadWriteLock();
  98:C:/Users/niels/DOCUME~1/ELEKTR~1/JAAR2~1/ECS/ECSL/software/STM32/STM32B~1/HAL/GEMEEN~1/THIRD_~1/FREERT~1.0/C__~1/Source/include\read_write_lock.hpp **** 
  99:C:/Users/niels/DOCUME~1/ELEKTR~1/JAAR2~1/ECS/ECSL/software/STM32/STM32B~1/HAL/GEMEEN~1/THIRD_~1/FREERT~1.0/C__~1/Source/include\read_write_lock.hpp ****         /**
 100:C:/Users/niels/DOCUME~1/ELEKTR~1/JAAR2~1/ECS/ECSL/software/STM32/STM32B~1/HAL/GEMEEN~1/THIRD_~1/FREERT~1.0/C__~1/Source/include\read_write_lock.hpp ****          *  Take the lock as a Reader.
 101:C:/Users/niels/DOCUME~1/ELEKTR~1/JAAR2~1/ECS/ECSL/software/STM32/STM32B~1/HAL/GEMEEN~1/THIRD_~1/FREERT~1.0/C__~1/Source/include\read_write_lock.hpp ****          *  This allows multiple reader access.
 102:C:/Users/niels/DOCUME~1/ELEKTR~1/JAAR2~1/ECS/ECSL/software/STM32/STM32B~1/HAL/GEMEEN~1/THIRD_~1/FREERT~1.0/C__~1/Source/include\read_write_lock.hpp ****          */
 103:C:/Users/niels/DOCUME~1/ELEKTR~1/JAAR2~1/ECS/ECSL/software/STM32/STM32B~1/HAL/GEMEEN~1/THIRD_~1/FREERT~1.0/C__~1/Source/include\read_write_lock.hpp ****         virtual void ReaderLock() = 0;
 104:C:/Users/niels/DOCUME~1/ELEKTR~1/JAAR2~1/ECS/ECSL/software/STM32/STM32B~1/HAL/GEMEEN~1/THIRD_~1/FREERT~1.0/C__~1/Source/include\read_write_lock.hpp **** 
 105:C:/Users/niels/DOCUME~1/ELEKTR~1/JAAR2~1/ECS/ECSL/software/STM32/STM32B~1/HAL/GEMEEN~1/THIRD_~1/FREERT~1.0/C__~1/Source/include\read_write_lock.hpp ****         /**
 106:C:/Users/niels/DOCUME~1/ELEKTR~1/JAAR2~1/ECS/ECSL/software/STM32/STM32B~1/HAL/GEMEEN~1/THIRD_~1/FREERT~1.0/C__~1/Source/include\read_write_lock.hpp ****          *  Unlock the Reader.
 107:C:/Users/niels/DOCUME~1/ELEKTR~1/JAAR2~1/ECS/ECSL/software/STM32/STM32B~1/HAL/GEMEEN~1/THIRD_~1/FREERT~1.0/C__~1/Source/include\read_write_lock.hpp ****          */
 108:C:/Users/niels/DOCUME~1/ELEKTR~1/JAAR2~1/ECS/ECSL/software/STM32/STM32B~1/HAL/GEMEEN~1/THIRD_~1/FREERT~1.0/C__~1/Source/include\read_write_lock.hpp ****         virtual void ReaderUnlock() = 0;
 109:C:/Users/niels/DOCUME~1/ELEKTR~1/JAAR2~1/ECS/ECSL/software/STM32/STM32B~1/HAL/GEMEEN~1/THIRD_~1/FREERT~1.0/C__~1/Source/include\read_write_lock.hpp **** 
 110:C:/Users/niels/DOCUME~1/ELEKTR~1/JAAR2~1/ECS/ECSL/software/STM32/STM32B~1/HAL/GEMEEN~1/THIRD_~1/FREERT~1.0/C__~1/Source/include\read_write_lock.hpp ****         /**
 111:C:/Users/niels/DOCUME~1/ELEKTR~1/JAAR2~1/ECS/ECSL/software/STM32/STM32B~1/HAL/GEMEEN~1/THIRD_~1/FREERT~1.0/C__~1/Source/include\read_write_lock.hpp ****          *  Take the lock as a Writer.
 112:C:/Users/niels/DOCUME~1/ELEKTR~1/JAAR2~1/ECS/ECSL/software/STM32/STM32B~1/HAL/GEMEEN~1/THIRD_~1/FREERT~1.0/C__~1/Source/include\read_write_lock.hpp ****          *  This allows only one thread access.
 113:C:/Users/niels/DOCUME~1/ELEKTR~1/JAAR2~1/ECS/ECSL/software/STM32/STM32B~1/HAL/GEMEEN~1/THIRD_~1/FREERT~1.0/C__~1/Source/include\read_write_lock.hpp ****          */
 114:C:/Users/niels/DOCUME~1/ELEKTR~1/JAAR2~1/ECS/ECSL/software/STM32/STM32B~1/HAL/GEMEEN~1/THIRD_~1/FREERT~1.0/C__~1/Source/include\read_write_lock.hpp ****         virtual void WriterLock() = 0;
 115:C:/Users/niels/DOCUME~1/ELEKTR~1/JAAR2~1/ECS/ECSL/software/STM32/STM32B~1/HAL/GEMEEN~1/THIRD_~1/FREERT~1.0/C__~1/Source/include\read_write_lock.hpp **** 
 116:C:/Users/niels/DOCUME~1/ELEKTR~1/JAAR2~1/ECS/ECSL/software/STM32/STM32B~1/HAL/GEMEEN~1/THIRD_~1/FREERT~1.0/C__~1/Source/include\read_write_lock.hpp ****         /**
 117:C:/Users/niels/DOCUME~1/ELEKTR~1/JAAR2~1/ECS/ECSL/software/STM32/STM32B~1/HAL/GEMEEN~1/THIRD_~1/FREERT~1.0/C__~1/Source/include\read_write_lock.hpp ****          *  Unlock the Writer.
 118:C:/Users/niels/DOCUME~1/ELEKTR~1/JAAR2~1/ECS/ECSL/software/STM32/STM32B~1/HAL/GEMEEN~1/THIRD_~1/FREERT~1.0/C__~1/Source/include\read_write_lock.hpp ****          */
 119:C:/Users/niels/DOCUME~1/ELEKTR~1/JAAR2~1/ECS/ECSL/software/STM32/STM32B~1/HAL/GEMEEN~1/THIRD_~1/FREERT~1.0/C__~1/Source/include\read_write_lock.hpp ****         virtual void WriterUnlock() = 0;
 120:C:/Users/niels/DOCUME~1/ELEKTR~1/JAAR2~1/ECS/ECSL/software/STM32/STM32B~1/HAL/GEMEEN~1/THIRD_~1/FREERT~1.0/C__~1/Source/include\read_write_lock.hpp **** 
 121:C:/Users/niels/DOCUME~1/ELEKTR~1/JAAR2~1/ECS/ECSL/software/STM32/STM32B~1/HAL/GEMEEN~1/THIRD_~1/FREERT~1.0/C__~1/Source/include\read_write_lock.hpp ****     /////////////////////////////////////////////////////////////////////////
 122:C:/Users/niels/DOCUME~1/ELEKTR~1/JAAR2~1/ECS/ECSL/software/STM32/STM32B~1/HAL/GEMEEN~1/THIRD_~1/FREERT~1.0/C__~1/Source/include\read_write_lock.hpp ****     //
 123:C:/Users/niels/DOCUME~1/ELEKTR~1/JAAR2~1/ECS/ECSL/software/STM32/STM32B~1/HAL/GEMEEN~1/THIRD_~1/FREERT~1.0/C__~1/Source/include\read_write_lock.hpp ****     //  Protected API
 124:C:/Users/niels/DOCUME~1/ELEKTR~1/JAAR2~1/ECS/ECSL/software/STM32/STM32B~1/HAL/GEMEEN~1/THIRD_~1/FREERT~1.0/C__~1/Source/include\read_write_lock.hpp ****     //  Not intended for use by application code.
 125:C:/Users/niels/DOCUME~1/ELEKTR~1/JAAR2~1/ECS/ECSL/software/STM32/STM32B~1/HAL/GEMEEN~1/THIRD_~1/FREERT~1.0/C__~1/Source/include\read_write_lock.hpp ****     //
 126:C:/Users/niels/DOCUME~1/ELEKTR~1/JAAR2~1/ECS/ECSL/software/STM32/STM32B~1/HAL/GEMEEN~1/THIRD_~1/FREERT~1.0/C__~1/Source/include\read_write_lock.hpp ****     /////////////////////////////////////////////////////////////////////////
 127:C:/Users/niels/DOCUME~1/ELEKTR~1/JAAR2~1/ECS/ECSL/software/STM32/STM32B~1/HAL/GEMEEN~1/THIRD_~1/FREERT~1.0/C__~1/Source/include\read_write_lock.hpp ****     protected:
 128:C:/Users/niels/DOCUME~1/ELEKTR~1/JAAR2~1/ECS/ECSL/software/STM32/STM32B~1/HAL/GEMEEN~1/THIRD_~1/FREERT~1.0/C__~1/Source/include\read_write_lock.hpp ****         /**
 129:C:/Users/niels/DOCUME~1/ELEKTR~1/JAAR2~1/ECS/ECSL/software/STM32/STM32B~1/HAL/GEMEEN~1/THIRD_~1/FREERT~1.0/C__~1/Source/include\read_write_lock.hpp ****          *  How many active readers are there.
 130:C:/Users/niels/DOCUME~1/ELEKTR~1/JAAR2~1/ECS/ECSL/software/STM32/STM32B~1/HAL/GEMEEN~1/THIRD_~1/FREERT~1.0/C__~1/Source/include\read_write_lock.hpp ****          */
 131:C:/Users/niels/DOCUME~1/ELEKTR~1/JAAR2~1/ECS/ECSL/software/STM32/STM32B~1/HAL/GEMEEN~1/THIRD_~1/FREERT~1.0/C__~1/Source/include\read_write_lock.hpp ****         int ReadCount;
 132:C:/Users/niels/DOCUME~1/ELEKTR~1/JAAR2~1/ECS/ECSL/software/STM32/STM32B~1/HAL/GEMEEN~1/THIRD_~1/FREERT~1.0/C__~1/Source/include\read_write_lock.hpp **** 
 133:C:/Users/niels/DOCUME~1/ELEKTR~1/JAAR2~1/ECS/ECSL/software/STM32/STM32B~1/HAL/GEMEEN~1/THIRD_~1/FREERT~1.0/C__~1/Source/include\read_write_lock.hpp ****         /**
 134:C:/Users/niels/DOCUME~1/ELEKTR~1/JAAR2~1/ECS/ECSL/software/STM32/STM32B~1/HAL/GEMEEN~1/THIRD_~1/FREERT~1.0/C__~1/Source/include\read_write_lock.hpp ****          *  Protect ReadCount.
 135:C:/Users/niels/DOCUME~1/ELEKTR~1/JAAR2~1/ECS/ECSL/software/STM32/STM32B~1/HAL/GEMEEN~1/THIRD_~1/FREERT~1.0/C__~1/Source/include\read_write_lock.hpp ****          */
 136:C:/Users/niels/DOCUME~1/ELEKTR~1/JAAR2~1/ECS/ECSL/software/STM32/STM32B~1/HAL/GEMEEN~1/THIRD_~1/FREERT~1.0/C__~1/Source/include\read_write_lock.hpp ****         SemaphoreHandle_t ReadLock;
 137:C:/Users/niels/DOCUME~1/ELEKTR~1/JAAR2~1/ECS/ECSL/software/STM32/STM32B~1/HAL/GEMEEN~1/THIRD_~1/FREERT~1.0/C__~1/Source/include\read_write_lock.hpp **** 
 138:C:/Users/niels/DOCUME~1/ELEKTR~1/JAAR2~1/ECS/ECSL/software/STM32/STM32B~1/HAL/GEMEEN~1/THIRD_~1/FREERT~1.0/C__~1/Source/include\read_write_lock.hpp ****         /**
 139:C:/Users/niels/DOCUME~1/ELEKTR~1/JAAR2~1/ECS/ECSL/software/STM32/STM32B~1/HAL/GEMEEN~1/THIRD_~1/FREERT~1.0/C__~1/Source/include\read_write_lock.hpp ****          *  Protect this resource from multiple writer access, or
 140:C:/Users/niels/DOCUME~1/ELEKTR~1/JAAR2~1/ECS/ECSL/software/STM32/STM32B~1/HAL/GEMEEN~1/THIRD_~1/FREERT~1.0/C__~1/Source/include\read_write_lock.hpp ****          *  from Reader access when a writer is changing something.
 141:C:/Users/niels/DOCUME~1/ELEKTR~1/JAAR2~1/ECS/ECSL/software/STM32/STM32B~1/HAL/GEMEEN~1/THIRD_~1/FREERT~1.0/C__~1/Source/include\read_write_lock.hpp ****          */
 142:C:/Users/niels/DOCUME~1/ELEKTR~1/JAAR2~1/ECS/ECSL/software/STM32/STM32B~1/HAL/GEMEEN~1/THIRD_~1/FREERT~1.0/C__~1/Source/include\read_write_lock.hpp ****         SemaphoreHandle_t ResourceLock;
 143:C:/Users/niels/DOCUME~1/ELEKTR~1/JAAR2~1/ECS/ECSL/software/STM32/STM32B~1/HAL/GEMEEN~1/THIRD_~1/FREERT~1.0/C__~1/Source/include\read_write_lock.hpp **** };
 144:C:/Users/niels/DOCUME~1/ELEKTR~1/JAAR2~1/ECS/ECSL/software/STM32/STM32B~1/HAL/GEMEEN~1/THIRD_~1/FREERT~1.0/C__~1/Source/include\read_write_lock.hpp **** 
ARM GAS   			page 30


 145:C:/Users/niels/DOCUME~1/ELEKTR~1/JAAR2~1/ECS/ECSL/software/STM32/STM32B~1/HAL/GEMEEN~1/THIRD_~1/FREERT~1.0/C__~1/Source/include\read_write_lock.hpp **** 
 146:C:/Users/niels/DOCUME~1/ELEKTR~1/JAAR2~1/ECS/ECSL/software/STM32/STM32B~1/HAL/GEMEEN~1/THIRD_~1/FREERT~1.0/C__~1/Source/include\read_write_lock.hpp **** /**
 147:C:/Users/niels/DOCUME~1/ELEKTR~1/JAAR2~1/ECS/ECSL/software/STM32/STM32B~1/HAL/GEMEEN~1/THIRD_~1/FREERT~1.0/C__~1/Source/include\read_write_lock.hpp ****  *  Concrete derived class that implements a Reader/Writer lock
 148:C:/Users/niels/DOCUME~1/ELEKTR~1/JAAR2~1/ECS/ECSL/software/STM32/STM32B~1/HAL/GEMEEN~1/THIRD_~1/FREERT~1.0/C__~1/Source/include\read_write_lock.hpp ****  *  that favors the Readers. That is, with enough aggressive readers,
 149:C:/Users/niels/DOCUME~1/ELEKTR~1/JAAR2~1/ECS/ECSL/software/STM32/STM32B~1/HAL/GEMEEN~1/THIRD_~1/FREERT~1.0/C__~1/Source/include\read_write_lock.hpp ****  *  a Writer may starve.
 150:C:/Users/niels/DOCUME~1/ELEKTR~1/JAAR2~1/ECS/ECSL/software/STM32/STM32B~1/HAL/GEMEEN~1/THIRD_~1/FREERT~1.0/C__~1/Source/include\read_write_lock.hpp ****  */
 151:C:/Users/niels/DOCUME~1/ELEKTR~1/JAAR2~1/ECS/ECSL/software/STM32/STM32B~1/HAL/GEMEEN~1/THIRD_~1/FREERT~1.0/C__~1/Source/include\read_write_lock.hpp **** class ReadWriteLockPreferReader : public ReadWriteLock {
 1049              	 .loc 3 151 7
 1050              	 .cfi_startproc
 1051              	 
 1052              	 
 1053 0000 80B5     	 push {r7,lr}
 1054              	 .cfi_def_cfa_offset 8
 1055              	 .cfi_offset 7,-8
 1056              	 .cfi_offset 14,-4
 1057 0002 82B0     	 sub sp,sp,#8
 1058              	 .cfi_def_cfa_offset 16
 1059 0004 00AF     	 add r7,sp,#0
 1060              	 .cfi_def_cfa_register 7
 1061 0006 7860     	 str r0,[r7,#4]
 1062              	.LBB6:
 1063              	 .loc 3 151 7
 1064 0008 054A     	 ldr r2,.L43
 1065 000a 7B68     	 ldr r3,[r7,#4]
 1066 000c 1A60     	 str r2,[r3]
 1067 000e 7B68     	 ldr r3,[r7,#4]
 1068 0010 1846     	 mov r0,r3
 1069 0012 FFF7FEFF 	 bl _ZN12cpp_freertos13ReadWriteLockD2Ev
 1070              	.LBE6:
 1071 0016 7B68     	 ldr r3,[r7,#4]
 1072 0018 1846     	 mov r0,r3
 1073 001a 0837     	 adds r7,r7,#8
 1074              	 .cfi_def_cfa_offset 8
 1075 001c BD46     	 mov sp,r7
 1076              	 .cfi_def_cfa_register 13
 1077              	 
 1078 001e 80BD     	 pop {r7,pc}
 1079              	.L44:
 1080              	 .align 2
 1081              	.L43:
 1082 0020 08000000 	 .word _ZTVN12cpp_freertos25ReadWriteLockPreferReaderE+8
 1083              	 .cfi_endproc
 1084              	.LFE1299:
 1085              	 .size _ZN12cpp_freertos25ReadWriteLockPreferReaderD2Ev,.-_ZN12cpp_freertos25ReadWriteLockPreferReaderD2Ev
 1086              	 .weak _ZN12cpp_freertos25ReadWriteLockPreferReaderD1Ev
 1087              	 .thumb_set _ZN12cpp_freertos25ReadWriteLockPreferReaderD1Ev,_ZN12cpp_freertos25ReadWriteLockPreferReaderD2Ev
 1088              	 .section .text._ZN12cpp_freertos25ReadWriteLockPreferReaderD0Ev,"axG",%progbits,_ZN12cpp_freertos25ReadWriteLockPreferReaderD5Ev,comdat
 1089              	 .align 1
 1090              	 .weak _ZN12cpp_freertos25ReadWriteLockPreferReaderD0Ev
 1091              	 .syntax unified
 1092              	 .thumb
 1093              	 .thumb_func
 1094              	 .type _ZN12cpp_freertos25ReadWriteLockPreferReaderD0Ev,%function
 1095              	_ZN12cpp_freertos25ReadWriteLockPreferReaderD0Ev:
 1096              	.LFB1301:
 1097              	 .loc 3 151 7
 1098              	 .cfi_startproc
ARM GAS   			page 31


 1099              	 
 1100              	 
 1101 0000 80B5     	 push {r7,lr}
 1102              	 .cfi_def_cfa_offset 8
 1103              	 .cfi_offset 7,-8
 1104              	 .cfi_offset 14,-4
 1105 0002 82B0     	 sub sp,sp,#8
 1106              	 .cfi_def_cfa_offset 16
 1107 0004 00AF     	 add r7,sp,#0
 1108              	 .cfi_def_cfa_register 7
 1109 0006 7860     	 str r0,[r7,#4]
 1110              	 .loc 3 151 7
 1111 0008 7868     	 ldr r0,[r7,#4]
 1112 000a FFF7FEFF 	 bl _ZN12cpp_freertos25ReadWriteLockPreferReaderD1Ev
 1113 000e 7868     	 ldr r0,[r7,#4]
 1114 0010 FFF7FEFF 	 bl _ZdlPv
 1115 0014 7B68     	 ldr r3,[r7,#4]
 1116 0016 1846     	 mov r0,r3
 1117 0018 0837     	 adds r7,r7,#8
 1118              	 .cfi_def_cfa_offset 8
 1119 001a BD46     	 mov sp,r7
 1120              	 .cfi_def_cfa_register 13
 1121              	 
 1122 001c 80BD     	 pop {r7,pc}
 1123              	 .cfi_endproc
 1124              	.LFE1301:
 1125              	 .size _ZN12cpp_freertos25ReadWriteLockPreferReaderD0Ev,.-_ZN12cpp_freertos25ReadWriteLockPreferReaderD0Ev
 1126              	 .global _ZTVN12cpp_freertos13ReadWriteLockE
 1127              	 .section .rodata._ZTVN12cpp_freertos13ReadWriteLockE,"a"
 1128              	 .align 2
 1129              	 .type _ZTVN12cpp_freertos13ReadWriteLockE,%object
 1130              	 .size _ZTVN12cpp_freertos13ReadWriteLockE,32
 1131              	_ZTVN12cpp_freertos13ReadWriteLockE:
 1132 0000 00000000 	 .word 0
 1133 0004 00000000 	 .word 0
 1134 0008 00000000 	 .word 0
 1135 000c 00000000 	 .word 0
 1136 0010 00000000 	 .word __cxa_pure_virtual
 1137 0014 00000000 	 .word __cxa_pure_virtual
 1138 0018 00000000 	 .word __cxa_pure_virtual
 1139 001c 00000000 	 .word __cxa_pure_virtual
 1140              	 .text
 1141              	.Letext0:
 1142              	 .file 4 "c:\\progra~2\\gnuarm~1\\102021~1.10\\arm-none-eabi\\include\\c++\\10.3.1\\bits\\exception_ptr.h"
 1143              	 .file 5 "c:\\progra~2\\gnuarm~1\\102021~1.10\\arm-none-eabi\\include\\c++\\10.3.1\\type_traits"
 1144              	 .file 6 "c:\\progra~2\\gnuarm~1\\102021~1.10\\arm-none-eabi\\include\\c++\\10.3.1\\bits\\cpp_type_traits.h"
 1145              	 .file 7 "c:\\progra~2\\gnuarm~1\\102021~1.10\\arm-none-eabi\\include\\c++\\10.3.1\\bits\\stl_pair.h"
 1146              	 .file 8 "c:\\progra~2\\gnuarm~1\\102021~1.10\\arm-none-eabi\\include\\c++\\10.3.1\\debug\\debug.h"
 1147              	 .file 9 "c:\\progra~2\\gnuarm~1\\102021~1.10\\arm-none-eabi\\include\\c++\\10.3.1\\cwchar"
 1148              	 .file 10 "c:\\progra~2\\gnuarm~1\\102021~1.10\\arm-none-eabi\\include\\c++\\10.3.1\\cstdint"
 1149              	 .file 11 "c:\\progra~2\\gnuarm~1\\102021~1.10\\arm-none-eabi\\include\\c++\\10.3.1\\clocale"
 1150              	 .file 12 "c:\\progra~2\\gnuarm~1\\102021~1.10\\arm-none-eabi\\include\\c++\\10.3.1\\cstdlib"
 1151              	 .file 13 "c:\\progra~2\\gnuarm~1\\102021~1.10\\arm-none-eabi\\include\\c++\\10.3.1\\cstdio"
 1152              	 .file 14 "c:\\progra~2\\gnuarm~1\\102021~1.10\\arm-none-eabi\\include\\c++\\10.3.1\\arm-none-eabi\\thumb\\v7e-m+fp\\hard\\bits\\c++config.h"
 1153              	 .file 15 "c:\\progra~2\\gnuarm~1\\102021~1.10\\arm-none-eabi\\include\\c++\\10.3.1\\bits\\predefined_ops.h"
 1154              	 .file 16 "c:\\progra~2\\gnuarm~1\\102021~1.10\\lib\\gcc\\arm-none-eabi\\10.3.1\\include\\stddef.h"
 1155              	 .file 17 "c:\\progra~2\\gnuarm~1\\102021~1.10\\arm-none-eabi\\include\\machine\\_default_types.h"
ARM GAS   			page 32


 1156              	 .file 18 "c:\\progra~2\\gnuarm~1\\102021~1.10\\arm-none-eabi\\include\\sys\\_types.h"
 1157              	 .file 19 "c:\\progra~2\\gnuarm~1\\102021~1.10\\arm-none-eabi\\include\\sys\\reent.h"
 1158              	 .file 20 "c:\\progra~2\\gnuarm~1\\102021~1.10\\arm-none-eabi\\include\\sys\\lock.h"
 1159              	 .file 21 "c:\\progra~2\\gnuarm~1\\102021~1.10\\lib\\gcc\\arm-none-eabi\\10.3.1\\include\\stdarg.h"
 1160              	 .file 22 "c:\\progra~2\\gnuarm~1\\102021~1.10\\arm-none-eabi\\include\\wchar.h"
 1161              	 .file 23 "c:\\progra~2\\gnuarm~1\\102021~1.10\\arm-none-eabi\\include\\sys\\_stdint.h"
 1162              	 .file 24 "c:\\progra~2\\gnuarm~1\\102021~1.10\\arm-none-eabi\\include\\stdint.h"
 1163              	 .file 25 "c:\\progra~2\\gnuarm~1\\102021~1.10\\arm-none-eabi\\include\\locale.h"
 1164              	 .file 26 "c:\\progra~2\\gnuarm~1\\102021~1.10\\arm-none-eabi\\include\\stdlib.h"
 1165              	 .file 27 "c:\\progra~2\\gnuarm~1\\102021~1.10\\arm-none-eabi\\include\\stdio.h"
 1166              	 .file 28 "C:/Users/niels/DOCUME~1/ELEKTR~1/JAAR2~1/ECS/ECSL/software/STM32/STM32B~1/HAL/GEMEEN~1/THIRD_~1/FreeRTOS/Source/portable/GCC/ARM_CM4F/portmacro.h"
 1167              	 .file 29 "C:/Users/niels/DOCUME~1/ELEKTR~1/JAAR2~1/ECS/ECSL/software/STM32/STM32B~1/HAL/GEMEEN~1/THIRD_~1/FreeRTOS/Source/include/queue.h"
 1168              	 .file 30 "C:/Users/niels/DOCUME~1/ELEKTR~1/JAAR2~1/ECS/ECSL/software/STM32/STM32B~1/HAL/GEMEEN~1/THIRD_~1/FreeRTOS/Source/include/semphr.h"
 1169              	 .file 31 "<built-in>"
 1170              	 .section .debug_info,"",%progbits
 1171              	.Ldebug_info0:
 1172 0000 632A0000 	 .4byte 0x2a63
 1173 0004 0400     	 .2byte 0x4
 1174 0006 00000000 	 .4byte .Ldebug_abbrev0
 1175 000a 04       	 .byte 0x4
 1176 000b 01       	 .uleb128 0x1
 1177 000c E2040000 	 .4byte .LASF415
 1178 0010 04       	 .byte 0x4
 1179 0011 7B0E0000 	 .4byte .LASF416
 1180 0015 F4060000 	 .4byte .LASF417
 1181 0019 00000000 	 .4byte .Ldebug_ranges0+0
 1182 001d 00000000 	 .4byte 0
 1183 0021 00000000 	 .4byte .Ldebug_line0
 1184 0025 02       	 .uleb128 0x2
 1185 0026 73746400 	 .ascii "std\000"
 1186 002a 1F       	 .byte 0x1f
 1187 002b 00       	 .byte 0
 1188 002c 3F080000 	 .4byte 0x83f
 1189 0030 03       	 .uleb128 0x3
 1190 0031 5E0B0000 	 .4byte .LASF34
 1191 0035 0E       	 .byte 0xe
 1192 0036 1E01     	 .2byte 0x11e
 1193 0038 41       	 .byte 0x41
 1194 0039 04       	 .uleb128 0x4
 1195 003a 0E       	 .byte 0xe
 1196 003b 1E01     	 .2byte 0x11e
 1197 003d 41       	 .byte 0x41
 1198 003e 30000000 	 .4byte 0x30
 1199 0042 05       	 .uleb128 0x5
 1200 0043 46020000 	 .4byte .LASF32
 1201 0047 04       	 .byte 0x4
 1202 0048 35       	 .byte 0x35
 1203 0049 0D       	 .byte 0xd
 1204 004a 3D020000 	 .4byte 0x23d
 1205 004e 06       	 .uleb128 0x6
 1206 004f 420D0000 	 .4byte .LASF4
 1207 0053 04       	 .byte 0x4
 1208 0054 04       	 .byte 0x4
 1209 0055 50       	 .byte 0x50
 1210 0056 0B       	 .byte 0xb
 1211 0057 2F020000 	 .4byte 0x22f
 1212 005b 07       	 .uleb128 0x7
ARM GAS   			page 33


 1213 005c 73080000 	 .4byte .LASF80
 1214 0060 04       	 .byte 0x4
 1215 0061 52       	 .byte 0x52
 1216 0062 0D       	 .byte 0xd
 1217 0063 06090000 	 .4byte 0x906
 1218 0067 00       	 .byte 0
 1219 0068 08       	 .uleb128 0x8
 1220 0069 420D0000 	 .4byte .LASF4
 1221 006d 04       	 .byte 0x4
 1222 006e 54       	 .byte 0x54
 1223 006f 10       	 .byte 0x10
 1224 0070 3A000000 	 .4byte .LASF5
 1225 0074 08090000 	 .4byte 0x908
 1226 0078 80000000 	 .4byte 0x80
 1227 007c 8B000000 	 .4byte 0x8b
 1228 0080 09       	 .uleb128 0x9
 1229 0081 08090000 	 .4byte 0x908
 1230 0085 0A       	 .uleb128 0xa
 1231 0086 06090000 	 .4byte 0x906
 1232 008a 00       	 .byte 0
 1233 008b 0B       	 .uleb128 0xb
 1234 008c D1140000 	 .4byte .LASF0
 1235 0090 04       	 .byte 0x4
 1236 0091 56       	 .byte 0x56
 1237 0092 0C       	 .byte 0xc
 1238 0093 EF180000 	 .4byte .LASF2
 1239 0097 9F000000 	 .4byte 0x9f
 1240 009b A5000000 	 .4byte 0xa5
 1241 009f 09       	 .uleb128 0x9
 1242 00a0 08090000 	 .4byte 0x908
 1243 00a4 00       	 .byte 0
 1244 00a5 0B       	 .uleb128 0xb
 1245 00a6 73160000 	 .4byte .LASF1
 1246 00aa 04       	 .byte 0x4
 1247 00ab 57       	 .byte 0x57
 1248 00ac 0C       	 .byte 0xc
 1249 00ad 9E150000 	 .4byte .LASF3
 1250 00b1 B9000000 	 .4byte 0xb9
 1251 00b5 BF000000 	 .4byte 0xbf
 1252 00b9 09       	 .uleb128 0x9
 1253 00ba 08090000 	 .4byte 0x908
 1254 00be 00       	 .byte 0
 1255 00bf 0C       	 .uleb128 0xc
 1256 00c0 910F0000 	 .4byte .LASF15
 1257 00c4 04       	 .byte 0x4
 1258 00c5 59       	 .byte 0x59
 1259 00c6 0D       	 .byte 0xd
 1260 00c7 12160000 	 .4byte .LASF17
 1261 00cb 06090000 	 .4byte 0x906
 1262 00cf D7000000 	 .4byte 0xd7
 1263 00d3 DD000000 	 .4byte 0xdd
 1264 00d7 09       	 .uleb128 0x9
 1265 00d8 0E090000 	 .4byte 0x90e
 1266 00dc 00       	 .byte 0
 1267 00dd 0D       	 .uleb128 0xd
 1268 00de 420D0000 	 .4byte .LASF4
 1269 00e2 04       	 .byte 0x4
ARM GAS   			page 34


 1270 00e3 61       	 .byte 0x61
 1271 00e4 07       	 .byte 0x7
 1272 00e5 1A110000 	 .4byte .LASF6
 1273 00e9 08090000 	 .4byte 0x908
 1274 00ed 01       	 .byte 0x1
 1275 00ee F6000000 	 .4byte 0xf6
 1276 00f2 FC000000 	 .4byte 0xfc
 1277 00f6 09       	 .uleb128 0x9
 1278 00f7 08090000 	 .4byte 0x908
 1279 00fb 00       	 .byte 0
 1280 00fc 0D       	 .uleb128 0xd
 1281 00fd 420D0000 	 .4byte .LASF4
 1282 0101 04       	 .byte 0x4
 1283 0102 63       	 .byte 0x63
 1284 0103 07       	 .byte 0x7
 1285 0104 80170000 	 .4byte .LASF7
 1286 0108 08090000 	 .4byte 0x908
 1287 010c 01       	 .byte 0x1
 1288 010d 15010000 	 .4byte 0x115
 1289 0111 20010000 	 .4byte 0x120
 1290 0115 09       	 .uleb128 0x9
 1291 0116 08090000 	 .4byte 0x908
 1292 011a 0A       	 .uleb128 0xa
 1293 011b 14090000 	 .4byte 0x914
 1294 011f 00       	 .byte 0
 1295 0120 0D       	 .uleb128 0xd
 1296 0121 420D0000 	 .4byte .LASF4
 1297 0125 04       	 .byte 0x4
 1298 0126 66       	 .byte 0x66
 1299 0127 07       	 .byte 0x7
 1300 0128 37150000 	 .4byte .LASF8
 1301 012c 08090000 	 .4byte 0x908
 1302 0130 01       	 .byte 0x1
 1303 0131 39010000 	 .4byte 0x139
 1304 0135 44010000 	 .4byte 0x144
 1305 0139 09       	 .uleb128 0x9
 1306 013a 08090000 	 .4byte 0x908
 1307 013e 0A       	 .uleb128 0xa
 1308 013f 5B020000 	 .4byte 0x25b
 1309 0143 00       	 .byte 0
 1310 0144 0D       	 .uleb128 0xd
 1311 0145 420D0000 	 .4byte .LASF4
 1312 0149 04       	 .byte 0x4
 1313 014a 6A       	 .byte 0x6a
 1314 014b 07       	 .byte 0x7
 1315 014c AE070000 	 .4byte .LASF9
 1316 0150 08090000 	 .4byte 0x908
 1317 0154 01       	 .byte 0x1
 1318 0155 5D010000 	 .4byte 0x15d
 1319 0159 68010000 	 .4byte 0x168
 1320 015d 09       	 .uleb128 0x9
 1321 015e 08090000 	 .4byte 0x908
 1322 0162 0A       	 .uleb128 0xa
 1323 0163 1A090000 	 .4byte 0x91a
 1324 0167 00       	 .byte 0
 1325 0168 0D       	 .uleb128 0xd
 1326 0169 870F0000 	 .4byte .LASF10
ARM GAS   			page 35


 1327 016d 04       	 .byte 0x4
 1328 016e 77       	 .byte 0x77
 1329 016f 07       	 .byte 0x7
 1330 0170 47180000 	 .4byte .LASF11
 1331 0174 20090000 	 .4byte 0x920
 1332 0178 01       	 .byte 0x1
 1333 0179 81010000 	 .4byte 0x181
 1334 017d 8C010000 	 .4byte 0x18c
 1335 0181 09       	 .uleb128 0x9
 1336 0182 08090000 	 .4byte 0x908
 1337 0186 0A       	 .uleb128 0xa
 1338 0187 14090000 	 .4byte 0x914
 1339 018b 00       	 .byte 0
 1340 018c 0D       	 .uleb128 0xd
 1341 018d 870F0000 	 .4byte .LASF10
 1342 0191 04       	 .byte 0x4
 1343 0192 7B       	 .byte 0x7b
 1344 0193 07       	 .byte 0x7
 1345 0194 94010000 	 .4byte .LASF12
 1346 0198 20090000 	 .4byte 0x920
 1347 019c 01       	 .byte 0x1
 1348 019d A5010000 	 .4byte 0x1a5
 1349 01a1 B0010000 	 .4byte 0x1b0
 1350 01a5 09       	 .uleb128 0x9
 1351 01a6 08090000 	 .4byte 0x908
 1352 01aa 0A       	 .uleb128 0xa
 1353 01ab 1A090000 	 .4byte 0x91a
 1354 01af 00       	 .byte 0
 1355 01b0 0D       	 .uleb128 0xd
 1356 01b1 7F000000 	 .4byte .LASF13
 1357 01b5 04       	 .byte 0x4
 1358 01b6 82       	 .byte 0x82
 1359 01b7 07       	 .byte 0x7
 1360 01b8 9E0C0000 	 .4byte .LASF14
 1361 01bc 06090000 	 .4byte 0x906
 1362 01c0 01       	 .byte 0x1
 1363 01c1 C9010000 	 .4byte 0x1c9
 1364 01c5 D4010000 	 .4byte 0x1d4
 1365 01c9 09       	 .uleb128 0x9
 1366 01ca 08090000 	 .4byte 0x908
 1367 01ce 09       	 .uleb128 0x9
 1368 01cf D4080000 	 .4byte 0x8d4
 1369 01d3 00       	 .byte 0
 1370 01d4 0E       	 .uleb128 0xe
 1371 01d5 3D0D0000 	 .4byte .LASF16
 1372 01d9 04       	 .byte 0x4
 1373 01da 85       	 .byte 0x85
 1374 01db 07       	 .byte 0x7
 1375 01dc D3010000 	 .4byte .LASF18
 1376 01e0 01       	 .byte 0x1
 1377 01e1 E9010000 	 .4byte 0x1e9
 1378 01e5 F4010000 	 .4byte 0x1f4
 1379 01e9 09       	 .uleb128 0x9
 1380 01ea 08090000 	 .4byte 0x908
 1381 01ee 0A       	 .uleb128 0xa
 1382 01ef 20090000 	 .4byte 0x920
 1383 01f3 00       	 .byte 0
ARM GAS   			page 36


 1384 01f4 0F       	 .uleb128 0xf
 1385 01f5 6B140000 	 .4byte .LASF418
 1386 01f9 04       	 .byte 0x4
 1387 01fa 91       	 .byte 0x91
 1388 01fb 10       	 .byte 0x10
 1389 01fc 82140000 	 .4byte .LASF419
 1390 0200 26090000 	 .4byte 0x926
 1391 0204 01       	 .byte 0x1
 1392 0205 0D020000 	 .4byte 0x20d
 1393 0209 13020000 	 .4byte 0x213
 1394 020d 09       	 .uleb128 0x9
 1395 020e 0E090000 	 .4byte 0x90e
 1396 0212 00       	 .byte 0
 1397 0213 10       	 .uleb128 0x10
 1398 0214 3B120000 	 .4byte .LASF19
 1399 0218 04       	 .byte 0x4
 1400 0219 9A       	 .byte 0x9a
 1401 021a 07       	 .byte 0x7
 1402 021b 650D0000 	 .4byte .LASF20
 1403 021f 2D090000 	 .4byte 0x92d
 1404 0223 01       	 .byte 0x1
 1405 0224 28020000 	 .4byte 0x228
 1406 0228 09       	 .uleb128 0x9
 1407 0229 0E090000 	 .4byte 0x90e
 1408 022d 00       	 .byte 0
 1409 022e 00       	 .byte 0
 1410 022f 11       	 .uleb128 0x11
 1411 0230 4E000000 	 .4byte 0x4e
 1412 0234 12       	 .uleb128 0x12
 1413 0235 04       	 .byte 0x4
 1414 0236 4A       	 .byte 0x4a
 1415 0237 10       	 .byte 0x10
 1416 0238 45020000 	 .4byte 0x245
 1417 023c 00       	 .byte 0
 1418 023d 12       	 .uleb128 0x12
 1419 023e 04       	 .byte 0x4
 1420 023f 3A       	 .byte 0x3a
 1421 0240 1A       	 .byte 0x1a
 1422 0241 4E000000 	 .4byte 0x4e
 1423 0245 13       	 .uleb128 0x13
 1424 0246 EC110000 	 .4byte .LASF21
 1425 024a 04       	 .byte 0x4
 1426 024b 46       	 .byte 0x46
 1427 024c 08       	 .byte 0x8
 1428 024d 6A070000 	 .4byte .LASF22
 1429 0251 5B020000 	 .4byte 0x25b
 1430 0255 0A       	 .uleb128 0xa
 1431 0256 4E000000 	 .4byte 0x4e
 1432 025a 00       	 .byte 0
 1433 025b 14       	 .uleb128 0x14
 1434 025c 50030000 	 .4byte .LASF36
 1435 0260 0E       	 .byte 0xe
 1436 0261 0C01     	 .2byte 0x10c
 1437 0263 1D       	 .byte 0x1d
 1438 0264 01090000 	 .4byte 0x901
 1439 0268 15       	 .uleb128 0x15
 1440 0269 83120000 	 .4byte .LASF420
ARM GAS   			page 37


 1441 026d 11       	 .uleb128 0x11
 1442 026e 68020000 	 .4byte 0x268
 1443 0272 16       	 .uleb128 0x16
 1444 0273 D7020000 	 .4byte .LASF23
 1445 0277 05       	 .byte 0x5
 1446 0278 680A     	 .2byte 0xa68
 1447 027a 0D       	 .byte 0xd
 1448 027b 16       	 .uleb128 0x16
 1449 027c 42060000 	 .4byte .LASF24
 1450 0280 05       	 .byte 0x5
 1451 0281 BC0A     	 .2byte 0xabc
 1452 0283 0D       	 .byte 0xd
 1453 0284 17       	 .uleb128 0x17
 1454 0285 260F0000 	 .4byte .LASF25
 1455 0289 01       	 .byte 0x1
 1456 028a 06       	 .byte 0x6
 1457 028b 7F       	 .byte 0x7f
 1458 028c 0C       	 .byte 0xc
 1459 028d B0020000 	 .4byte 0x2b0
 1460 0291 18       	 .uleb128 0x18
 1461 0292 07       	 .byte 0x7
 1462 0293 01       	 .byte 0x1
 1463 0294 33090000 	 .4byte 0x933
 1464 0298 06       	 .byte 0x6
 1465 0299 81       	 .byte 0x81
 1466 029a 0C       	 .byte 0xc
 1467 029b A6020000 	 .4byte 0x2a6
 1468 029f 19       	 .uleb128 0x19
 1469 02a0 850A0000 	 .4byte .LASF27
 1470 02a4 00       	 .byte 0
 1471 02a5 00       	 .byte 0
 1472 02a6 1A       	 .uleb128 0x1a
 1473 02a7 5F547000 	 .ascii "_Tp\000"
 1474 02ab FA080000 	 .4byte 0x8fa
 1475 02af 00       	 .byte 0
 1476 02b0 17       	 .uleb128 0x17
 1477 02b1 DD0A0000 	 .4byte .LASF26
 1478 02b5 01       	 .byte 0x1
 1479 02b6 06       	 .byte 0x6
 1480 02b7 7F       	 .byte 0x7f
 1481 02b8 0C       	 .byte 0xc
 1482 02b9 DC020000 	 .4byte 0x2dc
 1483 02bd 18       	 .uleb128 0x18
 1484 02be 07       	 .byte 0x7
 1485 02bf 01       	 .byte 0x1
 1486 02c0 33090000 	 .4byte 0x933
 1487 02c4 06       	 .byte 0x6
 1488 02c5 81       	 .byte 0x81
 1489 02c6 0C       	 .byte 0xc
 1490 02c7 D2020000 	 .4byte 0x2d2
 1491 02cb 19       	 .uleb128 0x19
 1492 02cc 850A0000 	 .4byte .LASF27
 1493 02d0 00       	 .byte 0
 1494 02d1 00       	 .byte 0
 1495 02d2 1A       	 .uleb128 0x1a
 1496 02d3 5F547000 	 .ascii "_Tp\000"
 1497 02d7 7E090000 	 .4byte 0x97e
ARM GAS   			page 38


 1498 02db 00       	 .byte 0
 1499 02dc 17       	 .uleb128 0x17
 1500 02dd 27060000 	 .4byte .LASF28
 1501 02e1 01       	 .byte 0x1
 1502 02e2 06       	 .byte 0x6
 1503 02e3 7F       	 .byte 0x7f
 1504 02e4 0C       	 .byte 0xc
 1505 02e5 08030000 	 .4byte 0x308
 1506 02e9 18       	 .uleb128 0x18
 1507 02ea 07       	 .byte 0x7
 1508 02eb 01       	 .byte 0x1
 1509 02ec 33090000 	 .4byte 0x933
 1510 02f0 06       	 .byte 0x6
 1511 02f1 81       	 .byte 0x81
 1512 02f2 0C       	 .byte 0xc
 1513 02f3 FE020000 	 .4byte 0x2fe
 1514 02f7 19       	 .uleb128 0x19
 1515 02f8 850A0000 	 .4byte .LASF27
 1516 02fc 00       	 .byte 0
 1517 02fd 00       	 .byte 0
 1518 02fe 1A       	 .uleb128 0x1a
 1519 02ff 5F547000 	 .ascii "_Tp\000"
 1520 0303 85090000 	 .4byte 0x985
 1521 0307 00       	 .byte 0
 1522 0308 17       	 .uleb128 0x17
 1523 0309 9D0A0000 	 .4byte .LASF29
 1524 030d 01       	 .byte 0x1
 1525 030e 07       	 .byte 0x7
 1526 030f 50       	 .byte 0x50
 1527 0310 0A       	 .byte 0xa
 1528 0311 31030000 	 .4byte 0x331
 1529 0315 1B       	 .uleb128 0x1b
 1530 0316 9D0A0000 	 .4byte .LASF29
 1531 031a 07       	 .byte 0x7
 1532 031b 50       	 .byte 0x50
 1533 031c 2B       	 .byte 0x2b
 1534 031d 1F010000 	 .4byte .LASF30
 1535 0321 8C090000 	 .4byte 0x98c
 1536 0325 01       	 .byte 0x1
 1537 0326 2A030000 	 .4byte 0x32a
 1538 032a 09       	 .uleb128 0x9
 1539 032b 8C090000 	 .4byte 0x98c
 1540 032f 00       	 .byte 0
 1541 0330 00       	 .byte 0
 1542 0331 11       	 .uleb128 0x11
 1543 0332 08030000 	 .4byte 0x308
 1544 0336 1C       	 .uleb128 0x1c
 1545 0337 730F0000 	 .4byte .LASF421
 1546 033b 07       	 .byte 0x7
 1547 033c 53       	 .byte 0x53
 1548 033d 35       	 .byte 0x35
 1549 033e 31030000 	 .4byte 0x331
 1550 0342 01       	 .byte 0x1
 1551 0343 00       	 .byte 0
 1552 0344 1D       	 .uleb128 0x1d
 1553 0345 20000000 	 .4byte .LASF31
 1554 0349 08       	 .byte 0x8
ARM GAS   			page 39


 1555 034a 32       	 .byte 0x32
 1556 034b 0D       	 .byte 0xd
 1557 034c 12       	 .uleb128 0x12
 1558 034d 09       	 .byte 0x9
 1559 034e 40       	 .byte 0x40
 1560 034f 0B       	 .byte 0xb
 1561 0350 50130000 	 .4byte 0x1350
 1562 0354 12       	 .uleb128 0x12
 1563 0355 09       	 .byte 0x9
 1564 0356 8D       	 .byte 0x8d
 1565 0357 0B       	 .byte 0xb
 1566 0358 AC090000 	 .4byte 0x9ac
 1567 035c 12       	 .uleb128 0x12
 1568 035d 09       	 .byte 0x9
 1569 035e 8F       	 .byte 0x8f
 1570 035f 0B       	 .byte 0xb
 1571 0360 61130000 	 .4byte 0x1361
 1572 0364 12       	 .uleb128 0x12
 1573 0365 09       	 .byte 0x9
 1574 0366 90       	 .byte 0x90
 1575 0367 0B       	 .byte 0xb
 1576 0368 77130000 	 .4byte 0x1377
 1577 036c 12       	 .uleb128 0x12
 1578 036d 09       	 .byte 0x9
 1579 036e 91       	 .byte 0x91
 1580 036f 0B       	 .byte 0xb
 1581 0370 8D130000 	 .4byte 0x138d
 1582 0374 12       	 .uleb128 0x12
 1583 0375 09       	 .byte 0x9
 1584 0376 92       	 .byte 0x92
 1585 0377 0B       	 .byte 0xb
 1586 0378 B3130000 	 .4byte 0x13b3
 1587 037c 12       	 .uleb128 0x12
 1588 037d 09       	 .byte 0x9
 1589 037e 93       	 .byte 0x93
 1590 037f 0B       	 .byte 0xb
 1591 0380 CE130000 	 .4byte 0x13ce
 1592 0384 12       	 .uleb128 0x12
 1593 0385 09       	 .byte 0x9
 1594 0386 94       	 .byte 0x94
 1595 0387 0B       	 .byte 0xb
 1596 0388 EF130000 	 .4byte 0x13ef
 1597 038c 12       	 .uleb128 0x12
 1598 038d 09       	 .byte 0x9
 1599 038e 95       	 .byte 0x95
 1600 038f 0B       	 .byte 0xb
 1601 0390 0A140000 	 .4byte 0x140a
 1602 0394 12       	 .uleb128 0x12
 1603 0395 09       	 .byte 0x9
 1604 0396 96       	 .byte 0x96
 1605 0397 0B       	 .byte 0xb
 1606 0398 27140000 	 .4byte 0x1427
 1607 039c 12       	 .uleb128 0x12
 1608 039d 09       	 .byte 0x9
 1609 039e 97       	 .byte 0x97
 1610 039f 0B       	 .byte 0xb
 1611 03a0 44140000 	 .4byte 0x1444
ARM GAS   			page 40


 1612 03a4 12       	 .uleb128 0x12
 1613 03a5 09       	 .byte 0x9
 1614 03a6 98       	 .byte 0x98
 1615 03a7 0B       	 .byte 0xb
 1616 03a8 5A140000 	 .4byte 0x145a
 1617 03ac 12       	 .uleb128 0x12
 1618 03ad 09       	 .byte 0x9
 1619 03ae 99       	 .byte 0x99
 1620 03af 0B       	 .byte 0xb
 1621 03b0 66140000 	 .4byte 0x1466
 1622 03b4 12       	 .uleb128 0x12
 1623 03b5 09       	 .byte 0x9
 1624 03b6 9A       	 .byte 0x9a
 1625 03b7 0B       	 .byte 0xb
 1626 03b8 8C140000 	 .4byte 0x148c
 1627 03bc 12       	 .uleb128 0x12
 1628 03bd 09       	 .byte 0x9
 1629 03be 9B       	 .byte 0x9b
 1630 03bf 0B       	 .byte 0xb
 1631 03c0 B1140000 	 .4byte 0x14b1
 1632 03c4 12       	 .uleb128 0x12
 1633 03c5 09       	 .byte 0x9
 1634 03c6 9C       	 .byte 0x9c
 1635 03c7 0B       	 .byte 0xb
 1636 03c8 CD140000 	 .4byte 0x14cd
 1637 03cc 12       	 .uleb128 0x12
 1638 03cd 09       	 .byte 0x9
 1639 03ce 9D       	 .byte 0x9d
 1640 03cf 0B       	 .byte 0xb
 1641 03d0 F8140000 	 .4byte 0x14f8
 1642 03d4 12       	 .uleb128 0x12
 1643 03d5 09       	 .byte 0x9
 1644 03d6 9E       	 .byte 0x9e
 1645 03d7 0B       	 .byte 0xb
 1646 03d8 13150000 	 .4byte 0x1513
 1647 03dc 12       	 .uleb128 0x12
 1648 03dd 09       	 .byte 0x9
 1649 03de A0       	 .byte 0xa0
 1650 03df 0B       	 .byte 0xb
 1651 03e0 29150000 	 .4byte 0x1529
 1652 03e4 12       	 .uleb128 0x12
 1653 03e5 09       	 .byte 0x9
 1654 03e6 A2       	 .byte 0xa2
 1655 03e7 0B       	 .byte 0xb
 1656 03e8 4B150000 	 .4byte 0x154b
 1657 03ec 12       	 .uleb128 0x12
 1658 03ed 09       	 .byte 0x9
 1659 03ee A3       	 .byte 0xa3
 1660 03ef 0B       	 .byte 0xb
 1661 03f0 68150000 	 .4byte 0x1568
 1662 03f4 12       	 .uleb128 0x12
 1663 03f5 09       	 .byte 0x9
 1664 03f6 A4       	 .byte 0xa4
 1665 03f7 0B       	 .byte 0xb
 1666 03f8 83150000 	 .4byte 0x1583
 1667 03fc 12       	 .uleb128 0x12
 1668 03fd 09       	 .byte 0x9
ARM GAS   			page 41


 1669 03fe A6       	 .byte 0xa6
 1670 03ff 0B       	 .byte 0xb
 1671 0400 A4150000 	 .4byte 0x15a4
 1672 0404 12       	 .uleb128 0x12
 1673 0405 09       	 .byte 0x9
 1674 0406 A9       	 .byte 0xa9
 1675 0407 0B       	 .byte 0xb
 1676 0408 C5150000 	 .4byte 0x15c5
 1677 040c 12       	 .uleb128 0x12
 1678 040d 09       	 .byte 0x9
 1679 040e AC       	 .byte 0xac
 1680 040f 0B       	 .byte 0xb
 1681 0410 EB150000 	 .4byte 0x15eb
 1682 0414 12       	 .uleb128 0x12
 1683 0415 09       	 .byte 0x9
 1684 0416 AE       	 .byte 0xae
 1685 0417 0B       	 .byte 0xb
 1686 0418 0C160000 	 .4byte 0x160c
 1687 041c 12       	 .uleb128 0x12
 1688 041d 09       	 .byte 0x9
 1689 041e B0       	 .byte 0xb0
 1690 041f 0B       	 .byte 0xb
 1691 0420 28160000 	 .4byte 0x1628
 1692 0424 12       	 .uleb128 0x12
 1693 0425 09       	 .byte 0x9
 1694 0426 B2       	 .byte 0xb2
 1695 0427 0B       	 .byte 0xb
 1696 0428 44160000 	 .4byte 0x1644
 1697 042c 12       	 .uleb128 0x12
 1698 042d 09       	 .byte 0x9
 1699 042e B3       	 .byte 0xb3
 1700 042f 0B       	 .byte 0xb
 1701 0430 64160000 	 .4byte 0x1664
 1702 0434 12       	 .uleb128 0x12
 1703 0435 09       	 .byte 0x9
 1704 0436 B4       	 .byte 0xb4
 1705 0437 0B       	 .byte 0xb
 1706 0438 7F160000 	 .4byte 0x167f
 1707 043c 12       	 .uleb128 0x12
 1708 043d 09       	 .byte 0x9
 1709 043e B5       	 .byte 0xb5
 1710 043f 0B       	 .byte 0xb
 1711 0440 9A160000 	 .4byte 0x169a
 1712 0444 12       	 .uleb128 0x12
 1713 0445 09       	 .byte 0x9
 1714 0446 B6       	 .byte 0xb6
 1715 0447 0B       	 .byte 0xb
 1716 0448 B5160000 	 .4byte 0x16b5
 1717 044c 12       	 .uleb128 0x12
 1718 044d 09       	 .byte 0x9
 1719 044e B7       	 .byte 0xb7
 1720 044f 0B       	 .byte 0xb
 1721 0450 D0160000 	 .4byte 0x16d0
 1722 0454 12       	 .uleb128 0x12
 1723 0455 09       	 .byte 0x9
 1724 0456 B8       	 .byte 0xb8
 1725 0457 0B       	 .byte 0xb
ARM GAS   			page 42


 1726 0458 EB160000 	 .4byte 0x16eb
 1727 045c 12       	 .uleb128 0x12
 1728 045d 09       	 .byte 0x9
 1729 045e B9       	 .byte 0xb9
 1730 045f 0B       	 .byte 0xb
 1731 0460 1F170000 	 .4byte 0x171f
 1732 0464 12       	 .uleb128 0x12
 1733 0465 09       	 .byte 0x9
 1734 0466 BA       	 .byte 0xba
 1735 0467 0B       	 .byte 0xb
 1736 0468 35170000 	 .4byte 0x1735
 1737 046c 12       	 .uleb128 0x12
 1738 046d 09       	 .byte 0x9
 1739 046e BB       	 .byte 0xbb
 1740 046f 0B       	 .byte 0xb
 1741 0470 55170000 	 .4byte 0x1755
 1742 0474 12       	 .uleb128 0x12
 1743 0475 09       	 .byte 0x9
 1744 0476 BC       	 .byte 0xbc
 1745 0477 0B       	 .byte 0xb
 1746 0478 75170000 	 .4byte 0x1775
 1747 047c 12       	 .uleb128 0x12
 1748 047d 09       	 .byte 0x9
 1749 047e BD       	 .byte 0xbd
 1750 047f 0B       	 .byte 0xb
 1751 0480 95170000 	 .4byte 0x1795
 1752 0484 12       	 .uleb128 0x12
 1753 0485 09       	 .byte 0x9
 1754 0486 BE       	 .byte 0xbe
 1755 0487 0B       	 .byte 0xb
 1756 0488 C0170000 	 .4byte 0x17c0
 1757 048c 12       	 .uleb128 0x12
 1758 048d 09       	 .byte 0x9
 1759 048e BF       	 .byte 0xbf
 1760 048f 0B       	 .byte 0xb
 1761 0490 DB170000 	 .4byte 0x17db
 1762 0494 12       	 .uleb128 0x12
 1763 0495 09       	 .byte 0x9
 1764 0496 C1       	 .byte 0xc1
 1765 0497 0B       	 .byte 0xb
 1766 0498 FC170000 	 .4byte 0x17fc
 1767 049c 12       	 .uleb128 0x12
 1768 049d 09       	 .byte 0x9
 1769 049e C3       	 .byte 0xc3
 1770 049f 0B       	 .byte 0xb
 1771 04a0 17180000 	 .4byte 0x1817
 1772 04a4 12       	 .uleb128 0x12
 1773 04a5 09       	 .byte 0x9
 1774 04a6 C4       	 .byte 0xc4
 1775 04a7 0B       	 .byte 0xb
 1776 04a8 37180000 	 .4byte 0x1837
 1777 04ac 12       	 .uleb128 0x12
 1778 04ad 09       	 .byte 0x9
 1779 04ae C5       	 .byte 0xc5
 1780 04af 0B       	 .byte 0xb
 1781 04b0 57180000 	 .4byte 0x1857
 1782 04b4 12       	 .uleb128 0x12
ARM GAS   			page 43


 1783 04b5 09       	 .byte 0x9
 1784 04b6 C6       	 .byte 0xc6
 1785 04b7 0B       	 .byte 0xb
 1786 04b8 77180000 	 .4byte 0x1877
 1787 04bc 12       	 .uleb128 0x12
 1788 04bd 09       	 .byte 0x9
 1789 04be C7       	 .byte 0xc7
 1790 04bf 0B       	 .byte 0xb
 1791 04c0 97180000 	 .4byte 0x1897
 1792 04c4 12       	 .uleb128 0x12
 1793 04c5 09       	 .byte 0x9
 1794 04c6 C8       	 .byte 0xc8
 1795 04c7 0B       	 .byte 0xb
 1796 04c8 AD180000 	 .4byte 0x18ad
 1797 04cc 12       	 .uleb128 0x12
 1798 04cd 09       	 .byte 0x9
 1799 04ce C9       	 .byte 0xc9
 1800 04cf 0B       	 .byte 0xb
 1801 04d0 CD180000 	 .4byte 0x18cd
 1802 04d4 12       	 .uleb128 0x12
 1803 04d5 09       	 .byte 0x9
 1804 04d6 CA       	 .byte 0xca
 1805 04d7 0B       	 .byte 0xb
 1806 04d8 ED180000 	 .4byte 0x18ed
 1807 04dc 12       	 .uleb128 0x12
 1808 04dd 09       	 .byte 0x9
 1809 04de CB       	 .byte 0xcb
 1810 04df 0B       	 .byte 0xb
 1811 04e0 0D190000 	 .4byte 0x190d
 1812 04e4 12       	 .uleb128 0x12
 1813 04e5 09       	 .byte 0x9
 1814 04e6 CC       	 .byte 0xcc
 1815 04e7 0B       	 .byte 0xb
 1816 04e8 2D190000 	 .4byte 0x192d
 1817 04ec 12       	 .uleb128 0x12
 1818 04ed 09       	 .byte 0x9
 1819 04ee CD       	 .byte 0xcd
 1820 04ef 0B       	 .byte 0xb
 1821 04f0 45190000 	 .4byte 0x1945
 1822 04f4 12       	 .uleb128 0x12
 1823 04f5 09       	 .byte 0x9
 1824 04f6 CE       	 .byte 0xce
 1825 04f7 0B       	 .byte 0xb
 1826 04f8 5D190000 	 .4byte 0x195d
 1827 04fc 12       	 .uleb128 0x12
 1828 04fd 09       	 .byte 0x9
 1829 04fe CF       	 .byte 0xcf
 1830 04ff 0B       	 .byte 0xb
 1831 0500 78190000 	 .4byte 0x1978
 1832 0504 12       	 .uleb128 0x12
 1833 0505 09       	 .byte 0x9
 1834 0506 D0       	 .byte 0xd0
 1835 0507 0B       	 .byte 0xb
 1836 0508 93190000 	 .4byte 0x1993
 1837 050c 12       	 .uleb128 0x12
 1838 050d 09       	 .byte 0x9
 1839 050e D1       	 .byte 0xd1
ARM GAS   			page 44


 1840 050f 0B       	 .byte 0xb
 1841 0510 AE190000 	 .4byte 0x19ae
 1842 0514 12       	 .uleb128 0x12
 1843 0515 09       	 .byte 0x9
 1844 0516 D2       	 .byte 0xd2
 1845 0517 0B       	 .byte 0xb
 1846 0518 C9190000 	 .4byte 0x19c9
 1847 051c 1E       	 .uleb128 0x1e
 1848 051d 09       	 .byte 0x9
 1849 051e 0B01     	 .2byte 0x10b
 1850 0520 16       	 .byte 0x16
 1851 0521 E9190000 	 .4byte 0x19e9
 1852 0525 1E       	 .uleb128 0x1e
 1853 0526 09       	 .byte 0x9
 1854 0527 0C01     	 .2byte 0x10c
 1855 0529 16       	 .byte 0x16
 1856 052a 041A0000 	 .4byte 0x1a04
 1857 052e 1E       	 .uleb128 0x1e
 1858 052f 09       	 .byte 0x9
 1859 0530 0D01     	 .2byte 0x10d
 1860 0532 16       	 .byte 0x16
 1861 0533 241A0000 	 .4byte 0x1a24
 1862 0537 1E       	 .uleb128 0x1e
 1863 0538 09       	 .byte 0x9
 1864 0539 1B01     	 .2byte 0x11b
 1865 053b 0E       	 .byte 0xe
 1866 053c FC170000 	 .4byte 0x17fc
 1867 0540 1E       	 .uleb128 0x1e
 1868 0541 09       	 .byte 0x9
 1869 0542 1E01     	 .2byte 0x11e
 1870 0544 0E       	 .byte 0xe
 1871 0545 A4150000 	 .4byte 0x15a4
 1872 0549 1E       	 .uleb128 0x1e
 1873 054a 09       	 .byte 0x9
 1874 054b 2101     	 .2byte 0x121
 1875 054d 0E       	 .byte 0xe
 1876 054e EB150000 	 .4byte 0x15eb
 1877 0552 1E       	 .uleb128 0x1e
 1878 0553 09       	 .byte 0x9
 1879 0554 2401     	 .2byte 0x124
 1880 0556 0E       	 .byte 0xe
 1881 0557 28160000 	 .4byte 0x1628
 1882 055b 1E       	 .uleb128 0x1e
 1883 055c 09       	 .byte 0x9
 1884 055d 2801     	 .2byte 0x128
 1885 055f 0E       	 .byte 0xe
 1886 0560 E9190000 	 .4byte 0x19e9
 1887 0564 1E       	 .uleb128 0x1e
 1888 0565 09       	 .byte 0x9
 1889 0566 2901     	 .2byte 0x129
 1890 0568 0E       	 .byte 0xe
 1891 0569 041A0000 	 .4byte 0x1a04
 1892 056d 1E       	 .uleb128 0x1e
 1893 056e 09       	 .byte 0x9
 1894 056f 2A01     	 .2byte 0x12a
 1895 0571 0E       	 .byte 0xe
 1896 0572 241A0000 	 .4byte 0x1a24
ARM GAS   			page 45


 1897 0576 12       	 .uleb128 0x12
 1898 0577 0A       	 .byte 0xa
 1899 0578 2F       	 .byte 0x2f
 1900 0579 0B       	 .byte 0xb
 1901 057a 441A0000 	 .4byte 0x1a44
 1902 057e 12       	 .uleb128 0x12
 1903 057f 0A       	 .byte 0xa
 1904 0580 30       	 .byte 0x30
 1905 0581 0B       	 .byte 0xb
 1906 0582 5C1A0000 	 .4byte 0x1a5c
 1907 0586 12       	 .uleb128 0x12
 1908 0587 0A       	 .byte 0xa
 1909 0588 31       	 .byte 0x31
 1910 0589 0B       	 .byte 0xb
 1911 058a 741A0000 	 .4byte 0x1a74
 1912 058e 12       	 .uleb128 0x12
 1913 058f 0A       	 .byte 0xa
 1914 0590 32       	 .byte 0x32
 1915 0591 0B       	 .byte 0xb
 1916 0592 8C1A0000 	 .4byte 0x1a8c
 1917 0596 12       	 .uleb128 0x12
 1918 0597 0A       	 .byte 0xa
 1919 0598 34       	 .byte 0x34
 1920 0599 0B       	 .byte 0xb
 1921 059a 341B0000 	 .4byte 0x1b34
 1922 059e 12       	 .uleb128 0x12
 1923 059f 0A       	 .byte 0xa
 1924 05a0 35       	 .byte 0x35
 1925 05a1 0B       	 .byte 0xb
 1926 05a2 4C1B0000 	 .4byte 0x1b4c
 1927 05a6 12       	 .uleb128 0x12
 1928 05a7 0A       	 .byte 0xa
 1929 05a8 36       	 .byte 0x36
 1930 05a9 0B       	 .byte 0xb
 1931 05aa 641B0000 	 .4byte 0x1b64
 1932 05ae 12       	 .uleb128 0x12
 1933 05af 0A       	 .byte 0xa
 1934 05b0 37       	 .byte 0x37
 1935 05b1 0B       	 .byte 0xb
 1936 05b2 7C1B0000 	 .4byte 0x1b7c
 1937 05b6 12       	 .uleb128 0x12
 1938 05b7 0A       	 .byte 0xa
 1939 05b8 39       	 .byte 0x39
 1940 05b9 0B       	 .byte 0xb
 1941 05ba D41A0000 	 .4byte 0x1ad4
 1942 05be 12       	 .uleb128 0x12
 1943 05bf 0A       	 .byte 0xa
 1944 05c0 3A       	 .byte 0x3a
 1945 05c1 0B       	 .byte 0xb
 1946 05c2 EC1A0000 	 .4byte 0x1aec
 1947 05c6 12       	 .uleb128 0x12
 1948 05c7 0A       	 .byte 0xa
 1949 05c8 3B       	 .byte 0x3b
 1950 05c9 0B       	 .byte 0xb
 1951 05ca 041B0000 	 .4byte 0x1b04
 1952 05ce 12       	 .uleb128 0x12
 1953 05cf 0A       	 .byte 0xa
ARM GAS   			page 46


 1954 05d0 3C       	 .byte 0x3c
 1955 05d1 0B       	 .byte 0xb
 1956 05d2 1C1B0000 	 .4byte 0x1b1c
 1957 05d6 12       	 .uleb128 0x12
 1958 05d7 0A       	 .byte 0xa
 1959 05d8 3E       	 .byte 0x3e
 1960 05d9 0B       	 .byte 0xb
 1961 05da A41A0000 	 .4byte 0x1aa4
 1962 05de 12       	 .uleb128 0x12
 1963 05df 0A       	 .byte 0xa
 1964 05e0 3F       	 .byte 0x3f
 1965 05e1 0B       	 .byte 0xb
 1966 05e2 BC1A0000 	 .4byte 0x1abc
 1967 05e6 12       	 .uleb128 0x12
 1968 05e7 0A       	 .byte 0xa
 1969 05e8 41       	 .byte 0x41
 1970 05e9 0B       	 .byte 0xb
 1971 05ea 501A0000 	 .4byte 0x1a50
 1972 05ee 12       	 .uleb128 0x12
 1973 05ef 0A       	 .byte 0xa
 1974 05f0 42       	 .byte 0x42
 1975 05f1 0B       	 .byte 0xb
 1976 05f2 681A0000 	 .4byte 0x1a68
 1977 05f6 12       	 .uleb128 0x12
 1978 05f7 0A       	 .byte 0xa
 1979 05f8 43       	 .byte 0x43
 1980 05f9 0B       	 .byte 0xb
 1981 05fa 801A0000 	 .4byte 0x1a80
 1982 05fe 12       	 .uleb128 0x12
 1983 05ff 0A       	 .byte 0xa
 1984 0600 44       	 .byte 0x44
 1985 0601 0B       	 .byte 0xb
 1986 0602 981A0000 	 .4byte 0x1a98
 1987 0606 12       	 .uleb128 0x12
 1988 0607 0A       	 .byte 0xa
 1989 0608 46       	 .byte 0x46
 1990 0609 0B       	 .byte 0xb
 1991 060a 401B0000 	 .4byte 0x1b40
 1992 060e 12       	 .uleb128 0x12
 1993 060f 0A       	 .byte 0xa
 1994 0610 47       	 .byte 0x47
 1995 0611 0B       	 .byte 0xb
 1996 0612 581B0000 	 .4byte 0x1b58
 1997 0616 12       	 .uleb128 0x12
 1998 0617 0A       	 .byte 0xa
 1999 0618 48       	 .byte 0x48
 2000 0619 0B       	 .byte 0xb
 2001 061a 701B0000 	 .4byte 0x1b70
 2002 061e 12       	 .uleb128 0x12
 2003 061f 0A       	 .byte 0xa
 2004 0620 49       	 .byte 0x49
 2005 0621 0B       	 .byte 0xb
 2006 0622 881B0000 	 .4byte 0x1b88
 2007 0626 12       	 .uleb128 0x12
 2008 0627 0A       	 .byte 0xa
 2009 0628 4B       	 .byte 0x4b
 2010 0629 0B       	 .byte 0xb
ARM GAS   			page 47


 2011 062a E01A0000 	 .4byte 0x1ae0
 2012 062e 12       	 .uleb128 0x12
 2013 062f 0A       	 .byte 0xa
 2014 0630 4C       	 .byte 0x4c
 2015 0631 0B       	 .byte 0xb
 2016 0632 F81A0000 	 .4byte 0x1af8
 2017 0636 12       	 .uleb128 0x12
 2018 0637 0A       	 .byte 0xa
 2019 0638 4D       	 .byte 0x4d
 2020 0639 0B       	 .byte 0xb
 2021 063a 101B0000 	 .4byte 0x1b10
 2022 063e 12       	 .uleb128 0x12
 2023 063f 0A       	 .byte 0xa
 2024 0640 4E       	 .byte 0x4e
 2025 0641 0B       	 .byte 0xb
 2026 0642 281B0000 	 .4byte 0x1b28
 2027 0646 12       	 .uleb128 0x12
 2028 0647 0A       	 .byte 0xa
 2029 0648 50       	 .byte 0x50
 2030 0649 0B       	 .byte 0xb
 2031 064a B01A0000 	 .4byte 0x1ab0
 2032 064e 12       	 .uleb128 0x12
 2033 064f 0A       	 .byte 0xa
 2034 0650 51       	 .byte 0x51
 2035 0651 0B       	 .byte 0xb
 2036 0652 C81A0000 	 .4byte 0x1ac8
 2037 0656 12       	 .uleb128 0x12
 2038 0657 0B       	 .byte 0xb
 2039 0658 35       	 .byte 0x35
 2040 0659 0B       	 .byte 0xb
 2041 065a 9B1B0000 	 .4byte 0x1b9b
 2042 065e 12       	 .uleb128 0x12
 2043 065f 0B       	 .byte 0xb
 2044 0660 36       	 .byte 0x36
 2045 0661 0B       	 .byte 0xb
 2046 0662 E11C0000 	 .4byte 0x1ce1
 2047 0666 12       	 .uleb128 0x12
 2048 0667 0B       	 .byte 0xb
 2049 0668 37       	 .byte 0x37
 2050 0669 0B       	 .byte 0xb
 2051 066a FC1C0000 	 .4byte 0x1cfc
 2052 066e 12       	 .uleb128 0x12
 2053 066f 0C       	 .byte 0xc
 2054 0670 7F       	 .byte 0x7f
 2055 0671 0B       	 .byte 0xb
 2056 0672 421D0000 	 .4byte 0x1d42
 2057 0676 12       	 .uleb128 0x12
 2058 0677 0C       	 .byte 0xc
 2059 0678 80       	 .byte 0x80
 2060 0679 0B       	 .byte 0xb
 2061 067a 761D0000 	 .4byte 0x1d76
 2062 067e 12       	 .uleb128 0x12
 2063 067f 0C       	 .byte 0xc
 2064 0680 86       	 .byte 0x86
 2065 0681 0B       	 .byte 0xb
 2066 0682 DC1D0000 	 .4byte 0x1ddc
 2067 0686 12       	 .uleb128 0x12
ARM GAS   			page 48


 2068 0687 0C       	 .byte 0xc
 2069 0688 8C       	 .byte 0x8c
 2070 0689 0B       	 .byte 0xb
 2071 068a F21D0000 	 .4byte 0x1df2
 2072 068e 12       	 .uleb128 0x12
 2073 068f 0C       	 .byte 0xc
 2074 0690 8D       	 .byte 0x8d
 2075 0691 0B       	 .byte 0xb
 2076 0692 081E0000 	 .4byte 0x1e08
 2077 0696 12       	 .uleb128 0x12
 2078 0697 0C       	 .byte 0xc
 2079 0698 8E       	 .byte 0x8e
 2080 0699 0B       	 .byte 0xb
 2081 069a 1E1E0000 	 .4byte 0x1e1e
 2082 069e 12       	 .uleb128 0x12
 2083 069f 0C       	 .byte 0xc
 2084 06a0 8F       	 .byte 0x8f
 2085 06a1 0B       	 .byte 0xb
 2086 06a2 341E0000 	 .4byte 0x1e34
 2087 06a6 12       	 .uleb128 0x12
 2088 06a7 0C       	 .byte 0xc
 2089 06a8 91       	 .byte 0x91
 2090 06a9 0B       	 .byte 0xb
 2091 06aa 5E1E0000 	 .4byte 0x1e5e
 2092 06ae 12       	 .uleb128 0x12
 2093 06af 0C       	 .byte 0xc
 2094 06b0 94       	 .byte 0x94
 2095 06b1 0B       	 .byte 0xb
 2096 06b2 791E0000 	 .4byte 0x1e79
 2097 06b6 12       	 .uleb128 0x12
 2098 06b7 0C       	 .byte 0xc
 2099 06b8 96       	 .byte 0x96
 2100 06b9 0B       	 .byte 0xb
 2101 06ba 8F1E0000 	 .4byte 0x1e8f
 2102 06be 12       	 .uleb128 0x12
 2103 06bf 0C       	 .byte 0xc
 2104 06c0 99       	 .byte 0x99
 2105 06c1 0B       	 .byte 0xb
 2106 06c2 AA1E0000 	 .4byte 0x1eaa
 2107 06c6 12       	 .uleb128 0x12
 2108 06c7 0C       	 .byte 0xc
 2109 06c8 9A       	 .byte 0x9a
 2110 06c9 0B       	 .byte 0xb
 2111 06ca C51E0000 	 .4byte 0x1ec5
 2112 06ce 12       	 .uleb128 0x12
 2113 06cf 0C       	 .byte 0xc
 2114 06d0 9B       	 .byte 0x9b
 2115 06d1 0B       	 .byte 0xb
 2116 06d2 E51E0000 	 .4byte 0x1ee5
 2117 06d6 12       	 .uleb128 0x12
 2118 06d7 0C       	 .byte 0xc
 2119 06d8 9D       	 .byte 0x9d
 2120 06d9 0B       	 .byte 0xb
 2121 06da 051F0000 	 .4byte 0x1f05
 2122 06de 12       	 .uleb128 0x12
 2123 06df 0C       	 .byte 0xc
 2124 06e0 A3       	 .byte 0xa3
ARM GAS   			page 49


 2125 06e1 0B       	 .byte 0xb
 2126 06e2 261F0000 	 .4byte 0x1f26
 2127 06e6 12       	 .uleb128 0x12
 2128 06e7 0C       	 .byte 0xc
 2129 06e8 A5       	 .byte 0xa5
 2130 06e9 0B       	 .byte 0xb
 2131 06ea 321F0000 	 .4byte 0x1f32
 2132 06ee 12       	 .uleb128 0x12
 2133 06ef 0C       	 .byte 0xc
 2134 06f0 A6       	 .byte 0xa6
 2135 06f1 0B       	 .byte 0xb
 2136 06f2 441F0000 	 .4byte 0x1f44
 2137 06f6 12       	 .uleb128 0x12
 2138 06f7 0C       	 .byte 0xc
 2139 06f8 A7       	 .byte 0xa7
 2140 06f9 0B       	 .byte 0xb
 2141 06fa 651F0000 	 .4byte 0x1f65
 2142 06fe 12       	 .uleb128 0x12
 2143 06ff 0C       	 .byte 0xc
 2144 0700 A8       	 .byte 0xa8
 2145 0701 0B       	 .byte 0xb
 2146 0702 851F0000 	 .4byte 0x1f85
 2147 0706 12       	 .uleb128 0x12
 2148 0707 0C       	 .byte 0xc
 2149 0708 A9       	 .byte 0xa9
 2150 0709 0B       	 .byte 0xb
 2151 070a A51F0000 	 .4byte 0x1fa5
 2152 070e 12       	 .uleb128 0x12
 2153 070f 0C       	 .byte 0xc
 2154 0710 AB       	 .byte 0xab
 2155 0711 0B       	 .byte 0xb
 2156 0712 BB1F0000 	 .4byte 0x1fbb
 2157 0716 12       	 .uleb128 0x12
 2158 0717 0C       	 .byte 0xc
 2159 0718 AC       	 .byte 0xac
 2160 0719 0B       	 .byte 0xb
 2161 071a DB1F0000 	 .4byte 0x1fdb
 2162 071e 12       	 .uleb128 0x12
 2163 071f 0C       	 .byte 0xc
 2164 0720 F0       	 .byte 0xf0
 2165 0721 16       	 .byte 0x16
 2166 0722 AA1D0000 	 .4byte 0x1daa
 2167 0726 12       	 .uleb128 0x12
 2168 0727 0C       	 .byte 0xc
 2169 0728 F5       	 .byte 0xf5
 2170 0729 16       	 .byte 0x16
 2171 072a B8080000 	 .4byte 0x8b8
 2172 072e 12       	 .uleb128 0x12
 2173 072f 0C       	 .byte 0xc
 2174 0730 F6       	 .byte 0xf6
 2175 0731 16       	 .byte 0x16
 2176 0732 F61F0000 	 .4byte 0x1ff6
 2177 0736 12       	 .uleb128 0x12
 2178 0737 0C       	 .byte 0xc
 2179 0738 F8       	 .byte 0xf8
 2180 0739 16       	 .byte 0x16
 2181 073a 12200000 	 .4byte 0x2012
ARM GAS   			page 50


 2182 073e 12       	 .uleb128 0x12
 2183 073f 0C       	 .byte 0xc
 2184 0740 F9       	 .byte 0xf9
 2185 0741 16       	 .byte 0x16
 2186 0742 6B200000 	 .4byte 0x206b
 2187 0746 12       	 .uleb128 0x12
 2188 0747 0C       	 .byte 0xc
 2189 0748 FA       	 .byte 0xfa
 2190 0749 16       	 .byte 0x16
 2191 074a 29200000 	 .4byte 0x2029
 2192 074e 12       	 .uleb128 0x12
 2193 074f 0C       	 .byte 0xc
 2194 0750 FB       	 .byte 0xfb
 2195 0751 16       	 .byte 0x16
 2196 0752 4A200000 	 .4byte 0x204a
 2197 0756 12       	 .uleb128 0x12
 2198 0757 0C       	 .byte 0xc
 2199 0758 FC       	 .byte 0xfc
 2200 0759 16       	 .byte 0x16
 2201 075a 86200000 	 .4byte 0x2086
 2202 075e 12       	 .uleb128 0x12
 2203 075f 0D       	 .byte 0xd
 2204 0760 62       	 .byte 0x62
 2205 0761 0B       	 .byte 0xb
 2206 0762 44130000 	 .4byte 0x1344
 2207 0766 12       	 .uleb128 0x12
 2208 0767 0D       	 .byte 0xd
 2209 0768 63       	 .byte 0x63
 2210 0769 0B       	 .byte 0xb
 2211 076a A2200000 	 .4byte 0x20a2
 2212 076e 12       	 .uleb128 0x12
 2213 076f 0D       	 .byte 0xd
 2214 0770 65       	 .byte 0x65
 2215 0771 0B       	 .byte 0xb
 2216 0772 B3200000 	 .4byte 0x20b3
 2217 0776 12       	 .uleb128 0x12
 2218 0777 0D       	 .byte 0xd
 2219 0778 66       	 .byte 0x66
 2220 0779 0B       	 .byte 0xb
 2221 077a CB200000 	 .4byte 0x20cb
 2222 077e 12       	 .uleb128 0x12
 2223 077f 0D       	 .byte 0xd
 2224 0780 67       	 .byte 0x67
 2225 0781 0B       	 .byte 0xb
 2226 0782 E1200000 	 .4byte 0x20e1
 2227 0786 12       	 .uleb128 0x12
 2228 0787 0D       	 .byte 0xd
 2229 0788 68       	 .byte 0x68
 2230 0789 0B       	 .byte 0xb
 2231 078a F7200000 	 .4byte 0x20f7
 2232 078e 12       	 .uleb128 0x12
 2233 078f 0D       	 .byte 0xd
 2234 0790 69       	 .byte 0x69
 2235 0791 0B       	 .byte 0xb
 2236 0792 0D210000 	 .4byte 0x210d
 2237 0796 12       	 .uleb128 0x12
 2238 0797 0D       	 .byte 0xd
ARM GAS   			page 51


 2239 0798 6A       	 .byte 0x6a
 2240 0799 0B       	 .byte 0xb
 2241 079a 23210000 	 .4byte 0x2123
 2242 079e 12       	 .uleb128 0x12
 2243 079f 0D       	 .byte 0xd
 2244 07a0 6B       	 .byte 0x6b
 2245 07a1 0B       	 .byte 0xb
 2246 07a2 39210000 	 .4byte 0x2139
 2247 07a6 12       	 .uleb128 0x12
 2248 07a7 0D       	 .byte 0xd
 2249 07a8 6C       	 .byte 0x6c
 2250 07a9 0B       	 .byte 0xb
 2251 07aa 5A210000 	 .4byte 0x215a
 2252 07ae 12       	 .uleb128 0x12
 2253 07af 0D       	 .byte 0xd
 2254 07b0 6D       	 .byte 0x6d
 2255 07b1 0B       	 .byte 0xb
 2256 07b2 7A210000 	 .4byte 0x217a
 2257 07b6 12       	 .uleb128 0x12
 2258 07b7 0D       	 .byte 0xd
 2259 07b8 71       	 .byte 0x71
 2260 07b9 0B       	 .byte 0xb
 2261 07ba 95210000 	 .4byte 0x2195
 2262 07be 12       	 .uleb128 0x12
 2263 07bf 0D       	 .byte 0xd
 2264 07c0 72       	 .byte 0x72
 2265 07c1 0B       	 .byte 0xb
 2266 07c2 BA210000 	 .4byte 0x21ba
 2267 07c6 12       	 .uleb128 0x12
 2268 07c7 0D       	 .byte 0xd
 2269 07c8 74       	 .byte 0x74
 2270 07c9 0B       	 .byte 0xb
 2271 07ca DA210000 	 .4byte 0x21da
 2272 07ce 12       	 .uleb128 0x12
 2273 07cf 0D       	 .byte 0xd
 2274 07d0 75       	 .byte 0x75
 2275 07d1 0B       	 .byte 0xb
 2276 07d2 FA210000 	 .4byte 0x21fa
 2277 07d6 12       	 .uleb128 0x12
 2278 07d7 0D       	 .byte 0xd
 2279 07d8 76       	 .byte 0x76
 2280 07d9 0B       	 .byte 0xb
 2281 07da 1B220000 	 .4byte 0x221b
 2282 07de 12       	 .uleb128 0x12
 2283 07df 0D       	 .byte 0xd
 2284 07e0 78       	 .byte 0x78
 2285 07e1 0B       	 .byte 0xb
 2286 07e2 31220000 	 .4byte 0x2231
 2287 07e6 12       	 .uleb128 0x12
 2288 07e7 0D       	 .byte 0xd
 2289 07e8 79       	 .byte 0x79
 2290 07e9 0B       	 .byte 0xb
 2291 07ea 47220000 	 .4byte 0x2247
 2292 07ee 12       	 .uleb128 0x12
 2293 07ef 0D       	 .byte 0xd
 2294 07f0 7C       	 .byte 0x7c
 2295 07f1 0B       	 .byte 0xb
ARM GAS   			page 52


 2296 07f2 53220000 	 .4byte 0x2253
 2297 07f6 12       	 .uleb128 0x12
 2298 07f7 0D       	 .byte 0xd
 2299 07f8 7E       	 .byte 0x7e
 2300 07f9 0B       	 .byte 0xb
 2301 07fa 69220000 	 .4byte 0x2269
 2302 07fe 12       	 .uleb128 0x12
 2303 07ff 0D       	 .byte 0xd
 2304 0800 83       	 .byte 0x83
 2305 0801 0B       	 .byte 0xb
 2306 0802 7B220000 	 .4byte 0x227b
 2307 0806 12       	 .uleb128 0x12
 2308 0807 0D       	 .byte 0xd
 2309 0808 84       	 .byte 0x84
 2310 0809 0B       	 .byte 0xb
 2311 080a 91220000 	 .4byte 0x2291
 2312 080e 12       	 .uleb128 0x12
 2313 080f 0D       	 .byte 0xd
 2314 0810 85       	 .byte 0x85
 2315 0811 0B       	 .byte 0xb
 2316 0812 AC220000 	 .4byte 0x22ac
 2317 0816 12       	 .uleb128 0x12
 2318 0817 0D       	 .byte 0xd
 2319 0818 87       	 .byte 0x87
 2320 0819 0B       	 .byte 0xb
 2321 081a BE220000 	 .4byte 0x22be
 2322 081e 12       	 .uleb128 0x12
 2323 081f 0D       	 .byte 0xd
 2324 0820 88       	 .byte 0x88
 2325 0821 0B       	 .byte 0xb
 2326 0822 D5220000 	 .4byte 0x22d5
 2327 0826 12       	 .uleb128 0x12
 2328 0827 0D       	 .byte 0xd
 2329 0828 8B       	 .byte 0x8b
 2330 0829 0B       	 .byte 0xb
 2331 082a FA220000 	 .4byte 0x22fa
 2332 082e 12       	 .uleb128 0x12
 2333 082f 0D       	 .byte 0xd
 2334 0830 8D       	 .byte 0x8d
 2335 0831 0B       	 .byte 0xb
 2336 0832 06230000 	 .4byte 0x2306
 2337 0836 12       	 .uleb128 0x12
 2338 0837 0D       	 .byte 0xd
 2339 0838 8F       	 .byte 0x8f
 2340 0839 0B       	 .byte 0xb
 2341 083a 1C230000 	 .4byte 0x231c
 2342 083e 00       	 .byte 0
 2343 083f 1F       	 .uleb128 0x1f
 2344 0840 3C020000 	 .4byte .LASF33
 2345 0844 0E       	 .byte 0xe
 2346 0845 2001     	 .2byte 0x120
 2347 0847 0B       	 .byte 0xb
 2348 0848 D4080000 	 .4byte 0x8d4
 2349 084c 03       	 .uleb128 0x3
 2350 084d 5E0B0000 	 .4byte .LASF34
 2351 0851 0E       	 .byte 0xe
 2352 0852 2201     	 .2byte 0x122
ARM GAS   			page 53


 2353 0854 41       	 .byte 0x41
 2354 0855 04       	 .uleb128 0x4
 2355 0856 0E       	 .byte 0xe
 2356 0857 2201     	 .2byte 0x122
 2357 0859 41       	 .byte 0x41
 2358 085a 4C080000 	 .4byte 0x84c
 2359 085e 1D       	 .uleb128 0x1d
 2360 085f 6D030000 	 .4byte .LASF35
 2361 0863 0F       	 .byte 0xf
 2362 0864 23       	 .byte 0x23
 2363 0865 0B       	 .byte 0xb
 2364 0866 12       	 .uleb128 0x12
 2365 0867 09       	 .byte 0x9
 2366 0868 FB       	 .byte 0xfb
 2367 0869 0B       	 .byte 0xb
 2368 086a E9190000 	 .4byte 0x19e9
 2369 086e 1E       	 .uleb128 0x1e
 2370 086f 09       	 .byte 0x9
 2371 0870 0401     	 .2byte 0x104
 2372 0872 0B       	 .byte 0xb
 2373 0873 041A0000 	 .4byte 0x1a04
 2374 0877 1E       	 .uleb128 0x1e
 2375 0878 09       	 .byte 0x9
 2376 0879 0501     	 .2byte 0x105
 2377 087b 0B       	 .byte 0xb
 2378 087c 241A0000 	 .4byte 0x1a24
 2379 0880 12       	 .uleb128 0x12
 2380 0881 0C       	 .byte 0xc
 2381 0882 C8       	 .byte 0xc8
 2382 0883 0B       	 .byte 0xb
 2383 0884 AA1D0000 	 .4byte 0x1daa
 2384 0888 12       	 .uleb128 0x12
 2385 0889 0C       	 .byte 0xc
 2386 088a D8       	 .byte 0xd8
 2387 088b 0B       	 .byte 0xb
 2388 088c F61F0000 	 .4byte 0x1ff6
 2389 0890 12       	 .uleb128 0x12
 2390 0891 0C       	 .byte 0xc
 2391 0892 E3       	 .byte 0xe3
 2392 0893 0B       	 .byte 0xb
 2393 0894 12200000 	 .4byte 0x2012
 2394 0898 12       	 .uleb128 0x12
 2395 0899 0C       	 .byte 0xc
 2396 089a E4       	 .byte 0xe4
 2397 089b 0B       	 .byte 0xb
 2398 089c 29200000 	 .4byte 0x2029
 2399 08a0 12       	 .uleb128 0x12
 2400 08a1 0C       	 .byte 0xc
 2401 08a2 E5       	 .byte 0xe5
 2402 08a3 0B       	 .byte 0xb
 2403 08a4 4A200000 	 .4byte 0x204a
 2404 08a8 12       	 .uleb128 0x12
 2405 08a9 0C       	 .byte 0xc
 2406 08aa E7       	 .byte 0xe7
 2407 08ab 0B       	 .byte 0xb
 2408 08ac 6B200000 	 .4byte 0x206b
 2409 08b0 12       	 .uleb128 0x12
ARM GAS   			page 54


 2410 08b1 0C       	 .byte 0xc
 2411 08b2 E8       	 .byte 0xe8
 2412 08b3 0B       	 .byte 0xb
 2413 08b4 86200000 	 .4byte 0x2086
 2414 08b8 20       	 .uleb128 0x20
 2415 08b9 64697600 	 .ascii "div\000"
 2416 08bd 0C       	 .byte 0xc
 2417 08be D5       	 .byte 0xd5
 2418 08bf 03       	 .byte 0x3
 2419 08c0 EB020000 	 .4byte .LASF422
 2420 08c4 AA1D0000 	 .4byte 0x1daa
 2421 08c8 0A       	 .uleb128 0xa
 2422 08c9 F3080000 	 .4byte 0x8f3
 2423 08cd 0A       	 .uleb128 0xa
 2424 08ce F3080000 	 .4byte 0x8f3
 2425 08d2 00       	 .byte 0
 2426 08d3 00       	 .byte 0
 2427 08d4 21       	 .uleb128 0x21
 2428 08d5 04       	 .byte 0x4
 2429 08d6 05       	 .byte 0x5
 2430 08d7 696E7400 	 .ascii "int\000"
 2431 08db 11       	 .uleb128 0x11
 2432 08dc D4080000 	 .4byte 0x8d4
 2433 08e0 22       	 .uleb128 0x22
 2434 08e1 0C090000 	 .4byte .LASF37
 2435 08e5 10       	 .byte 0x10
 2436 08e6 D1       	 .byte 0xd1
 2437 08e7 17       	 .byte 0x17
 2438 08e8 EC080000 	 .4byte 0x8ec
 2439 08ec 23       	 .uleb128 0x23
 2440 08ed 04       	 .byte 0x4
 2441 08ee 07       	 .byte 0x7
 2442 08ef 15020000 	 .4byte .LASF38
 2443 08f3 23       	 .uleb128 0x23
 2444 08f4 08       	 .byte 0x8
 2445 08f5 05       	 .byte 0x5
 2446 08f6 B40B0000 	 .4byte .LASF39
 2447 08fa 23       	 .uleb128 0x23
 2448 08fb 08       	 .byte 0x8
 2449 08fc 04       	 .byte 0x4
 2450 08fd AE0F0000 	 .4byte .LASF40
 2451 0901 24       	 .uleb128 0x24
 2452 0902 7E160000 	 .4byte .LASF423
 2453 0906 25       	 .uleb128 0x25
 2454 0907 04       	 .byte 0x4
 2455 0908 26       	 .uleb128 0x26
 2456 0909 04       	 .byte 0x4
 2457 090a 4E000000 	 .4byte 0x4e
 2458 090e 26       	 .uleb128 0x26
 2459 090f 04       	 .byte 0x4
 2460 0910 2F020000 	 .4byte 0x22f
 2461 0914 27       	 .uleb128 0x27
 2462 0915 04       	 .byte 0x4
 2463 0916 2F020000 	 .4byte 0x22f
 2464 091a 28       	 .uleb128 0x28
 2465 091b 04       	 .byte 0x4
 2466 091c 4E000000 	 .4byte 0x4e
ARM GAS   			page 55


 2467 0920 27       	 .uleb128 0x27
 2468 0921 04       	 .byte 0x4
 2469 0922 4E000000 	 .4byte 0x4e
 2470 0926 23       	 .uleb128 0x23
 2471 0927 01       	 .byte 0x1
 2472 0928 02       	 .byte 0x2
 2473 0929 160E0000 	 .4byte .LASF41
 2474 092d 26       	 .uleb128 0x26
 2475 092e 04       	 .byte 0x4
 2476 092f 6D020000 	 .4byte 0x26d
 2477 0933 23       	 .uleb128 0x23
 2478 0934 01       	 .byte 0x1
 2479 0935 08       	 .byte 0x8
 2480 0936 04160000 	 .4byte .LASF42
 2481 093a 23       	 .uleb128 0x23
 2482 093b 02       	 .byte 0x2
 2483 093c 07       	 .byte 0x7
 2484 093d FF170000 	 .4byte .LASF43
 2485 0941 23       	 .uleb128 0x23
 2486 0942 04       	 .byte 0x4
 2487 0943 07       	 .byte 0x7
 2488 0944 03100000 	 .4byte .LASF44
 2489 0948 23       	 .uleb128 0x23
 2490 0949 08       	 .byte 0x8
 2491 094a 07       	 .byte 0x7
 2492 094b 53070000 	 .4byte .LASF45
 2493 094f 23       	 .uleb128 0x23
 2494 0950 01       	 .byte 0x1
 2495 0951 06       	 .byte 0x6
 2496 0952 E3170000 	 .4byte .LASF46
 2497 0956 23       	 .uleb128 0x23
 2498 0957 02       	 .byte 0x2
 2499 0958 05       	 .byte 0x5
 2500 0959 0E120000 	 .4byte .LASF47
 2501 095d 23       	 .uleb128 0x23
 2502 095e 04       	 .byte 0x4
 2503 095f 05       	 .byte 0x5
 2504 0960 1A090000 	 .4byte .LASF48
 2505 0964 23       	 .uleb128 0x23
 2506 0965 04       	 .byte 0x4
 2507 0966 07       	 .byte 0x7
 2508 0967 AB020000 	 .4byte .LASF49
 2509 096b 11       	 .uleb128 0x11
 2510 096c 64090000 	 .4byte 0x964
 2511 0970 23       	 .uleb128 0x23
 2512 0971 02       	 .byte 0x2
 2513 0972 10       	 .byte 0x10
 2514 0973 E6180000 	 .4byte .LASF50
 2515 0977 23       	 .uleb128 0x23
 2516 0978 04       	 .byte 0x4
 2517 0979 10       	 .byte 0x10
 2518 097a 76000000 	 .4byte .LASF51
 2519 097e 23       	 .uleb128 0x23
 2520 097f 08       	 .byte 0x8
 2521 0980 04       	 .byte 0x4
 2522 0981 9B180000 	 .4byte .LASF52
 2523 0985 23       	 .uleb128 0x23
ARM GAS   			page 56


 2524 0986 04       	 .byte 0x4
 2525 0987 04       	 .byte 0x4
 2526 0988 DC040000 	 .4byte .LASF53
 2527 098c 26       	 .uleb128 0x26
 2528 098d 04       	 .byte 0x4
 2529 098e 08030000 	 .4byte 0x308
 2530 0992 29       	 .uleb128 0x29
 2531 0993 36030000 	 .4byte 0x336
 2532 0997 05       	 .uleb128 0x5
 2533 0998 57040000 	 .4byte .LASF54
 2534 099c 08       	 .byte 0x8
 2535 099d 38       	 .byte 0x38
 2536 099e 0B       	 .byte 0xb
 2537 099f AC090000 	 .4byte 0x9ac
 2538 09a3 2A       	 .uleb128 0x2a
 2539 09a4 08       	 .byte 0x8
 2540 09a5 3A       	 .byte 0x3a
 2541 09a6 18       	 .byte 0x18
 2542 09a7 44030000 	 .4byte 0x344
 2543 09ab 00       	 .byte 0
 2544 09ac 14       	 .uleb128 0x14
 2545 09ad F6140000 	 .4byte .LASF55
 2546 09b1 10       	 .byte 0x10
 2547 09b2 5E01     	 .2byte 0x15e
 2548 09b4 17       	 .byte 0x17
 2549 09b5 EC080000 	 .4byte 0x8ec
 2550 09b9 22       	 .uleb128 0x22
 2551 09ba 79140000 	 .4byte .LASF56
 2552 09be 11       	 .byte 0x11
 2553 09bf 29       	 .byte 0x29
 2554 09c0 17       	 .byte 0x17
 2555 09c1 4F090000 	 .4byte 0x94f
 2556 09c5 22       	 .uleb128 0x22
 2557 09c6 12140000 	 .4byte .LASF57
 2558 09ca 11       	 .byte 0x11
 2559 09cb 2B       	 .byte 0x2b
 2560 09cc 18       	 .byte 0x18
 2561 09cd 33090000 	 .4byte 0x933
 2562 09d1 22       	 .uleb128 0x22
 2563 09d2 260E0000 	 .4byte .LASF58
 2564 09d6 11       	 .byte 0x11
 2565 09d7 37       	 .byte 0x37
 2566 09d8 18       	 .byte 0x18
 2567 09d9 56090000 	 .4byte 0x956
 2568 09dd 22       	 .uleb128 0x22
 2569 09de 8D0A0000 	 .4byte .LASF59
 2570 09e2 11       	 .byte 0x11
 2571 09e3 39       	 .byte 0x39
 2572 09e4 19       	 .byte 0x19
 2573 09e5 3A090000 	 .4byte 0x93a
 2574 09e9 22       	 .uleb128 0x22
 2575 09ea 00140000 	 .4byte .LASF60
 2576 09ee 11       	 .byte 0x11
 2577 09ef 4D       	 .byte 0x4d
 2578 09f0 18       	 .byte 0x18
 2579 09f1 5D090000 	 .4byte 0x95d
 2580 09f5 22       	 .uleb128 0x22
ARM GAS   			page 57


 2581 09f6 0F110000 	 .4byte .LASF61
 2582 09fa 11       	 .byte 0x11
 2583 09fb 4F       	 .byte 0x4f
 2584 09fc 19       	 .byte 0x19
 2585 09fd 41090000 	 .4byte 0x941
 2586 0a01 22       	 .uleb128 0x22
 2587 0a02 7C100000 	 .4byte .LASF62
 2588 0a06 11       	 .byte 0x11
 2589 0a07 67       	 .byte 0x67
 2590 0a08 18       	 .byte 0x18
 2591 0a09 F3080000 	 .4byte 0x8f3
 2592 0a0d 22       	 .uleb128 0x22
 2593 0a0e ED090000 	 .4byte .LASF63
 2594 0a12 11       	 .byte 0x11
 2595 0a13 69       	 .byte 0x69
 2596 0a14 19       	 .byte 0x19
 2597 0a15 48090000 	 .4byte 0x948
 2598 0a19 22       	 .uleb128 0x22
 2599 0a1a AE140000 	 .4byte .LASF64
 2600 0a1e 11       	 .byte 0x11
 2601 0a1f 86       	 .byte 0x86
 2602 0a20 1D       	 .byte 0x1d
 2603 0a21 4F090000 	 .4byte 0x94f
 2604 0a25 22       	 .uleb128 0x22
 2605 0a26 CF110000 	 .4byte .LASF65
 2606 0a2a 11       	 .byte 0x11
 2607 0a2b 88       	 .byte 0x88
 2608 0a2c 1E       	 .byte 0x1e
 2609 0a2d 33090000 	 .4byte 0x933
 2610 0a31 22       	 .uleb128 0x22
 2611 0a32 980F0000 	 .4byte .LASF66
 2612 0a36 11       	 .byte 0x11
 2613 0a37 A0       	 .byte 0xa0
 2614 0a38 1E       	 .byte 0x1e
 2615 0a39 56090000 	 .4byte 0x956
 2616 0a3d 22       	 .uleb128 0x22
 2617 0a3e D5180000 	 .4byte .LASF67
 2618 0a42 11       	 .byte 0x11
 2619 0a43 A2       	 .byte 0xa2
 2620 0a44 1F       	 .byte 0x1f
 2621 0a45 3A090000 	 .4byte 0x93a
 2622 0a49 22       	 .uleb128 0x22
 2623 0a4a 00030000 	 .4byte .LASF68
 2624 0a4e 11       	 .byte 0x11
 2625 0a4f B6       	 .byte 0xb6
 2626 0a50 1E       	 .byte 0x1e
 2627 0a51 5D090000 	 .4byte 0x95d
 2628 0a55 22       	 .uleb128 0x22
 2629 0a56 83090000 	 .4byte .LASF69
 2630 0a5a 11       	 .byte 0x11
 2631 0a5b B8       	 .byte 0xb8
 2632 0a5c 1F       	 .byte 0x1f
 2633 0a5d 41090000 	 .4byte 0x941
 2634 0a61 22       	 .uleb128 0x22
 2635 0a62 80110000 	 .4byte .LASF70
 2636 0a66 11       	 .byte 0x11
 2637 0a67 C8       	 .byte 0xc8
ARM GAS   			page 58


 2638 0a68 1E       	 .byte 0x1e
 2639 0a69 F3080000 	 .4byte 0x8f3
 2640 0a6d 22       	 .uleb128 0x22
 2641 0a6e D0160000 	 .4byte .LASF71
 2642 0a72 11       	 .byte 0x11
 2643 0a73 CA       	 .byte 0xca
 2644 0a74 1F       	 .byte 0x1f
 2645 0a75 48090000 	 .4byte 0x948
 2646 0a79 22       	 .uleb128 0x22
 2647 0a7a AB100000 	 .4byte .LASF72
 2648 0a7e 11       	 .byte 0x11
 2649 0a7f D6       	 .byte 0xd6
 2650 0a80 19       	 .byte 0x19
 2651 0a81 F3080000 	 .4byte 0x8f3
 2652 0a85 22       	 .uleb128 0x22
 2653 0a86 B3020000 	 .4byte .LASF73
 2654 0a8a 11       	 .byte 0x11
 2655 0a8b DE       	 .byte 0xde
 2656 0a8c 1A       	 .byte 0x1a
 2657 0a8d 48090000 	 .4byte 0x948
 2658 0a91 22       	 .uleb128 0x22
 2659 0a92 CF030000 	 .4byte .LASF74
 2660 0a96 11       	 .byte 0x11
 2661 0a97 E6       	 .byte 0xe6
 2662 0a98 19       	 .byte 0x19
 2663 0a99 D4080000 	 .4byte 0x8d4
 2664 0a9d 22       	 .uleb128 0x22
 2665 0a9e 3B080000 	 .4byte .LASF75
 2666 0aa2 11       	 .byte 0x11
 2667 0aa3 E8       	 .byte 0xe8
 2668 0aa4 1A       	 .byte 0x1a
 2669 0aa5 EC080000 	 .4byte 0x8ec
 2670 0aa9 22       	 .uleb128 0x22
 2671 0aaa BB180000 	 .4byte .LASF76
 2672 0aae 12       	 .byte 0x12
 2673 0aaf 2E       	 .byte 0x2e
 2674 0ab0 0E       	 .byte 0xe
 2675 0ab1 5D090000 	 .4byte 0x95d
 2676 0ab5 22       	 .uleb128 0x22
 2677 0ab6 DA030000 	 .4byte .LASF77
 2678 0aba 12       	 .byte 0x12
 2679 0abb 74       	 .byte 0x74
 2680 0abc 0E       	 .byte 0xe
 2681 0abd 5D090000 	 .4byte 0x95d
 2682 0ac1 2B       	 .uleb128 0x2b
 2683 0ac2 08       	 .byte 0x8
 2684 0ac3 12       	 .byte 0x12
 2685 0ac4 A3       	 .byte 0xa3
 2686 0ac5 01       	 .byte 0x1
 2687 0ac6 C90A0000 	 .4byte .LASF302
 2688 0aca 0B0B0000 	 .4byte 0xb0b
 2689 0ace 2C       	 .uleb128 0x2c
 2690 0acf 04       	 .byte 0x4
 2691 0ad0 12       	 .byte 0x12
 2692 0ad1 A6       	 .byte 0xa6
 2693 0ad2 03       	 .byte 0x3
 2694 0ad3 F00A0000 	 .4byte 0xaf0
ARM GAS   			page 59


 2695 0ad7 2D       	 .uleb128 0x2d
 2696 0ad8 320C0000 	 .4byte .LASF78
 2697 0adc 12       	 .byte 0x12
 2698 0add A7       	 .byte 0xa7
 2699 0ade 0C       	 .byte 0xc
 2700 0adf AC090000 	 .4byte 0x9ac
 2701 0ae3 2D       	 .uleb128 0x2d
 2702 0ae4 32130000 	 .4byte .LASF79
 2703 0ae8 12       	 .byte 0x12
 2704 0ae9 A8       	 .byte 0xa8
 2705 0aea 13       	 .byte 0x13
 2706 0aeb 0B0B0000 	 .4byte 0xb0b
 2707 0aef 00       	 .byte 0
 2708 0af0 07       	 .uleb128 0x7
 2709 0af1 D4040000 	 .4byte .LASF81
 2710 0af5 12       	 .byte 0x12
 2711 0af6 A4       	 .byte 0xa4
 2712 0af7 07       	 .byte 0x7
 2713 0af8 D4080000 	 .4byte 0x8d4
 2714 0afc 00       	 .byte 0
 2715 0afd 07       	 .uleb128 0x7
 2716 0afe 850A0000 	 .4byte .LASF27
 2717 0b02 12       	 .byte 0x12
 2718 0b03 A9       	 .byte 0xa9
 2719 0b04 05       	 .byte 0x5
 2720 0b05 CE0A0000 	 .4byte 0xace
 2721 0b09 04       	 .byte 0x4
 2722 0b0a 00       	 .byte 0
 2723 0b0b 2E       	 .uleb128 0x2e
 2724 0b0c 33090000 	 .4byte 0x933
 2725 0b10 1B0B0000 	 .4byte 0xb1b
 2726 0b14 2F       	 .uleb128 0x2f
 2727 0b15 EC080000 	 .4byte 0x8ec
 2728 0b19 03       	 .byte 0x3
 2729 0b1a 00       	 .byte 0
 2730 0b1b 22       	 .uleb128 0x22
 2731 0b1c 680F0000 	 .4byte .LASF82
 2732 0b20 12       	 .byte 0x12
 2733 0b21 AA       	 .byte 0xaa
 2734 0b22 03       	 .byte 0x3
 2735 0b23 C10A0000 	 .4byte 0xac1
 2736 0b27 30       	 .uleb128 0x30
 2737 0b28 93000000 	 .4byte .LASF424
 2738 0b2c 04       	 .byte 0x4
 2739 0b2d 1F       	 .byte 0x1f
 2740 0b2e 00       	 .byte 0
 2741 0b2f 3E0B0000 	 .4byte 0xb3e
 2742 0b33 31       	 .uleb128 0x31
 2743 0b34 6B170000 	 .4byte .LASF425
 2744 0b38 06090000 	 .4byte 0x906
 2745 0b3c 00       	 .byte 0
 2746 0b3d 00       	 .byte 0
 2747 0b3e 22       	 .uleb128 0x22
 2748 0b3f 65030000 	 .4byte .LASF83
 2749 0b43 13       	 .byte 0x13
 2750 0b44 16       	 .byte 0x16
 2751 0b45 19       	 .byte 0x19
ARM GAS   			page 60


 2752 0b46 41090000 	 .4byte 0x941
 2753 0b4a 22       	 .uleb128 0x22
 2754 0b4b C6100000 	 .4byte .LASF84
 2755 0b4f 14       	 .byte 0x14
 2756 0b50 22       	 .byte 0x22
 2757 0b51 19       	 .byte 0x19
 2758 0b52 560B0000 	 .4byte 0xb56
 2759 0b56 26       	 .uleb128 0x26
 2760 0b57 04       	 .byte 0x4
 2761 0b58 5C0B0000 	 .4byte 0xb5c
 2762 0b5c 32       	 .uleb128 0x32
 2763 0b5d 6C150000 	 .4byte .LASF182
 2764 0b61 22       	 .uleb128 0x22
 2765 0b62 BA0F0000 	 .4byte .LASF85
 2766 0b66 13       	 .byte 0x13
 2767 0b67 23       	 .byte 0x23
 2768 0b68 1B       	 .byte 0x1b
 2769 0b69 4A0B0000 	 .4byte 0xb4a
 2770 0b6d 17       	 .uleb128 0x17
 2771 0b6e 13040000 	 .4byte .LASF86
 2772 0b72 18       	 .byte 0x18
 2773 0b73 13       	 .byte 0x13
 2774 0b74 34       	 .byte 0x34
 2775 0b75 08       	 .byte 0x8
 2776 0b76 C70B0000 	 .4byte 0xbc7
 2777 0b7a 07       	 .uleb128 0x7
 2778 0b7b D7090000 	 .4byte .LASF87
 2779 0b7f 13       	 .byte 0x13
 2780 0b80 36       	 .byte 0x36
 2781 0b81 13       	 .byte 0x13
 2782 0b82 C70B0000 	 .4byte 0xbc7
 2783 0b86 00       	 .byte 0
 2784 0b87 33       	 .uleb128 0x33
 2785 0b88 5F6B00   	 .ascii "_k\000"
 2786 0b8b 13       	 .byte 0x13
 2787 0b8c 37       	 .byte 0x37
 2788 0b8d 07       	 .byte 0x7
 2789 0b8e D4080000 	 .4byte 0x8d4
 2790 0b92 04       	 .byte 0x4
 2791 0b93 07       	 .uleb128 0x7
 2792 0b94 45140000 	 .4byte .LASF88
 2793 0b98 13       	 .byte 0x13
 2794 0b99 37       	 .byte 0x37
 2795 0b9a 0B       	 .byte 0xb
 2796 0b9b D4080000 	 .4byte 0x8d4
 2797 0b9f 08       	 .byte 0x8
 2798 0ba0 07       	 .uleb128 0x7
 2799 0ba1 050B0000 	 .4byte .LASF89
 2800 0ba5 13       	 .byte 0x13
 2801 0ba6 37       	 .byte 0x37
 2802 0ba7 14       	 .byte 0x14
 2803 0ba8 D4080000 	 .4byte 0x8d4
 2804 0bac 0C       	 .byte 0xc
 2805 0bad 07       	 .uleb128 0x7
 2806 0bae DB070000 	 .4byte .LASF90
 2807 0bb2 13       	 .byte 0x13
 2808 0bb3 37       	 .byte 0x37
ARM GAS   			page 61


 2809 0bb4 1B       	 .byte 0x1b
 2810 0bb5 D4080000 	 .4byte 0x8d4
 2811 0bb9 10       	 .byte 0x10
 2812 0bba 33       	 .uleb128 0x33
 2813 0bbb 5F7800   	 .ascii "_x\000"
 2814 0bbe 13       	 .byte 0x13
 2815 0bbf 38       	 .byte 0x38
 2816 0bc0 0B       	 .byte 0xb
 2817 0bc1 CD0B0000 	 .4byte 0xbcd
 2818 0bc5 14       	 .byte 0x14
 2819 0bc6 00       	 .byte 0
 2820 0bc7 26       	 .uleb128 0x26
 2821 0bc8 04       	 .byte 0x4
 2822 0bc9 6D0B0000 	 .4byte 0xb6d
 2823 0bcd 2E       	 .uleb128 0x2e
 2824 0bce 3E0B0000 	 .4byte 0xb3e
 2825 0bd2 DD0B0000 	 .4byte 0xbdd
 2826 0bd6 2F       	 .uleb128 0x2f
 2827 0bd7 EC080000 	 .4byte 0x8ec
 2828 0bdb 00       	 .byte 0
 2829 0bdc 00       	 .byte 0
 2830 0bdd 17       	 .uleb128 0x17
 2831 0bde C7140000 	 .4byte .LASF91
 2832 0be2 24       	 .byte 0x24
 2833 0be3 13       	 .byte 0x13
 2834 0be4 3C       	 .byte 0x3c
 2835 0be5 08       	 .byte 0x8
 2836 0be6 600C0000 	 .4byte 0xc60
 2837 0bea 07       	 .uleb128 0x7
 2838 0beb CA010000 	 .4byte .LASF92
 2839 0bef 13       	 .byte 0x13
 2840 0bf0 3E       	 .byte 0x3e
 2841 0bf1 09       	 .byte 0x9
 2842 0bf2 D4080000 	 .4byte 0x8d4
 2843 0bf6 00       	 .byte 0
 2844 0bf7 07       	 .uleb128 0x7
 2845 0bf8 13150000 	 .4byte .LASF93
 2846 0bfc 13       	 .byte 0x13
 2847 0bfd 3F       	 .byte 0x3f
 2848 0bfe 09       	 .byte 0x9
 2849 0bff D4080000 	 .4byte 0x8d4
 2850 0c03 04       	 .byte 0x4
 2851 0c04 07       	 .uleb128 0x7
 2852 0c05 9A040000 	 .4byte .LASF94
 2853 0c09 13       	 .byte 0x13
 2854 0c0a 40       	 .byte 0x40
 2855 0c0b 09       	 .byte 0x9
 2856 0c0c D4080000 	 .4byte 0x8d4
 2857 0c10 08       	 .byte 0x8
 2858 0c11 07       	 .uleb128 0x7
 2859 0c12 170B0000 	 .4byte .LASF95
 2860 0c16 13       	 .byte 0x13
 2861 0c17 41       	 .byte 0x41
 2862 0c18 09       	 .byte 0x9
 2863 0c19 D4080000 	 .4byte 0x8d4
 2864 0c1d 0C       	 .byte 0xc
 2865 0c1e 07       	 .uleb128 0x7
ARM GAS   			page 62


 2866 0c1f 6C100000 	 .4byte .LASF96
 2867 0c23 13       	 .byte 0x13
 2868 0c24 42       	 .byte 0x42
 2869 0c25 09       	 .byte 0x9
 2870 0c26 D4080000 	 .4byte 0x8d4
 2871 0c2a 10       	 .byte 0x10
 2872 0c2b 07       	 .uleb128 0x7
 2873 0c2c 97130000 	 .4byte .LASF97
 2874 0c30 13       	 .byte 0x13
 2875 0c31 43       	 .byte 0x43
 2876 0c32 09       	 .byte 0x9
 2877 0c33 D4080000 	 .4byte 0x8d4
 2878 0c37 14       	 .byte 0x14
 2879 0c38 07       	 .uleb128 0x7
 2880 0c39 24040000 	 .4byte .LASF98
 2881 0c3d 13       	 .byte 0x13
 2882 0c3e 44       	 .byte 0x44
 2883 0c3f 09       	 .byte 0x9
 2884 0c40 D4080000 	 .4byte 0x8d4
 2885 0c44 18       	 .byte 0x18
 2886 0c45 07       	 .uleb128 0x7
 2887 0c46 61090000 	 .4byte .LASF99
 2888 0c4a 13       	 .byte 0x13
 2889 0c4b 45       	 .byte 0x45
 2890 0c4c 09       	 .byte 0x9
 2891 0c4d D4080000 	 .4byte 0x8d4
 2892 0c51 1C       	 .byte 0x1c
 2893 0c52 07       	 .uleb128 0x7
 2894 0c53 CB0F0000 	 .4byte .LASF100
 2895 0c57 13       	 .byte 0x13
 2896 0c58 46       	 .byte 0x46
 2897 0c59 09       	 .byte 0x9
 2898 0c5a D4080000 	 .4byte 0x8d4
 2899 0c5e 20       	 .byte 0x20
 2900 0c5f 00       	 .byte 0
 2901 0c60 34       	 .uleb128 0x34
 2902 0c61 0A010000 	 .4byte .LASF101
 2903 0c65 0801     	 .2byte 0x108
 2904 0c67 13       	 .byte 0x13
 2905 0c68 4F       	 .byte 0x4f
 2906 0c69 08       	 .byte 0x8
 2907 0c6a A50C0000 	 .4byte 0xca5
 2908 0c6e 07       	 .uleb128 0x7
 2909 0c6f DB170000 	 .4byte .LASF102
 2910 0c73 13       	 .byte 0x13
 2911 0c74 50       	 .byte 0x50
 2912 0c75 0A       	 .byte 0xa
 2913 0c76 A50C0000 	 .4byte 0xca5
 2914 0c7a 00       	 .byte 0
 2915 0c7b 07       	 .uleb128 0x7
 2916 0c7c 2B150000 	 .4byte .LASF103
 2917 0c80 13       	 .byte 0x13
 2918 0c81 51       	 .byte 0x51
 2919 0c82 09       	 .byte 0x9
 2920 0c83 A50C0000 	 .4byte 0xca5
 2921 0c87 80       	 .byte 0x80
 2922 0c88 35       	 .uleb128 0x35
ARM GAS   			page 63


 2923 0c89 84180000 	 .4byte .LASF104
 2924 0c8d 13       	 .byte 0x13
 2925 0c8e 53       	 .byte 0x53
 2926 0c8f 0A       	 .byte 0xa
 2927 0c90 3E0B0000 	 .4byte 0xb3e
 2928 0c94 0001     	 .2byte 0x100
 2929 0c96 35       	 .uleb128 0x35
 2930 0c97 4C190000 	 .4byte .LASF105
 2931 0c9b 13       	 .byte 0x13
 2932 0c9c 56       	 .byte 0x56
 2933 0c9d 0A       	 .byte 0xa
 2934 0c9e 3E0B0000 	 .4byte 0xb3e
 2935 0ca2 0401     	 .2byte 0x104
 2936 0ca4 00       	 .byte 0
 2937 0ca5 2E       	 .uleb128 0x2e
 2938 0ca6 06090000 	 .4byte 0x906
 2939 0caa B50C0000 	 .4byte 0xcb5
 2940 0cae 2F       	 .uleb128 0x2f
 2941 0caf EC080000 	 .4byte 0x8ec
 2942 0cb3 1F       	 .byte 0x1f
 2943 0cb4 00       	 .byte 0
 2944 0cb5 34       	 .uleb128 0x34
 2945 0cb6 96110000 	 .4byte .LASF106
 2946 0cba 9001     	 .2byte 0x190
 2947 0cbc 13       	 .byte 0x13
 2948 0cbd 62       	 .byte 0x62
 2949 0cbe 08       	 .byte 0x8
 2950 0cbf F80C0000 	 .4byte 0xcf8
 2951 0cc3 07       	 .uleb128 0x7
 2952 0cc4 D7090000 	 .4byte .LASF87
 2953 0cc8 13       	 .byte 0x13
 2954 0cc9 63       	 .byte 0x63
 2955 0cca 12       	 .byte 0x12
 2956 0ccb F80C0000 	 .4byte 0xcf8
 2957 0ccf 00       	 .byte 0
 2958 0cd0 07       	 .uleb128 0x7
 2959 0cd1 7E090000 	 .4byte .LASF107
 2960 0cd5 13       	 .byte 0x13
 2961 0cd6 64       	 .byte 0x64
 2962 0cd7 06       	 .byte 0x6
 2963 0cd8 D4080000 	 .4byte 0x8d4
 2964 0cdc 04       	 .byte 0x4
 2965 0cdd 07       	 .uleb128 0x7
 2966 0cde F7030000 	 .4byte .LASF108
 2967 0ce2 13       	 .byte 0x13
 2968 0ce3 66       	 .byte 0x66
 2969 0ce4 09       	 .byte 0x9
 2970 0ce5 FE0C0000 	 .4byte 0xcfe
 2971 0ce9 08       	 .byte 0x8
 2972 0cea 07       	 .uleb128 0x7
 2973 0ceb 0A010000 	 .4byte .LASF101
 2974 0cef 13       	 .byte 0x13
 2975 0cf0 67       	 .byte 0x67
 2976 0cf1 1E       	 .byte 0x1e
 2977 0cf2 600C0000 	 .4byte 0xc60
 2978 0cf6 88       	 .byte 0x88
 2979 0cf7 00       	 .byte 0
ARM GAS   			page 64


 2980 0cf8 26       	 .uleb128 0x26
 2981 0cf9 04       	 .byte 0x4
 2982 0cfa B50C0000 	 .4byte 0xcb5
 2983 0cfe 2E       	 .uleb128 0x2e
 2984 0cff 0E0D0000 	 .4byte 0xd0e
 2985 0d03 0E0D0000 	 .4byte 0xd0e
 2986 0d07 2F       	 .uleb128 0x2f
 2987 0d08 EC080000 	 .4byte 0x8ec
 2988 0d0c 1F       	 .byte 0x1f
 2989 0d0d 00       	 .byte 0
 2990 0d0e 26       	 .uleb128 0x26
 2991 0d0f 04       	 .byte 0x4
 2992 0d10 140D0000 	 .4byte 0xd14
 2993 0d14 36       	 .uleb128 0x36
 2994 0d15 17       	 .uleb128 0x17
 2995 0d16 2C170000 	 .4byte .LASF109
 2996 0d1a 08       	 .byte 0x8
 2997 0d1b 13       	 .byte 0x13
 2998 0d1c 7A       	 .byte 0x7a
 2999 0d1d 08       	 .byte 0x8
 3000 0d1e 3D0D0000 	 .4byte 0xd3d
 3001 0d22 07       	 .uleb128 0x7
 3002 0d23 BF0D0000 	 .4byte .LASF110
 3003 0d27 13       	 .byte 0x13
 3004 0d28 7B       	 .byte 0x7b
 3005 0d29 11       	 .byte 0x11
 3006 0d2a 3D0D0000 	 .4byte 0xd3d
 3007 0d2e 00       	 .byte 0
 3008 0d2f 07       	 .uleb128 0x7
 3009 0d30 95180000 	 .4byte .LASF111
 3010 0d34 13       	 .byte 0x13
 3011 0d35 7C       	 .byte 0x7c
 3012 0d36 06       	 .byte 0x6
 3013 0d37 D4080000 	 .4byte 0x8d4
 3014 0d3b 04       	 .byte 0x4
 3015 0d3c 00       	 .byte 0
 3016 0d3d 26       	 .uleb128 0x26
 3017 0d3e 04       	 .byte 0x4
 3018 0d3f 33090000 	 .4byte 0x933
 3019 0d43 17       	 .uleb128 0x17
 3020 0d44 8D180000 	 .4byte .LASF112
 3021 0d48 68       	 .byte 0x68
 3022 0d49 13       	 .byte 0x13
 3023 0d4a BA       	 .byte 0xba
 3024 0d4b 08       	 .byte 0x8
 3025 0d4c 860E0000 	 .4byte 0xe86
 3026 0d50 33       	 .uleb128 0x33
 3027 0d51 5F7000   	 .ascii "_p\000"
 3028 0d54 13       	 .byte 0x13
 3029 0d55 BB       	 .byte 0xbb
 3030 0d56 12       	 .byte 0x12
 3031 0d57 3D0D0000 	 .4byte 0xd3d
 3032 0d5b 00       	 .byte 0
 3033 0d5c 33       	 .uleb128 0x33
 3034 0d5d 5F7200   	 .ascii "_r\000"
 3035 0d60 13       	 .byte 0x13
 3036 0d61 BC       	 .byte 0xbc
ARM GAS   			page 65


 3037 0d62 07       	 .byte 0x7
 3038 0d63 D4080000 	 .4byte 0x8d4
 3039 0d67 04       	 .byte 0x4
 3040 0d68 33       	 .uleb128 0x33
 3041 0d69 5F7700   	 .ascii "_w\000"
 3042 0d6c 13       	 .byte 0x13
 3043 0d6d BD       	 .byte 0xbd
 3044 0d6e 07       	 .byte 0x7
 3045 0d6f D4080000 	 .4byte 0x8d4
 3046 0d73 08       	 .byte 0x8
 3047 0d74 07       	 .uleb128 0x7
 3048 0d75 5F020000 	 .4byte .LASF113
 3049 0d79 13       	 .byte 0x13
 3050 0d7a BE       	 .byte 0xbe
 3051 0d7b 09       	 .byte 0x9
 3052 0d7c 56090000 	 .4byte 0x956
 3053 0d80 0C       	 .byte 0xc
 3054 0d81 07       	 .uleb128 0x7
 3055 0d82 A9130000 	 .4byte .LASF114
 3056 0d86 13       	 .byte 0x13
 3057 0d87 BF       	 .byte 0xbf
 3058 0d88 09       	 .byte 0x9
 3059 0d89 56090000 	 .4byte 0x956
 3060 0d8d 0E       	 .byte 0xe
 3061 0d8e 33       	 .uleb128 0x33
 3062 0d8f 5F626600 	 .ascii "_bf\000"
 3063 0d93 13       	 .byte 0x13
 3064 0d94 C0       	 .byte 0xc0
 3065 0d95 11       	 .byte 0x11
 3066 0d96 150D0000 	 .4byte 0xd15
 3067 0d9a 10       	 .byte 0x10
 3068 0d9b 07       	 .uleb128 0x7
 3069 0d9c 56020000 	 .4byte .LASF115
 3070 0da0 13       	 .byte 0x13
 3071 0da1 C1       	 .byte 0xc1
 3072 0da2 07       	 .byte 0x7
 3073 0da3 D4080000 	 .4byte 0x8d4
 3074 0da7 18       	 .byte 0x18
 3075 0da8 07       	 .uleb128 0x7
 3076 0da9 FC030000 	 .4byte .LASF116
 3077 0dad 13       	 .byte 0x13
 3078 0dae C8       	 .byte 0xc8
 3079 0daf 0A       	 .byte 0xa
 3080 0db0 06090000 	 .4byte 0x906
 3081 0db4 1C       	 .byte 0x1c
 3082 0db5 07       	 .uleb128 0x7
 3083 0db6 5A030000 	 .4byte .LASF117
 3084 0dba 13       	 .byte 0x13
 3085 0dbb CA       	 .byte 0xca
 3086 0dbc 1D       	 .byte 0x1d
 3087 0dbd 66110000 	 .4byte 0x1166
 3088 0dc1 20       	 .byte 0x20
 3089 0dc2 07       	 .uleb128 0x7
 3090 0dc3 ED100000 	 .4byte .LASF118
 3091 0dc7 13       	 .byte 0x13
 3092 0dc8 CC       	 .byte 0xcc
 3093 0dc9 1D       	 .byte 0x1d
ARM GAS   			page 66


 3094 0dca 90110000 	 .4byte 0x1190
 3095 0dce 24       	 .byte 0x24
 3096 0dcf 07       	 .uleb128 0x7
 3097 0dd0 75190000 	 .4byte .LASF119
 3098 0dd4 13       	 .byte 0x13
 3099 0dd5 CF       	 .byte 0xcf
 3100 0dd6 0D       	 .byte 0xd
 3101 0dd7 B4110000 	 .4byte 0x11b4
 3102 0ddb 28       	 .byte 0x28
 3103 0ddc 07       	 .uleb128 0x7
 3104 0ddd CD0C0000 	 .4byte .LASF120
 3105 0de1 13       	 .byte 0x13
 3106 0de2 D0       	 .byte 0xd0
 3107 0de3 09       	 .byte 0x9
 3108 0de4 CE110000 	 .4byte 0x11ce
 3109 0de8 2C       	 .byte 0x2c
 3110 0de9 33       	 .uleb128 0x33
 3111 0dea 5F756200 	 .ascii "_ub\000"
 3112 0dee 13       	 .byte 0x13
 3113 0def D3       	 .byte 0xd3
 3114 0df0 11       	 .byte 0x11
 3115 0df1 150D0000 	 .4byte 0xd15
 3116 0df5 30       	 .byte 0x30
 3117 0df6 33       	 .uleb128 0x33
 3118 0df7 5F757000 	 .ascii "_up\000"
 3119 0dfb 13       	 .byte 0x13
 3120 0dfc D4       	 .byte 0xd4
 3121 0dfd 12       	 .byte 0x12
 3122 0dfe 3D0D0000 	 .4byte 0xd3d
 3123 0e02 38       	 .byte 0x38
 3124 0e03 33       	 .uleb128 0x33
 3125 0e04 5F757200 	 .ascii "_ur\000"
 3126 0e08 13       	 .byte 0x13
 3127 0e09 D5       	 .byte 0xd5
 3128 0e0a 07       	 .byte 0x7
 3129 0e0b D4080000 	 .4byte 0x8d4
 3130 0e0f 3C       	 .byte 0x3c
 3131 0e10 07       	 .uleb128 0x7
 3132 0e11 56080000 	 .4byte .LASF121
 3133 0e15 13       	 .byte 0x13
 3134 0e16 D8       	 .byte 0xd8
 3135 0e17 11       	 .byte 0x11
 3136 0e18 D4110000 	 .4byte 0x11d4
 3137 0e1c 40       	 .byte 0x40
 3138 0e1d 07       	 .uleb128 0x7
 3139 0e1e C2180000 	 .4byte .LASF122
 3140 0e22 13       	 .byte 0x13
 3141 0e23 D9       	 .byte 0xd9
 3142 0e24 11       	 .byte 0x11
 3143 0e25 E4110000 	 .4byte 0x11e4
 3144 0e29 43       	 .byte 0x43
 3145 0e2a 33       	 .uleb128 0x33
 3146 0e2b 5F6C6200 	 .ascii "_lb\000"
 3147 0e2f 13       	 .byte 0x13
 3148 0e30 DC       	 .byte 0xdc
 3149 0e31 11       	 .byte 0x11
 3150 0e32 150D0000 	 .4byte 0xd15
ARM GAS   			page 67


 3151 0e36 44       	 .byte 0x44
 3152 0e37 07       	 .uleb128 0x7
 3153 0e38 660B0000 	 .4byte .LASF123
 3154 0e3c 13       	 .byte 0x13
 3155 0e3d DF       	 .byte 0xdf
 3156 0e3e 07       	 .byte 0x7
 3157 0e3f D4080000 	 .4byte 0x8d4
 3158 0e43 4C       	 .byte 0x4c
 3159 0e44 07       	 .uleb128 0x7
 3160 0e45 4E080000 	 .4byte .LASF124
 3161 0e49 13       	 .byte 0x13
 3162 0e4a E0       	 .byte 0xe0
 3163 0e4b 0A       	 .byte 0xa
 3164 0e4c A90A0000 	 .4byte 0xaa9
 3165 0e50 50       	 .byte 0x50
 3166 0e51 07       	 .uleb128 0x7
 3167 0e52 1E130000 	 .4byte .LASF125
 3168 0e56 13       	 .byte 0x13
 3169 0e57 E3       	 .byte 0xe3
 3170 0e58 12       	 .byte 0x12
 3171 0e59 A40E0000 	 .4byte 0xea4
 3172 0e5d 54       	 .byte 0x54
 3173 0e5e 07       	 .uleb128 0x7
 3174 0e5f DB140000 	 .4byte .LASF126
 3175 0e63 13       	 .byte 0x13
 3176 0e64 E7       	 .byte 0xe7
 3177 0e65 0C       	 .byte 0xc
 3178 0e66 610B0000 	 .4byte 0xb61
 3179 0e6a 58       	 .byte 0x58
 3180 0e6b 07       	 .uleb128 0x7
 3181 0e6c 22030000 	 .4byte .LASF127
 3182 0e70 13       	 .byte 0x13
 3183 0e71 E9       	 .byte 0xe9
 3184 0e72 0E       	 .byte 0xe
 3185 0e73 1B0B0000 	 .4byte 0xb1b
 3186 0e77 5C       	 .byte 0x5c
 3187 0e78 07       	 .uleb128 0x7
 3188 0e79 30190000 	 .4byte .LASF128
 3189 0e7d 13       	 .byte 0x13
 3190 0e7e EA       	 .byte 0xea
 3191 0e7f 09       	 .byte 0x9
 3192 0e80 D4080000 	 .4byte 0x8d4
 3193 0e84 64       	 .byte 0x64
 3194 0e85 00       	 .byte 0
 3195 0e86 37       	 .uleb128 0x37
 3196 0e87 D4080000 	 .4byte 0x8d4
 3197 0e8b A40E0000 	 .4byte 0xea4
 3198 0e8f 0A       	 .uleb128 0xa
 3199 0e90 A40E0000 	 .4byte 0xea4
 3200 0e94 0A       	 .uleb128 0xa
 3201 0e95 06090000 	 .4byte 0x906
 3202 0e99 0A       	 .uleb128 0xa
 3203 0e9a 54110000 	 .4byte 0x1154
 3204 0e9e 0A       	 .uleb128 0xa
 3205 0e9f D4080000 	 .4byte 0x8d4
 3206 0ea3 00       	 .byte 0
 3207 0ea4 26       	 .uleb128 0x26
ARM GAS   			page 68


 3208 0ea5 04       	 .byte 0x4
 3209 0ea6 AA0E0000 	 .4byte 0xeaa
 3210 0eaa 38       	 .uleb128 0x38
 3211 0eab F8170000 	 .4byte .LASF129
 3212 0eaf 2804     	 .2byte 0x428
 3213 0eb1 13       	 .byte 0x13
 3214 0eb2 6502     	 .2byte 0x265
 3215 0eb4 08       	 .byte 0x8
 3216 0eb5 54110000 	 .4byte 0x1154
 3217 0eb9 39       	 .uleb128 0x39
 3218 0eba F0       	 .byte 0xf0
 3219 0ebb 13       	 .byte 0x13
 3220 0ebc 8402     	 .2byte 0x284
 3221 0ebe 05       	 .byte 0x5
 3222 0ebf 1A100000 	 .4byte 0x101a
 3223 0ec3 3A       	 .uleb128 0x3a
 3224 0ec4 D0       	 .byte 0xd0
 3225 0ec5 13       	 .byte 0x13
 3226 0ec6 8602     	 .2byte 0x286
 3227 0ec8 09       	 .byte 0x9
 3228 0ec9 D80F0000 	 .4byte 0xfd8
 3229 0ecd 3B       	 .uleb128 0x3b
 3230 0ece C8180000 	 .4byte .LASF130
 3231 0ed2 13       	 .byte 0x13
 3232 0ed3 8702     	 .2byte 0x287
 3233 0ed5 18       	 .byte 0x18
 3234 0ed6 EC080000 	 .4byte 0x8ec
 3235 0eda 00       	 .byte 0
 3236 0edb 3B       	 .uleb128 0x3b
 3237 0edc B6170000 	 .4byte .LASF131
 3238 0ee0 13       	 .byte 0x13
 3239 0ee1 8802     	 .2byte 0x288
 3240 0ee3 12       	 .byte 0x12
 3241 0ee4 54110000 	 .4byte 0x1154
 3242 0ee8 04       	 .byte 0x4
 3243 0ee9 3B       	 .uleb128 0x3b
 3244 0eea 46090000 	 .4byte .LASF132
 3245 0eee 13       	 .byte 0x13
 3246 0eef 8902     	 .2byte 0x289
 3247 0ef1 10       	 .byte 0x10
 3248 0ef2 8F120000 	 .4byte 0x128f
 3249 0ef6 08       	 .byte 0x8
 3250 0ef7 3B       	 .uleb128 0x3b
 3251 0ef8 F1130000 	 .4byte .LASF133
 3252 0efc 13       	 .byte 0x13
 3253 0efd 8A02     	 .2byte 0x28a
 3254 0eff 17       	 .byte 0x17
 3255 0f00 DD0B0000 	 .4byte 0xbdd
 3256 0f04 24       	 .byte 0x24
 3257 0f05 3B       	 .uleb128 0x3b
 3258 0f06 F9100000 	 .4byte .LASF134
 3259 0f0a 13       	 .byte 0x13
 3260 0f0b 8B02     	 .2byte 0x28b
 3261 0f0d 0F       	 .byte 0xf
 3262 0f0e D4080000 	 .4byte 0x8d4
 3263 0f12 48       	 .byte 0x48
 3264 0f13 3B       	 .uleb128 0x3b
ARM GAS   			page 69


 3265 0f14 44110000 	 .4byte .LASF135
 3266 0f18 13       	 .byte 0x13
 3267 0f19 8C02     	 .2byte 0x28c
 3268 0f1b 2C       	 .byte 0x2c
 3269 0f1c 48090000 	 .4byte 0x948
 3270 0f20 50       	 .byte 0x50
 3271 0f21 3B       	 .uleb128 0x3b
 3272 0f22 60030000 	 .4byte .LASF136
 3273 0f26 13       	 .byte 0x13
 3274 0f27 8D02     	 .2byte 0x28d
 3275 0f29 1A       	 .byte 0x1a
 3276 0f2a 46120000 	 .4byte 0x1246
 3277 0f2e 58       	 .byte 0x58
 3278 0f2f 3B       	 .uleb128 0x3b
 3279 0f30 F80A0000 	 .4byte .LASF137
 3280 0f34 13       	 .byte 0x13
 3281 0f35 8E02     	 .2byte 0x28e
 3282 0f37 16       	 .byte 0x16
 3283 0f38 1B0B0000 	 .4byte 0xb1b
 3284 0f3c 68       	 .byte 0x68
 3285 0f3d 3B       	 .uleb128 0x3b
 3286 0f3e 2E040000 	 .4byte .LASF138
 3287 0f42 13       	 .byte 0x13
 3288 0f43 8F02     	 .2byte 0x28f
 3289 0f45 16       	 .byte 0x16
 3290 0f46 1B0B0000 	 .4byte 0xb1b
 3291 0f4a 70       	 .byte 0x70
 3292 0f4b 3B       	 .uleb128 0x3b
 3293 0f4c 65010000 	 .4byte .LASF139
 3294 0f50 13       	 .byte 0x13
 3295 0f51 9002     	 .2byte 0x290
 3296 0f53 16       	 .byte 0x16
 3297 0f54 1B0B0000 	 .4byte 0xb1b
 3298 0f58 78       	 .byte 0x78
 3299 0f59 3B       	 .uleb128 0x3b
 3300 0f5a 4D140000 	 .4byte .LASF140
 3301 0f5e 13       	 .byte 0x13
 3302 0f5f 9102     	 .2byte 0x291
 3303 0f61 10       	 .byte 0x10
 3304 0f62 9F120000 	 .4byte 0x129f
 3305 0f66 80       	 .byte 0x80
 3306 0f67 3B       	 .uleb128 0x3b
 3307 0f68 03020000 	 .4byte .LASF141
 3308 0f6c 13       	 .byte 0x13
 3309 0f6d 9202     	 .2byte 0x292
 3310 0f6f 10       	 .byte 0x10
 3311 0f70 AF120000 	 .4byte 0x12af
 3312 0f74 88       	 .byte 0x88
 3313 0f75 3B       	 .uleb128 0x3b
 3314 0f76 58160000 	 .4byte .LASF142
 3315 0f7a 13       	 .byte 0x13
 3316 0f7b 9302     	 .2byte 0x293
 3317 0f7d 0F       	 .byte 0xf
 3318 0f7e D4080000 	 .4byte 0x8d4
 3319 0f82 A0       	 .byte 0xa0
 3320 0f83 3B       	 .uleb128 0x3b
 3321 0f84 A9160000 	 .4byte .LASF143
ARM GAS   			page 70


 3322 0f88 13       	 .byte 0x13
 3323 0f89 9402     	 .2byte 0x294
 3324 0f8b 16       	 .byte 0x16
 3325 0f8c 1B0B0000 	 .4byte 0xb1b
 3326 0f90 A4       	 .byte 0xa4
 3327 0f91 3B       	 .uleb128 0x3b
 3328 0f92 2B0B0000 	 .4byte .LASF144
 3329 0f96 13       	 .byte 0x13
 3330 0f97 9502     	 .2byte 0x295
 3331 0f99 16       	 .byte 0x16
 3332 0f9a 1B0B0000 	 .4byte 0xb1b
 3333 0f9e AC       	 .byte 0xac
 3334 0f9f 3B       	 .uleb128 0x3b
 3335 0fa0 94060000 	 .4byte .LASF145
 3336 0fa4 13       	 .byte 0x13
 3337 0fa5 9602     	 .2byte 0x296
 3338 0fa7 16       	 .byte 0x16
 3339 0fa8 1B0B0000 	 .4byte 0xb1b
 3340 0fac B4       	 .byte 0xb4
 3341 0fad 3B       	 .uleb128 0x3b
 3342 0fae FC0D0000 	 .4byte .LASF146
 3343 0fb2 13       	 .byte 0x13
 3344 0fb3 9702     	 .2byte 0x297
 3345 0fb5 16       	 .byte 0x16
 3346 0fb6 1B0B0000 	 .4byte 0xb1b
 3347 0fba BC       	 .byte 0xbc
 3348 0fbb 3B       	 .uleb128 0x3b
 3349 0fbc E40F0000 	 .4byte .LASF147
 3350 0fc0 13       	 .byte 0x13
 3351 0fc1 9802     	 .2byte 0x298
 3352 0fc3 16       	 .byte 0x16
 3353 0fc4 1B0B0000 	 .4byte 0xb1b
 3354 0fc8 C4       	 .byte 0xc4
 3355 0fc9 3B       	 .uleb128 0x3b
 3356 0fca 15100000 	 .4byte .LASF148
 3357 0fce 13       	 .byte 0x13
 3358 0fcf 9902     	 .2byte 0x299
 3359 0fd1 08       	 .byte 0x8
 3360 0fd2 D4080000 	 .4byte 0x8d4
 3361 0fd6 CC       	 .byte 0xcc
 3362 0fd7 00       	 .byte 0
 3363 0fd8 3A       	 .uleb128 0x3a
 3364 0fd9 F0       	 .byte 0xf0
 3365 0fda 13       	 .byte 0x13
 3366 0fdb 9F02     	 .2byte 0x29f
 3367 0fdd 09       	 .byte 0x9
 3368 0fde FF0F0000 	 .4byte 0xfff
 3369 0fe2 3B       	 .uleb128 0x3b
 3370 0fe3 3B060000 	 .4byte .LASF149
 3371 0fe7 13       	 .byte 0x13
 3372 0fe8 A102     	 .2byte 0x2a1
 3373 0fea 1B       	 .byte 0x1b
 3374 0feb BF120000 	 .4byte 0x12bf
 3375 0fef 00       	 .byte 0
 3376 0ff0 3B       	 .uleb128 0x3b
 3377 0ff1 B3190000 	 .4byte .LASF150
 3378 0ff5 13       	 .byte 0x13
ARM GAS   			page 71


 3379 0ff6 A202     	 .2byte 0x2a2
 3380 0ff8 18       	 .byte 0x18
 3381 0ff9 CF120000 	 .4byte 0x12cf
 3382 0ffd 78       	 .byte 0x78
 3383 0ffe 00       	 .byte 0
 3384 0fff 3C       	 .uleb128 0x3c
 3385 1000 F8170000 	 .4byte .LASF129
 3386 1004 13       	 .byte 0x13
 3387 1005 9A02     	 .2byte 0x29a
 3388 1007 0B       	 .byte 0xb
 3389 1008 C30E0000 	 .4byte 0xec3
 3390 100c 3C       	 .uleb128 0x3c
 3391 100d 0A140000 	 .4byte .LASF151
 3392 1011 13       	 .byte 0x13
 3393 1012 A302     	 .2byte 0x2a3
 3394 1014 0B       	 .byte 0xb
 3395 1015 D80F0000 	 .4byte 0xfd8
 3396 1019 00       	 .byte 0
 3397 101a 3B       	 .uleb128 0x3b
 3398 101b A4020000 	 .4byte .LASF152
 3399 101f 13       	 .byte 0x13
 3400 1020 6702     	 .2byte 0x267
 3401 1022 07       	 .byte 0x7
 3402 1023 D4080000 	 .4byte 0x8d4
 3403 1027 00       	 .byte 0
 3404 1028 3B       	 .uleb128 0x3b
 3405 1029 5E0D0000 	 .4byte .LASF153
 3406 102d 13       	 .byte 0x13
 3407 102e 6C02     	 .2byte 0x26c
 3408 1030 0B       	 .byte 0xb
 3409 1031 40120000 	 .4byte 0x1240
 3410 1035 04       	 .byte 0x4
 3411 1036 3B       	 .uleb128 0x3b
 3412 1037 8A030000 	 .4byte .LASF154
 3413 103b 13       	 .byte 0x13
 3414 103c 6C02     	 .2byte 0x26c
 3415 103e 14       	 .byte 0x14
 3416 103f 40120000 	 .4byte 0x1240
 3417 1043 08       	 .byte 0x8
 3418 1044 3B       	 .uleb128 0x3b
 3419 1045 AB190000 	 .4byte .LASF155
 3420 1049 13       	 .byte 0x13
 3421 104a 6C02     	 .2byte 0x26c
 3422 104c 1E       	 .byte 0x1e
 3423 104d 40120000 	 .4byte 0x1240
 3424 1051 0C       	 .byte 0xc
 3425 1052 3B       	 .uleb128 0x3b
 3426 1053 79090000 	 .4byte .LASF156
 3427 1057 13       	 .byte 0x13
 3428 1058 6E02     	 .2byte 0x26e
 3429 105a 08       	 .byte 0x8
 3430 105b D4080000 	 .4byte 0x8d4
 3431 105f 10       	 .byte 0x10
 3432 1060 3B       	 .uleb128 0x3b
 3433 1061 BB040000 	 .4byte .LASF157
 3434 1065 13       	 .byte 0x13
 3435 1066 6F02     	 .2byte 0x26f
ARM GAS   			page 72


 3436 1068 08       	 .byte 0x8
 3437 1069 DF120000 	 .4byte 0x12df
 3438 106d 14       	 .byte 0x14
 3439 106e 3B       	 .uleb128 0x3b
 3440 106f CD080000 	 .4byte .LASF158
 3441 1073 13       	 .byte 0x13
 3442 1074 7202     	 .2byte 0x272
 3443 1076 07       	 .byte 0x7
 3444 1077 D4080000 	 .4byte 0x8d4
 3445 107b 30       	 .byte 0x30
 3446 107c 3B       	 .uleb128 0x3b
 3447 107d 12180000 	 .4byte .LASF159
 3448 1081 13       	 .byte 0x13
 3449 1082 7302     	 .2byte 0x273
 3450 1084 16       	 .byte 0x16
 3451 1085 F4120000 	 .4byte 0x12f4
 3452 1089 34       	 .byte 0x34
 3453 108a 3B       	 .uleb128 0x3b
 3454 108b 220D0000 	 .4byte .LASF160
 3455 108f 13       	 .byte 0x13
 3456 1090 7502     	 .2byte 0x275
 3457 1092 07       	 .byte 0x7
 3458 1093 D4080000 	 .4byte 0x8d4
 3459 1097 38       	 .byte 0x38
 3460 1098 3B       	 .uleb128 0x3b
 3461 1099 570F0000 	 .4byte .LASF161
 3462 109d 13       	 .byte 0x13
 3463 109e 7702     	 .2byte 0x277
 3464 10a0 0A       	 .byte 0xa
 3465 10a1 05130000 	 .4byte 0x1305
 3466 10a5 3C       	 .byte 0x3c
 3467 10a6 3B       	 .uleb128 0x3b
 3468 10a7 63040000 	 .4byte .LASF162
 3469 10ab 13       	 .byte 0x13
 3470 10ac 7A02     	 .2byte 0x27a
 3471 10ae 13       	 .byte 0x13
 3472 10af C70B0000 	 .4byte 0xbc7
 3473 10b3 40       	 .byte 0x40
 3474 10b4 3B       	 .uleb128 0x3b
 3475 10b5 AA0B0000 	 .4byte .LASF163
 3476 10b9 13       	 .byte 0x13
 3477 10ba 7B02     	 .2byte 0x27b
 3478 10bc 07       	 .byte 0x7
 3479 10bd D4080000 	 .4byte 0x8d4
 3480 10c1 44       	 .byte 0x44
 3481 10c2 3B       	 .uleb128 0x3b
 3482 10c3 980A0000 	 .4byte .LASF164
 3483 10c7 13       	 .byte 0x13
 3484 10c8 7C02     	 .2byte 0x27c
 3485 10ca 13       	 .byte 0x13
 3486 10cb C70B0000 	 .4byte 0xbc7
 3487 10cf 48       	 .byte 0x48
 3488 10d0 3B       	 .uleb128 0x3b
 3489 10d1 C50D0000 	 .4byte .LASF165
 3490 10d5 13       	 .byte 0x13
 3491 10d6 7D02     	 .2byte 0x27d
 3492 10d8 14       	 .byte 0x14
ARM GAS   			page 73


 3493 10d9 0B130000 	 .4byte 0x130b
 3494 10dd 4C       	 .byte 0x4c
 3495 10de 3B       	 .uleb128 0x3b
 3496 10df 3D140000 	 .4byte .LASF166
 3497 10e3 13       	 .byte 0x13
 3498 10e4 8002     	 .2byte 0x280
 3499 10e6 07       	 .byte 0x7
 3500 10e7 D4080000 	 .4byte 0x8d4
 3501 10eb 50       	 .byte 0x50
 3502 10ec 3B       	 .uleb128 0x3b
 3503 10ed 59090000 	 .4byte .LASF167
 3504 10f1 13       	 .byte 0x13
 3505 10f2 8102     	 .2byte 0x281
 3506 10f4 09       	 .byte 0x9
 3507 10f5 54110000 	 .4byte 0x1154
 3508 10f9 54       	 .byte 0x54
 3509 10fa 3B       	 .uleb128 0x3b
 3510 10fb 25140000 	 .4byte .LASF168
 3511 10ff 13       	 .byte 0x13
 3512 1100 A402     	 .2byte 0x2a4
 3513 1102 07       	 .byte 0x7
 3514 1103 B90E0000 	 .4byte 0xeb9
 3515 1107 58       	 .byte 0x58
 3516 1108 3D       	 .uleb128 0x3d
 3517 1109 96110000 	 .4byte .LASF106
 3518 110d 13       	 .byte 0x13
 3519 110e A802     	 .2byte 0x2a8
 3520 1110 13       	 .byte 0x13
 3521 1111 F80C0000 	 .4byte 0xcf8
 3522 1115 4801     	 .2byte 0x148
 3523 1117 3D       	 .uleb128 0x3d
 3524 1118 3A0B0000 	 .4byte .LASF169
 3525 111c 13       	 .byte 0x13
 3526 111d A902     	 .2byte 0x2a9
 3527 111f 12       	 .byte 0x12
 3528 1120 B50C0000 	 .4byte 0xcb5
 3529 1124 4C01     	 .2byte 0x14c
 3530 1126 3D       	 .uleb128 0x3d
 3531 1127 210B0000 	 .4byte .LASF170
 3532 112b 13       	 .byte 0x13
 3533 112c AD02     	 .2byte 0x2ad
 3534 112e 0C       	 .byte 0xc
 3535 112f 1C130000 	 .4byte 0x131c
 3536 1133 DC02     	 .2byte 0x2dc
 3537 1135 3D       	 .uleb128 0x3d
 3538 1136 AE170000 	 .4byte .LASF171
 3539 113a 13       	 .byte 0x13
 3540 113b B202     	 .2byte 0x2b2
 3541 113d 10       	 .byte 0x10
 3542 113e 01120000 	 .4byte 0x1201
 3543 1142 E002     	 .2byte 0x2e0
 3544 1144 3D       	 .uleb128 0x3d
 3545 1145 B4120000 	 .4byte .LASF172
 3546 1149 13       	 .byte 0x13
 3547 114a B402     	 .2byte 0x2b4
 3548 114c 0A       	 .byte 0xa
 3549 114d 28130000 	 .4byte 0x1328
ARM GAS   			page 74


 3550 1151 EC02     	 .2byte 0x2ec
 3551 1153 00       	 .byte 0
 3552 1154 26       	 .uleb128 0x26
 3553 1155 04       	 .byte 0x4
 3554 1156 5A110000 	 .4byte 0x115a
 3555 115a 23       	 .uleb128 0x23
 3556 115b 01       	 .byte 0x1
 3557 115c 08       	 .byte 0x8
 3558 115d 0B0B0000 	 .4byte .LASF173
 3559 1161 11       	 .uleb128 0x11
 3560 1162 5A110000 	 .4byte 0x115a
 3561 1166 26       	 .uleb128 0x26
 3562 1167 04       	 .byte 0x4
 3563 1168 860E0000 	 .4byte 0xe86
 3564 116c 37       	 .uleb128 0x37
 3565 116d D4080000 	 .4byte 0x8d4
 3566 1171 8A110000 	 .4byte 0x118a
 3567 1175 0A       	 .uleb128 0xa
 3568 1176 A40E0000 	 .4byte 0xea4
 3569 117a 0A       	 .uleb128 0xa
 3570 117b 06090000 	 .4byte 0x906
 3571 117f 0A       	 .uleb128 0xa
 3572 1180 8A110000 	 .4byte 0x118a
 3573 1184 0A       	 .uleb128 0xa
 3574 1185 D4080000 	 .4byte 0x8d4
 3575 1189 00       	 .byte 0
 3576 118a 26       	 .uleb128 0x26
 3577 118b 04       	 .byte 0x4
 3578 118c 61110000 	 .4byte 0x1161
 3579 1190 26       	 .uleb128 0x26
 3580 1191 04       	 .byte 0x4
 3581 1192 6C110000 	 .4byte 0x116c
 3582 1196 37       	 .uleb128 0x37
 3583 1197 B50A0000 	 .4byte 0xab5
 3584 119b B4110000 	 .4byte 0x11b4
 3585 119f 0A       	 .uleb128 0xa
 3586 11a0 A40E0000 	 .4byte 0xea4
 3587 11a4 0A       	 .uleb128 0xa
 3588 11a5 06090000 	 .4byte 0x906
 3589 11a9 0A       	 .uleb128 0xa
 3590 11aa B50A0000 	 .4byte 0xab5
 3591 11ae 0A       	 .uleb128 0xa
 3592 11af D4080000 	 .4byte 0x8d4
 3593 11b3 00       	 .byte 0
 3594 11b4 26       	 .uleb128 0x26
 3595 11b5 04       	 .byte 0x4
 3596 11b6 96110000 	 .4byte 0x1196
 3597 11ba 37       	 .uleb128 0x37
 3598 11bb D4080000 	 .4byte 0x8d4
 3599 11bf CE110000 	 .4byte 0x11ce
 3600 11c3 0A       	 .uleb128 0xa
 3601 11c4 A40E0000 	 .4byte 0xea4
 3602 11c8 0A       	 .uleb128 0xa
 3603 11c9 06090000 	 .4byte 0x906
 3604 11cd 00       	 .byte 0
 3605 11ce 26       	 .uleb128 0x26
 3606 11cf 04       	 .byte 0x4
ARM GAS   			page 75


 3607 11d0 BA110000 	 .4byte 0x11ba
 3608 11d4 2E       	 .uleb128 0x2e
 3609 11d5 33090000 	 .4byte 0x933
 3610 11d9 E4110000 	 .4byte 0x11e4
 3611 11dd 2F       	 .uleb128 0x2f
 3612 11de EC080000 	 .4byte 0x8ec
 3613 11e2 02       	 .byte 0x2
 3614 11e3 00       	 .byte 0
 3615 11e4 2E       	 .uleb128 0x2e
 3616 11e5 33090000 	 .4byte 0x933
 3617 11e9 F4110000 	 .4byte 0x11f4
 3618 11ed 2F       	 .uleb128 0x2f
 3619 11ee EC080000 	 .4byte 0x8ec
 3620 11f2 00       	 .byte 0
 3621 11f3 00       	 .byte 0
 3622 11f4 14       	 .uleb128 0x14
 3623 11f5 47080000 	 .4byte .LASF174
 3624 11f9 13       	 .byte 0x13
 3625 11fa 2401     	 .2byte 0x124
 3626 11fc 1A       	 .byte 0x1a
 3627 11fd 430D0000 	 .4byte 0xd43
 3628 1201 3E       	 .uleb128 0x3e
 3629 1202 73010000 	 .4byte .LASF175
 3630 1206 0C       	 .byte 0xc
 3631 1207 13       	 .byte 0x13
 3632 1208 2801     	 .2byte 0x128
 3633 120a 08       	 .byte 0x8
 3634 120b 3A120000 	 .4byte 0x123a
 3635 120f 3B       	 .uleb128 0x3b
 3636 1210 D7090000 	 .4byte .LASF87
 3637 1214 13       	 .byte 0x13
 3638 1215 2A01     	 .2byte 0x12a
 3639 1217 11       	 .byte 0x11
 3640 1218 3A120000 	 .4byte 0x123a
 3641 121c 00       	 .byte 0
 3642 121d 3B       	 .uleb128 0x3b
 3643 121e EF140000 	 .4byte .LASF176
 3644 1222 13       	 .byte 0x13
 3645 1223 2B01     	 .2byte 0x12b
 3646 1225 07       	 .byte 0x7
 3647 1226 D4080000 	 .4byte 0x8d4
 3648 122a 04       	 .byte 0x4
 3649 122b 3B       	 .uleb128 0x3b
 3650 122c BC190000 	 .4byte .LASF177
 3651 1230 13       	 .byte 0x13
 3652 1231 2C01     	 .2byte 0x12c
 3653 1233 0B       	 .byte 0xb
 3654 1234 40120000 	 .4byte 0x1240
 3655 1238 08       	 .byte 0x8
 3656 1239 00       	 .byte 0
 3657 123a 26       	 .uleb128 0x26
 3658 123b 04       	 .byte 0x4
 3659 123c 01120000 	 .4byte 0x1201
 3660 1240 26       	 .uleb128 0x26
 3661 1241 04       	 .byte 0x4
 3662 1242 F4110000 	 .4byte 0x11f4
 3663 1246 3E       	 .uleb128 0x3e
ARM GAS   			page 76


 3664 1247 A6070000 	 .4byte .LASF178
 3665 124b 0E       	 .byte 0xe
 3666 124c 13       	 .byte 0x13
 3667 124d 4401     	 .2byte 0x144
 3668 124f 08       	 .byte 0x8
 3669 1250 7F120000 	 .4byte 0x127f
 3670 1254 3B       	 .uleb128 0x3b
 3671 1255 54190000 	 .4byte .LASF179
 3672 1259 13       	 .byte 0x13
 3673 125a 4501     	 .2byte 0x145
 3674 125c 12       	 .byte 0x12
 3675 125d 7F120000 	 .4byte 0x127f
 3676 1261 00       	 .byte 0
 3677 1262 3B       	 .uleb128 0x3b
 3678 1263 CF0D0000 	 .4byte .LASF180
 3679 1267 13       	 .byte 0x13
 3680 1268 4601     	 .2byte 0x146
 3681 126a 12       	 .byte 0x12
 3682 126b 7F120000 	 .4byte 0x127f
 3683 126f 06       	 .byte 0x6
 3684 1270 3B       	 .uleb128 0x3b
 3685 1271 D50D0000 	 .4byte .LASF181
 3686 1275 13       	 .byte 0x13
 3687 1276 4701     	 .2byte 0x147
 3688 1278 12       	 .byte 0x12
 3689 1279 3A090000 	 .4byte 0x93a
 3690 127d 0C       	 .byte 0xc
 3691 127e 00       	 .byte 0
 3692 127f 2E       	 .uleb128 0x2e
 3693 1280 3A090000 	 .4byte 0x93a
 3694 1284 8F120000 	 .4byte 0x128f
 3695 1288 2F       	 .uleb128 0x2f
 3696 1289 EC080000 	 .4byte 0x8ec
 3697 128d 02       	 .byte 0x2
 3698 128e 00       	 .byte 0
 3699 128f 2E       	 .uleb128 0x2e
 3700 1290 5A110000 	 .4byte 0x115a
 3701 1294 9F120000 	 .4byte 0x129f
 3702 1298 2F       	 .uleb128 0x2f
 3703 1299 EC080000 	 .4byte 0x8ec
 3704 129d 19       	 .byte 0x19
 3705 129e 00       	 .byte 0
 3706 129f 2E       	 .uleb128 0x2e
 3707 12a0 5A110000 	 .4byte 0x115a
 3708 12a4 AF120000 	 .4byte 0x12af
 3709 12a8 2F       	 .uleb128 0x2f
 3710 12a9 EC080000 	 .4byte 0x8ec
 3711 12ad 07       	 .byte 0x7
 3712 12ae 00       	 .byte 0
 3713 12af 2E       	 .uleb128 0x2e
 3714 12b0 5A110000 	 .4byte 0x115a
 3715 12b4 BF120000 	 .4byte 0x12bf
 3716 12b8 2F       	 .uleb128 0x2f
 3717 12b9 EC080000 	 .4byte 0x8ec
 3718 12bd 17       	 .byte 0x17
 3719 12be 00       	 .byte 0
 3720 12bf 2E       	 .uleb128 0x2e
ARM GAS   			page 77


 3721 12c0 3D0D0000 	 .4byte 0xd3d
 3722 12c4 CF120000 	 .4byte 0x12cf
 3723 12c8 2F       	 .uleb128 0x2f
 3724 12c9 EC080000 	 .4byte 0x8ec
 3725 12cd 1D       	 .byte 0x1d
 3726 12ce 00       	 .byte 0
 3727 12cf 2E       	 .uleb128 0x2e
 3728 12d0 EC080000 	 .4byte 0x8ec
 3729 12d4 DF120000 	 .4byte 0x12df
 3730 12d8 2F       	 .uleb128 0x2f
 3731 12d9 EC080000 	 .4byte 0x8ec
 3732 12dd 1D       	 .byte 0x1d
 3733 12de 00       	 .byte 0
 3734 12df 2E       	 .uleb128 0x2e
 3735 12e0 5A110000 	 .4byte 0x115a
 3736 12e4 EF120000 	 .4byte 0x12ef
 3737 12e8 2F       	 .uleb128 0x2f
 3738 12e9 EC080000 	 .4byte 0x8ec
 3739 12ed 18       	 .byte 0x18
 3740 12ee 00       	 .byte 0
 3741 12ef 32       	 .uleb128 0x32
 3742 12f0 5A190000 	 .4byte .LASF183
 3743 12f4 26       	 .uleb128 0x26
 3744 12f5 04       	 .byte 0x4
 3745 12f6 EF120000 	 .4byte 0x12ef
 3746 12fa 3F       	 .uleb128 0x3f
 3747 12fb 05130000 	 .4byte 0x1305
 3748 12ff 0A       	 .uleb128 0xa
 3749 1300 A40E0000 	 .4byte 0xea4
 3750 1304 00       	 .byte 0
 3751 1305 26       	 .uleb128 0x26
 3752 1306 04       	 .byte 0x4
 3753 1307 FA120000 	 .4byte 0x12fa
 3754 130b 26       	 .uleb128 0x26
 3755 130c 04       	 .byte 0x4
 3756 130d C70B0000 	 .4byte 0xbc7
 3757 1311 3F       	 .uleb128 0x3f
 3758 1312 1C130000 	 .4byte 0x131c
 3759 1316 0A       	 .uleb128 0xa
 3760 1317 D4080000 	 .4byte 0x8d4
 3761 131b 00       	 .byte 0
 3762 131c 26       	 .uleb128 0x26
 3763 131d 04       	 .byte 0x4
 3764 131e 22130000 	 .4byte 0x1322
 3765 1322 26       	 .uleb128 0x26
 3766 1323 04       	 .byte 0x4
 3767 1324 11130000 	 .4byte 0x1311
 3768 1328 2E       	 .uleb128 0x2e
 3769 1329 F4110000 	 .4byte 0x11f4
 3770 132d 38130000 	 .4byte 0x1338
 3771 1331 2F       	 .uleb128 0x2f
 3772 1332 EC080000 	 .4byte 0x8ec
 3773 1336 02       	 .byte 0x2
 3774 1337 00       	 .byte 0
 3775 1338 22       	 .uleb128 0x22
 3776 1339 E6080000 	 .4byte .LASF184
 3777 133d 15       	 .byte 0x15
ARM GAS   			page 78


 3778 133e 28       	 .byte 0x28
 3779 133f 1B       	 .byte 0x1b
 3780 1340 270B0000 	 .4byte 0xb27
 3781 1344 22       	 .uleb128 0x22
 3782 1345 21190000 	 .4byte .LASF185
 3783 1349 16       	 .byte 0x16
 3784 134a 4B       	 .byte 0x4b
 3785 134b 10       	 .byte 0x10
 3786 134c F4110000 	 .4byte 0x11f4
 3787 1350 22       	 .uleb128 0x22
 3788 1351 62150000 	 .4byte .LASF186
 3789 1355 16       	 .byte 0x16
 3790 1356 56       	 .byte 0x56
 3791 1357 14       	 .byte 0x14
 3792 1358 1B0B0000 	 .4byte 0xb1b
 3793 135c 11       	 .uleb128 0x11
 3794 135d 50130000 	 .4byte 0x1350
 3795 1361 40       	 .uleb128 0x40
 3796 1362 90110000 	 .4byte .LASF187
 3797 1366 16       	 .byte 0x16
 3798 1367 59       	 .byte 0x59
 3799 1368 08       	 .byte 0x8
 3800 1369 AC090000 	 .4byte 0x9ac
 3801 136d 77130000 	 .4byte 0x1377
 3802 1371 0A       	 .uleb128 0xa
 3803 1372 D4080000 	 .4byte 0x8d4
 3804 1376 00       	 .byte 0
 3805 1377 40       	 .uleb128 0x40
 3806 1378 7D180000 	 .4byte .LASF188
 3807 137c 16       	 .byte 0x16
 3808 137d E3       	 .byte 0xe3
 3809 137e 08       	 .byte 0x8
 3810 137f AC090000 	 .4byte 0x9ac
 3811 1383 8D130000 	 .4byte 0x138d
 3812 1387 0A       	 .uleb128 0xa
 3813 1388 40120000 	 .4byte 0x1240
 3814 138c 00       	 .byte 0
 3815 138d 40       	 .uleb128 0x40
 3816 138e 610F0000 	 .4byte .LASF189
 3817 1392 16       	 .byte 0x16
 3818 1393 E4       	 .byte 0xe4
 3819 1394 0A       	 .byte 0xa
 3820 1395 AD130000 	 .4byte 0x13ad
 3821 1399 AD130000 	 .4byte 0x13ad
 3822 139d 0A       	 .uleb128 0xa
 3823 139e AD130000 	 .4byte 0x13ad
 3824 13a2 0A       	 .uleb128 0xa
 3825 13a3 D4080000 	 .4byte 0x8d4
 3826 13a7 0A       	 .uleb128 0xa
 3827 13a8 40120000 	 .4byte 0x1240
 3828 13ac 00       	 .byte 0
 3829 13ad 26       	 .uleb128 0x26
 3830 13ae 04       	 .byte 0x4
 3831 13af 64090000 	 .4byte 0x964
 3832 13b3 40       	 .uleb128 0x40
 3833 13b4 B6100000 	 .4byte .LASF190
 3834 13b8 16       	 .byte 0x16
ARM GAS   			page 79


 3835 13b9 E5       	 .byte 0xe5
 3836 13ba 08       	 .byte 0x8
 3837 13bb AC090000 	 .4byte 0x9ac
 3838 13bf CE130000 	 .4byte 0x13ce
 3839 13c3 0A       	 .uleb128 0xa
 3840 13c4 64090000 	 .4byte 0x964
 3841 13c8 0A       	 .uleb128 0xa
 3842 13c9 40120000 	 .4byte 0x1240
 3843 13cd 00       	 .byte 0
 3844 13ce 40       	 .uleb128 0x40
 3845 13cf 08110000 	 .4byte .LASF191
 3846 13d3 16       	 .byte 0x16
 3847 13d4 E6       	 .byte 0xe6
 3848 13d5 05       	 .byte 0x5
 3849 13d6 D4080000 	 .4byte 0x8d4
 3850 13da E9130000 	 .4byte 0x13e9
 3851 13de 0A       	 .uleb128 0xa
 3852 13df E9130000 	 .4byte 0x13e9
 3853 13e3 0A       	 .uleb128 0xa
 3854 13e4 40120000 	 .4byte 0x1240
 3855 13e8 00       	 .byte 0
 3856 13e9 26       	 .uleb128 0x26
 3857 13ea 04       	 .byte 0x4
 3858 13eb 6B090000 	 .4byte 0x96b
 3859 13ef 40       	 .uleb128 0x40
 3860 13f0 F20A0000 	 .4byte .LASF192
 3861 13f4 16       	 .byte 0x16
 3862 13f5 E8       	 .byte 0xe8
 3863 13f6 05       	 .byte 0x5
 3864 13f7 D4080000 	 .4byte 0x8d4
 3865 13fb 0A140000 	 .4byte 0x140a
 3866 13ff 0A       	 .uleb128 0xa
 3867 1400 40120000 	 .4byte 0x1240
 3868 1404 0A       	 .uleb128 0xa
 3869 1405 D4080000 	 .4byte 0x8d4
 3870 1409 00       	 .byte 0
 3871 140a 41       	 .uleb128 0x41
 3872 140b C7160000 	 .4byte .LASF193
 3873 140f 16       	 .byte 0x16
 3874 1410 1C01     	 .2byte 0x11c
 3875 1412 05       	 .byte 0x5
 3876 1413 D4080000 	 .4byte 0x8d4
 3877 1417 27140000 	 .4byte 0x1427
 3878 141b 0A       	 .uleb128 0xa
 3879 141c 40120000 	 .4byte 0x1240
 3880 1420 0A       	 .uleb128 0xa
 3881 1421 E9130000 	 .4byte 0x13e9
 3882 1425 42       	 .uleb128 0x42
 3883 1426 00       	 .byte 0
 3884 1427 41       	 .uleb128 0x41
 3885 1428 6B040000 	 .4byte .LASF194
 3886 142c 16       	 .byte 0x16
 3887 142d 2F01     	 .2byte 0x12f
 3888 142f 05       	 .byte 0x5
 3889 1430 D4080000 	 .4byte 0x8d4
 3890 1434 44140000 	 .4byte 0x1444
 3891 1438 0A       	 .uleb128 0xa
ARM GAS   			page 80


 3892 1439 40120000 	 .4byte 0x1240
 3893 143d 0A       	 .uleb128 0xa
 3894 143e E9130000 	 .4byte 0x13e9
 3895 1442 42       	 .uleb128 0x42
 3896 1443 00       	 .byte 0
 3897 1444 40       	 .uleb128 0x40
 3898 1445 EE060000 	 .4byte .LASF195
 3899 1449 16       	 .byte 0x16
 3900 144a EA       	 .byte 0xea
 3901 144b 08       	 .byte 0x8
 3902 144c AC090000 	 .4byte 0x9ac
 3903 1450 5A140000 	 .4byte 0x145a
 3904 1454 0A       	 .uleb128 0xa
 3905 1455 40120000 	 .4byte 0x1240
 3906 1459 00       	 .byte 0
 3907 145a 43       	 .uleb128 0x43
 3908 145b 0E130000 	 .4byte .LASF299
 3909 145f 16       	 .byte 0x16
 3910 1460 EB       	 .byte 0xeb
 3911 1461 08       	 .byte 0x8
 3912 1462 AC090000 	 .4byte 0x9ac
 3913 1466 40       	 .uleb128 0x40
 3914 1467 5C120000 	 .4byte .LASF196
 3915 146b 16       	 .byte 0x16
 3916 146c 5B       	 .byte 0x5b
 3917 146d 08       	 .byte 0x8
 3918 146e E0080000 	 .4byte 0x8e0
 3919 1472 86140000 	 .4byte 0x1486
 3920 1476 0A       	 .uleb128 0xa
 3921 1477 8A110000 	 .4byte 0x118a
 3922 147b 0A       	 .uleb128 0xa
 3923 147c E0080000 	 .4byte 0x8e0
 3924 1480 0A       	 .uleb128 0xa
 3925 1481 86140000 	 .4byte 0x1486
 3926 1485 00       	 .byte 0
 3927 1486 26       	 .uleb128 0x26
 3928 1487 04       	 .byte 0x4
 3929 1488 50130000 	 .4byte 0x1350
 3930 148c 40       	 .uleb128 0x40
 3931 148d B3040000 	 .4byte .LASF197
 3932 1491 16       	 .byte 0x16
 3933 1492 5C       	 .byte 0x5c
 3934 1493 08       	 .byte 0x8
 3935 1494 E0080000 	 .4byte 0x8e0
 3936 1498 B1140000 	 .4byte 0x14b1
 3937 149c 0A       	 .uleb128 0xa
 3938 149d AD130000 	 .4byte 0x13ad
 3939 14a1 0A       	 .uleb128 0xa
 3940 14a2 8A110000 	 .4byte 0x118a
 3941 14a6 0A       	 .uleb128 0xa
 3942 14a7 E0080000 	 .4byte 0x8e0
 3943 14ab 0A       	 .uleb128 0xa
 3944 14ac 86140000 	 .4byte 0x1486
 3945 14b0 00       	 .byte 0
 3946 14b1 40       	 .uleb128 0x40
 3947 14b2 FE110000 	 .4byte .LASF198
 3948 14b6 16       	 .byte 0x16
ARM GAS   			page 81


 3949 14b7 60       	 .byte 0x60
 3950 14b8 05       	 .byte 0x5
 3951 14b9 D4080000 	 .4byte 0x8d4
 3952 14bd C7140000 	 .4byte 0x14c7
 3953 14c1 0A       	 .uleb128 0xa
 3954 14c2 C7140000 	 .4byte 0x14c7
 3955 14c6 00       	 .byte 0
 3956 14c7 26       	 .uleb128 0x26
 3957 14c8 04       	 .byte 0x4
 3958 14c9 5C130000 	 .4byte 0x135c
 3959 14cd 40       	 .uleb128 0x40
 3960 14ce 090D0000 	 .4byte .LASF199
 3961 14d2 16       	 .byte 0x16
 3962 14d3 67       	 .byte 0x67
 3963 14d4 08       	 .byte 0x8
 3964 14d5 E0080000 	 .4byte 0x8e0
 3965 14d9 F2140000 	 .4byte 0x14f2
 3966 14dd 0A       	 .uleb128 0xa
 3967 14de AD130000 	 .4byte 0x13ad
 3968 14e2 0A       	 .uleb128 0xa
 3969 14e3 F2140000 	 .4byte 0x14f2
 3970 14e7 0A       	 .uleb128 0xa
 3971 14e8 E0080000 	 .4byte 0x8e0
 3972 14ec 0A       	 .uleb128 0xa
 3973 14ed 86140000 	 .4byte 0x1486
 3974 14f1 00       	 .byte 0
 3975 14f2 26       	 .uleb128 0x26
 3976 14f3 04       	 .byte 0x4
 3977 14f4 8A110000 	 .4byte 0x118a
 3978 14f8 40       	 .uleb128 0x40
 3979 14f9 53090000 	 .4byte .LASF200
 3980 14fd 16       	 .byte 0x16
 3981 14fe EC       	 .byte 0xec
 3982 14ff 08       	 .byte 0x8
 3983 1500 AC090000 	 .4byte 0x9ac
 3984 1504 13150000 	 .4byte 0x1513
 3985 1508 0A       	 .uleb128 0xa
 3986 1509 64090000 	 .4byte 0x964
 3987 150d 0A       	 .uleb128 0xa
 3988 150e 40120000 	 .4byte 0x1240
 3989 1512 00       	 .byte 0
 3990 1513 40       	 .uleb128 0x40
 3991 1514 C0120000 	 .4byte .LASF201
 3992 1518 16       	 .byte 0x16
 3993 1519 ED       	 .byte 0xed
 3994 151a 08       	 .byte 0x8
 3995 151b AC090000 	 .4byte 0x9ac
 3996 151f 29150000 	 .4byte 0x1529
 3997 1523 0A       	 .uleb128 0xa
 3998 1524 64090000 	 .4byte 0x964
 3999 1528 00       	 .byte 0
 4000 1529 41       	 .uleb128 0x41
 4001 152a 77170000 	 .4byte .LASF202
 4002 152e 16       	 .byte 0x16
 4003 152f 1D01     	 .2byte 0x11d
 4004 1531 05       	 .byte 0x5
 4005 1532 D4080000 	 .4byte 0x8d4
ARM GAS   			page 82


 4006 1536 4B150000 	 .4byte 0x154b
 4007 153a 0A       	 .uleb128 0xa
 4008 153b AD130000 	 .4byte 0x13ad
 4009 153f 0A       	 .uleb128 0xa
 4010 1540 E0080000 	 .4byte 0x8e0
 4011 1544 0A       	 .uleb128 0xa
 4012 1545 E9130000 	 .4byte 0x13e9
 4013 1549 42       	 .uleb128 0x42
 4014 154a 00       	 .byte 0
 4015 154b 41       	 .uleb128 0x41
 4016 154c 430B0000 	 .4byte .LASF203
 4017 1550 16       	 .byte 0x16
 4018 1551 3001     	 .2byte 0x130
 4019 1553 05       	 .byte 0x5
 4020 1554 D4080000 	 .4byte 0x8d4
 4021 1558 68150000 	 .4byte 0x1568
 4022 155c 0A       	 .uleb128 0xa
 4023 155d E9130000 	 .4byte 0x13e9
 4024 1561 0A       	 .uleb128 0xa
 4025 1562 E9130000 	 .4byte 0x13e9
 4026 1566 42       	 .uleb128 0x42
 4027 1567 00       	 .byte 0
 4028 1568 40       	 .uleb128 0x40
 4029 1569 FB0F0000 	 .4byte .LASF204
 4030 156d 16       	 .byte 0x16
 4031 156e EE       	 .byte 0xee
 4032 156f 08       	 .byte 0x8
 4033 1570 AC090000 	 .4byte 0x9ac
 4034 1574 83150000 	 .4byte 0x1583
 4035 1578 0A       	 .uleb128 0xa
 4036 1579 AC090000 	 .4byte 0x9ac
 4037 157d 0A       	 .uleb128 0xa
 4038 157e 40120000 	 .4byte 0x1240
 4039 1582 00       	 .byte 0
 4040 1583 41       	 .uleb128 0x41
 4041 1584 B6080000 	 .4byte .LASF205
 4042 1588 16       	 .byte 0x16
 4043 1589 1F01     	 .2byte 0x11f
 4044 158b 05       	 .byte 0x5
 4045 158c D4080000 	 .4byte 0x8d4
 4046 1590 A4150000 	 .4byte 0x15a4
 4047 1594 0A       	 .uleb128 0xa
 4048 1595 40120000 	 .4byte 0x1240
 4049 1599 0A       	 .uleb128 0xa
 4050 159a E9130000 	 .4byte 0x13e9
 4051 159e 0A       	 .uleb128 0xa
 4052 159f 38130000 	 .4byte 0x1338
 4053 15a3 00       	 .byte 0
 4054 15a4 41       	 .uleb128 0x41
 4055 15a5 C1010000 	 .4byte .LASF206
 4056 15a9 16       	 .byte 0x16
 4057 15aa 3201     	 .2byte 0x132
 4058 15ac 05       	 .byte 0x5
 4059 15ad D4080000 	 .4byte 0x8d4
 4060 15b1 C5150000 	 .4byte 0x15c5
 4061 15b5 0A       	 .uleb128 0xa
 4062 15b6 40120000 	 .4byte 0x1240
ARM GAS   			page 83


 4063 15ba 0A       	 .uleb128 0xa
 4064 15bb E9130000 	 .4byte 0x13e9
 4065 15bf 0A       	 .uleb128 0xa
 4066 15c0 38130000 	 .4byte 0x1338
 4067 15c4 00       	 .byte 0
 4068 15c5 41       	 .uleb128 0x41
 4069 15c6 26190000 	 .4byte .LASF207
 4070 15ca 16       	 .byte 0x16
 4071 15cb 2101     	 .2byte 0x121
 4072 15cd 05       	 .byte 0x5
 4073 15ce D4080000 	 .4byte 0x8d4
 4074 15d2 EB150000 	 .4byte 0x15eb
 4075 15d6 0A       	 .uleb128 0xa
 4076 15d7 AD130000 	 .4byte 0x13ad
 4077 15db 0A       	 .uleb128 0xa
 4078 15dc E0080000 	 .4byte 0x8e0
 4079 15e0 0A       	 .uleb128 0xa
 4080 15e1 E9130000 	 .4byte 0x13e9
 4081 15e5 0A       	 .uleb128 0xa
 4082 15e6 38130000 	 .4byte 0x1338
 4083 15ea 00       	 .byte 0
 4084 15eb 41       	 .uleb128 0x41
 4085 15ec 9D080000 	 .4byte .LASF208
 4086 15f0 16       	 .byte 0x16
 4087 15f1 3401     	 .2byte 0x134
 4088 15f3 05       	 .byte 0x5
 4089 15f4 D4080000 	 .4byte 0x8d4
 4090 15f8 0C160000 	 .4byte 0x160c
 4091 15fc 0A       	 .uleb128 0xa
 4092 15fd E9130000 	 .4byte 0x13e9
 4093 1601 0A       	 .uleb128 0xa
 4094 1602 E9130000 	 .4byte 0x13e9
 4095 1606 0A       	 .uleb128 0xa
 4096 1607 38130000 	 .4byte 0x1338
 4097 160b 00       	 .byte 0
 4098 160c 41       	 .uleb128 0x41
 4099 160d 1B040000 	 .4byte .LASF209
 4100 1611 16       	 .byte 0x16
 4101 1612 2301     	 .2byte 0x123
 4102 1614 05       	 .byte 0x5
 4103 1615 D4080000 	 .4byte 0x8d4
 4104 1619 28160000 	 .4byte 0x1628
 4105 161d 0A       	 .uleb128 0xa
 4106 161e E9130000 	 .4byte 0x13e9
 4107 1622 0A       	 .uleb128 0xa
 4108 1623 38130000 	 .4byte 0x1338
 4109 1627 00       	 .byte 0
 4110 1628 41       	 .uleb128 0x41
 4111 1629 BF020000 	 .4byte .LASF210
 4112 162d 16       	 .byte 0x16
 4113 162e 3601     	 .2byte 0x136
 4114 1630 05       	 .byte 0x5
 4115 1631 D4080000 	 .4byte 0x8d4
 4116 1635 44160000 	 .4byte 0x1644
 4117 1639 0A       	 .uleb128 0xa
 4118 163a E9130000 	 .4byte 0x13e9
 4119 163e 0A       	 .uleb128 0xa
ARM GAS   			page 84


 4120 163f 38130000 	 .4byte 0x1338
 4121 1643 00       	 .byte 0
 4122 1644 40       	 .uleb128 0x40
 4123 1645 5C080000 	 .4byte .LASF211
 4124 1649 16       	 .byte 0x16
 4125 164a 6A       	 .byte 0x6a
 4126 164b 08       	 .byte 0x8
 4127 164c E0080000 	 .4byte 0x8e0
 4128 1650 64160000 	 .4byte 0x1664
 4129 1654 0A       	 .uleb128 0xa
 4130 1655 54110000 	 .4byte 0x1154
 4131 1659 0A       	 .uleb128 0xa
 4132 165a 64090000 	 .4byte 0x964
 4133 165e 0A       	 .uleb128 0xa
 4134 165f 86140000 	 .4byte 0x1486
 4135 1663 00       	 .byte 0
 4136 1664 40       	 .uleb128 0x40
 4137 1665 E2030000 	 .4byte .LASF212
 4138 1669 16       	 .byte 0x16
 4139 166a 79       	 .byte 0x79
 4140 166b 0A       	 .byte 0xa
 4141 166c AD130000 	 .4byte 0x13ad
 4142 1670 7F160000 	 .4byte 0x167f
 4143 1674 0A       	 .uleb128 0xa
 4144 1675 AD130000 	 .4byte 0x13ad
 4145 1679 0A       	 .uleb128 0xa
 4146 167a E9130000 	 .4byte 0x13e9
 4147 167e 00       	 .byte 0
 4148 167f 40       	 .uleb128 0x40
 4149 1680 A2180000 	 .4byte .LASF213
 4150 1684 16       	 .byte 0x16
 4151 1685 7B       	 .byte 0x7b
 4152 1686 05       	 .byte 0x5
 4153 1687 D4080000 	 .4byte 0x8d4
 4154 168b 9A160000 	 .4byte 0x169a
 4155 168f 0A       	 .uleb128 0xa
 4156 1690 E9130000 	 .4byte 0x13e9
 4157 1694 0A       	 .uleb128 0xa
 4158 1695 E9130000 	 .4byte 0x13e9
 4159 1699 00       	 .byte 0
 4160 169a 40       	 .uleb128 0x40
 4161 169b D7100000 	 .4byte .LASF214
 4162 169f 16       	 .byte 0x16
 4163 16a0 7C       	 .byte 0x7c
 4164 16a1 05       	 .byte 0x5
 4165 16a2 D4080000 	 .4byte 0x8d4
 4166 16a6 B5160000 	 .4byte 0x16b5
 4167 16aa 0A       	 .uleb128 0xa
 4168 16ab E9130000 	 .4byte 0x13e9
 4169 16af 0A       	 .uleb128 0xa
 4170 16b0 E9130000 	 .4byte 0x13e9
 4171 16b4 00       	 .byte 0
 4172 16b5 40       	 .uleb128 0x40
 4173 16b6 83030000 	 .4byte .LASF215
 4174 16ba 16       	 .byte 0x16
 4175 16bb 7D       	 .byte 0x7d
 4176 16bc 0A       	 .byte 0xa
ARM GAS   			page 85


 4177 16bd AD130000 	 .4byte 0x13ad
 4178 16c1 D0160000 	 .4byte 0x16d0
 4179 16c5 0A       	 .uleb128 0xa
 4180 16c6 AD130000 	 .4byte 0x13ad
 4181 16ca 0A       	 .uleb128 0xa
 4182 16cb E9130000 	 .4byte 0x13e9
 4183 16cf 00       	 .byte 0
 4184 16d0 40       	 .uleb128 0x40
 4185 16d1 27180000 	 .4byte .LASF216
 4186 16d5 16       	 .byte 0x16
 4187 16d6 84       	 .byte 0x84
 4188 16d7 08       	 .byte 0x8
 4189 16d8 E0080000 	 .4byte 0x8e0
 4190 16dc EB160000 	 .4byte 0x16eb
 4191 16e0 0A       	 .uleb128 0xa
 4192 16e1 E9130000 	 .4byte 0x13e9
 4193 16e5 0A       	 .uleb128 0xa
 4194 16e6 E9130000 	 .4byte 0x13e9
 4195 16ea 00       	 .byte 0
 4196 16eb 40       	 .uleb128 0x40
 4197 16ec 1C140000 	 .4byte .LASF217
 4198 16f0 16       	 .byte 0x16
 4199 16f1 85       	 .byte 0x85
 4200 16f2 09       	 .byte 0x9
 4201 16f3 E0080000 	 .4byte 0x8e0
 4202 16f7 10170000 	 .4byte 0x1710
 4203 16fb 0A       	 .uleb128 0xa
 4204 16fc AD130000 	 .4byte 0x13ad
 4205 1700 0A       	 .uleb128 0xa
 4206 1701 E0080000 	 .4byte 0x8e0
 4207 1705 0A       	 .uleb128 0xa
 4208 1706 E9130000 	 .4byte 0x13e9
 4209 170a 0A       	 .uleb128 0xa
 4210 170b 10170000 	 .4byte 0x1710
 4211 170f 00       	 .byte 0
 4212 1710 26       	 .uleb128 0x26
 4213 1711 04       	 .byte 0x4
 4214 1712 1A170000 	 .4byte 0x171a
 4215 1716 44       	 .uleb128 0x44
 4216 1717 746D00   	 .ascii "tm\000"
 4217 171a 11       	 .uleb128 0x11
 4218 171b 16170000 	 .4byte 0x1716
 4219 171f 40       	 .uleb128 0x40
 4220 1720 7B190000 	 .4byte .LASF218
 4221 1724 16       	 .byte 0x16
 4222 1725 8D       	 .byte 0x8d
 4223 1726 08       	 .byte 0x8
 4224 1727 E0080000 	 .4byte 0x8e0
 4225 172b 35170000 	 .4byte 0x1735
 4226 172f 0A       	 .uleb128 0xa
 4227 1730 E9130000 	 .4byte 0x13e9
 4228 1734 00       	 .byte 0
 4229 1735 40       	 .uleb128 0x40
 4230 1736 A9180000 	 .4byte .LASF219
 4231 173a 16       	 .byte 0x16
 4232 173b 91       	 .byte 0x91
 4233 173c 0A       	 .byte 0xa
ARM GAS   			page 86


 4234 173d AD130000 	 .4byte 0x13ad
 4235 1741 55170000 	 .4byte 0x1755
 4236 1745 0A       	 .uleb128 0xa
 4237 1746 AD130000 	 .4byte 0x13ad
 4238 174a 0A       	 .uleb128 0xa
 4239 174b E9130000 	 .4byte 0x13e9
 4240 174f 0A       	 .uleb128 0xa
 4241 1750 E0080000 	 .4byte 0x8e0
 4242 1754 00       	 .byte 0
 4243 1755 40       	 .uleb128 0x40
 4244 1756 A1130000 	 .4byte .LASF220
 4245 175a 16       	 .byte 0x16
 4246 175b 93       	 .byte 0x93
 4247 175c 05       	 .byte 0x5
 4248 175d D4080000 	 .4byte 0x8d4
 4249 1761 75170000 	 .4byte 0x1775
 4250 1765 0A       	 .uleb128 0xa
 4251 1766 E9130000 	 .4byte 0x13e9
 4252 176a 0A       	 .uleb128 0xa
 4253 176b E9130000 	 .4byte 0x13e9
 4254 176f 0A       	 .uleb128 0xa
 4255 1770 E0080000 	 .4byte 0x8e0
 4256 1774 00       	 .byte 0
 4257 1775 40       	 .uleb128 0x40
 4258 1776 75180000 	 .4byte .LASF221
 4259 177a 16       	 .byte 0x16
 4260 177b 94       	 .byte 0x94
 4261 177c 0A       	 .byte 0xa
 4262 177d AD130000 	 .4byte 0x13ad
 4263 1781 95170000 	 .4byte 0x1795
 4264 1785 0A       	 .uleb128 0xa
 4265 1786 AD130000 	 .4byte 0x13ad
 4266 178a 0A       	 .uleb128 0xa
 4267 178b E9130000 	 .4byte 0x13e9
 4268 178f 0A       	 .uleb128 0xa
 4269 1790 E0080000 	 .4byte 0x8e0
 4270 1794 00       	 .byte 0
 4271 1795 40       	 .uleb128 0x40
 4272 1796 18120000 	 .4byte .LASF222
 4273 179a 16       	 .byte 0x16
 4274 179b 72       	 .byte 0x72
 4275 179c 08       	 .byte 0x8
 4276 179d E0080000 	 .4byte 0x8e0
 4277 17a1 BA170000 	 .4byte 0x17ba
 4278 17a5 0A       	 .uleb128 0xa
 4279 17a6 54110000 	 .4byte 0x1154
 4280 17aa 0A       	 .uleb128 0xa
 4281 17ab BA170000 	 .4byte 0x17ba
 4282 17af 0A       	 .uleb128 0xa
 4283 17b0 E0080000 	 .4byte 0x8e0
 4284 17b4 0A       	 .uleb128 0xa
 4285 17b5 86140000 	 .4byte 0x1486
 4286 17b9 00       	 .byte 0
 4287 17ba 26       	 .uleb128 0x26
 4288 17bb 04       	 .byte 0x4
 4289 17bc E9130000 	 .4byte 0x13e9
 4290 17c0 40       	 .uleb128 0x40
ARM GAS   			page 87


 4291 17c1 570D0000 	 .4byte .LASF223
 4292 17c5 16       	 .byte 0x16
 4293 17c6 9D       	 .byte 0x9d
 4294 17c7 08       	 .byte 0x8
 4295 17c8 E0080000 	 .4byte 0x8e0
 4296 17cc DB170000 	 .4byte 0x17db
 4297 17d0 0A       	 .uleb128 0xa
 4298 17d1 E9130000 	 .4byte 0x13e9
 4299 17d5 0A       	 .uleb128 0xa
 4300 17d6 E9130000 	 .4byte 0x13e9
 4301 17da 00       	 .byte 0
 4302 17db 40       	 .uleb128 0x40
 4303 17dc 1C150000 	 .4byte .LASF224
 4304 17e0 16       	 .byte 0x16
 4305 17e1 A2       	 .byte 0xa2
 4306 17e2 08       	 .byte 0x8
 4307 17e3 7E090000 	 .4byte 0x97e
 4308 17e7 F6170000 	 .4byte 0x17f6
 4309 17eb 0A       	 .uleb128 0xa
 4310 17ec E9130000 	 .4byte 0x13e9
 4311 17f0 0A       	 .uleb128 0xa
 4312 17f1 F6170000 	 .4byte 0x17f6
 4313 17f5 00       	 .byte 0
 4314 17f6 26       	 .uleb128 0x26
 4315 17f7 04       	 .byte 0x4
 4316 17f8 AD130000 	 .4byte 0x13ad
 4317 17fc 40       	 .uleb128 0x40
 4318 17fd 500D0000 	 .4byte .LASF225
 4319 1801 16       	 .byte 0x16
 4320 1802 A5       	 .byte 0xa5
 4321 1803 07       	 .byte 0x7
 4322 1804 85090000 	 .4byte 0x985
 4323 1808 17180000 	 .4byte 0x1817
 4324 180c 0A       	 .uleb128 0xa
 4325 180d E9130000 	 .4byte 0x13e9
 4326 1811 0A       	 .uleb128 0xa
 4327 1812 F6170000 	 .4byte 0x17f6
 4328 1816 00       	 .byte 0
 4329 1817 40       	 .uleb128 0x40
 4330 1818 B80D0000 	 .4byte .LASF226
 4331 181c 16       	 .byte 0x16
 4332 181d A0       	 .byte 0xa0
 4333 181e 0A       	 .byte 0xa
 4334 181f AD130000 	 .4byte 0x13ad
 4335 1823 37180000 	 .4byte 0x1837
 4336 1827 0A       	 .uleb128 0xa
 4337 1828 AD130000 	 .4byte 0x13ad
 4338 182c 0A       	 .uleb128 0xa
 4339 182d E9130000 	 .4byte 0x13e9
 4340 1831 0A       	 .uleb128 0xa
 4341 1832 F6170000 	 .4byte 0x17f6
 4342 1836 00       	 .byte 0
 4343 1837 40       	 .uleb128 0x40
 4344 1838 73150000 	 .4byte .LASF227
 4345 183c 16       	 .byte 0x16
 4346 183d C3       	 .byte 0xc3
 4347 183e 09       	 .byte 0x9
ARM GAS   			page 88


 4348 183f 5D090000 	 .4byte 0x95d
 4349 1843 57180000 	 .4byte 0x1857
 4350 1847 0A       	 .uleb128 0xa
 4351 1848 E9130000 	 .4byte 0x13e9
 4352 184c 0A       	 .uleb128 0xa
 4353 184d F6170000 	 .4byte 0x17f6
 4354 1851 0A       	 .uleb128 0xa
 4355 1852 D4080000 	 .4byte 0x8d4
 4356 1856 00       	 .byte 0
 4357 1857 40       	 .uleb128 0x40
 4358 1858 E0070000 	 .4byte .LASF228
 4359 185c 16       	 .byte 0x16
 4360 185d C8       	 .byte 0xc8
 4361 185e 0F       	 .byte 0xf
 4362 185f 41090000 	 .4byte 0x941
 4363 1863 77180000 	 .4byte 0x1877
 4364 1867 0A       	 .uleb128 0xa
 4365 1868 E9130000 	 .4byte 0x13e9
 4366 186c 0A       	 .uleb128 0xa
 4367 186d F6170000 	 .4byte 0x17f6
 4368 1871 0A       	 .uleb128 0xa
 4369 1872 D4080000 	 .4byte 0x8d4
 4370 1876 00       	 .byte 0
 4371 1877 40       	 .uleb128 0x40
 4372 1878 6E000000 	 .4byte .LASF229
 4373 187c 16       	 .byte 0x16
 4374 187d AB       	 .byte 0xab
 4375 187e 08       	 .byte 0x8
 4376 187f E0080000 	 .4byte 0x8e0
 4377 1883 97180000 	 .4byte 0x1897
 4378 1887 0A       	 .uleb128 0xa
 4379 1888 AD130000 	 .4byte 0x13ad
 4380 188c 0A       	 .uleb128 0xa
 4381 188d E9130000 	 .4byte 0x13e9
 4382 1891 0A       	 .uleb128 0xa
 4383 1892 E0080000 	 .4byte 0x8e0
 4384 1896 00       	 .byte 0
 4385 1897 40       	 .uleb128 0x40
 4386 1898 41170000 	 .4byte .LASF230
 4387 189c 16       	 .byte 0x16
 4388 189d 5A       	 .byte 0x5a
 4389 189e 05       	 .byte 0x5
 4390 189f D4080000 	 .4byte 0x8d4
 4391 18a3 AD180000 	 .4byte 0x18ad
 4392 18a7 0A       	 .uleb128 0xa
 4393 18a8 AC090000 	 .4byte 0x9ac
 4394 18ac 00       	 .byte 0
 4395 18ad 40       	 .uleb128 0x40
 4396 18ae C2190000 	 .4byte .LASF231
 4397 18b2 16       	 .byte 0x16
 4398 18b3 B9       	 .byte 0xb9
 4399 18b4 05       	 .byte 0x5
 4400 18b5 D4080000 	 .4byte 0x8d4
 4401 18b9 CD180000 	 .4byte 0x18cd
 4402 18bd 0A       	 .uleb128 0xa
 4403 18be E9130000 	 .4byte 0x13e9
 4404 18c2 0A       	 .uleb128 0xa
ARM GAS   			page 89


 4405 18c3 E9130000 	 .4byte 0x13e9
 4406 18c7 0A       	 .uleb128 0xa
 4407 18c8 E0080000 	 .4byte 0x8e0
 4408 18cc 00       	 .byte 0
 4409 18cd 40       	 .uleb128 0x40
 4410 18ce 63120000 	 .4byte .LASF232
 4411 18d2 16       	 .byte 0x16
 4412 18d3 BA       	 .byte 0xba
 4413 18d4 0A       	 .byte 0xa
 4414 18d5 AD130000 	 .4byte 0x13ad
 4415 18d9 ED180000 	 .4byte 0x18ed
 4416 18dd 0A       	 .uleb128 0xa
 4417 18de AD130000 	 .4byte 0x13ad
 4418 18e2 0A       	 .uleb128 0xa
 4419 18e3 E9130000 	 .4byte 0x13e9
 4420 18e7 0A       	 .uleb128 0xa
 4421 18e8 E0080000 	 .4byte 0x8e0
 4422 18ec 00       	 .byte 0
 4423 18ed 40       	 .uleb128 0x40
 4424 18ee 430A0000 	 .4byte .LASF233
 4425 18f2 16       	 .byte 0x16
 4426 18f3 BC       	 .byte 0xbc
 4427 18f4 0A       	 .byte 0xa
 4428 18f5 AD130000 	 .4byte 0x13ad
 4429 18f9 0D190000 	 .4byte 0x190d
 4430 18fd 0A       	 .uleb128 0xa
 4431 18fe AD130000 	 .4byte 0x13ad
 4432 1902 0A       	 .uleb128 0xa
 4433 1903 E9130000 	 .4byte 0x13e9
 4434 1907 0A       	 .uleb128 0xa
 4435 1908 E0080000 	 .4byte 0x8e0
 4436 190c 00       	 .byte 0
 4437 190d 40       	 .uleb128 0x40
 4438 190e 8C150000 	 .4byte .LASF234
 4439 1912 16       	 .byte 0x16
 4440 1913 C1       	 .byte 0xc1
 4441 1914 0A       	 .byte 0xa
 4442 1915 AD130000 	 .4byte 0x13ad
 4443 1919 2D190000 	 .4byte 0x192d
 4444 191d 0A       	 .uleb128 0xa
 4445 191e AD130000 	 .4byte 0x13ad
 4446 1922 0A       	 .uleb128 0xa
 4447 1923 64090000 	 .4byte 0x964
 4448 1927 0A       	 .uleb128 0xa
 4449 1928 E0080000 	 .4byte 0x8e0
 4450 192c 00       	 .byte 0
 4451 192d 41       	 .uleb128 0x41
 4452 192e CE000000 	 .4byte .LASF235
 4453 1932 16       	 .byte 0x16
 4454 1933 2401     	 .2byte 0x124
 4455 1935 05       	 .byte 0x5
 4456 1936 D4080000 	 .4byte 0x8d4
 4457 193a 45190000 	 .4byte 0x1945
 4458 193e 0A       	 .uleb128 0xa
 4459 193f E9130000 	 .4byte 0x13e9
 4460 1943 42       	 .uleb128 0x42
 4461 1944 00       	 .byte 0
ARM GAS   			page 90


 4462 1945 41       	 .uleb128 0x41
 4463 1946 D60A0000 	 .4byte .LASF236
 4464 194a 16       	 .byte 0x16
 4465 194b 3701     	 .2byte 0x137
 4466 194d 05       	 .byte 0x5
 4467 194e D4080000 	 .4byte 0x8d4
 4468 1952 5D190000 	 .4byte 0x195d
 4469 1956 0A       	 .uleb128 0xa
 4470 1957 E9130000 	 .4byte 0x13e9
 4471 195b 42       	 .uleb128 0x42
 4472 195c 00       	 .byte 0
 4473 195d 40       	 .uleb128 0x40
 4474 195e 75100000 	 .4byte .LASF237
 4475 1962 16       	 .byte 0x16
 4476 1963 7A       	 .byte 0x7a
 4477 1964 0A       	 .byte 0xa
 4478 1965 AD130000 	 .4byte 0x13ad
 4479 1969 78190000 	 .4byte 0x1978
 4480 196d 0A       	 .uleb128 0xa
 4481 196e E9130000 	 .4byte 0x13e9
 4482 1972 0A       	 .uleb128 0xa
 4483 1973 64090000 	 .4byte 0x964
 4484 1977 00       	 .byte 0
 4485 1978 40       	 .uleb128 0x40
 4486 1979 23150000 	 .4byte .LASF238
 4487 197d 16       	 .byte 0x16
 4488 197e 9B       	 .byte 0x9b
 4489 197f 0A       	 .byte 0xa
 4490 1980 AD130000 	 .4byte 0x13ad
 4491 1984 93190000 	 .4byte 0x1993
 4492 1988 0A       	 .uleb128 0xa
 4493 1989 E9130000 	 .4byte 0x13e9
 4494 198d 0A       	 .uleb128 0xa
 4495 198e E9130000 	 .4byte 0x13e9
 4496 1992 00       	 .byte 0
 4497 1993 40       	 .uleb128 0x40
 4498 1994 C9120000 	 .4byte .LASF239
 4499 1998 16       	 .byte 0x16
 4500 1999 9C       	 .byte 0x9c
 4501 199a 0A       	 .byte 0xa
 4502 199b AD130000 	 .4byte 0x13ad
 4503 199f AE190000 	 .4byte 0x19ae
 4504 19a3 0A       	 .uleb128 0xa
 4505 19a4 E9130000 	 .4byte 0x13e9
 4506 19a8 0A       	 .uleb128 0xa
 4507 19a9 64090000 	 .4byte 0x964
 4508 19ad 00       	 .byte 0
 4509 19ae 40       	 .uleb128 0x40
 4510 19af 3C0A0000 	 .4byte .LASF240
 4511 19b3 16       	 .byte 0x16
 4512 19b4 9E       	 .byte 0x9e
 4513 19b5 0A       	 .byte 0xa
 4514 19b6 AD130000 	 .4byte 0x13ad
 4515 19ba C9190000 	 .4byte 0x19c9
 4516 19be 0A       	 .uleb128 0xa
 4517 19bf E9130000 	 .4byte 0x13e9
 4518 19c3 0A       	 .uleb128 0xa
ARM GAS   			page 91


 4519 19c4 E9130000 	 .4byte 0x13e9
 4520 19c8 00       	 .byte 0
 4521 19c9 40       	 .uleb128 0x40
 4522 19ca 06120000 	 .4byte .LASF241
 4523 19ce 16       	 .byte 0x16
 4524 19cf B8       	 .byte 0xb8
 4525 19d0 0A       	 .byte 0xa
 4526 19d1 AD130000 	 .4byte 0x13ad
 4527 19d5 E9190000 	 .4byte 0x19e9
 4528 19d9 0A       	 .uleb128 0xa
 4529 19da E9130000 	 .4byte 0x13e9
 4530 19de 0A       	 .uleb128 0xa
 4531 19df 64090000 	 .4byte 0x964
 4532 19e3 0A       	 .uleb128 0xa
 4533 19e4 E0080000 	 .4byte 0x8e0
 4534 19e8 00       	 .byte 0
 4535 19e9 40       	 .uleb128 0x40
 4536 19ea 33170000 	 .4byte .LASF242
 4537 19ee 16       	 .byte 0x16
 4538 19ef D3       	 .byte 0xd3
 4539 19f0 0D       	 .byte 0xd
 4540 19f1 FA080000 	 .4byte 0x8fa
 4541 19f5 041A0000 	 .4byte 0x1a04
 4542 19f9 0A       	 .uleb128 0xa
 4543 19fa E9130000 	 .4byte 0x13e9
 4544 19fe 0A       	 .uleb128 0xa
 4545 19ff F6170000 	 .4byte 0x17f6
 4546 1a03 00       	 .byte 0
 4547 1a04 40       	 .uleb128 0x40
 4548 1a05 63170000 	 .4byte .LASF243
 4549 1a09 16       	 .byte 0x16
 4550 1a0a C5       	 .byte 0xc5
 4551 1a0b 0B       	 .byte 0xb
 4552 1a0c F3080000 	 .4byte 0x8f3
 4553 1a10 241A0000 	 .4byte 0x1a24
 4554 1a14 0A       	 .uleb128 0xa
 4555 1a15 E9130000 	 .4byte 0x13e9
 4556 1a19 0A       	 .uleb128 0xa
 4557 1a1a F6170000 	 .4byte 0x17f6
 4558 1a1e 0A       	 .uleb128 0xa
 4559 1a1f D4080000 	 .4byte 0x8d4
 4560 1a23 00       	 .byte 0
 4561 1a24 40       	 .uleb128 0x40
 4562 1a25 32120000 	 .4byte .LASF244
 4563 1a29 16       	 .byte 0x16
 4564 1a2a CB       	 .byte 0xcb
 4565 1a2b 14       	 .byte 0x14
 4566 1a2c 48090000 	 .4byte 0x948
 4567 1a30 441A0000 	 .4byte 0x1a44
 4568 1a34 0A       	 .uleb128 0xa
 4569 1a35 E9130000 	 .4byte 0x13e9
 4570 1a39 0A       	 .uleb128 0xa
 4571 1a3a F6170000 	 .4byte 0x17f6
 4572 1a3e 0A       	 .uleb128 0xa
 4573 1a3f D4080000 	 .4byte 0x8d4
 4574 1a43 00       	 .byte 0
 4575 1a44 22       	 .uleb128 0x22
ARM GAS   			page 92


 4576 1a45 93040000 	 .4byte .LASF245
 4577 1a49 17       	 .byte 0x17
 4578 1a4a 14       	 .byte 0x14
 4579 1a4b 12       	 .byte 0x12
 4580 1a4c B9090000 	 .4byte 0x9b9
 4581 1a50 22       	 .uleb128 0x22
 4582 1a51 380C0000 	 .4byte .LASF246
 4583 1a55 17       	 .byte 0x17
 4584 1a56 18       	 .byte 0x18
 4585 1a57 13       	 .byte 0x13
 4586 1a58 C5090000 	 .4byte 0x9c5
 4587 1a5c 22       	 .uleb128 0x22
 4588 1a5d 8C060000 	 .4byte .LASF247
 4589 1a61 17       	 .byte 0x17
 4590 1a62 20       	 .byte 0x20
 4591 1a63 13       	 .byte 0x13
 4592 1a64 D1090000 	 .4byte 0x9d1
 4593 1a68 22       	 .uleb128 0x22
 4594 1a69 CE100000 	 .4byte .LASF248
 4595 1a6d 17       	 .byte 0x17
 4596 1a6e 24       	 .byte 0x24
 4597 1a6f 14       	 .byte 0x14
 4598 1a70 DD090000 	 .4byte 0x9dd
 4599 1a74 22       	 .uleb128 0x22
 4600 1a75 FD140000 	 .4byte .LASF249
 4601 1a79 17       	 .byte 0x17
 4602 1a7a 2C       	 .byte 0x2c
 4603 1a7b 13       	 .byte 0x13
 4604 1a7c E9090000 	 .4byte 0x9e9
 4605 1a80 22       	 .uleb128 0x22
 4606 1a81 8A040000 	 .4byte .LASF250
 4607 1a85 17       	 .byte 0x17
 4608 1a86 30       	 .byte 0x30
 4609 1a87 14       	 .byte 0x14
 4610 1a88 F5090000 	 .4byte 0x9f5
 4611 1a8c 22       	 .uleb128 0x22
 4612 1a8d 30090000 	 .4byte .LASF251
 4613 1a91 17       	 .byte 0x17
 4614 1a92 38       	 .byte 0x38
 4615 1a93 13       	 .byte 0x13
 4616 1a94 010A0000 	 .4byte 0xa01
 4617 1a98 22       	 .uleb128 0x22
 4618 1a99 39130000 	 .4byte .LASF252
 4619 1a9d 17       	 .byte 0x17
 4620 1a9e 3C       	 .byte 0x3c
 4621 1a9f 14       	 .byte 0x14
 4622 1aa0 0D0A0000 	 .4byte 0xa0d
 4623 1aa4 22       	 .uleb128 0x22
 4624 1aa5 66020000 	 .4byte .LASF253
 4625 1aa9 17       	 .byte 0x17
 4626 1aaa 43       	 .byte 0x43
 4627 1aab 14       	 .byte 0x14
 4628 1aac 790A0000 	 .4byte 0xa79
 4629 1ab0 22       	 .uleb128 0x22
 4630 1ab1 E4060000 	 .4byte .LASF254
 4631 1ab5 17       	 .byte 0x17
 4632 1ab6 48       	 .byte 0x48
ARM GAS   			page 93


 4633 1ab7 15       	 .byte 0x15
 4634 1ab8 850A0000 	 .4byte 0xa85
 4635 1abc 22       	 .uleb128 0x22
 4636 1abd BD100000 	 .4byte .LASF255
 4637 1ac1 17       	 .byte 0x17
 4638 1ac2 4D       	 .byte 0x4d
 4639 1ac3 14       	 .byte 0x14
 4640 1ac4 910A0000 	 .4byte 0xa91
 4641 1ac8 22       	 .uleb128 0x22
 4642 1ac9 BD140000 	 .4byte .LASF256
 4643 1acd 17       	 .byte 0x17
 4644 1ace 52       	 .byte 0x52
 4645 1acf 15       	 .byte 0x15
 4646 1ad0 9D0A0000 	 .4byte 0xa9d
 4647 1ad4 22       	 .uleb128 0x22
 4648 1ad5 23090000 	 .4byte .LASF257
 4649 1ad9 18       	 .byte 0x18
 4650 1ada 15       	 .byte 0x15
 4651 1adb 18       	 .byte 0x18
 4652 1adc 190A0000 	 .4byte 0xa19
 4653 1ae0 22       	 .uleb128 0x22
 4654 1ae1 6B090000 	 .4byte .LASF258
 4655 1ae5 18       	 .byte 0x18
 4656 1ae6 16       	 .byte 0x16
 4657 1ae7 19       	 .byte 0x19
 4658 1ae8 250A0000 	 .4byte 0xa25
 4659 1aec 22       	 .uleb128 0x22
 4660 1aed D6060000 	 .4byte .LASF259
 4661 1af1 18       	 .byte 0x18
 4662 1af2 1B       	 .byte 0x1b
 4663 1af3 19       	 .byte 0x19
 4664 1af4 310A0000 	 .4byte 0xa31
 4665 1af8 22       	 .uleb128 0x22
 4666 1af9 7B040000 	 .4byte .LASF260
 4667 1afd 18       	 .byte 0x18
 4668 1afe 1C       	 .byte 0x1c
 4669 1aff 1A       	 .byte 0x1a
 4670 1b00 3D0A0000 	 .4byte 0xa3d
 4671 1b04 22       	 .uleb128 0x22
 4672 1b05 05150000 	 .4byte .LASF261
 4673 1b09 18       	 .byte 0x18
 4674 1b0a 21       	 .byte 0x21
 4675 1b0b 19       	 .byte 0x19
 4676 1b0c 490A0000 	 .4byte 0xa49
 4677 1b10 22       	 .uleb128 0x22
 4678 1b11 5C140000 	 .4byte .LASF262
 4679 1b15 18       	 .byte 0x18
 4680 1b16 22       	 .byte 0x22
 4681 1b17 1A       	 .byte 0x1a
 4682 1b18 550A0000 	 .4byte 0xa55
 4683 1b1c 22       	 .uleb128 0x22
 4684 1b1d 38090000 	 .4byte .LASF263
 4685 1b21 18       	 .byte 0x18
 4686 1b22 27       	 .byte 0x27
 4687 1b23 19       	 .byte 0x19
 4688 1b24 610A0000 	 .4byte 0xa61
 4689 1b28 22       	 .uleb128 0x22
ARM GAS   			page 94


 4690 1b29 64080000 	 .4byte .LASF264
 4691 1b2d 18       	 .byte 0x18
 4692 1b2e 28       	 .byte 0x28
 4693 1b2f 1A       	 .byte 0x1a
 4694 1b30 6D0A0000 	 .4byte 0xa6d
 4695 1b34 22       	 .uleb128 0x22
 4696 1b35 400F0000 	 .4byte .LASF265
 4697 1b39 18       	 .byte 0x18
 4698 1b3a 33       	 .byte 0x33
 4699 1b3b 1E       	 .byte 0x1e
 4700 1b3c D4080000 	 .4byte 0x8d4
 4701 1b40 22       	 .uleb128 0x22
 4702 1b41 97160000 	 .4byte .LASF266
 4703 1b45 18       	 .byte 0x18
 4704 1b46 34       	 .byte 0x34
 4705 1b47 1F       	 .byte 0x1f
 4706 1b48 EC080000 	 .4byte 0x8ec
 4707 1b4c 22       	 .uleb128 0x22
 4708 1b4d 7D020000 	 .4byte .LASF267
 4709 1b51 18       	 .byte 0x18
 4710 1b52 3D       	 .byte 0x3d
 4711 1b53 1F       	 .byte 0x1f
 4712 1b54 D4080000 	 .4byte 0x8d4
 4713 1b58 22       	 .uleb128 0x22
 4714 1b59 07000000 	 .4byte .LASF268
 4715 1b5d 18       	 .byte 0x18
 4716 1b5e 3E       	 .byte 0x3e
 4717 1b5f 20       	 .byte 0x20
 4718 1b60 EC080000 	 .4byte 0x8ec
 4719 1b64 22       	 .uleb128 0x22
 4720 1b65 DF110000 	 .4byte .LASF269
 4721 1b69 18       	 .byte 0x18
 4722 1b6a 47       	 .byte 0x47
 4723 1b6b 1F       	 .byte 0x1f
 4724 1b6c D4080000 	 .4byte 0x8d4
 4725 1b70 22       	 .uleb128 0x22
 4726 1b71 D60F0000 	 .4byte .LASF270
 4727 1b75 18       	 .byte 0x18
 4728 1b76 48       	 .byte 0x48
 4729 1b77 20       	 .byte 0x20
 4730 1b78 EC080000 	 .4byte 0x8ec
 4731 1b7c 22       	 .uleb128 0x22
 4732 1b7d C0080000 	 .4byte .LASF271
 4733 1b81 18       	 .byte 0x18
 4734 1b82 51       	 .byte 0x51
 4735 1b83 1F       	 .byte 0x1f
 4736 1b84 F3080000 	 .4byte 0x8f3
 4737 1b88 22       	 .uleb128 0x22
 4738 1b89 6F020000 	 .4byte .LASF272
 4739 1b8d 18       	 .byte 0x18
 4740 1b8e 52       	 .byte 0x52
 4741 1b8f 20       	 .byte 0x20
 4742 1b90 48090000 	 .4byte 0x948
 4743 1b94 26       	 .uleb128 0x26
 4744 1b95 04       	 .byte 0x4
 4745 1b96 9A1B0000 	 .4byte 0x1b9a
 4746 1b9a 45       	 .uleb128 0x45
ARM GAS   			page 95


 4747 1b9b 17       	 .uleb128 0x17
 4748 1b9c E9140000 	 .4byte .LASF273
 4749 1ba0 38       	 .byte 0x38
 4750 1ba1 19       	 .byte 0x19
 4751 1ba2 2A       	 .byte 0x2a
 4752 1ba3 08       	 .byte 0x8
 4753 1ba4 E11C0000 	 .4byte 0x1ce1
 4754 1ba8 07       	 .uleb128 0x7
 4755 1ba9 E9030000 	 .4byte .LASF274
 4756 1bad 19       	 .byte 0x19
 4757 1bae 2C       	 .byte 0x2c
 4758 1baf 09       	 .byte 0x9
 4759 1bb0 54110000 	 .4byte 0x1154
 4760 1bb4 00       	 .byte 0
 4761 1bb5 07       	 .uleb128 0x7
 4762 1bb6 65160000 	 .4byte .LASF275
 4763 1bba 19       	 .byte 0x19
 4764 1bbb 2D       	 .byte 0x2d
 4765 1bbc 09       	 .byte 0x9
 4766 1bbd 54110000 	 .4byte 0x1154
 4767 1bc1 04       	 .byte 0x4
 4768 1bc2 07       	 .uleb128 0x7
 4769 1bc3 C00A0000 	 .4byte .LASF276
 4770 1bc7 19       	 .byte 0x19
 4771 1bc8 2E       	 .byte 0x2e
 4772 1bc9 09       	 .byte 0x9
 4773 1bca 54110000 	 .4byte 0x1154
 4774 1bce 08       	 .byte 0x8
 4775 1bcf 07       	 .uleb128 0x7
 4776 1bd0 22120000 	 .4byte .LASF277
 4777 1bd4 19       	 .byte 0x19
 4778 1bd5 2F       	 .byte 0x2f
 4779 1bd6 09       	 .byte 0x9
 4780 1bd7 54110000 	 .4byte 0x1154
 4781 1bdb 0C       	 .byte 0xc
 4782 1bdc 07       	 .uleb128 0x7
 4783 1bdd C7020000 	 .4byte .LASF278
 4784 1be1 19       	 .byte 0x19
 4785 1be2 30       	 .byte 0x30
 4786 1be3 09       	 .byte 0x9
 4787 1be4 54110000 	 .4byte 0x1154
 4788 1be8 10       	 .byte 0x10
 4789 1be9 07       	 .uleb128 0x7
 4790 1bea 10030000 	 .4byte .LASF279
 4791 1bee 19       	 .byte 0x19
 4792 1bef 31       	 .byte 0x31
 4793 1bf0 09       	 .byte 0x9
 4794 1bf1 54110000 	 .4byte 0x1154
 4795 1bf5 14       	 .byte 0x14
 4796 1bf6 07       	 .uleb128 0x7
 4797 1bf7 7A150000 	 .4byte .LASF280
 4798 1bfb 19       	 .byte 0x19
 4799 1bfc 32       	 .byte 0x32
 4800 1bfd 09       	 .byte 0x9
 4801 1bfe 54110000 	 .4byte 0x1154
 4802 1c02 18       	 .byte 0x18
 4803 1c03 07       	 .uleb128 0x7
ARM GAS   			page 96


 4804 1c04 DA0D0000 	 .4byte .LASF281
 4805 1c08 19       	 .byte 0x19
 4806 1c09 33       	 .byte 0x33
 4807 1c0a 09       	 .byte 0x9
 4808 1c0b 54110000 	 .4byte 0x1154
 4809 1c0f 1C       	 .byte 0x1c
 4810 1c10 07       	 .uleb128 0x7
 4811 1c11 24130000 	 .4byte .LASF282
 4812 1c15 19       	 .byte 0x19
 4813 1c16 34       	 .byte 0x34
 4814 1c17 09       	 .byte 0x9
 4815 1c18 54110000 	 .4byte 0x1154
 4816 1c1c 20       	 .byte 0x20
 4817 1c1d 07       	 .uleb128 0x7
 4818 1c1e 6F0A0000 	 .4byte .LASF283
 4819 1c22 19       	 .byte 0x19
 4820 1c23 35       	 .byte 0x35
 4821 1c24 09       	 .byte 0x9
 4822 1c25 54110000 	 .4byte 0x1154
 4823 1c29 24       	 .byte 0x24
 4824 1c2a 07       	 .uleb128 0x7
 4825 1c2b DD090000 	 .4byte .LASF284
 4826 1c2f 19       	 .byte 0x19
 4827 1c30 36       	 .byte 0x36
 4828 1c31 08       	 .byte 0x8
 4829 1c32 5A110000 	 .4byte 0x115a
 4830 1c36 28       	 .byte 0x28
 4831 1c37 07       	 .uleb128 0x7
 4832 1c38 50120000 	 .4byte .LASF285
 4833 1c3c 19       	 .byte 0x19
 4834 1c3d 37       	 .byte 0x37
 4835 1c3e 08       	 .byte 0x8
 4836 1c3f 5A110000 	 .4byte 0x115a
 4837 1c43 29       	 .byte 0x29
 4838 1c44 07       	 .uleb128 0x7
 4839 1c45 300E0000 	 .4byte .LASF286
 4840 1c49 19       	 .byte 0x19
 4841 1c4a 38       	 .byte 0x38
 4842 1c4b 08       	 .byte 0x8
 4843 1c4c 5A110000 	 .4byte 0x115a
 4844 1c50 2A       	 .byte 0x2a
 4845 1c51 07       	 .uleb128 0x7
 4846 1c52 A4040000 	 .4byte .LASF287
 4847 1c56 19       	 .byte 0x19
 4848 1c57 39       	 .byte 0x39
 4849 1c58 08       	 .byte 0x8
 4850 1c59 5A110000 	 .4byte 0x115a
 4851 1c5d 2B       	 .byte 0x2b
 4852 1c5e 07       	 .uleb128 0x7
 4853 1c5f 34180000 	 .4byte .LASF288
 4854 1c63 19       	 .byte 0x19
 4855 1c64 3A       	 .byte 0x3a
 4856 1c65 08       	 .byte 0x8
 4857 1c66 5A110000 	 .4byte 0x115a
 4858 1c6a 2C       	 .byte 0x2c
 4859 1c6b 07       	 .uleb128 0x7
 4860 1c6c 04040000 	 .4byte .LASF289
ARM GAS   			page 97


 4861 1c70 19       	 .byte 0x19
 4862 1c71 3B       	 .byte 0x3b
 4863 1c72 08       	 .byte 0x8
 4864 1c73 5A110000 	 .4byte 0x115a
 4865 1c77 2D       	 .byte 0x2d
 4866 1c78 07       	 .uleb128 0x7
 4867 1c79 F5080000 	 .4byte .LASF290
 4868 1c7d 19       	 .byte 0x19
 4869 1c7e 3C       	 .byte 0x3c
 4870 1c7f 08       	 .byte 0x8
 4871 1c80 5A110000 	 .4byte 0x115a
 4872 1c84 2E       	 .byte 0x2e
 4873 1c85 07       	 .uleb128 0x7
 4874 1c86 8D120000 	 .4byte .LASF291
 4875 1c8a 19       	 .byte 0x19
 4876 1c8b 3D       	 .byte 0x3d
 4877 1c8c 08       	 .byte 0x8
 4878 1c8d 5A110000 	 .4byte 0x115a
 4879 1c91 2F       	 .byte 0x2f
 4880 1c92 07       	 .uleb128 0x7
 4881 1c93 4C0A0000 	 .4byte .LASF292
 4882 1c97 19       	 .byte 0x19
 4883 1c98 3E       	 .byte 0x3e
 4884 1c99 08       	 .byte 0x8
 4885 1c9a 5A110000 	 .4byte 0x115a
 4886 1c9e 30       	 .byte 0x30
 4887 1c9f 07       	 .uleb128 0x7
 4888 1ca0 42130000 	 .4byte .LASF293
 4889 1ca4 19       	 .byte 0x19
 4890 1ca5 3F       	 .byte 0x3f
 4891 1ca6 08       	 .byte 0x8
 4892 1ca7 5A110000 	 .4byte 0x115a
 4893 1cab 31       	 .byte 0x31
 4894 1cac 07       	 .uleb128 0x7
 4895 1cad E8070000 	 .4byte .LASF294
 4896 1cb1 19       	 .byte 0x19
 4897 1cb2 40       	 .byte 0x40
 4898 1cb3 08       	 .byte 0x8
 4899 1cb4 5A110000 	 .4byte 0x115a
 4900 1cb8 32       	 .byte 0x32
 4901 1cb9 07       	 .uleb128 0x7
 4902 1cba 28000000 	 .4byte .LASF295
 4903 1cbe 19       	 .byte 0x19
 4904 1cbf 41       	 .byte 0x41
 4905 1cc0 08       	 .byte 0x8
 4906 1cc1 5A110000 	 .4byte 0x115a
 4907 1cc5 33       	 .byte 0x33
 4908 1cc6 07       	 .uleb128 0x7
 4909 1cc7 2A140000 	 .4byte .LASF296
 4910 1ccb 19       	 .byte 0x19
 4911 1ccc 42       	 .byte 0x42
 4912 1ccd 08       	 .byte 0x8
 4913 1cce 5A110000 	 .4byte 0x115a
 4914 1cd2 34       	 .byte 0x34
 4915 1cd3 07       	 .uleb128 0x7
 4916 1cd4 65190000 	 .4byte .LASF297
 4917 1cd8 19       	 .byte 0x19
ARM GAS   			page 98


 4918 1cd9 43       	 .byte 0x43
 4919 1cda 08       	 .byte 0x8
 4920 1cdb 5A110000 	 .4byte 0x115a
 4921 1cdf 35       	 .byte 0x35
 4922 1ce0 00       	 .byte 0
 4923 1ce1 40       	 .uleb128 0x40
 4924 1ce2 94150000 	 .4byte .LASF298
 4925 1ce6 19       	 .byte 0x19
 4926 1ce7 52       	 .byte 0x52
 4927 1ce8 07       	 .byte 0x7
 4928 1ce9 54110000 	 .4byte 0x1154
 4929 1ced FC1C0000 	 .4byte 0x1cfc
 4930 1cf1 0A       	 .uleb128 0xa
 4931 1cf2 D4080000 	 .4byte 0x8d4
 4932 1cf6 0A       	 .uleb128 0xa
 4933 1cf7 8A110000 	 .4byte 0x118a
 4934 1cfb 00       	 .byte 0
 4935 1cfc 43       	 .uleb128 0x43
 4936 1cfd 30080000 	 .4byte .LASF300
 4937 1d01 19       	 .byte 0x19
 4938 1d02 53       	 .byte 0x53
 4939 1d03 0F       	 .byte 0xf
 4940 1d04 081D0000 	 .4byte 0x1d08
 4941 1d08 26       	 .uleb128 0x26
 4942 1d09 04       	 .byte 0x4
 4943 1d0a 9B1B0000 	 .4byte 0x1b9b
 4944 1d0e 22       	 .uleb128 0x22
 4945 1d0f A6080000 	 .4byte .LASF301
 4946 1d13 01       	 .byte 0x1
 4947 1d14 1F       	 .byte 0x1f
 4948 1d15 0D       	 .byte 0xd
 4949 1d16 D4080000 	 .4byte 0x8d4
 4950 1d1a 2B       	 .uleb128 0x2b
 4951 1d1b 08       	 .byte 0x8
 4952 1d1c 1A       	 .byte 0x1a
 4953 1d1d 24       	 .byte 0x24
 4954 1d1e 01       	 .byte 0x1
 4955 1d1f 86010000 	 .4byte .LASF303
 4956 1d23 421D0000 	 .4byte 0x1d42
 4957 1d27 07       	 .uleb128 0x7
 4958 1d28 C80C0000 	 .4byte .LASF304
 4959 1d2c 1A       	 .byte 0x1a
 4960 1d2d 25       	 .byte 0x25
 4961 1d2e 07       	 .byte 0x7
 4962 1d2f D4080000 	 .4byte 0x8d4
 4963 1d33 00       	 .byte 0
 4964 1d34 33       	 .uleb128 0x33
 4965 1d35 72656D00 	 .ascii "rem\000"
 4966 1d39 1A       	 .byte 0x1a
 4967 1d3a 26       	 .byte 0x26
 4968 1d3b 07       	 .byte 0x7
 4969 1d3c D4080000 	 .4byte 0x8d4
 4970 1d40 04       	 .byte 0x4
 4971 1d41 00       	 .byte 0
 4972 1d42 22       	 .uleb128 0x22
 4973 1d43 3B170000 	 .4byte .LASF305
 4974 1d47 1A       	 .byte 0x1a
ARM GAS   			page 99


 4975 1d48 27       	 .byte 0x27
 4976 1d49 03       	 .byte 0x3
 4977 1d4a 1A1D0000 	 .4byte 0x1d1a
 4978 1d4e 2B       	 .uleb128 0x2b
 4979 1d4f 08       	 .byte 0x8
 4980 1d50 1A       	 .byte 0x1a
 4981 1d51 2A       	 .byte 0x2a
 4982 1d52 01       	 .byte 0x1
 4983 1d53 5B170000 	 .4byte .LASF306
 4984 1d57 761D0000 	 .4byte 0x1d76
 4985 1d5b 07       	 .uleb128 0x7
 4986 1d5c C80C0000 	 .4byte .LASF304
 4987 1d60 1A       	 .byte 0x1a
 4988 1d61 2B       	 .byte 0x2b
 4989 1d62 08       	 .byte 0x8
 4990 1d63 5D090000 	 .4byte 0x95d
 4991 1d67 00       	 .byte 0
 4992 1d68 33       	 .uleb128 0x33
 4993 1d69 72656D00 	 .ascii "rem\000"
 4994 1d6d 1A       	 .byte 0x1a
 4995 1d6e 2C       	 .byte 0x2c
 4996 1d6f 08       	 .byte 0x8
 4997 1d70 5D090000 	 .4byte 0x95d
 4998 1d74 04       	 .byte 0x4
 4999 1d75 00       	 .byte 0
 5000 1d76 22       	 .uleb128 0x22
 5001 1d77 EA130000 	 .4byte .LASF307
 5002 1d7b 1A       	 .byte 0x1a
 5003 1d7c 2D       	 .byte 0x2d
 5004 1d7d 03       	 .byte 0x3
 5005 1d7e 4E1D0000 	 .4byte 0x1d4e
 5006 1d82 2B       	 .uleb128 0x2b
 5007 1d83 10       	 .byte 0x10
 5008 1d84 1A       	 .byte 0x1a
 5009 1d85 31       	 .byte 0x31
 5010 1d86 01       	 .byte 0x1
 5011 1d87 D2170000 	 .4byte .LASF308
 5012 1d8b AA1D0000 	 .4byte 0x1daa
 5013 1d8f 07       	 .uleb128 0x7
 5014 1d90 C80C0000 	 .4byte .LASF304
 5015 1d94 1A       	 .byte 0x1a
 5016 1d95 32       	 .byte 0x32
 5017 1d96 11       	 .byte 0x11
 5018 1d97 F3080000 	 .4byte 0x8f3
 5019 1d9b 00       	 .byte 0
 5020 1d9c 33       	 .uleb128 0x33
 5021 1d9d 72656D00 	 .ascii "rem\000"
 5022 1da1 1A       	 .byte 0x1a
 5023 1da2 33       	 .byte 0x33
 5024 1da3 11       	 .byte 0x11
 5025 1da4 F3080000 	 .4byte 0x8f3
 5026 1da8 08       	 .byte 0x8
 5027 1da9 00       	 .byte 0
 5028 1daa 22       	 .uleb128 0x22
 5029 1dab 1A180000 	 .4byte .LASF309
 5030 1daf 1A       	 .byte 0x1a
 5031 1db0 34       	 .byte 0x34
ARM GAS   			page 100


 5032 1db1 03       	 .byte 0x3
 5033 1db2 821D0000 	 .4byte 0x1d82
 5034 1db6 22       	 .uleb128 0x22
 5035 1db7 1E170000 	 .4byte .LASF310
 5036 1dbb 1A       	 .byte 0x1a
 5037 1dbc 39       	 .byte 0x39
 5038 1dbd 0F       	 .byte 0xf
 5039 1dbe C21D0000 	 .4byte 0x1dc2
 5040 1dc2 26       	 .uleb128 0x26
 5041 1dc3 04       	 .byte 0x4
 5042 1dc4 C81D0000 	 .4byte 0x1dc8
 5043 1dc8 37       	 .uleb128 0x37
 5044 1dc9 D4080000 	 .4byte 0x8d4
 5045 1dcd DC1D0000 	 .4byte 0x1ddc
 5046 1dd1 0A       	 .uleb128 0xa
 5047 1dd2 941B0000 	 .4byte 0x1b94
 5048 1dd6 0A       	 .uleb128 0xa
 5049 1dd7 941B0000 	 .4byte 0x1b94
 5050 1ddb 00       	 .byte 0
 5051 1ddc 40       	 .uleb128 0x40
 5052 1ddd B9120000 	 .4byte .LASF311
 5053 1de1 1A       	 .byte 0x1a
 5054 1de2 4C       	 .byte 0x4c
 5055 1de3 05       	 .byte 0x5
 5056 1de4 D4080000 	 .4byte 0x8d4
 5057 1de8 F21D0000 	 .4byte 0x1df2
 5058 1dec 0A       	 .uleb128 0xa
 5059 1ded 0E0D0000 	 .4byte 0xd0e
 5060 1df1 00       	 .byte 0
 5061 1df2 40       	 .uleb128 0x40
 5062 1df3 22180000 	 .4byte .LASF312
 5063 1df7 1A       	 .byte 0x1a
 5064 1df8 4D       	 .byte 0x4d
 5065 1df9 08       	 .byte 0x8
 5066 1dfa 7E090000 	 .4byte 0x97e
 5067 1dfe 081E0000 	 .4byte 0x1e08
 5068 1e02 0A       	 .uleb128 0xa
 5069 1e03 8A110000 	 .4byte 0x118a
 5070 1e07 00       	 .byte 0
 5071 1e08 40       	 .uleb128 0x40
 5072 1e09 2F180000 	 .4byte .LASF313
 5073 1e0d 1A       	 .byte 0x1a
 5074 1e0e 51       	 .byte 0x51
 5075 1e0f 05       	 .byte 0x5
 5076 1e10 D4080000 	 .4byte 0x8d4
 5077 1e14 1E1E0000 	 .4byte 0x1e1e
 5078 1e18 0A       	 .uleb128 0xa
 5079 1e19 8A110000 	 .4byte 0x118a
 5080 1e1d 00       	 .byte 0
 5081 1e1e 40       	 .uleb128 0x40
 5082 1e1f 42180000 	 .4byte .LASF314
 5083 1e23 1A       	 .byte 0x1a
 5084 1e24 53       	 .byte 0x53
 5085 1e25 06       	 .byte 0x6
 5086 1e26 5D090000 	 .4byte 0x95d
 5087 1e2a 341E0000 	 .4byte 0x1e34
 5088 1e2e 0A       	 .uleb128 0xa
ARM GAS   			page 101


 5089 1e2f 8A110000 	 .4byte 0x118a
 5090 1e33 00       	 .byte 0
 5091 1e34 40       	 .uleb128 0x40
 5092 1e35 94090000 	 .4byte .LASF315
 5093 1e39 1A       	 .byte 0x1a
 5094 1e3a 55       	 .byte 0x55
 5095 1e3b 08       	 .byte 0x8
 5096 1e3c 06090000 	 .4byte 0x906
 5097 1e40 5E1E0000 	 .4byte 0x1e5e
 5098 1e44 0A       	 .uleb128 0xa
 5099 1e45 941B0000 	 .4byte 0x1b94
 5100 1e49 0A       	 .uleb128 0xa
 5101 1e4a 941B0000 	 .4byte 0x1b94
 5102 1e4e 0A       	 .uleb128 0xa
 5103 1e4f E0080000 	 .4byte 0x8e0
 5104 1e53 0A       	 .uleb128 0xa
 5105 1e54 E0080000 	 .4byte 0x8e0
 5106 1e58 0A       	 .uleb128 0xa
 5107 1e59 B61D0000 	 .4byte 0x1db6
 5108 1e5d 00       	 .byte 0
 5109 1e5e 46       	 .uleb128 0x46
 5110 1e5f 64697600 	 .ascii "div\000"
 5111 1e63 1A       	 .byte 0x1a
 5112 1e64 5C       	 .byte 0x5c
 5113 1e65 07       	 .byte 0x7
 5114 1e66 421D0000 	 .4byte 0x1d42
 5115 1e6a 791E0000 	 .4byte 0x1e79
 5116 1e6e 0A       	 .uleb128 0xa
 5117 1e6f D4080000 	 .4byte 0x8d4
 5118 1e73 0A       	 .uleb128 0xa
 5119 1e74 D4080000 	 .4byte 0x8d4
 5120 1e78 00       	 .byte 0
 5121 1e79 40       	 .uleb128 0x40
 5122 1e7a 00000000 	 .4byte .LASF316
 5123 1e7e 1A       	 .byte 0x1a
 5124 1e7f 5F       	 .byte 0x5f
 5125 1e80 09       	 .byte 0x9
 5126 1e81 54110000 	 .4byte 0x1154
 5127 1e85 8F1E0000 	 .4byte 0x1e8f
 5128 1e89 0A       	 .uleb128 0xa
 5129 1e8a 8A110000 	 .4byte 0x118a
 5130 1e8e 00       	 .byte 0
 5131 1e8f 40       	 .uleb128 0x40
 5132 1e90 520F0000 	 .4byte .LASF317
 5133 1e94 1A       	 .byte 0x1a
 5134 1e95 6B       	 .byte 0x6b
 5135 1e96 08       	 .byte 0x8
 5136 1e97 761D0000 	 .4byte 0x1d76
 5137 1e9b AA1E0000 	 .4byte 0x1eaa
 5138 1e9f 0A       	 .uleb128 0xa
 5139 1ea0 5D090000 	 .4byte 0x95d
 5140 1ea4 0A       	 .uleb128 0xa
 5141 1ea5 5D090000 	 .4byte 0x95d
 5142 1ea9 00       	 .byte 0
 5143 1eaa 40       	 .uleb128 0x40
 5144 1eab 0F020000 	 .4byte .LASF318
 5145 1eaf 1A       	 .byte 0x1a
ARM GAS   			page 102


 5146 1eb0 6D       	 .byte 0x6d
 5147 1eb1 05       	 .byte 0x5
 5148 1eb2 D4080000 	 .4byte 0x8d4
 5149 1eb6 C51E0000 	 .4byte 0x1ec5
 5150 1eba 0A       	 .uleb128 0xa
 5151 1ebb 8A110000 	 .4byte 0x118a
 5152 1ebf 0A       	 .uleb128 0xa
 5153 1ec0 E0080000 	 .4byte 0x8e0
 5154 1ec4 00       	 .byte 0
 5155 1ec5 40       	 .uleb128 0x40
 5156 1ec6 340D0000 	 .4byte .LASF319
 5157 1eca 1A       	 .byte 0x1a
 5158 1ecb 73       	 .byte 0x73
 5159 1ecc 08       	 .byte 0x8
 5160 1ecd E0080000 	 .4byte 0x8e0
 5161 1ed1 E51E0000 	 .4byte 0x1ee5
 5162 1ed5 0A       	 .uleb128 0xa
 5163 1ed6 AD130000 	 .4byte 0x13ad
 5164 1eda 0A       	 .uleb128 0xa
 5165 1edb 8A110000 	 .4byte 0x118a
 5166 1edf 0A       	 .uleb128 0xa
 5167 1ee0 E0080000 	 .4byte 0x8e0
 5168 1ee4 00       	 .byte 0
 5169 1ee5 40       	 .uleb128 0x40
 5170 1ee6 C6040000 	 .4byte .LASF320
 5171 1eea 1A       	 .byte 0x1a
 5172 1eeb 6F       	 .byte 0x6f
 5173 1eec 05       	 .byte 0x5
 5174 1eed D4080000 	 .4byte 0x8d4
 5175 1ef1 051F0000 	 .4byte 0x1f05
 5176 1ef5 0A       	 .uleb128 0xa
 5177 1ef6 AD130000 	 .4byte 0x13ad
 5178 1efa 0A       	 .uleb128 0xa
 5179 1efb 8A110000 	 .4byte 0x118a
 5180 1eff 0A       	 .uleb128 0xa
 5181 1f00 E0080000 	 .4byte 0x8e0
 5182 1f04 00       	 .byte 0
 5183 1f05 47       	 .uleb128 0x47
 5184 1f06 CA190000 	 .4byte .LASF322
 5185 1f0a 1A       	 .byte 0x1a
 5186 1f0b 8F       	 .byte 0x8f
 5187 1f0c 06       	 .byte 0x6
 5188 1f0d 261F0000 	 .4byte 0x1f26
 5189 1f11 0A       	 .uleb128 0xa
 5190 1f12 06090000 	 .4byte 0x906
 5191 1f16 0A       	 .uleb128 0xa
 5192 1f17 E0080000 	 .4byte 0x8e0
 5193 1f1b 0A       	 .uleb128 0xa
 5194 1f1c E0080000 	 .4byte 0x8e0
 5195 1f20 0A       	 .uleb128 0xa
 5196 1f21 B61D0000 	 .4byte 0x1db6
 5197 1f25 00       	 .byte 0
 5198 1f26 43       	 .uleb128 0x43
 5199 1f27 8E000000 	 .4byte .LASF321
 5200 1f2b 1A       	 .byte 0x1a
 5201 1f2c 90       	 .byte 0x90
 5202 1f2d 05       	 .byte 0x5
ARM GAS   			page 103


 5203 1f2e D4080000 	 .4byte 0x8d4
 5204 1f32 47       	 .uleb128 0x47
 5205 1f33 A80F0000 	 .4byte .LASF323
 5206 1f37 1A       	 .byte 0x1a
 5207 1f38 9F       	 .byte 0x9f
 5208 1f39 06       	 .byte 0x6
 5209 1f3a 441F0000 	 .4byte 0x1f44
 5210 1f3e 0A       	 .uleb128 0xa
 5211 1f3f EC080000 	 .4byte 0x8ec
 5212 1f43 00       	 .byte 0
 5213 1f44 40       	 .uleb128 0x40
 5214 1f45 13090000 	 .4byte .LASF324
 5215 1f49 1A       	 .byte 0x1a
 5216 1f4a A0       	 .byte 0xa0
 5217 1f4b 08       	 .byte 0x8
 5218 1f4c 7E090000 	 .4byte 0x97e
 5219 1f50 5F1F0000 	 .4byte 0x1f5f
 5220 1f54 0A       	 .uleb128 0xa
 5221 1f55 8A110000 	 .4byte 0x118a
 5222 1f59 0A       	 .uleb128 0xa
 5223 1f5a 5F1F0000 	 .4byte 0x1f5f
 5224 1f5e 00       	 .byte 0
 5225 1f5f 26       	 .uleb128 0x26
 5226 1f60 04       	 .byte 0x4
 5227 1f61 54110000 	 .4byte 0x1154
 5228 1f65 40       	 .uleb128 0x40
 5229 1f66 C0160000 	 .4byte .LASF325
 5230 1f6a 1A       	 .byte 0x1a
 5231 1f6b AB       	 .byte 0xab
 5232 1f6c 06       	 .byte 0x6
 5233 1f6d 5D090000 	 .4byte 0x95d
 5234 1f71 851F0000 	 .4byte 0x1f85
 5235 1f75 0A       	 .uleb128 0xa
 5236 1f76 8A110000 	 .4byte 0x118a
 5237 1f7a 0A       	 .uleb128 0xa
 5238 1f7b 5F1F0000 	 .4byte 0x1f5f
 5239 1f7f 0A       	 .uleb128 0xa
 5240 1f80 D4080000 	 .4byte 0x8d4
 5241 1f84 00       	 .byte 0
 5242 1f85 40       	 .uleb128 0x40
 5243 1f86 E1140000 	 .4byte .LASF326
 5244 1f8a 1A       	 .byte 0x1a
 5245 1f8b AD       	 .byte 0xad
 5246 1f8c 0F       	 .byte 0xf
 5247 1f8d 41090000 	 .4byte 0x941
 5248 1f91 A51F0000 	 .4byte 0x1fa5
 5249 1f95 0A       	 .uleb128 0xa
 5250 1f96 8A110000 	 .4byte 0x118a
 5251 1f9a 0A       	 .uleb128 0xa
 5252 1f9b 5F1F0000 	 .4byte 0x1f5f
 5253 1f9f 0A       	 .uleb128 0xa
 5254 1fa0 D4080000 	 .4byte 0x8d4
 5255 1fa4 00       	 .byte 0
 5256 1fa5 40       	 .uleb128 0x40
 5257 1fa6 18010000 	 .4byte .LASF327
 5258 1faa 1A       	 .byte 0x1a
 5259 1fab BF       	 .byte 0xbf
ARM GAS   			page 104


 5260 1fac 05       	 .byte 0x5
 5261 1fad D4080000 	 .4byte 0x8d4
 5262 1fb1 BB1F0000 	 .4byte 0x1fbb
 5263 1fb5 0A       	 .uleb128 0xa
 5264 1fb6 8A110000 	 .4byte 0x118a
 5265 1fba 00       	 .byte 0
 5266 1fbb 40       	 .uleb128 0x40
 5267 1fbc B7160000 	 .4byte .LASF328
 5268 1fc0 1A       	 .byte 0x1a
 5269 1fc1 75       	 .byte 0x75
 5270 1fc2 08       	 .byte 0x8
 5271 1fc3 E0080000 	 .4byte 0x8e0
 5272 1fc7 DB1F0000 	 .4byte 0x1fdb
 5273 1fcb 0A       	 .uleb128 0xa
 5274 1fcc 54110000 	 .4byte 0x1154
 5275 1fd0 0A       	 .uleb128 0xa
 5276 1fd1 E9130000 	 .4byte 0x13e9
 5277 1fd5 0A       	 .uleb128 0xa
 5278 1fd6 E0080000 	 .4byte 0x8e0
 5279 1fda 00       	 .byte 0
 5280 1fdb 40       	 .uleb128 0x40
 5281 1fdc F8070000 	 .4byte .LASF329
 5282 1fe0 1A       	 .byte 0x1a
 5283 1fe1 71       	 .byte 0x71
 5284 1fe2 05       	 .byte 0x5
 5285 1fe3 D4080000 	 .4byte 0x8d4
 5286 1fe7 F61F0000 	 .4byte 0x1ff6
 5287 1feb 0A       	 .uleb128 0xa
 5288 1fec 54110000 	 .4byte 0x1154
 5289 1ff0 0A       	 .uleb128 0xa
 5290 1ff1 64090000 	 .4byte 0x964
 5291 1ff5 00       	 .byte 0
 5292 1ff6 41       	 .uleb128 0x41
 5293 1ff7 87080000 	 .4byte .LASF330
 5294 1ffb 1A       	 .byte 0x1a
 5295 1ffc 0C01     	 .2byte 0x10c
 5296 1ffe 09       	 .byte 0x9
 5297 1fff AA1D0000 	 .4byte 0x1daa
 5298 2003 12200000 	 .4byte 0x2012
 5299 2007 0A       	 .uleb128 0xa
 5300 2008 F3080000 	 .4byte 0x8f3
 5301 200c 0A       	 .uleb128 0xa
 5302 200d F3080000 	 .4byte 0x8f3
 5303 2011 00       	 .byte 0
 5304 2012 41       	 .uleb128 0x41
 5305 2013 8D080000 	 .4byte .LASF331
 5306 2017 1A       	 .byte 0x1a
 5307 2018 0701     	 .2byte 0x107
 5308 201a 0B       	 .byte 0xb
 5309 201b F3080000 	 .4byte 0x8f3
 5310 201f 29200000 	 .4byte 0x2029
 5311 2023 0A       	 .uleb128 0xa
 5312 2024 8A110000 	 .4byte 0x118a
 5313 2028 00       	 .byte 0
 5314 2029 41       	 .uleb128 0x41
 5315 202a 73040000 	 .4byte .LASF332
 5316 202e 1A       	 .byte 0x1a
ARM GAS   			page 105


 5317 202f 0D01     	 .2byte 0x10d
 5318 2031 0B       	 .byte 0xb
 5319 2032 F3080000 	 .4byte 0x8f3
 5320 2036 4A200000 	 .4byte 0x204a
 5321 203a 0A       	 .uleb128 0xa
 5322 203b 8A110000 	 .4byte 0x118a
 5323 203f 0A       	 .uleb128 0xa
 5324 2040 5F1F0000 	 .4byte 0x1f5f
 5325 2044 0A       	 .uleb128 0xa
 5326 2045 D4080000 	 .4byte 0x8d4
 5327 2049 00       	 .byte 0
 5328 204a 41       	 .uleb128 0x41
 5329 204b 65000000 	 .4byte .LASF333
 5330 204f 1A       	 .byte 0x1a
 5331 2050 1101     	 .2byte 0x111
 5332 2052 14       	 .byte 0x14
 5333 2053 48090000 	 .4byte 0x948
 5334 2057 6B200000 	 .4byte 0x206b
 5335 205b 0A       	 .uleb128 0xa
 5336 205c 8A110000 	 .4byte 0x118a
 5337 2060 0A       	 .uleb128 0xa
 5338 2061 5F1F0000 	 .4byte 0x1f5f
 5339 2065 0A       	 .uleb128 0xa
 5340 2066 D4080000 	 .4byte 0x8d4
 5341 206a 00       	 .byte 0
 5342 206b 40       	 .uleb128 0x40
 5343 206c 90160000 	 .4byte .LASF334
 5344 2070 1A       	 .byte 0x1a
 5345 2071 A3       	 .byte 0xa3
 5346 2072 07       	 .byte 0x7
 5347 2073 85090000 	 .4byte 0x985
 5348 2077 86200000 	 .4byte 0x2086
 5349 207b 0A       	 .uleb128 0xa
 5350 207c 8A110000 	 .4byte 0x118a
 5351 2080 0A       	 .uleb128 0xa
 5352 2081 5F1F0000 	 .4byte 0x1f5f
 5353 2085 00       	 .byte 0
 5354 2086 41       	 .uleb128 0x41
 5355 2087 C3170000 	 .4byte .LASF335
 5356 208b 1A       	 .byte 0x1a
 5357 208c 4401     	 .2byte 0x144
 5358 208e 14       	 .byte 0x14
 5359 208f FA080000 	 .4byte 0x8fa
 5360 2093 A2200000 	 .4byte 0x20a2
 5361 2097 0A       	 .uleb128 0xa
 5362 2098 8A110000 	 .4byte 0x118a
 5363 209c 0A       	 .uleb128 0xa
 5364 209d 5F1F0000 	 .4byte 0x1f5f
 5365 20a1 00       	 .byte 0
 5366 20a2 22       	 .uleb128 0x22
 5367 20a3 CD040000 	 .4byte .LASF336
 5368 20a7 1B       	 .byte 0x1b
 5369 20a8 49       	 .byte 0x49
 5370 20a9 11       	 .byte 0x11
 5371 20aa B50A0000 	 .4byte 0xab5
 5372 20ae 11       	 .uleb128 0x11
 5373 20af A2200000 	 .4byte 0x20a2
ARM GAS   			page 106


 5374 20b3 47       	 .uleb128 0x47
 5375 20b4 F8090000 	 .4byte .LASF337
 5376 20b8 1B       	 .byte 0x1b
 5377 20b9 EE       	 .byte 0xee
 5378 20ba 06       	 .byte 0x6
 5379 20bb C5200000 	 .4byte 0x20c5
 5380 20bf 0A       	 .uleb128 0xa
 5381 20c0 C5200000 	 .4byte 0x20c5
 5382 20c4 00       	 .byte 0
 5383 20c5 26       	 .uleb128 0x26
 5384 20c6 04       	 .byte 0x4
 5385 20c7 44130000 	 .4byte 0x1344
 5386 20cb 40       	 .uleb128 0x40
 5387 20cc 55130000 	 .4byte .LASF338
 5388 20d0 1B       	 .byte 0x1b
 5389 20d1 BF       	 .byte 0xbf
 5390 20d2 05       	 .byte 0x5
 5391 20d3 D4080000 	 .4byte 0x8d4
 5392 20d7 E1200000 	 .4byte 0x20e1
 5393 20db 0A       	 .uleb128 0xa
 5394 20dc C5200000 	 .4byte 0x20c5
 5395 20e0 00       	 .byte 0
 5396 20e1 40       	 .uleb128 0x40
 5397 20e2 A4160000 	 .4byte .LASF339
 5398 20e6 1B       	 .byte 0x1b
 5399 20e7 EF       	 .byte 0xef
 5400 20e8 05       	 .byte 0x5
 5401 20e9 D4080000 	 .4byte 0x8d4
 5402 20ed F7200000 	 .4byte 0x20f7
 5403 20f1 0A       	 .uleb128 0xa
 5404 20f2 C5200000 	 .4byte 0x20c5
 5405 20f6 00       	 .byte 0
 5406 20f7 40       	 .uleb128 0x40
 5407 20f8 570B0000 	 .4byte .LASF340
 5408 20fc 1B       	 .byte 0x1b
 5409 20fd F0       	 .byte 0xf0
 5410 20fe 05       	 .byte 0x5
 5411 20ff D4080000 	 .4byte 0x8d4
 5412 2103 0D210000 	 .4byte 0x210d
 5413 2107 0A       	 .uleb128 0xa
 5414 2108 C5200000 	 .4byte 0x20c5
 5415 210c 00       	 .byte 0
 5416 210d 40       	 .uleb128 0x40
 5417 210e 8D010000 	 .4byte .LASF341
 5418 2112 1B       	 .byte 0x1b
 5419 2113 C0       	 .byte 0xc0
 5420 2114 05       	 .byte 0x5
 5421 2115 D4080000 	 .4byte 0x8d4
 5422 2119 23210000 	 .4byte 0x2123
 5423 211d 0A       	 .uleb128 0xa
 5424 211e C5200000 	 .4byte 0x20c5
 5425 2122 00       	 .byte 0
 5426 2123 40       	 .uleb128 0x40
 5427 2124 1E100000 	 .4byte .LASF342
 5428 2128 1B       	 .byte 0x1b
 5429 2129 D4       	 .byte 0xd4
 5430 212a 05       	 .byte 0x5
ARM GAS   			page 107


 5431 212b D4080000 	 .4byte 0x8d4
 5432 212f 39210000 	 .4byte 0x2139
 5433 2133 0A       	 .uleb128 0xa
 5434 2134 C5200000 	 .4byte 0x20c5
 5435 2138 00       	 .byte 0
 5436 2139 40       	 .uleb128 0x40
 5437 213a 1F060000 	 .4byte .LASF343
 5438 213e 1B       	 .byte 0x1b
 5439 213f E4       	 .byte 0xe4
 5440 2140 05       	 .byte 0x5
 5441 2141 D4080000 	 .4byte 0x8d4
 5442 2145 54210000 	 .4byte 0x2154
 5443 2149 0A       	 .uleb128 0xa
 5444 214a C5200000 	 .4byte 0x20c5
 5445 214e 0A       	 .uleb128 0xa
 5446 214f 54210000 	 .4byte 0x2154
 5447 2153 00       	 .byte 0
 5448 2154 26       	 .uleb128 0x26
 5449 2155 04       	 .byte 0x4
 5450 2156 A2200000 	 .4byte 0x20a2
 5451 215a 40       	 .uleb128 0x40
 5452 215b 66100000 	 .4byte .LASF344
 5453 215f 1B       	 .byte 0x1b
 5454 2160 D5       	 .byte 0xd5
 5455 2161 09       	 .byte 0x9
 5456 2162 54110000 	 .4byte 0x1154
 5457 2166 7A210000 	 .4byte 0x217a
 5458 216a 0A       	 .uleb128 0xa
 5459 216b 54110000 	 .4byte 0x1154
 5460 216f 0A       	 .uleb128 0xa
 5461 2170 D4080000 	 .4byte 0x8d4
 5462 2174 0A       	 .uleb128 0xa
 5463 2175 C5200000 	 .4byte 0x20c5
 5464 2179 00       	 .byte 0
 5465 217a 40       	 .uleb128 0x40
 5466 217b 24100000 	 .4byte .LASF345
 5467 217f 1B       	 .byte 0x1b
 5468 2180 F3       	 .byte 0xf3
 5469 2181 08       	 .byte 0x8
 5470 2182 C5200000 	 .4byte 0x20c5
 5471 2186 95210000 	 .4byte 0x2195
 5472 218a 0A       	 .uleb128 0xa
 5473 218b 8A110000 	 .4byte 0x118a
 5474 218f 0A       	 .uleb128 0xa
 5475 2190 8A110000 	 .4byte 0x118a
 5476 2194 00       	 .byte 0
 5477 2195 40       	 .uleb128 0x40
 5478 2196 7D120000 	 .4byte .LASF346
 5479 219a 1B       	 .byte 0x1b
 5480 219b DF       	 .byte 0xdf
 5481 219c 08       	 .byte 0x8
 5482 219d E0080000 	 .4byte 0x8e0
 5483 21a1 BA210000 	 .4byte 0x21ba
 5484 21a5 0A       	 .uleb128 0xa
 5485 21a6 06090000 	 .4byte 0x906
 5486 21aa 0A       	 .uleb128 0xa
 5487 21ab E0080000 	 .4byte 0x8e0
ARM GAS   			page 108


 5488 21af 0A       	 .uleb128 0xa
 5489 21b0 E0080000 	 .4byte 0x8e0
 5490 21b4 0A       	 .uleb128 0xa
 5491 21b5 C5200000 	 .4byte 0x20c5
 5492 21b9 00       	 .byte 0
 5493 21ba 40       	 .uleb128 0x40
 5494 21bb 7D0A0000 	 .4byte .LASF347
 5495 21bf 1B       	 .byte 0x1b
 5496 21c0 C1       	 .byte 0xc1
 5497 21c1 08       	 .byte 0x8
 5498 21c2 C5200000 	 .4byte 0x20c5
 5499 21c6 DA210000 	 .4byte 0x21da
 5500 21ca 0A       	 .uleb128 0xa
 5501 21cb 8A110000 	 .4byte 0x118a
 5502 21cf 0A       	 .uleb128 0xa
 5503 21d0 8A110000 	 .4byte 0x118a
 5504 21d4 0A       	 .uleb128 0xa
 5505 21d5 C5200000 	 .4byte 0x20c5
 5506 21d9 00       	 .byte 0
 5507 21da 40       	 .uleb128 0x40
 5508 21db 4C0F0000 	 .4byte .LASF348
 5509 21df 1B       	 .byte 0x1b
 5510 21e0 E6       	 .byte 0xe6
 5511 21e1 05       	 .byte 0x5
 5512 21e2 D4080000 	 .4byte 0x8d4
 5513 21e6 FA210000 	 .4byte 0x21fa
 5514 21ea 0A       	 .uleb128 0xa
 5515 21eb C5200000 	 .4byte 0x20c5
 5516 21ef 0A       	 .uleb128 0xa
 5517 21f0 5D090000 	 .4byte 0x95d
 5518 21f4 0A       	 .uleb128 0xa
 5519 21f5 D4080000 	 .4byte 0x8d4
 5520 21f9 00       	 .byte 0
 5521 21fa 40       	 .uleb128 0x40
 5522 21fb C30F0000 	 .4byte .LASF349
 5523 21ff 1B       	 .byte 0x1b
 5524 2200 EA       	 .byte 0xea
 5525 2201 05       	 .byte 0x5
 5526 2202 D4080000 	 .4byte 0x8d4
 5527 2206 15220000 	 .4byte 0x2215
 5528 220a 0A       	 .uleb128 0xa
 5529 220b C5200000 	 .4byte 0x20c5
 5530 220f 0A       	 .uleb128 0xa
 5531 2210 15220000 	 .4byte 0x2215
 5532 2214 00       	 .byte 0
 5533 2215 26       	 .uleb128 0x26
 5534 2216 04       	 .byte 0x4
 5535 2217 AE200000 	 .4byte 0x20ae
 5536 221b 40       	 .uleb128 0x40
 5537 221c F50F0000 	 .4byte .LASF350
 5538 2220 1B       	 .byte 0x1b
 5539 2221 EC       	 .byte 0xec
 5540 2222 06       	 .byte 0x6
 5541 2223 5D090000 	 .4byte 0x95d
 5542 2227 31220000 	 .4byte 0x2231
 5543 222b 0A       	 .uleb128 0xa
 5544 222c C5200000 	 .4byte 0x20c5
ARM GAS   			page 109


 5545 2230 00       	 .byte 0
 5546 2231 40       	 .uleb128 0x40
 5547 2232 57140000 	 .4byte .LASF351
 5548 2236 1B       	 .byte 0x1b
 5549 2237 D8       	 .byte 0xd8
 5550 2238 05       	 .byte 0x5
 5551 2239 D4080000 	 .4byte 0x8d4
 5552 223d 47220000 	 .4byte 0x2247
 5553 2241 0A       	 .uleb128 0xa
 5554 2242 C5200000 	 .4byte 0x20c5
 5555 2246 00       	 .byte 0
 5556 2247 43       	 .uleb128 0x43
 5557 2248 50160000 	 .4byte .LASF352
 5558 224c 1B       	 .byte 0x1b
 5559 224d D9       	 .byte 0xd9
 5560 224e 05       	 .byte 0x5
 5561 224f D4080000 	 .4byte 0x8d4
 5562 2253 40       	 .uleb128 0x40
 5563 2254 CC140000 	 .4byte .LASF353
 5564 2258 1B       	 .byte 0x1b
 5565 2259 DA       	 .byte 0xda
 5566 225a 09       	 .byte 0x9
 5567 225b 54110000 	 .4byte 0x1154
 5568 225f 69220000 	 .4byte 0x2269
 5569 2263 0A       	 .uleb128 0xa
 5570 2264 54110000 	 .4byte 0x1154
 5571 2268 00       	 .byte 0
 5572 2269 47       	 .uleb128 0x47
 5573 226a 17130000 	 .4byte .LASF354
 5574 226e 1B       	 .byte 0x1b
 5575 226f F1       	 .byte 0xf1
 5576 2270 09       	 .byte 0x9
 5577 2271 7B220000 	 .4byte 0x227b
 5578 2275 0A       	 .uleb128 0xa
 5579 2276 8A110000 	 .4byte 0x118a
 5580 227a 00       	 .byte 0
 5581 227b 40       	 .uleb128 0x40
 5582 227c 03010000 	 .4byte .LASF355
 5583 2280 1B       	 .byte 0x1b
 5584 2281 F6       	 .byte 0xf6
 5585 2282 05       	 .byte 0x5
 5586 2283 D4080000 	 .4byte 0x8d4
 5587 2287 91220000 	 .4byte 0x2291
 5588 228b 0A       	 .uleb128 0xa
 5589 228c 8A110000 	 .4byte 0x118a
 5590 2290 00       	 .byte 0
 5591 2291 40       	 .uleb128 0x40
 5592 2292 2D0D0000 	 .4byte .LASF356
 5593 2296 1B       	 .byte 0x1b
 5594 2297 F7       	 .byte 0xf7
 5595 2298 05       	 .byte 0x5
 5596 2299 D4080000 	 .4byte 0x8d4
 5597 229d AC220000 	 .4byte 0x22ac
 5598 22a1 0A       	 .uleb128 0xa
 5599 22a2 8A110000 	 .4byte 0x118a
 5600 22a6 0A       	 .uleb128 0xa
 5601 22a7 8A110000 	 .4byte 0x118a
ARM GAS   			page 110


 5602 22ab 00       	 .byte 0
 5603 22ac 47       	 .uleb128 0x47
 5604 22ad CB170000 	 .4byte .LASF357
 5605 22b1 1B       	 .byte 0x1b
 5606 22b2 ED       	 .byte 0xed
 5607 22b3 06       	 .byte 0x6
 5608 22b4 BE220000 	 .4byte 0x22be
 5609 22b8 0A       	 .uleb128 0xa
 5610 22b9 C5200000 	 .4byte 0x20c5
 5611 22bd 00       	 .byte 0
 5612 22be 47       	 .uleb128 0x47
 5613 22bf B10D0000 	 .4byte .LASF358
 5614 22c3 1B       	 .byte 0x1b
 5615 22c4 C2       	 .byte 0xc2
 5616 22c5 06       	 .byte 0x6
 5617 22c6 D5220000 	 .4byte 0x22d5
 5618 22ca 0A       	 .uleb128 0xa
 5619 22cb C5200000 	 .4byte 0x20c5
 5620 22cf 0A       	 .uleb128 0xa
 5621 22d0 54110000 	 .4byte 0x1154
 5622 22d4 00       	 .byte 0
 5623 22d5 40       	 .uleb128 0x40
 5624 22d6 D6000000 	 .4byte .LASF359
 5625 22da 1B       	 .byte 0x1b
 5626 22db C3       	 .byte 0xc3
 5627 22dc 05       	 .byte 0x5
 5628 22dd D4080000 	 .4byte 0x8d4
 5629 22e1 FA220000 	 .4byte 0x22fa
 5630 22e5 0A       	 .uleb128 0xa
 5631 22e6 C5200000 	 .4byte 0x20c5
 5632 22ea 0A       	 .uleb128 0xa
 5633 22eb 54110000 	 .4byte 0x1154
 5634 22ef 0A       	 .uleb128 0xa
 5635 22f0 D4080000 	 .4byte 0x8d4
 5636 22f4 0A       	 .uleb128 0xa
 5637 22f5 E0080000 	 .4byte 0x8e0
 5638 22f9 00       	 .byte 0
 5639 22fa 43       	 .uleb128 0x43
 5640 22fb 48160000 	 .4byte .LASF360
 5641 22ff 1B       	 .byte 0x1b
 5642 2300 BA       	 .byte 0xba
 5643 2301 08       	 .byte 0x8
 5644 2302 C5200000 	 .4byte 0x20c5
 5645 2306 40       	 .uleb128 0x40
 5646 2307 70170000 	 .4byte .LASF361
 5647 230b 1B       	 .byte 0x1b
 5648 230c BB       	 .byte 0xbb
 5649 230d 08       	 .byte 0x8
 5650 230e 54110000 	 .4byte 0x1154
 5651 2312 1C230000 	 .4byte 0x231c
 5652 2316 0A       	 .uleb128 0xa
 5653 2317 54110000 	 .4byte 0x1154
 5654 231b 00       	 .byte 0
 5655 231c 40       	 .uleb128 0x40
 5656 231d 100B0000 	 .4byte .LASF362
 5657 2321 1B       	 .byte 0x1b
 5658 2322 DE       	 .byte 0xde
ARM GAS   			page 111


 5659 2323 05       	 .byte 0x5
 5660 2324 D4080000 	 .4byte 0x8d4
 5661 2328 37230000 	 .4byte 0x2337
 5662 232c 0A       	 .uleb128 0xa
 5663 232d D4080000 	 .4byte 0x8d4
 5664 2331 0A       	 .uleb128 0xa
 5665 2332 C5200000 	 .4byte 0x20c5
 5666 2336 00       	 .byte 0
 5667 2337 22       	 .uleb128 0x22
 5668 2338 0B0E0000 	 .4byte .LASF363
 5669 233c 1C       	 .byte 0x1c
 5670 233d 62       	 .byte 0x62
 5671 233e 0E       	 .byte 0xe
 5672 233f 5D090000 	 .4byte 0x95d
 5673 2343 22       	 .uleb128 0x22
 5674 2344 4B0B0000 	 .4byte .LASF364
 5675 2348 1C       	 .byte 0x1c
 5676 2349 63       	 .byte 0x63
 5677 234a 17       	 .byte 0x17
 5678 234b 41090000 	 .4byte 0x941
 5679 234f 22       	 .uleb128 0x22
 5680 2350 2A100000 	 .4byte .LASF365
 5681 2354 1C       	 .byte 0x1c
 5682 2355 69       	 .byte 0x69
 5683 2356 13       	 .byte 0x13
 5684 2357 801A0000 	 .4byte 0x1a80
 5685 235b 22       	 .uleb128 0x22
 5686 235c F30B0000 	 .4byte .LASF366
 5687 2360 1D       	 .byte 0x1d
 5688 2361 58       	 .byte 0x58
 5689 2362 10       	 .byte 0x10
 5690 2363 06090000 	 .4byte 0x906
 5691 2367 22       	 .uleb128 0x22
 5692 2368 6B120000 	 .4byte .LASF367
 5693 236c 1E       	 .byte 0x1e
 5694 236d 4F       	 .byte 0x4f
 5695 236e 17       	 .byte 0x17
 5696 236f 5B230000 	 .4byte 0x235b
 5697 2373 05       	 .uleb128 0x5
 5698 2374 79010000 	 .4byte .LASF368
 5699 2378 03       	 .byte 0x3
 5700 2379 22       	 .byte 0x22
 5701 237a 0B       	 .byte 0xb
 5702 237b BE260000 	 .4byte 0x26be
 5703 237f 48       	 .uleb128 0x48
 5704 2380 8A020000 	 .4byte .LASF369
 5705 2384 1C       	 .byte 0x1c
 5706 2385 03       	 .byte 0x3
 5707 2386 BC       	 .byte 0xbc
 5708 2387 07       	 .byte 0x7
 5709 2388 B9240000 	 .4byte 0x24b9
 5710 238c B4240000 	 .4byte 0x24b4
 5711 2390 49       	 .uleb128 0x49
 5712 2391 B9240000 	 .4byte 0x24b9
 5713 2395 00       	 .byte 0
 5714 2396 01       	 .byte 0x1
 5715 2397 4A       	 .uleb128 0x4a
ARM GAS   			page 112


 5716 2398 8A020000 	 .4byte .LASF369
 5717 239c D40C0000 	 .4byte .LASF385
 5718 23a0 C6260000 	 .4byte 0x26c6
 5719 23a4 01       	 .byte 0x1
 5720 23a5 AD230000 	 .4byte 0x23ad
 5721 23a9 B8230000 	 .4byte 0x23b8
 5722 23ad 09       	 .uleb128 0x9
 5723 23ae C6260000 	 .4byte 0x26c6
 5724 23b2 0A       	 .uleb128 0xa
 5725 23b3 D1260000 	 .4byte 0x26d1
 5726 23b7 00       	 .byte 0
 5727 23b8 0D       	 .uleb128 0xd
 5728 23b9 8A020000 	 .4byte .LASF369
 5729 23bd 02       	 .byte 0x2
 5730 23be 64       	 .byte 0x64
 5731 23bf 01       	 .byte 0x1
 5732 23c0 010C0000 	 .4byte .LASF370
 5733 23c4 C6260000 	 .4byte 0x26c6
 5734 23c8 01       	 .byte 0x1
 5735 23c9 D1230000 	 .4byte 0x23d1
 5736 23cd D7230000 	 .4byte 0x23d7
 5737 23d1 09       	 .uleb128 0x9
 5738 23d2 C6260000 	 .4byte 0x26c6
 5739 23d6 00       	 .byte 0
 5740 23d7 4B       	 .uleb128 0x4b
 5741 23d8 99120000 	 .4byte .LASF371
 5742 23dc 02       	 .byte 0x2
 5743 23dd 7F       	 .byte 0x7f
 5744 23de 01       	 .byte 0x1
 5745 23df 9D000000 	 .4byte .LASF373
 5746 23e3 06090000 	 .4byte 0x906
 5747 23e7 01       	 .byte 0x1
 5748 23e8 7F230000 	 .4byte 0x237f
 5749 23ec 01       	 .byte 0x1
 5750 23ed F5230000 	 .4byte 0x23f5
 5751 23f1 00240000 	 .4byte 0x2400
 5752 23f5 09       	 .uleb128 0x9
 5753 23f6 C6260000 	 .4byte 0x26c6
 5754 23fa 09       	 .uleb128 0x9
 5755 23fb D4080000 	 .4byte 0x8d4
 5756 23ff 00       	 .byte 0
 5757 2400 4C       	 .uleb128 0x4c
 5758 2401 1B0E0000 	 .4byte .LASF372
 5759 2405 02       	 .byte 0x2
 5760 2406 86       	 .byte 0x86
 5761 2407 06       	 .byte 0x6
 5762 2408 5C130000 	 .4byte .LASF374
 5763 240c 01       	 .byte 0x1
 5764 240d 02       	 .uleb128 0x2
 5765 240e 10       	 .byte 0x10
 5766 240f 02       	 .uleb128 0x2
 5767 2410 7F230000 	 .4byte 0x237f
 5768 2414 01       	 .byte 0x1
 5769 2415 1D240000 	 .4byte 0x241d
 5770 2419 23240000 	 .4byte 0x2423
 5771 241d 09       	 .uleb128 0x9
 5772 241e C6260000 	 .4byte 0x26c6
ARM GAS   			page 113


 5773 2422 00       	 .byte 0
 5774 2423 4C       	 .uleb128 0x4c
 5775 2424 A40D0000 	 .4byte .LASF375
 5776 2428 02       	 .byte 0x2
 5777 2429 95       	 .byte 0x95
 5778 242a 06       	 .byte 0x6
 5779 242b 3E0E0000 	 .4byte .LASF376
 5780 242f 01       	 .byte 0x1
 5781 2430 02       	 .uleb128 0x2
 5782 2431 10       	 .byte 0x10
 5783 2432 03       	 .uleb128 0x3
 5784 2433 7F230000 	 .4byte 0x237f
 5785 2437 01       	 .byte 0x1
 5786 2438 40240000 	 .4byte 0x2440
 5787 243c 46240000 	 .4byte 0x2446
 5788 2440 09       	 .uleb128 0x9
 5789 2441 C6260000 	 .4byte 0x26c6
 5790 2445 00       	 .byte 0
 5791 2446 4C       	 .uleb128 0x4c
 5792 2447 01090000 	 .4byte .LASF377
 5793 244b 02       	 .byte 0x2
 5794 244c A2       	 .byte 0xa2
 5795 244d 06       	 .byte 0x6
 5796 244e AF130000 	 .4byte .LASF378
 5797 2452 01       	 .byte 0x1
 5798 2453 02       	 .uleb128 0x2
 5799 2454 10       	 .byte 0x10
 5800 2455 04       	 .uleb128 0x4
 5801 2456 7F230000 	 .4byte 0x237f
 5802 245a 01       	 .byte 0x1
 5803 245b 63240000 	 .4byte 0x2463
 5804 245f 69240000 	 .4byte 0x2469
 5805 2463 09       	 .uleb128 0x9
 5806 2464 C6260000 	 .4byte 0x26c6
 5807 2468 00       	 .byte 0
 5808 2469 4C       	 .uleb128 0x4c
 5809 246a B30A0000 	 .4byte .LASF379
 5810 246e 02       	 .byte 0x2
 5811 246f B1       	 .byte 0xb1
 5812 2470 06       	 .byte 0x6
 5813 2471 E1160000 	 .4byte .LASF380
 5814 2475 01       	 .byte 0x1
 5815 2476 02       	 .uleb128 0x2
 5816 2477 10       	 .byte 0x10
 5817 2478 05       	 .uleb128 0x5
 5818 2479 7F230000 	 .4byte 0x237f
 5819 247d 01       	 .byte 0x1
 5820 247e 86240000 	 .4byte 0x2486
 5821 2482 8C240000 	 .4byte 0x248c
 5822 2486 09       	 .uleb128 0x9
 5823 2487 C6260000 	 .4byte 0x26c6
 5824 248b 00       	 .byte 0
 5825 248c 07       	 .uleb128 0x7
 5826 248d 15000000 	 .4byte .LASF381
 5827 2491 03       	 .byte 0x3
 5828 2492 EF       	 .byte 0xef
 5829 2493 0D       	 .byte 0xd
ARM GAS   			page 114


 5830 2494 D4080000 	 .4byte 0x8d4
 5831 2498 10       	 .byte 0x10
 5832 2499 07       	 .uleb128 0x7
 5833 249a 6F0B0000 	 .4byte .LASF382
 5834 249e 03       	 .byte 0x3
 5835 249f F4       	 .byte 0xf4
 5836 24a0 1B       	 .byte 0x1b
 5837 24a1 67230000 	 .4byte 0x2367
 5838 24a5 14       	 .byte 0x14
 5839 24a6 07       	 .uleb128 0x7
 5840 24a7 5E0A0000 	 .4byte .LASF383
 5841 24ab 03       	 .byte 0x3
 5842 24ac F9       	 .byte 0xf9
 5843 24ad 1B       	 .byte 0x1b
 5844 24ae 67230000 	 .4byte 0x2367
 5845 24b2 18       	 .byte 0x18
 5846 24b3 00       	 .byte 0
 5847 24b4 11       	 .uleb128 0x11
 5848 24b5 7F230000 	 .4byte 0x237f
 5849 24b9 48       	 .uleb128 0x48
 5850 24ba DF100000 	 .4byte .LASF384
 5851 24be 10       	 .byte 0x10
 5852 24bf 03       	 .byte 0x3
 5853 24c0 4F       	 .byte 0x4f
 5854 24c1 07       	 .byte 0x7
 5855 24c2 B9240000 	 .4byte 0x24b9
 5856 24c6 F5250000 	 .4byte 0x25f5
 5857 24ca 4A       	 .uleb128 0x4a
 5858 24cb DF100000 	 .4byte .LASF384
 5859 24cf 82190000 	 .4byte .LASF386
 5860 24d3 E2260000 	 .4byte 0x26e2
 5861 24d7 01       	 .byte 0x1
 5862 24d8 E0240000 	 .4byte 0x24e0
 5863 24dc EB240000 	 .4byte 0x24eb
 5864 24e0 09       	 .uleb128 0x9
 5865 24e1 E2260000 	 .4byte 0x26e2
 5866 24e5 0A       	 .uleb128 0xa
 5867 24e6 ED260000 	 .4byte 0x26ed
 5868 24ea 00       	 .byte 0
 5869 24eb 4D       	 .uleb128 0x4d
 5870 24ec 47170000 	 .4byte .LASF387
 5871 24f0 FE260000 	 .4byte 0x26fe
 5872 24f4 00       	 .byte 0
 5873 24f5 01       	 .byte 0x1
 5874 24f6 0D       	 .uleb128 0xd
 5875 24f7 DF100000 	 .4byte .LASF384
 5876 24fb 02       	 .byte 0x2
 5877 24fc 1D       	 .byte 0x1d
 5878 24fd 01       	 .byte 0x1
 5879 24fe 40010000 	 .4byte .LASF388
 5880 2502 E2260000 	 .4byte 0x26e2
 5881 2506 01       	 .byte 0x1
 5882 2507 0F250000 	 .4byte 0x250f
 5883 250b 15250000 	 .4byte 0x2515
 5884 250f 09       	 .uleb128 0x9
 5885 2510 E2260000 	 .4byte 0x26e2
 5886 2514 00       	 .byte 0
ARM GAS   			page 115


 5887 2515 4B       	 .uleb128 0x4b
 5888 2516 130D0000 	 .4byte .LASF389
 5889 251a 02       	 .byte 0x2
 5890 251b 37       	 .byte 0x37
 5891 251c 01       	 .byte 0x1
 5892 251d 86100000 	 .4byte .LASF390
 5893 2521 06090000 	 .4byte 0x906
 5894 2525 01       	 .byte 0x1
 5895 2526 B9240000 	 .4byte 0x24b9
 5896 252a 01       	 .byte 0x1
 5897 252b 33250000 	 .4byte 0x2533
 5898 252f 3E250000 	 .4byte 0x253e
 5899 2533 09       	 .uleb128 0x9
 5900 2534 E2260000 	 .4byte 0x26e2
 5901 2538 09       	 .uleb128 0x9
 5902 2539 D4080000 	 .4byte 0x8d4
 5903 253d 00       	 .byte 0
 5904 253e 4C       	 .uleb128 0x4c
 5905 253f 1B0E0000 	 .4byte .LASF372
 5906 2543 03       	 .byte 0x3
 5907 2544 67       	 .byte 0x67
 5908 2545 16       	 .byte 0x16
 5909 2546 6F0C0000 	 .4byte .LASF391
 5910 254a 01       	 .byte 0x1
 5911 254b 02       	 .uleb128 0x2
 5912 254c 10       	 .byte 0x10
 5913 254d 02       	 .uleb128 0x2
 5914 254e B9240000 	 .4byte 0x24b9
 5915 2552 01       	 .byte 0x1
 5916 2553 5B250000 	 .4byte 0x255b
 5917 2557 61250000 	 .4byte 0x2561
 5918 255b 09       	 .uleb128 0x9
 5919 255c E2260000 	 .4byte 0x26e2
 5920 2560 00       	 .byte 0
 5921 2561 4C       	 .uleb128 0x4c
 5922 2562 A40D0000 	 .4byte .LASF375
 5923 2566 03       	 .byte 0x3
 5924 2567 6C       	 .byte 0x6c
 5925 2568 16       	 .byte 0x16
 5926 2569 FF070000 	 .4byte .LASF392
 5927 256d 01       	 .byte 0x1
 5928 256e 02       	 .uleb128 0x2
 5929 256f 10       	 .byte 0x10
 5930 2570 03       	 .uleb128 0x3
 5931 2571 B9240000 	 .4byte 0x24b9
 5932 2575 01       	 .byte 0x1
 5933 2576 7E250000 	 .4byte 0x257e
 5934 257a 84250000 	 .4byte 0x2584
 5935 257e 09       	 .uleb128 0x9
 5936 257f E2260000 	 .4byte 0x26e2
 5937 2583 00       	 .byte 0
 5938 2584 4C       	 .uleb128 0x4c
 5939 2585 01090000 	 .4byte .LASF377
 5940 2589 03       	 .byte 0x3
 5941 258a 72       	 .byte 0x72
 5942 258b 16       	 .byte 0x16
 5943 258c 400C0000 	 .4byte .LASF393
ARM GAS   			page 116


 5944 2590 01       	 .byte 0x1
 5945 2591 02       	 .uleb128 0x2
 5946 2592 10       	 .byte 0x10
 5947 2593 04       	 .uleb128 0x4
 5948 2594 B9240000 	 .4byte 0x24b9
 5949 2598 01       	 .byte 0x1
 5950 2599 A1250000 	 .4byte 0x25a1
 5951 259d A7250000 	 .4byte 0x25a7
 5952 25a1 09       	 .uleb128 0x9
 5953 25a2 E2260000 	 .4byte 0x26e2
 5954 25a6 00       	 .byte 0
 5955 25a7 4C       	 .uleb128 0x4c
 5956 25a8 B30A0000 	 .4byte .LASF379
 5957 25ac 03       	 .byte 0x3
 5958 25ad 77       	 .byte 0x77
 5959 25ae 16       	 .byte 0x16
 5960 25af 35100000 	 .4byte .LASF394
 5961 25b3 01       	 .byte 0x1
 5962 25b4 02       	 .uleb128 0x2
 5963 25b5 10       	 .byte 0x10
 5964 25b6 05       	 .uleb128 0x5
 5965 25b7 B9240000 	 .4byte 0x24b9
 5966 25bb 01       	 .byte 0x1
 5967 25bc C4250000 	 .4byte 0x25c4
 5968 25c0 CA250000 	 .4byte 0x25ca
 5969 25c4 09       	 .uleb128 0x9
 5970 25c5 E2260000 	 .4byte 0x26e2
 5971 25c9 00       	 .byte 0
 5972 25ca 4E       	 .uleb128 0x4e
 5973 25cb 93080000 	 .4byte .LASF395
 5974 25cf 03       	 .byte 0x3
 5975 25d0 83       	 .byte 0x83
 5976 25d1 0D       	 .byte 0xd
 5977 25d2 D4080000 	 .4byte 0x8d4
 5978 25d6 04       	 .byte 0x4
 5979 25d7 02       	 .byte 0x2
 5980 25d8 4E       	 .uleb128 0x4e
 5981 25d9 EF170000 	 .4byte .LASF396
 5982 25dd 03       	 .byte 0x3
 5983 25de 88       	 .byte 0x88
 5984 25df 1B       	 .byte 0x1b
 5985 25e0 67230000 	 .4byte 0x2367
 5986 25e4 08       	 .byte 0x8
 5987 25e5 02       	 .byte 0x2
 5988 25e6 4E       	 .uleb128 0x4e
 5989 25e7 F7150000 	 .4byte .LASF397
 5990 25eb 03       	 .byte 0x3
 5991 25ec 8E       	 .byte 0x8e
 5992 25ed 1B       	 .byte 0x1b
 5993 25ee 67230000 	 .4byte 0x2367
 5994 25f2 0C       	 .byte 0xc
 5995 25f3 02       	 .byte 0x2
 5996 25f4 00       	 .byte 0
 5997 25f5 11       	 .uleb128 0x11
 5998 25f6 B9240000 	 .4byte 0x24b9
 5999 25fa 4F       	 .uleb128 0x4f
 6000 25fb 22020000 	 .4byte .LASF398
ARM GAS   			page 117


 6001 25ff 10       	 .byte 0x10
 6002 2600 03       	 .byte 0x3
 6003 2601 97       	 .byte 0x97
 6004 2602 07       	 .byte 0x7
 6005 2603 B9240000 	 .4byte 0x24b9
 6006 2607 49       	 .uleb128 0x49
 6007 2608 B9240000 	 .4byte 0x24b9
 6008 260c 00       	 .byte 0
 6009 260d 01       	 .byte 0x1
 6010 260e 4C       	 .uleb128 0x4c
 6011 260f 1B0E0000 	 .4byte .LASF372
 6012 2613 02       	 .byte 0x2
 6013 2614 3E       	 .byte 0x3e
 6014 2615 06       	 .byte 0x6
 6015 2616 9C090000 	 .4byte .LASF399
 6016 261a 01       	 .byte 0x1
 6017 261b 02       	 .uleb128 0x2
 6018 261c 10       	 .byte 0x10
 6019 261d 02       	 .uleb128 0x2
 6020 261e FA250000 	 .4byte 0x25fa
 6021 2622 01       	 .byte 0x1
 6022 2623 2B260000 	 .4byte 0x262b
 6023 2627 31260000 	 .4byte 0x2631
 6024 262b 09       	 .uleb128 0x9
 6025 262c D7260000 	 .4byte 0x26d7
 6026 2630 00       	 .byte 0
 6027 2631 4C       	 .uleb128 0x4c
 6028 2632 A40D0000 	 .4byte .LASF375
 6029 2636 02       	 .byte 0x2
 6030 2637 4B       	 .byte 0x4b
 6031 2638 06       	 .byte 0x6
 6032 2639 92030000 	 .4byte .LASF400
 6033 263d 01       	 .byte 0x1
 6034 263e 02       	 .uleb128 0x2
 6035 263f 10       	 .byte 0x10
 6036 2640 03       	 .uleb128 0x3
 6037 2641 FA250000 	 .4byte 0x25fa
 6038 2645 01       	 .byte 0x1
 6039 2646 4E260000 	 .4byte 0x264e
 6040 264a 54260000 	 .4byte 0x2654
 6041 264e 09       	 .uleb128 0x9
 6042 264f D7260000 	 .4byte 0x26d7
 6043 2653 00       	 .byte 0
 6044 2654 4C       	 .uleb128 0x4c
 6045 2655 01090000 	 .4byte .LASF377
 6046 2659 02       	 .byte 0x2
 6047 265a 58       	 .byte 0x58
 6048 265b 06       	 .byte 0x6
 6049 265c 010A0000 	 .4byte .LASF401
 6050 2660 01       	 .byte 0x1
 6051 2661 02       	 .uleb128 0x2
 6052 2662 10       	 .byte 0x10
 6053 2663 04       	 .uleb128 0x4
 6054 2664 FA250000 	 .4byte 0x25fa
 6055 2668 01       	 .byte 0x1
 6056 2669 71260000 	 .4byte 0x2671
 6057 266d 77260000 	 .4byte 0x2677
ARM GAS   			page 118


 6058 2671 09       	 .uleb128 0x9
 6059 2672 D7260000 	 .4byte 0x26d7
 6060 2676 00       	 .byte 0
 6061 2677 4C       	 .uleb128 0x4c
 6062 2678 B30A0000 	 .4byte .LASF379
 6063 267c 02       	 .byte 0x2
 6064 267d 5E       	 .byte 0x5e
 6065 267e 06       	 .byte 0x6
 6066 267f D1120000 	 .4byte .LASF402
 6067 2683 01       	 .byte 0x1
 6068 2684 02       	 .uleb128 0x2
 6069 2685 10       	 .byte 0x10
 6070 2686 05       	 .uleb128 0x5
 6071 2687 FA250000 	 .4byte 0x25fa
 6072 268b 01       	 .byte 0x1
 6073 268c 94260000 	 .4byte 0x2694
 6074 2690 9A260000 	 .4byte 0x269a
 6075 2694 09       	 .uleb128 0x9
 6076 2695 D7260000 	 .4byte 0x26d7
 6077 2699 00       	 .byte 0
 6078 269a 50       	 .uleb128 0x50
 6079 269b 3C040000 	 .4byte .LASF403
 6080 269f A5060000 	 .4byte .LASF426
 6081 26a3 06090000 	 .4byte 0x906
 6082 26a7 01       	 .byte 0x1
 6083 26a8 FA250000 	 .4byte 0x25fa
 6084 26ac 01       	 .byte 0x1
 6085 26ad B1260000 	 .4byte 0x26b1
 6086 26b1 09       	 .uleb128 0x9
 6087 26b2 D7260000 	 .4byte 0x26d7
 6088 26b6 09       	 .uleb128 0x9
 6089 26b7 D4080000 	 .4byte 0x8d4
 6090 26bb 00       	 .byte 0
 6091 26bc 00       	 .byte 0
 6092 26bd 00       	 .byte 0
 6093 26be 2A       	 .uleb128 0x2a
 6094 26bf 02       	 .byte 0x2
 6095 26c0 1A       	 .byte 0x1a
 6096 26c1 11       	 .byte 0x11
 6097 26c2 73230000 	 .4byte 0x2373
 6098 26c6 26       	 .uleb128 0x26
 6099 26c7 04       	 .byte 0x4
 6100 26c8 7F230000 	 .4byte 0x237f
 6101 26cc 11       	 .uleb128 0x11
 6102 26cd C6260000 	 .4byte 0x26c6
 6103 26d1 27       	 .uleb128 0x27
 6104 26d2 04       	 .byte 0x4
 6105 26d3 B4240000 	 .4byte 0x24b4
 6106 26d7 26       	 .uleb128 0x26
 6107 26d8 04       	 .byte 0x4
 6108 26d9 FA250000 	 .4byte 0x25fa
 6109 26dd 11       	 .uleb128 0x11
 6110 26de D7260000 	 .4byte 0x26d7
 6111 26e2 26       	 .uleb128 0x26
 6112 26e3 04       	 .byte 0x4
 6113 26e4 B9240000 	 .4byte 0x24b9
 6114 26e8 11       	 .uleb128 0x11
ARM GAS   			page 119


 6115 26e9 E2260000 	 .4byte 0x26e2
 6116 26ed 27       	 .uleb128 0x27
 6117 26ee 04       	 .byte 0x4
 6118 26ef F5250000 	 .4byte 0x25f5
 6119 26f3 37       	 .uleb128 0x37
 6120 26f4 D4080000 	 .4byte 0x8d4
 6121 26f8 FE260000 	 .4byte 0x26fe
 6122 26fc 42       	 .uleb128 0x42
 6123 26fd 00       	 .byte 0
 6124 26fe 26       	 .uleb128 0x26
 6125 26ff 04       	 .byte 0x4
 6126 2700 04270000 	 .4byte 0x2704
 6127 2704 51       	 .uleb128 0x51
 6128 2705 04       	 .byte 0x4
 6129 2706 73030000 	 .4byte .LASF427
 6130 270a F3260000 	 .4byte 0x26f3
 6131 270e 52       	 .uleb128 0x52
 6132 270f 9A260000 	 .4byte 0x269a
 6133 2713 03       	 .byte 0x3
 6134 2714 97       	 .byte 0x97
 6135 2715 07       	 .byte 0x7
 6136 2716 06090000 	 .4byte 0x906
 6137 271a 23270000 	 .4byte 0x2723
 6138 271e 02       	 .byte 0x2
 6139 271f 36270000 	 .4byte 0x2736
 6140 2723 53       	 .uleb128 0x53
 6141 2724 F4100000 	 .4byte .LASF404
 6142 2728 DD260000 	 .4byte 0x26dd
 6143 272c 53       	 .uleb128 0x53
 6144 272d B1180000 	 .4byte .LASF405
 6145 2731 DB080000 	 .4byte 0x8db
 6146 2735 00       	 .byte 0
 6147 2736 54       	 .uleb128 0x54
 6148 2737 0E270000 	 .4byte 0x270e
 6149 273b 4F110000 	 .4byte .LASF406
 6150 273f 51270000 	 .4byte 0x2751
 6151 2743 00000000 	 .4byte .LFB1301
 6152 2747 1E000000 	 .4byte .LFE1301-.LFB1301
 6153 274b 01       	 .uleb128 0x1
 6154 274c 9C       	 .byte 0x9c
 6155 274d 5A270000 	 .4byte 0x275a
 6156 2751 55       	 .uleb128 0x55
 6157 2752 23270000 	 .4byte 0x2723
 6158 2756 02       	 .uleb128 0x2
 6159 2757 91       	 .byte 0x91
 6160 2758 74       	 .sleb128 -12
 6161 2759 00       	 .byte 0
 6162 275a 54       	 .uleb128 0x54
 6163 275b 0E270000 	 .4byte 0x270e
 6164 275f C20B0000 	 .4byte .LASF407
 6165 2763 75270000 	 .4byte 0x2775
 6166 2767 00000000 	 .4byte .LFB1299
 6167 276b 24000000 	 .4byte .LFE1299-.LFB1299
 6168 276f 01       	 .uleb128 0x1
 6169 2770 9C       	 .byte 0x9c
 6170 2771 7E270000 	 .4byte 0x277e
 6171 2775 55       	 .uleb128 0x55
ARM GAS   			page 120


 6172 2776 23270000 	 .4byte 0x2723
 6173 277a 02       	 .uleb128 0x2
 6174 277b 91       	 .byte 0x91
 6175 277c 74       	 .sleb128 -12
 6176 277d 00       	 .byte 0
 6177 277e 56       	 .uleb128 0x56
 6178 277f 69240000 	 .4byte 0x2469
 6179 2783 95270000 	 .4byte 0x2795
 6180 2787 00000000 	 .4byte .LFB996
 6181 278b 5C000000 	 .4byte .LFE996-.LFB996
 6182 278f 01       	 .uleb128 0x1
 6183 2790 9C       	 .byte 0x9c
 6184 2791 A2270000 	 .4byte 0x27a2
 6185 2795 57       	 .uleb128 0x57
 6186 2796 F4100000 	 .4byte .LASF404
 6187 279a CC260000 	 .4byte 0x26cc
 6188 279e 02       	 .uleb128 0x2
 6189 279f 91       	 .byte 0x91
 6190 27a0 74       	 .sleb128 -12
 6191 27a1 00       	 .byte 0
 6192 27a2 56       	 .uleb128 0x56
 6193 27a3 46240000 	 .4byte 0x2446
 6194 27a7 B9270000 	 .4byte 0x27b9
 6195 27ab 00000000 	 .4byte .LFB995
 6196 27af 60000000 	 .4byte .LFE995-.LFB995
 6197 27b3 01       	 .uleb128 0x1
 6198 27b4 9C       	 .byte 0x9c
 6199 27b5 C6270000 	 .4byte 0x27c6
 6200 27b9 57       	 .uleb128 0x57
 6201 27ba F4100000 	 .4byte .LASF404
 6202 27be CC260000 	 .4byte 0x26cc
 6203 27c2 02       	 .uleb128 0x2
 6204 27c3 91       	 .byte 0x91
 6205 27c4 74       	 .sleb128 -12
 6206 27c5 00       	 .byte 0
 6207 27c6 56       	 .uleb128 0x56
 6208 27c7 23240000 	 .4byte 0x2423
 6209 27cb DD270000 	 .4byte 0x27dd
 6210 27cf 00000000 	 .4byte .LFB994
 6211 27d3 4E000000 	 .4byte .LFE994-.LFB994
 6212 27d7 01       	 .uleb128 0x1
 6213 27d8 9C       	 .byte 0x9c
 6214 27d9 EA270000 	 .4byte 0x27ea
 6215 27dd 57       	 .uleb128 0x57
 6216 27de F4100000 	 .4byte .LASF404
 6217 27e2 CC260000 	 .4byte 0x26cc
 6218 27e6 02       	 .uleb128 0x2
 6219 27e7 91       	 .byte 0x91
 6220 27e8 74       	 .sleb128 -12
 6221 27e9 00       	 .byte 0
 6222 27ea 56       	 .uleb128 0x56
 6223 27eb 00240000 	 .4byte 0x2400
 6224 27ef 01280000 	 .4byte 0x2801
 6225 27f3 00000000 	 .4byte .LFB993
 6226 27f7 6E000000 	 .4byte .LFE993-.LFB993
 6227 27fb 01       	 .uleb128 0x1
 6228 27fc 9C       	 .byte 0x9c
ARM GAS   			page 121


 6229 27fd 0E280000 	 .4byte 0x280e
 6230 2801 57       	 .uleb128 0x57
 6231 2802 F4100000 	 .4byte .LASF404
 6232 2806 CC260000 	 .4byte 0x26cc
 6233 280a 02       	 .uleb128 0x2
 6234 280b 91       	 .byte 0x91
 6235 280c 74       	 .sleb128 -12
 6236 280d 00       	 .byte 0
 6237 280e 58       	 .uleb128 0x58
 6238 280f D7230000 	 .4byte 0x23d7
 6239 2813 06090000 	 .4byte 0x906
 6240 2817 20280000 	 .4byte 0x2820
 6241 281b 00       	 .byte 0
 6242 281c 33280000 	 .4byte 0x2833
 6243 2820 53       	 .uleb128 0x53
 6244 2821 F4100000 	 .4byte .LASF404
 6245 2825 CC260000 	 .4byte 0x26cc
 6246 2829 53       	 .uleb128 0x53
 6247 282a B1180000 	 .4byte .LASF405
 6248 282e DB080000 	 .4byte 0x8db
 6249 2832 00       	 .byte 0
 6250 2833 54       	 .uleb128 0x54
 6251 2834 0E280000 	 .4byte 0x280e
 6252 2838 790B0000 	 .4byte .LASF408
 6253 283c 4E280000 	 .4byte 0x284e
 6254 2840 00000000 	 .4byte .LFB992
 6255 2844 1E000000 	 .4byte .LFE992-.LFB992
 6256 2848 01       	 .uleb128 0x1
 6257 2849 9C       	 .byte 0x9c
 6258 284a 57280000 	 .4byte 0x2857
 6259 284e 55       	 .uleb128 0x55
 6260 284f 20280000 	 .4byte 0x2820
 6261 2853 02       	 .uleb128 0x2
 6262 2854 91       	 .byte 0x91
 6263 2855 74       	 .sleb128 -12
 6264 2856 00       	 .byte 0
 6265 2857 54       	 .uleb128 0x54
 6266 2858 0E280000 	 .4byte 0x280e
 6267 285c 5B060000 	 .4byte .LASF409
 6268 2860 72280000 	 .4byte 0x2872
 6269 2864 00000000 	 .4byte .LFB990
 6270 2868 38000000 	 .4byte .LFE990-.LFB990
 6271 286c 01       	 .uleb128 0x1
 6272 286d 9C       	 .byte 0x9c
 6273 286e 7B280000 	 .4byte 0x287b
 6274 2872 55       	 .uleb128 0x55
 6275 2873 20280000 	 .4byte 0x2820
 6276 2877 02       	 .uleb128 0x2
 6277 2878 91       	 .byte 0x91
 6278 2879 74       	 .sleb128 -12
 6279 287a 00       	 .byte 0
 6280 287b 59       	 .uleb128 0x59
 6281 287c B8230000 	 .4byte 0x23b8
 6282 2880 89280000 	 .4byte 0x2889
 6283 2884 00       	 .byte 0
 6284 2885 9C280000 	 .4byte 0x289c
 6285 2889 53       	 .uleb128 0x53
ARM GAS   			page 122


 6286 288a F4100000 	 .4byte .LASF404
 6287 288e CC260000 	 .4byte 0x26cc
 6288 2892 5A       	 .uleb128 0x5a
 6289 2893 38190000 	 .4byte .LASF413
 6290 2897 AC280000 	 .4byte 0x28ac
 6291 289b 00       	 .byte 0
 6292 289c 2E       	 .uleb128 0x2e
 6293 289d 61110000 	 .4byte 0x1161
 6294 28a1 AC280000 	 .4byte 0x28ac
 6295 28a5 2F       	 .uleb128 0x2f
 6296 28a6 EC080000 	 .4byte 0x8ec
 6297 28aa 44       	 .byte 0x44
 6298 28ab 00       	 .byte 0
 6299 28ac 11       	 .uleb128 0x11
 6300 28ad 9C280000 	 .4byte 0x289c
 6301 28b1 54       	 .uleb128 0x54
 6302 28b2 7B280000 	 .4byte 0x287b
 6303 28b6 9E110000 	 .4byte .LASF410
 6304 28ba CC280000 	 .4byte 0x28cc
 6305 28be 00000000 	 .4byte .LFB987
 6306 28c2 98000000 	 .4byte .LFE987-.LFB987
 6307 28c6 01       	 .uleb128 0x1
 6308 28c7 9C       	 .byte 0x9c
 6309 28c8 DF280000 	 .4byte 0x28df
 6310 28cc 55       	 .uleb128 0x55
 6311 28cd 89280000 	 .4byte 0x2889
 6312 28d1 02       	 .uleb128 0x2
 6313 28d2 91       	 .byte 0x91
 6314 28d3 74       	 .sleb128 -12
 6315 28d4 5B       	 .uleb128 0x5b
 6316 28d5 5C       	 .uleb128 0x5c
 6317 28d6 08000000 	 .4byte .LBB4
 6318 28da 70000000 	 .4byte .LBE4-.LBB4
 6319 28de 00       	 .byte 0
 6320 28df 56       	 .uleb128 0x56
 6321 28e0 77260000 	 .4byte 0x2677
 6322 28e4 F6280000 	 .4byte 0x28f6
 6323 28e8 00000000 	 .4byte .LFB985
 6324 28ec 1E000000 	 .4byte .LFE985-.LFB985
 6325 28f0 01       	 .uleb128 0x1
 6326 28f1 9C       	 .byte 0x9c
 6327 28f2 03290000 	 .4byte 0x2903
 6328 28f6 57       	 .uleb128 0x57
 6329 28f7 F4100000 	 .4byte .LASF404
 6330 28fb DD260000 	 .4byte 0x26dd
 6331 28ff 02       	 .uleb128 0x2
 6332 2900 91       	 .byte 0x91
 6333 2901 74       	 .sleb128 -12
 6334 2902 00       	 .byte 0
 6335 2903 56       	 .uleb128 0x56
 6336 2904 54260000 	 .4byte 0x2654
 6337 2908 1A290000 	 .4byte 0x291a
 6338 290c 00000000 	 .4byte .LFB984
 6339 2910 20000000 	 .4byte .LFE984-.LFB984
 6340 2914 01       	 .uleb128 0x1
 6341 2915 9C       	 .byte 0x9c
 6342 2916 27290000 	 .4byte 0x2927
ARM GAS   			page 123


 6343 291a 57       	 .uleb128 0x57
 6344 291b F4100000 	 .4byte .LASF404
 6345 291f DD260000 	 .4byte 0x26dd
 6346 2923 02       	 .uleb128 0x2
 6347 2924 91       	 .byte 0x91
 6348 2925 74       	 .sleb128 -12
 6349 2926 00       	 .byte 0
 6350 2927 56       	 .uleb128 0x56
 6351 2928 31260000 	 .4byte 0x2631
 6352 292c 3E290000 	 .4byte 0x293e
 6353 2930 00000000 	 .4byte .LFB983
 6354 2934 4E000000 	 .4byte .LFE983-.LFB983
 6355 2938 01       	 .uleb128 0x1
 6356 2939 9C       	 .byte 0x9c
 6357 293a 4B290000 	 .4byte 0x294b
 6358 293e 57       	 .uleb128 0x57
 6359 293f F4100000 	 .4byte .LASF404
 6360 2943 DD260000 	 .4byte 0x26dd
 6361 2947 02       	 .uleb128 0x2
 6362 2948 91       	 .byte 0x91
 6363 2949 74       	 .sleb128 -12
 6364 294a 00       	 .byte 0
 6365 294b 56       	 .uleb128 0x56
 6366 294c 0E260000 	 .4byte 0x260e
 6367 2950 62290000 	 .4byte 0x2962
 6368 2954 00000000 	 .4byte .LFB982
 6369 2958 50000000 	 .4byte .LFE982-.LFB982
 6370 295c 01       	 .uleb128 0x1
 6371 295d 9C       	 .byte 0x9c
 6372 295e 6F290000 	 .4byte 0x296f
 6373 2962 57       	 .uleb128 0x57
 6374 2963 F4100000 	 .4byte .LASF404
 6375 2967 DD260000 	 .4byte 0x26dd
 6376 296b 02       	 .uleb128 0x2
 6377 296c 91       	 .byte 0x91
 6378 296d 74       	 .sleb128 -12
 6379 296e 00       	 .byte 0
 6380 296f 58       	 .uleb128 0x58
 6381 2970 15250000 	 .4byte 0x2515
 6382 2974 06090000 	 .4byte 0x906
 6383 2978 81290000 	 .4byte 0x2981
 6384 297c 00       	 .byte 0
 6385 297d 94290000 	 .4byte 0x2994
 6386 2981 53       	 .uleb128 0x53
 6387 2982 F4100000 	 .4byte .LASF404
 6388 2986 E8260000 	 .4byte 0x26e8
 6389 298a 53       	 .uleb128 0x53
 6390 298b B1180000 	 .4byte .LASF405
 6391 298f DB080000 	 .4byte 0x8db
 6392 2993 00       	 .byte 0
 6393 2994 54       	 .uleb128 0x54
 6394 2995 6F290000 	 .4byte 0x296f
 6395 2999 DE000000 	 .4byte .LASF411
 6396 299d AF290000 	 .4byte 0x29af
 6397 29a1 00000000 	 .4byte .LFB981
 6398 29a5 1E000000 	 .4byte .LFE981-.LFB981
 6399 29a9 01       	 .uleb128 0x1
ARM GAS   			page 124


 6400 29aa 9C       	 .byte 0x9c
 6401 29ab B8290000 	 .4byte 0x29b8
 6402 29af 55       	 .uleb128 0x55
 6403 29b0 81290000 	 .4byte 0x2981
 6404 29b4 02       	 .uleb128 0x2
 6405 29b5 91       	 .byte 0x91
 6406 29b6 74       	 .sleb128 -12
 6407 29b7 00       	 .byte 0
 6408 29b8 54       	 .uleb128 0x54
 6409 29b9 6F290000 	 .4byte 0x296f
 6410 29bd D2150000 	 .4byte .LASF412
 6411 29c1 D3290000 	 .4byte 0x29d3
 6412 29c5 00000000 	 .4byte .LFB979
 6413 29c9 30000000 	 .4byte .LFE979-.LFB979
 6414 29cd 01       	 .uleb128 0x1
 6415 29ce 9C       	 .byte 0x9c
 6416 29cf DC290000 	 .4byte 0x29dc
 6417 29d3 55       	 .uleb128 0x55
 6418 29d4 81290000 	 .4byte 0x2981
 6419 29d8 02       	 .uleb128 0x2
 6420 29d9 91       	 .byte 0x91
 6421 29da 74       	 .sleb128 -12
 6422 29db 00       	 .byte 0
 6423 29dc 59       	 .uleb128 0x59
 6424 29dd F6240000 	 .4byte 0x24f6
 6425 29e1 EA290000 	 .4byte 0x29ea
 6426 29e5 00       	 .byte 0
 6427 29e6 FD290000 	 .4byte 0x29fd
 6428 29ea 53       	 .uleb128 0x53
 6429 29eb F4100000 	 .4byte .LASF404
 6430 29ef E8260000 	 .4byte 0x26e8
 6431 29f3 5A       	 .uleb128 0x5a
 6432 29f4 38190000 	 .4byte .LASF413
 6433 29f8 0D2A0000 	 .4byte 0x2a0d
 6434 29fc 00       	 .byte 0
 6435 29fd 2E       	 .uleb128 0x2e
 6436 29fe 61110000 	 .4byte 0x1161
 6437 2a02 0D2A0000 	 .4byte 0x2a0d
 6438 2a06 2F       	 .uleb128 0x2f
 6439 2a07 EC080000 	 .4byte 0x8ec
 6440 2a0b 2C       	 .byte 0x2c
 6441 2a0c 00       	 .byte 0
 6442 2a0d 11       	 .uleb128 0x11
 6443 2a0e FD290000 	 .4byte 0x29fd
 6444 2a12 54       	 .uleb128 0x54
 6445 2a13 DC290000 	 .4byte 0x29dc
 6446 2a17 2B030000 	 .4byte .LASF414
 6447 2a1b 2D2A0000 	 .4byte 0x2a2d
 6448 2a1f 00000000 	 .4byte .LFB976
 6449 2a23 90000000 	 .4byte .LFE976-.LFB976
 6450 2a27 01       	 .uleb128 0x1
 6451 2a28 9C       	 .byte 0x9c
 6452 2a29 402A0000 	 .4byte 0x2a40
 6453 2a2d 55       	 .uleb128 0x55
 6454 2a2e EA290000 	 .4byte 0x29ea
 6455 2a32 02       	 .uleb128 0x2
 6456 2a33 91       	 .byte 0x91
ARM GAS   			page 125


 6457 2a34 74       	 .sleb128 -12
 6458 2a35 5B       	 .uleb128 0x5b
 6459 2a36 5C       	 .uleb128 0x5c
 6460 2a37 08000000 	 .4byte .LBB2
 6461 2a3b 68000000 	 .4byte .LBE2-.LBB2
 6462 2a3f 00       	 .byte 0
 6463 2a40 5D       	 .uleb128 0x5d
 6464 2a41 E70D0000 	 .4byte .LASF428
 6465 2a45 01       	 .byte 0x1
 6466 2a46 E5       	 .byte 0xe5
 6467 2a47 01       	 .byte 0x1
 6468 2a48 D4080000 	 .4byte 0x8d4
 6469 2a4c 00000000 	 .4byte .LFB602
 6470 2a50 16000000 	 .4byte .LFE602-.LFB602
 6471 2a54 01       	 .uleb128 0x1
 6472 2a55 9C       	 .byte 0x9c
 6473 2a56 5E       	 .uleb128 0x5e
 6474 2a57 42160000 	 .4byte .LASF429
 6475 2a5b 01       	 .byte 0x1
 6476 2a5c E5       	 .byte 0xe5
 6477 2a5d 27       	 .byte 0x27
 6478 2a5e 0E1D0000 	 .4byte 0x1d0e
 6479 2a62 02       	 .uleb128 0x2
 6480 2a63 91       	 .byte 0x91
 6481 2a64 74       	 .sleb128 -12
 6482 2a65 00       	 .byte 0
 6483 2a66 00       	 .byte 0
 6484              	 .section .debug_abbrev,"",%progbits
 6485              	.Ldebug_abbrev0:
 6486 0000 01       	 .uleb128 0x1
 6487 0001 11       	 .uleb128 0x11
 6488 0002 01       	 .byte 0x1
 6489 0003 25       	 .uleb128 0x25
 6490 0004 0E       	 .uleb128 0xe
 6491 0005 13       	 .uleb128 0x13
 6492 0006 0B       	 .uleb128 0xb
 6493 0007 03       	 .uleb128 0x3
 6494 0008 0E       	 .uleb128 0xe
 6495 0009 1B       	 .uleb128 0x1b
 6496 000a 0E       	 .uleb128 0xe
 6497 000b 55       	 .uleb128 0x55
 6498 000c 17       	 .uleb128 0x17
 6499 000d 11       	 .uleb128 0x11
 6500 000e 01       	 .uleb128 0x1
 6501 000f 10       	 .uleb128 0x10
 6502 0010 17       	 .uleb128 0x17
 6503 0011 00       	 .byte 0
 6504 0012 00       	 .byte 0
 6505 0013 02       	 .uleb128 0x2
 6506 0014 39       	 .uleb128 0x39
 6507 0015 01       	 .byte 0x1
 6508 0016 03       	 .uleb128 0x3
 6509 0017 08       	 .uleb128 0x8
 6510 0018 3A       	 .uleb128 0x3a
 6511 0019 0B       	 .uleb128 0xb
 6512 001a 3B       	 .uleb128 0x3b
 6513 001b 0B       	 .uleb128 0xb
ARM GAS   			page 126


 6514 001c 01       	 .uleb128 0x1
 6515 001d 13       	 .uleb128 0x13
 6516 001e 00       	 .byte 0
 6517 001f 00       	 .byte 0
 6518 0020 03       	 .uleb128 0x3
 6519 0021 39       	 .uleb128 0x39
 6520 0022 00       	 .byte 0
 6521 0023 03       	 .uleb128 0x3
 6522 0024 0E       	 .uleb128 0xe
 6523 0025 3A       	 .uleb128 0x3a
 6524 0026 0B       	 .uleb128 0xb
 6525 0027 3B       	 .uleb128 0x3b
 6526 0028 05       	 .uleb128 0x5
 6527 0029 39       	 .uleb128 0x39
 6528 002a 0B       	 .uleb128 0xb
 6529 002b 8901     	 .uleb128 0x89
 6530 002d 19       	 .uleb128 0x19
 6531 002e 00       	 .byte 0
 6532 002f 00       	 .byte 0
 6533 0030 04       	 .uleb128 0x4
 6534 0031 3A       	 .uleb128 0x3a
 6535 0032 00       	 .byte 0
 6536 0033 3A       	 .uleb128 0x3a
 6537 0034 0B       	 .uleb128 0xb
 6538 0035 3B       	 .uleb128 0x3b
 6539 0036 05       	 .uleb128 0x5
 6540 0037 39       	 .uleb128 0x39
 6541 0038 0B       	 .uleb128 0xb
 6542 0039 18       	 .uleb128 0x18
 6543 003a 13       	 .uleb128 0x13
 6544 003b 00       	 .byte 0
 6545 003c 00       	 .byte 0
 6546 003d 05       	 .uleb128 0x5
 6547 003e 39       	 .uleb128 0x39
 6548 003f 01       	 .byte 0x1
 6549 0040 03       	 .uleb128 0x3
 6550 0041 0E       	 .uleb128 0xe
 6551 0042 3A       	 .uleb128 0x3a
 6552 0043 0B       	 .uleb128 0xb
 6553 0044 3B       	 .uleb128 0x3b
 6554 0045 0B       	 .uleb128 0xb
 6555 0046 39       	 .uleb128 0x39
 6556 0047 0B       	 .uleb128 0xb
 6557 0048 01       	 .uleb128 0x1
 6558 0049 13       	 .uleb128 0x13
 6559 004a 00       	 .byte 0
 6560 004b 00       	 .byte 0
 6561 004c 06       	 .uleb128 0x6
 6562 004d 02       	 .uleb128 0x2
 6563 004e 01       	 .byte 0x1
 6564 004f 03       	 .uleb128 0x3
 6565 0050 0E       	 .uleb128 0xe
 6566 0051 0B       	 .uleb128 0xb
 6567 0052 0B       	 .uleb128 0xb
 6568 0053 3A       	 .uleb128 0x3a
 6569 0054 0B       	 .uleb128 0xb
 6570 0055 3B       	 .uleb128 0x3b
ARM GAS   			page 127


 6571 0056 0B       	 .uleb128 0xb
 6572 0057 39       	 .uleb128 0x39
 6573 0058 0B       	 .uleb128 0xb
 6574 0059 01       	 .uleb128 0x1
 6575 005a 13       	 .uleb128 0x13
 6576 005b 00       	 .byte 0
 6577 005c 00       	 .byte 0
 6578 005d 07       	 .uleb128 0x7
 6579 005e 0D       	 .uleb128 0xd
 6580 005f 00       	 .byte 0
 6581 0060 03       	 .uleb128 0x3
 6582 0061 0E       	 .uleb128 0xe
 6583 0062 3A       	 .uleb128 0x3a
 6584 0063 0B       	 .uleb128 0xb
 6585 0064 3B       	 .uleb128 0x3b
 6586 0065 0B       	 .uleb128 0xb
 6587 0066 39       	 .uleb128 0x39
 6588 0067 0B       	 .uleb128 0xb
 6589 0068 49       	 .uleb128 0x49
 6590 0069 13       	 .uleb128 0x13
 6591 006a 38       	 .uleb128 0x38
 6592 006b 0B       	 .uleb128 0xb
 6593 006c 00       	 .byte 0
 6594 006d 00       	 .byte 0
 6595 006e 08       	 .uleb128 0x8
 6596 006f 2E       	 .uleb128 0x2e
 6597 0070 01       	 .byte 0x1
 6598 0071 3F       	 .uleb128 0x3f
 6599 0072 19       	 .uleb128 0x19
 6600 0073 03       	 .uleb128 0x3
 6601 0074 0E       	 .uleb128 0xe
 6602 0075 3A       	 .uleb128 0x3a
 6603 0076 0B       	 .uleb128 0xb
 6604 0077 3B       	 .uleb128 0x3b
 6605 0078 0B       	 .uleb128 0xb
 6606 0079 39       	 .uleb128 0x39
 6607 007a 0B       	 .uleb128 0xb
 6608 007b 6E       	 .uleb128 0x6e
 6609 007c 0E       	 .uleb128 0xe
 6610 007d 49       	 .uleb128 0x49
 6611 007e 13       	 .uleb128 0x13
 6612 007f 3C       	 .uleb128 0x3c
 6613 0080 19       	 .uleb128 0x19
 6614 0081 63       	 .uleb128 0x63
 6615 0082 19       	 .uleb128 0x19
 6616 0083 64       	 .uleb128 0x64
 6617 0084 13       	 .uleb128 0x13
 6618 0085 01       	 .uleb128 0x1
 6619 0086 13       	 .uleb128 0x13
 6620 0087 00       	 .byte 0
 6621 0088 00       	 .byte 0
 6622 0089 09       	 .uleb128 0x9
 6623 008a 05       	 .uleb128 0x5
 6624 008b 00       	 .byte 0
 6625 008c 49       	 .uleb128 0x49
 6626 008d 13       	 .uleb128 0x13
 6627 008e 34       	 .uleb128 0x34
ARM GAS   			page 128


 6628 008f 19       	 .uleb128 0x19
 6629 0090 00       	 .byte 0
 6630 0091 00       	 .byte 0
 6631 0092 0A       	 .uleb128 0xa
 6632 0093 05       	 .uleb128 0x5
 6633 0094 00       	 .byte 0
 6634 0095 49       	 .uleb128 0x49
 6635 0096 13       	 .uleb128 0x13
 6636 0097 00       	 .byte 0
 6637 0098 00       	 .byte 0
 6638 0099 0B       	 .uleb128 0xb
 6639 009a 2E       	 .uleb128 0x2e
 6640 009b 01       	 .byte 0x1
 6641 009c 3F       	 .uleb128 0x3f
 6642 009d 19       	 .uleb128 0x19
 6643 009e 03       	 .uleb128 0x3
 6644 009f 0E       	 .uleb128 0xe
 6645 00a0 3A       	 .uleb128 0x3a
 6646 00a1 0B       	 .uleb128 0xb
 6647 00a2 3B       	 .uleb128 0x3b
 6648 00a3 0B       	 .uleb128 0xb
 6649 00a4 39       	 .uleb128 0x39
 6650 00a5 0B       	 .uleb128 0xb
 6651 00a6 6E       	 .uleb128 0x6e
 6652 00a7 0E       	 .uleb128 0xe
 6653 00a8 3C       	 .uleb128 0x3c
 6654 00a9 19       	 .uleb128 0x19
 6655 00aa 64       	 .uleb128 0x64
 6656 00ab 13       	 .uleb128 0x13
 6657 00ac 01       	 .uleb128 0x1
 6658 00ad 13       	 .uleb128 0x13
 6659 00ae 00       	 .byte 0
 6660 00af 00       	 .byte 0
 6661 00b0 0C       	 .uleb128 0xc
 6662 00b1 2E       	 .uleb128 0x2e
 6663 00b2 01       	 .byte 0x1
 6664 00b3 3F       	 .uleb128 0x3f
 6665 00b4 19       	 .uleb128 0x19
 6666 00b5 03       	 .uleb128 0x3
 6667 00b6 0E       	 .uleb128 0xe
 6668 00b7 3A       	 .uleb128 0x3a
 6669 00b8 0B       	 .uleb128 0xb
 6670 00b9 3B       	 .uleb128 0x3b
 6671 00ba 0B       	 .uleb128 0xb
 6672 00bb 39       	 .uleb128 0x39
 6673 00bc 0B       	 .uleb128 0xb
 6674 00bd 6E       	 .uleb128 0x6e
 6675 00be 0E       	 .uleb128 0xe
 6676 00bf 49       	 .uleb128 0x49
 6677 00c0 13       	 .uleb128 0x13
 6678 00c1 3C       	 .uleb128 0x3c
 6679 00c2 19       	 .uleb128 0x19
 6680 00c3 64       	 .uleb128 0x64
 6681 00c4 13       	 .uleb128 0x13
 6682 00c5 01       	 .uleb128 0x1
 6683 00c6 13       	 .uleb128 0x13
 6684 00c7 00       	 .byte 0
ARM GAS   			page 129


 6685 00c8 00       	 .byte 0
 6686 00c9 0D       	 .uleb128 0xd
 6687 00ca 2E       	 .uleb128 0x2e
 6688 00cb 01       	 .byte 0x1
 6689 00cc 3F       	 .uleb128 0x3f
 6690 00cd 19       	 .uleb128 0x19
 6691 00ce 03       	 .uleb128 0x3
 6692 00cf 0E       	 .uleb128 0xe
 6693 00d0 3A       	 .uleb128 0x3a
 6694 00d1 0B       	 .uleb128 0xb
 6695 00d2 3B       	 .uleb128 0x3b
 6696 00d3 0B       	 .uleb128 0xb
 6697 00d4 39       	 .uleb128 0x39
 6698 00d5 0B       	 .uleb128 0xb
 6699 00d6 6E       	 .uleb128 0x6e
 6700 00d7 0E       	 .uleb128 0xe
 6701 00d8 49       	 .uleb128 0x49
 6702 00d9 13       	 .uleb128 0x13
 6703 00da 32       	 .uleb128 0x32
 6704 00db 0B       	 .uleb128 0xb
 6705 00dc 3C       	 .uleb128 0x3c
 6706 00dd 19       	 .uleb128 0x19
 6707 00de 64       	 .uleb128 0x64
 6708 00df 13       	 .uleb128 0x13
 6709 00e0 01       	 .uleb128 0x1
 6710 00e1 13       	 .uleb128 0x13
 6711 00e2 00       	 .byte 0
 6712 00e3 00       	 .byte 0
 6713 00e4 0E       	 .uleb128 0xe
 6714 00e5 2E       	 .uleb128 0x2e
 6715 00e6 01       	 .byte 0x1
 6716 00e7 3F       	 .uleb128 0x3f
 6717 00e8 19       	 .uleb128 0x19
 6718 00e9 03       	 .uleb128 0x3
 6719 00ea 0E       	 .uleb128 0xe
 6720 00eb 3A       	 .uleb128 0x3a
 6721 00ec 0B       	 .uleb128 0xb
 6722 00ed 3B       	 .uleb128 0x3b
 6723 00ee 0B       	 .uleb128 0xb
 6724 00ef 39       	 .uleb128 0x39
 6725 00f0 0B       	 .uleb128 0xb
 6726 00f1 6E       	 .uleb128 0x6e
 6727 00f2 0E       	 .uleb128 0xe
 6728 00f3 32       	 .uleb128 0x32
 6729 00f4 0B       	 .uleb128 0xb
 6730 00f5 3C       	 .uleb128 0x3c
 6731 00f6 19       	 .uleb128 0x19
 6732 00f7 64       	 .uleb128 0x64
 6733 00f8 13       	 .uleb128 0x13
 6734 00f9 01       	 .uleb128 0x1
 6735 00fa 13       	 .uleb128 0x13
 6736 00fb 00       	 .byte 0
 6737 00fc 00       	 .byte 0
 6738 00fd 0F       	 .uleb128 0xf
 6739 00fe 2E       	 .uleb128 0x2e
 6740 00ff 01       	 .byte 0x1
 6741 0100 3F       	 .uleb128 0x3f
ARM GAS   			page 130


 6742 0101 19       	 .uleb128 0x19
 6743 0102 03       	 .uleb128 0x3
 6744 0103 0E       	 .uleb128 0xe
 6745 0104 3A       	 .uleb128 0x3a
 6746 0105 0B       	 .uleb128 0xb
 6747 0106 3B       	 .uleb128 0x3b
 6748 0107 0B       	 .uleb128 0xb
 6749 0108 39       	 .uleb128 0x39
 6750 0109 0B       	 .uleb128 0xb
 6751 010a 6E       	 .uleb128 0x6e
 6752 010b 0E       	 .uleb128 0xe
 6753 010c 49       	 .uleb128 0x49
 6754 010d 13       	 .uleb128 0x13
 6755 010e 32       	 .uleb128 0x32
 6756 010f 0B       	 .uleb128 0xb
 6757 0110 3C       	 .uleb128 0x3c
 6758 0111 19       	 .uleb128 0x19
 6759 0112 63       	 .uleb128 0x63
 6760 0113 19       	 .uleb128 0x19
 6761 0114 64       	 .uleb128 0x64
 6762 0115 13       	 .uleb128 0x13
 6763 0116 01       	 .uleb128 0x1
 6764 0117 13       	 .uleb128 0x13
 6765 0118 00       	 .byte 0
 6766 0119 00       	 .byte 0
 6767 011a 10       	 .uleb128 0x10
 6768 011b 2E       	 .uleb128 0x2e
 6769 011c 01       	 .byte 0x1
 6770 011d 3F       	 .uleb128 0x3f
 6771 011e 19       	 .uleb128 0x19
 6772 011f 03       	 .uleb128 0x3
 6773 0120 0E       	 .uleb128 0xe
 6774 0121 3A       	 .uleb128 0x3a
 6775 0122 0B       	 .uleb128 0xb
 6776 0123 3B       	 .uleb128 0x3b
 6777 0124 0B       	 .uleb128 0xb
 6778 0125 39       	 .uleb128 0x39
 6779 0126 0B       	 .uleb128 0xb
 6780 0127 6E       	 .uleb128 0x6e
 6781 0128 0E       	 .uleb128 0xe
 6782 0129 49       	 .uleb128 0x49
 6783 012a 13       	 .uleb128 0x13
 6784 012b 32       	 .uleb128 0x32
 6785 012c 0B       	 .uleb128 0xb
 6786 012d 3C       	 .uleb128 0x3c
 6787 012e 19       	 .uleb128 0x19
 6788 012f 64       	 .uleb128 0x64
 6789 0130 13       	 .uleb128 0x13
 6790 0131 00       	 .byte 0
 6791 0132 00       	 .byte 0
 6792 0133 11       	 .uleb128 0x11
 6793 0134 26       	 .uleb128 0x26
 6794 0135 00       	 .byte 0
 6795 0136 49       	 .uleb128 0x49
 6796 0137 13       	 .uleb128 0x13
 6797 0138 00       	 .byte 0
 6798 0139 00       	 .byte 0
ARM GAS   			page 131


 6799 013a 12       	 .uleb128 0x12
 6800 013b 08       	 .uleb128 0x8
 6801 013c 00       	 .byte 0
 6802 013d 3A       	 .uleb128 0x3a
 6803 013e 0B       	 .uleb128 0xb
 6804 013f 3B       	 .uleb128 0x3b
 6805 0140 0B       	 .uleb128 0xb
 6806 0141 39       	 .uleb128 0x39
 6807 0142 0B       	 .uleb128 0xb
 6808 0143 18       	 .uleb128 0x18
 6809 0144 13       	 .uleb128 0x13
 6810 0145 00       	 .byte 0
 6811 0146 00       	 .byte 0
 6812 0147 13       	 .uleb128 0x13
 6813 0148 2E       	 .uleb128 0x2e
 6814 0149 01       	 .byte 0x1
 6815 014a 3F       	 .uleb128 0x3f
 6816 014b 19       	 .uleb128 0x19
 6817 014c 03       	 .uleb128 0x3
 6818 014d 0E       	 .uleb128 0xe
 6819 014e 3A       	 .uleb128 0x3a
 6820 014f 0B       	 .uleb128 0xb
 6821 0150 3B       	 .uleb128 0x3b
 6822 0151 0B       	 .uleb128 0xb
 6823 0152 39       	 .uleb128 0x39
 6824 0153 0B       	 .uleb128 0xb
 6825 0154 6E       	 .uleb128 0x6e
 6826 0155 0E       	 .uleb128 0xe
 6827 0156 8701     	 .uleb128 0x87
 6828 0158 19       	 .uleb128 0x19
 6829 0159 3C       	 .uleb128 0x3c
 6830 015a 19       	 .uleb128 0x19
 6831 015b 01       	 .uleb128 0x1
 6832 015c 13       	 .uleb128 0x13
 6833 015d 00       	 .byte 0
 6834 015e 00       	 .byte 0
 6835 015f 14       	 .uleb128 0x14
 6836 0160 16       	 .uleb128 0x16
 6837 0161 00       	 .byte 0
 6838 0162 03       	 .uleb128 0x3
 6839 0163 0E       	 .uleb128 0xe
 6840 0164 3A       	 .uleb128 0x3a
 6841 0165 0B       	 .uleb128 0xb
 6842 0166 3B       	 .uleb128 0x3b
 6843 0167 05       	 .uleb128 0x5
 6844 0168 39       	 .uleb128 0x39
 6845 0169 0B       	 .uleb128 0xb
 6846 016a 49       	 .uleb128 0x49
 6847 016b 13       	 .uleb128 0x13
 6848 016c 00       	 .byte 0
 6849 016d 00       	 .byte 0
 6850 016e 15       	 .uleb128 0x15
 6851 016f 02       	 .uleb128 0x2
 6852 0170 00       	 .byte 0
 6853 0171 03       	 .uleb128 0x3
 6854 0172 0E       	 .uleb128 0xe
 6855 0173 3C       	 .uleb128 0x3c
ARM GAS   			page 132


 6856 0174 19       	 .uleb128 0x19
 6857 0175 00       	 .byte 0
 6858 0176 00       	 .byte 0
 6859 0177 16       	 .uleb128 0x16
 6860 0178 39       	 .uleb128 0x39
 6861 0179 00       	 .byte 0
 6862 017a 03       	 .uleb128 0x3
 6863 017b 0E       	 .uleb128 0xe
 6864 017c 3A       	 .uleb128 0x3a
 6865 017d 0B       	 .uleb128 0xb
 6866 017e 3B       	 .uleb128 0x3b
 6867 017f 05       	 .uleb128 0x5
 6868 0180 39       	 .uleb128 0x39
 6869 0181 0B       	 .uleb128 0xb
 6870 0182 00       	 .byte 0
 6871 0183 00       	 .byte 0
 6872 0184 17       	 .uleb128 0x17
 6873 0185 13       	 .uleb128 0x13
 6874 0186 01       	 .byte 0x1
 6875 0187 03       	 .uleb128 0x3
 6876 0188 0E       	 .uleb128 0xe
 6877 0189 0B       	 .uleb128 0xb
 6878 018a 0B       	 .uleb128 0xb
 6879 018b 3A       	 .uleb128 0x3a
 6880 018c 0B       	 .uleb128 0xb
 6881 018d 3B       	 .uleb128 0x3b
 6882 018e 0B       	 .uleb128 0xb
 6883 018f 39       	 .uleb128 0x39
 6884 0190 0B       	 .uleb128 0xb
 6885 0191 01       	 .uleb128 0x1
 6886 0192 13       	 .uleb128 0x13
 6887 0193 00       	 .byte 0
 6888 0194 00       	 .byte 0
 6889 0195 18       	 .uleb128 0x18
 6890 0196 04       	 .uleb128 0x4
 6891 0197 01       	 .byte 0x1
 6892 0198 3E       	 .uleb128 0x3e
 6893 0199 0B       	 .uleb128 0xb
 6894 019a 0B       	 .uleb128 0xb
 6895 019b 0B       	 .uleb128 0xb
 6896 019c 49       	 .uleb128 0x49
 6897 019d 13       	 .uleb128 0x13
 6898 019e 3A       	 .uleb128 0x3a
 6899 019f 0B       	 .uleb128 0xb
 6900 01a0 3B       	 .uleb128 0x3b
 6901 01a1 0B       	 .uleb128 0xb
 6902 01a2 39       	 .uleb128 0x39
 6903 01a3 0B       	 .uleb128 0xb
 6904 01a4 01       	 .uleb128 0x1
 6905 01a5 13       	 .uleb128 0x13
 6906 01a6 00       	 .byte 0
 6907 01a7 00       	 .byte 0
 6908 01a8 19       	 .uleb128 0x19
 6909 01a9 28       	 .uleb128 0x28
 6910 01aa 00       	 .byte 0
 6911 01ab 03       	 .uleb128 0x3
 6912 01ac 0E       	 .uleb128 0xe
ARM GAS   			page 133


 6913 01ad 1C       	 .uleb128 0x1c
 6914 01ae 0B       	 .uleb128 0xb
 6915 01af 00       	 .byte 0
 6916 01b0 00       	 .byte 0
 6917 01b1 1A       	 .uleb128 0x1a
 6918 01b2 2F       	 .uleb128 0x2f
 6919 01b3 00       	 .byte 0
 6920 01b4 03       	 .uleb128 0x3
 6921 01b5 08       	 .uleb128 0x8
 6922 01b6 49       	 .uleb128 0x49
 6923 01b7 13       	 .uleb128 0x13
 6924 01b8 00       	 .byte 0
 6925 01b9 00       	 .byte 0
 6926 01ba 1B       	 .uleb128 0x1b
 6927 01bb 2E       	 .uleb128 0x2e
 6928 01bc 01       	 .byte 0x1
 6929 01bd 3F       	 .uleb128 0x3f
 6930 01be 19       	 .uleb128 0x19
 6931 01bf 03       	 .uleb128 0x3
 6932 01c0 0E       	 .uleb128 0xe
 6933 01c1 3A       	 .uleb128 0x3a
 6934 01c2 0B       	 .uleb128 0xb
 6935 01c3 3B       	 .uleb128 0x3b
 6936 01c4 0B       	 .uleb128 0xb
 6937 01c5 39       	 .uleb128 0x39
 6938 01c6 0B       	 .uleb128 0xb
 6939 01c7 6E       	 .uleb128 0x6e
 6940 01c8 0E       	 .uleb128 0xe
 6941 01c9 49       	 .uleb128 0x49
 6942 01ca 13       	 .uleb128 0x13
 6943 01cb 3C       	 .uleb128 0x3c
 6944 01cc 19       	 .uleb128 0x19
 6945 01cd 63       	 .uleb128 0x63
 6946 01ce 19       	 .uleb128 0x19
 6947 01cf 8B01     	 .uleb128 0x8b
 6948 01d1 0B       	 .uleb128 0xb
 6949 01d2 64       	 .uleb128 0x64
 6950 01d3 13       	 .uleb128 0x13
 6951 01d4 00       	 .byte 0
 6952 01d5 00       	 .byte 0
 6953 01d6 1C       	 .uleb128 0x1c
 6954 01d7 34       	 .uleb128 0x34
 6955 01d8 00       	 .byte 0
 6956 01d9 03       	 .uleb128 0x3
 6957 01da 0E       	 .uleb128 0xe
 6958 01db 3A       	 .uleb128 0x3a
 6959 01dc 0B       	 .uleb128 0xb
 6960 01dd 3B       	 .uleb128 0x3b
 6961 01de 0B       	 .uleb128 0xb
 6962 01df 39       	 .uleb128 0x39
 6963 01e0 0B       	 .uleb128 0xb
 6964 01e1 49       	 .uleb128 0x49
 6965 01e2 13       	 .uleb128 0x13
 6966 01e3 3C       	 .uleb128 0x3c
 6967 01e4 19       	 .uleb128 0x19
 6968 01e5 1C       	 .uleb128 0x1c
 6969 01e6 0A       	 .uleb128 0xa
ARM GAS   			page 134


 6970 01e7 6C       	 .uleb128 0x6c
 6971 01e8 19       	 .uleb128 0x19
 6972 01e9 00       	 .byte 0
 6973 01ea 00       	 .byte 0
 6974 01eb 1D       	 .uleb128 0x1d
 6975 01ec 39       	 .uleb128 0x39
 6976 01ed 00       	 .byte 0
 6977 01ee 03       	 .uleb128 0x3
 6978 01ef 0E       	 .uleb128 0xe
 6979 01f0 3A       	 .uleb128 0x3a
 6980 01f1 0B       	 .uleb128 0xb
 6981 01f2 3B       	 .uleb128 0x3b
 6982 01f3 0B       	 .uleb128 0xb
 6983 01f4 39       	 .uleb128 0x39
 6984 01f5 0B       	 .uleb128 0xb
 6985 01f6 00       	 .byte 0
 6986 01f7 00       	 .byte 0
 6987 01f8 1E       	 .uleb128 0x1e
 6988 01f9 08       	 .uleb128 0x8
 6989 01fa 00       	 .byte 0
 6990 01fb 3A       	 .uleb128 0x3a
 6991 01fc 0B       	 .uleb128 0xb
 6992 01fd 3B       	 .uleb128 0x3b
 6993 01fe 05       	 .uleb128 0x5
 6994 01ff 39       	 .uleb128 0x39
 6995 0200 0B       	 .uleb128 0xb
 6996 0201 18       	 .uleb128 0x18
 6997 0202 13       	 .uleb128 0x13
 6998 0203 00       	 .byte 0
 6999 0204 00       	 .byte 0
 7000 0205 1F       	 .uleb128 0x1f
 7001 0206 39       	 .uleb128 0x39
 7002 0207 01       	 .byte 0x1
 7003 0208 03       	 .uleb128 0x3
 7004 0209 0E       	 .uleb128 0xe
 7005 020a 3A       	 .uleb128 0x3a
 7006 020b 0B       	 .uleb128 0xb
 7007 020c 3B       	 .uleb128 0x3b
 7008 020d 05       	 .uleb128 0x5
 7009 020e 39       	 .uleb128 0x39
 7010 020f 0B       	 .uleb128 0xb
 7011 0210 01       	 .uleb128 0x1
 7012 0211 13       	 .uleb128 0x13
 7013 0212 00       	 .byte 0
 7014 0213 00       	 .byte 0
 7015 0214 20       	 .uleb128 0x20
 7016 0215 2E       	 .uleb128 0x2e
 7017 0216 01       	 .byte 0x1
 7018 0217 3F       	 .uleb128 0x3f
 7019 0218 19       	 .uleb128 0x19
 7020 0219 03       	 .uleb128 0x3
 7021 021a 08       	 .uleb128 0x8
 7022 021b 3A       	 .uleb128 0x3a
 7023 021c 0B       	 .uleb128 0xb
 7024 021d 3B       	 .uleb128 0x3b
 7025 021e 0B       	 .uleb128 0xb
 7026 021f 39       	 .uleb128 0x39
ARM GAS   			page 135


 7027 0220 0B       	 .uleb128 0xb
 7028 0221 6E       	 .uleb128 0x6e
 7029 0222 0E       	 .uleb128 0xe
 7030 0223 49       	 .uleb128 0x49
 7031 0224 13       	 .uleb128 0x13
 7032 0225 3C       	 .uleb128 0x3c
 7033 0226 19       	 .uleb128 0x19
 7034 0227 00       	 .byte 0
 7035 0228 00       	 .byte 0
 7036 0229 21       	 .uleb128 0x21
 7037 022a 24       	 .uleb128 0x24
 7038 022b 00       	 .byte 0
 7039 022c 0B       	 .uleb128 0xb
 7040 022d 0B       	 .uleb128 0xb
 7041 022e 3E       	 .uleb128 0x3e
 7042 022f 0B       	 .uleb128 0xb
 7043 0230 03       	 .uleb128 0x3
 7044 0231 08       	 .uleb128 0x8
 7045 0232 00       	 .byte 0
 7046 0233 00       	 .byte 0
 7047 0234 22       	 .uleb128 0x22
 7048 0235 16       	 .uleb128 0x16
 7049 0236 00       	 .byte 0
 7050 0237 03       	 .uleb128 0x3
 7051 0238 0E       	 .uleb128 0xe
 7052 0239 3A       	 .uleb128 0x3a
 7053 023a 0B       	 .uleb128 0xb
 7054 023b 3B       	 .uleb128 0x3b
 7055 023c 0B       	 .uleb128 0xb
 7056 023d 39       	 .uleb128 0x39
 7057 023e 0B       	 .uleb128 0xb
 7058 023f 49       	 .uleb128 0x49
 7059 0240 13       	 .uleb128 0x13
 7060 0241 00       	 .byte 0
 7061 0242 00       	 .byte 0
 7062 0243 23       	 .uleb128 0x23
 7063 0244 24       	 .uleb128 0x24
 7064 0245 00       	 .byte 0
 7065 0246 0B       	 .uleb128 0xb
 7066 0247 0B       	 .uleb128 0xb
 7067 0248 3E       	 .uleb128 0x3e
 7068 0249 0B       	 .uleb128 0xb
 7069 024a 03       	 .uleb128 0x3
 7070 024b 0E       	 .uleb128 0xe
 7071 024c 00       	 .byte 0
 7072 024d 00       	 .byte 0
 7073 024e 24       	 .uleb128 0x24
 7074 024f 3B       	 .uleb128 0x3b
 7075 0250 00       	 .byte 0
 7076 0251 03       	 .uleb128 0x3
 7077 0252 0E       	 .uleb128 0xe
 7078 0253 00       	 .byte 0
 7079 0254 00       	 .byte 0
 7080 0255 25       	 .uleb128 0x25
 7081 0256 0F       	 .uleb128 0xf
 7082 0257 00       	 .byte 0
 7083 0258 0B       	 .uleb128 0xb
ARM GAS   			page 136


 7084 0259 0B       	 .uleb128 0xb
 7085 025a 00       	 .byte 0
 7086 025b 00       	 .byte 0
 7087 025c 26       	 .uleb128 0x26
 7088 025d 0F       	 .uleb128 0xf
 7089 025e 00       	 .byte 0
 7090 025f 0B       	 .uleb128 0xb
 7091 0260 0B       	 .uleb128 0xb
 7092 0261 49       	 .uleb128 0x49
 7093 0262 13       	 .uleb128 0x13
 7094 0263 00       	 .byte 0
 7095 0264 00       	 .byte 0
 7096 0265 27       	 .uleb128 0x27
 7097 0266 10       	 .uleb128 0x10
 7098 0267 00       	 .byte 0
 7099 0268 0B       	 .uleb128 0xb
 7100 0269 0B       	 .uleb128 0xb
 7101 026a 49       	 .uleb128 0x49
 7102 026b 13       	 .uleb128 0x13
 7103 026c 00       	 .byte 0
 7104 026d 00       	 .byte 0
 7105 026e 28       	 .uleb128 0x28
 7106 026f 42       	 .uleb128 0x42
 7107 0270 00       	 .byte 0
 7108 0271 0B       	 .uleb128 0xb
 7109 0272 0B       	 .uleb128 0xb
 7110 0273 49       	 .uleb128 0x49
 7111 0274 13       	 .uleb128 0x13
 7112 0275 00       	 .byte 0
 7113 0276 00       	 .byte 0
 7114 0277 29       	 .uleb128 0x29
 7115 0278 34       	 .uleb128 0x34
 7116 0279 00       	 .byte 0
 7117 027a 47       	 .uleb128 0x47
 7118 027b 13       	 .uleb128 0x13
 7119 027c 00       	 .byte 0
 7120 027d 00       	 .byte 0
 7121 027e 2A       	 .uleb128 0x2a
 7122 027f 3A       	 .uleb128 0x3a
 7123 0280 00       	 .byte 0
 7124 0281 3A       	 .uleb128 0x3a
 7125 0282 0B       	 .uleb128 0xb
 7126 0283 3B       	 .uleb128 0x3b
 7127 0284 0B       	 .uleb128 0xb
 7128 0285 39       	 .uleb128 0x39
 7129 0286 0B       	 .uleb128 0xb
 7130 0287 18       	 .uleb128 0x18
 7131 0288 13       	 .uleb128 0x13
 7132 0289 00       	 .byte 0
 7133 028a 00       	 .byte 0
 7134 028b 2B       	 .uleb128 0x2b
 7135 028c 13       	 .uleb128 0x13
 7136 028d 01       	 .byte 0x1
 7137 028e 0B       	 .uleb128 0xb
 7138 028f 0B       	 .uleb128 0xb
 7139 0290 3A       	 .uleb128 0x3a
 7140 0291 0B       	 .uleb128 0xb
ARM GAS   			page 137


 7141 0292 3B       	 .uleb128 0x3b
 7142 0293 0B       	 .uleb128 0xb
 7143 0294 39       	 .uleb128 0x39
 7144 0295 0B       	 .uleb128 0xb
 7145 0296 6E       	 .uleb128 0x6e
 7146 0297 0E       	 .uleb128 0xe
 7147 0298 01       	 .uleb128 0x1
 7148 0299 13       	 .uleb128 0x13
 7149 029a 00       	 .byte 0
 7150 029b 00       	 .byte 0
 7151 029c 2C       	 .uleb128 0x2c
 7152 029d 17       	 .uleb128 0x17
 7153 029e 01       	 .byte 0x1
 7154 029f 0B       	 .uleb128 0xb
 7155 02a0 0B       	 .uleb128 0xb
 7156 02a1 3A       	 .uleb128 0x3a
 7157 02a2 0B       	 .uleb128 0xb
 7158 02a3 3B       	 .uleb128 0x3b
 7159 02a4 0B       	 .uleb128 0xb
 7160 02a5 39       	 .uleb128 0x39
 7161 02a6 0B       	 .uleb128 0xb
 7162 02a7 01       	 .uleb128 0x1
 7163 02a8 13       	 .uleb128 0x13
 7164 02a9 00       	 .byte 0
 7165 02aa 00       	 .byte 0
 7166 02ab 2D       	 .uleb128 0x2d
 7167 02ac 0D       	 .uleb128 0xd
 7168 02ad 00       	 .byte 0
 7169 02ae 03       	 .uleb128 0x3
 7170 02af 0E       	 .uleb128 0xe
 7171 02b0 3A       	 .uleb128 0x3a
 7172 02b1 0B       	 .uleb128 0xb
 7173 02b2 3B       	 .uleb128 0x3b
 7174 02b3 0B       	 .uleb128 0xb
 7175 02b4 39       	 .uleb128 0x39
 7176 02b5 0B       	 .uleb128 0xb
 7177 02b6 49       	 .uleb128 0x49
 7178 02b7 13       	 .uleb128 0x13
 7179 02b8 00       	 .byte 0
 7180 02b9 00       	 .byte 0
 7181 02ba 2E       	 .uleb128 0x2e
 7182 02bb 01       	 .uleb128 0x1
 7183 02bc 01       	 .byte 0x1
 7184 02bd 49       	 .uleb128 0x49
 7185 02be 13       	 .uleb128 0x13
 7186 02bf 01       	 .uleb128 0x1
 7187 02c0 13       	 .uleb128 0x13
 7188 02c1 00       	 .byte 0
 7189 02c2 00       	 .byte 0
 7190 02c3 2F       	 .uleb128 0x2f
 7191 02c4 21       	 .uleb128 0x21
 7192 02c5 00       	 .byte 0
 7193 02c6 49       	 .uleb128 0x49
 7194 02c7 13       	 .uleb128 0x13
 7195 02c8 2F       	 .uleb128 0x2f
 7196 02c9 0B       	 .uleb128 0xb
 7197 02ca 00       	 .byte 0
ARM GAS   			page 138


 7198 02cb 00       	 .byte 0
 7199 02cc 30       	 .uleb128 0x30
 7200 02cd 13       	 .uleb128 0x13
 7201 02ce 01       	 .byte 0x1
 7202 02cf 03       	 .uleb128 0x3
 7203 02d0 0E       	 .uleb128 0xe
 7204 02d1 0B       	 .uleb128 0xb
 7205 02d2 0B       	 .uleb128 0xb
 7206 02d3 3A       	 .uleb128 0x3a
 7207 02d4 0B       	 .uleb128 0xb
 7208 02d5 3B       	 .uleb128 0x3b
 7209 02d6 0B       	 .uleb128 0xb
 7210 02d7 01       	 .uleb128 0x1
 7211 02d8 13       	 .uleb128 0x13
 7212 02d9 00       	 .byte 0
 7213 02da 00       	 .byte 0
 7214 02db 31       	 .uleb128 0x31
 7215 02dc 0D       	 .uleb128 0xd
 7216 02dd 00       	 .byte 0
 7217 02de 03       	 .uleb128 0x3
 7218 02df 0E       	 .uleb128 0xe
 7219 02e0 49       	 .uleb128 0x49
 7220 02e1 13       	 .uleb128 0x13
 7221 02e2 38       	 .uleb128 0x38
 7222 02e3 0B       	 .uleb128 0xb
 7223 02e4 34       	 .uleb128 0x34
 7224 02e5 19       	 .uleb128 0x19
 7225 02e6 00       	 .byte 0
 7226 02e7 00       	 .byte 0
 7227 02e8 32       	 .uleb128 0x32
 7228 02e9 13       	 .uleb128 0x13
 7229 02ea 00       	 .byte 0
 7230 02eb 03       	 .uleb128 0x3
 7231 02ec 0E       	 .uleb128 0xe
 7232 02ed 3C       	 .uleb128 0x3c
 7233 02ee 19       	 .uleb128 0x19
 7234 02ef 00       	 .byte 0
 7235 02f0 00       	 .byte 0
 7236 02f1 33       	 .uleb128 0x33
 7237 02f2 0D       	 .uleb128 0xd
 7238 02f3 00       	 .byte 0
 7239 02f4 03       	 .uleb128 0x3
 7240 02f5 08       	 .uleb128 0x8
 7241 02f6 3A       	 .uleb128 0x3a
 7242 02f7 0B       	 .uleb128 0xb
 7243 02f8 3B       	 .uleb128 0x3b
 7244 02f9 0B       	 .uleb128 0xb
 7245 02fa 39       	 .uleb128 0x39
 7246 02fb 0B       	 .uleb128 0xb
 7247 02fc 49       	 .uleb128 0x49
 7248 02fd 13       	 .uleb128 0x13
 7249 02fe 38       	 .uleb128 0x38
 7250 02ff 0B       	 .uleb128 0xb
 7251 0300 00       	 .byte 0
 7252 0301 00       	 .byte 0
 7253 0302 34       	 .uleb128 0x34
 7254 0303 13       	 .uleb128 0x13
ARM GAS   			page 139


 7255 0304 01       	 .byte 0x1
 7256 0305 03       	 .uleb128 0x3
 7257 0306 0E       	 .uleb128 0xe
 7258 0307 0B       	 .uleb128 0xb
 7259 0308 05       	 .uleb128 0x5
 7260 0309 3A       	 .uleb128 0x3a
 7261 030a 0B       	 .uleb128 0xb
 7262 030b 3B       	 .uleb128 0x3b
 7263 030c 0B       	 .uleb128 0xb
 7264 030d 39       	 .uleb128 0x39
 7265 030e 0B       	 .uleb128 0xb
 7266 030f 01       	 .uleb128 0x1
 7267 0310 13       	 .uleb128 0x13
 7268 0311 00       	 .byte 0
 7269 0312 00       	 .byte 0
 7270 0313 35       	 .uleb128 0x35
 7271 0314 0D       	 .uleb128 0xd
 7272 0315 00       	 .byte 0
 7273 0316 03       	 .uleb128 0x3
 7274 0317 0E       	 .uleb128 0xe
 7275 0318 3A       	 .uleb128 0x3a
 7276 0319 0B       	 .uleb128 0xb
 7277 031a 3B       	 .uleb128 0x3b
 7278 031b 0B       	 .uleb128 0xb
 7279 031c 39       	 .uleb128 0x39
 7280 031d 0B       	 .uleb128 0xb
 7281 031e 49       	 .uleb128 0x49
 7282 031f 13       	 .uleb128 0x13
 7283 0320 38       	 .uleb128 0x38
 7284 0321 05       	 .uleb128 0x5
 7285 0322 00       	 .byte 0
 7286 0323 00       	 .byte 0
 7287 0324 36       	 .uleb128 0x36
 7288 0325 15       	 .uleb128 0x15
 7289 0326 00       	 .byte 0
 7290 0327 00       	 .byte 0
 7291 0328 00       	 .byte 0
 7292 0329 37       	 .uleb128 0x37
 7293 032a 15       	 .uleb128 0x15
 7294 032b 01       	 .byte 0x1
 7295 032c 49       	 .uleb128 0x49
 7296 032d 13       	 .uleb128 0x13
 7297 032e 01       	 .uleb128 0x1
 7298 032f 13       	 .uleb128 0x13
 7299 0330 00       	 .byte 0
 7300 0331 00       	 .byte 0
 7301 0332 38       	 .uleb128 0x38
 7302 0333 13       	 .uleb128 0x13
 7303 0334 01       	 .byte 0x1
 7304 0335 03       	 .uleb128 0x3
 7305 0336 0E       	 .uleb128 0xe
 7306 0337 0B       	 .uleb128 0xb
 7307 0338 05       	 .uleb128 0x5
 7308 0339 3A       	 .uleb128 0x3a
 7309 033a 0B       	 .uleb128 0xb
 7310 033b 3B       	 .uleb128 0x3b
 7311 033c 05       	 .uleb128 0x5
ARM GAS   			page 140


 7312 033d 39       	 .uleb128 0x39
 7313 033e 0B       	 .uleb128 0xb
 7314 033f 01       	 .uleb128 0x1
 7315 0340 13       	 .uleb128 0x13
 7316 0341 00       	 .byte 0
 7317 0342 00       	 .byte 0
 7318 0343 39       	 .uleb128 0x39
 7319 0344 17       	 .uleb128 0x17
 7320 0345 01       	 .byte 0x1
 7321 0346 0B       	 .uleb128 0xb
 7322 0347 0B       	 .uleb128 0xb
 7323 0348 3A       	 .uleb128 0x3a
 7324 0349 0B       	 .uleb128 0xb
 7325 034a 3B       	 .uleb128 0x3b
 7326 034b 05       	 .uleb128 0x5
 7327 034c 39       	 .uleb128 0x39
 7328 034d 0B       	 .uleb128 0xb
 7329 034e 01       	 .uleb128 0x1
 7330 034f 13       	 .uleb128 0x13
 7331 0350 00       	 .byte 0
 7332 0351 00       	 .byte 0
 7333 0352 3A       	 .uleb128 0x3a
 7334 0353 13       	 .uleb128 0x13
 7335 0354 01       	 .byte 0x1
 7336 0355 0B       	 .uleb128 0xb
 7337 0356 0B       	 .uleb128 0xb
 7338 0357 3A       	 .uleb128 0x3a
 7339 0358 0B       	 .uleb128 0xb
 7340 0359 3B       	 .uleb128 0x3b
 7341 035a 05       	 .uleb128 0x5
 7342 035b 39       	 .uleb128 0x39
 7343 035c 0B       	 .uleb128 0xb
 7344 035d 01       	 .uleb128 0x1
 7345 035e 13       	 .uleb128 0x13
 7346 035f 00       	 .byte 0
 7347 0360 00       	 .byte 0
 7348 0361 3B       	 .uleb128 0x3b
 7349 0362 0D       	 .uleb128 0xd
 7350 0363 00       	 .byte 0
 7351 0364 03       	 .uleb128 0x3
 7352 0365 0E       	 .uleb128 0xe
 7353 0366 3A       	 .uleb128 0x3a
 7354 0367 0B       	 .uleb128 0xb
 7355 0368 3B       	 .uleb128 0x3b
 7356 0369 05       	 .uleb128 0x5
 7357 036a 39       	 .uleb128 0x39
 7358 036b 0B       	 .uleb128 0xb
 7359 036c 49       	 .uleb128 0x49
 7360 036d 13       	 .uleb128 0x13
 7361 036e 38       	 .uleb128 0x38
 7362 036f 0B       	 .uleb128 0xb
 7363 0370 00       	 .byte 0
 7364 0371 00       	 .byte 0
 7365 0372 3C       	 .uleb128 0x3c
 7366 0373 0D       	 .uleb128 0xd
 7367 0374 00       	 .byte 0
 7368 0375 03       	 .uleb128 0x3
ARM GAS   			page 141


 7369 0376 0E       	 .uleb128 0xe
 7370 0377 3A       	 .uleb128 0x3a
 7371 0378 0B       	 .uleb128 0xb
 7372 0379 3B       	 .uleb128 0x3b
 7373 037a 05       	 .uleb128 0x5
 7374 037b 39       	 .uleb128 0x39
 7375 037c 0B       	 .uleb128 0xb
 7376 037d 49       	 .uleb128 0x49
 7377 037e 13       	 .uleb128 0x13
 7378 037f 00       	 .byte 0
 7379 0380 00       	 .byte 0
 7380 0381 3D       	 .uleb128 0x3d
 7381 0382 0D       	 .uleb128 0xd
 7382 0383 00       	 .byte 0
 7383 0384 03       	 .uleb128 0x3
 7384 0385 0E       	 .uleb128 0xe
 7385 0386 3A       	 .uleb128 0x3a
 7386 0387 0B       	 .uleb128 0xb
 7387 0388 3B       	 .uleb128 0x3b
 7388 0389 05       	 .uleb128 0x5
 7389 038a 39       	 .uleb128 0x39
 7390 038b 0B       	 .uleb128 0xb
 7391 038c 49       	 .uleb128 0x49
 7392 038d 13       	 .uleb128 0x13
 7393 038e 38       	 .uleb128 0x38
 7394 038f 05       	 .uleb128 0x5
 7395 0390 00       	 .byte 0
 7396 0391 00       	 .byte 0
 7397 0392 3E       	 .uleb128 0x3e
 7398 0393 13       	 .uleb128 0x13
 7399 0394 01       	 .byte 0x1
 7400 0395 03       	 .uleb128 0x3
 7401 0396 0E       	 .uleb128 0xe
 7402 0397 0B       	 .uleb128 0xb
 7403 0398 0B       	 .uleb128 0xb
 7404 0399 3A       	 .uleb128 0x3a
 7405 039a 0B       	 .uleb128 0xb
 7406 039b 3B       	 .uleb128 0x3b
 7407 039c 05       	 .uleb128 0x5
 7408 039d 39       	 .uleb128 0x39
 7409 039e 0B       	 .uleb128 0xb
 7410 039f 01       	 .uleb128 0x1
 7411 03a0 13       	 .uleb128 0x13
 7412 03a1 00       	 .byte 0
 7413 03a2 00       	 .byte 0
 7414 03a3 3F       	 .uleb128 0x3f
 7415 03a4 15       	 .uleb128 0x15
 7416 03a5 01       	 .byte 0x1
 7417 03a6 01       	 .uleb128 0x1
 7418 03a7 13       	 .uleb128 0x13
 7419 03a8 00       	 .byte 0
 7420 03a9 00       	 .byte 0
 7421 03aa 40       	 .uleb128 0x40
 7422 03ab 2E       	 .uleb128 0x2e
 7423 03ac 01       	 .byte 0x1
 7424 03ad 3F       	 .uleb128 0x3f
 7425 03ae 19       	 .uleb128 0x19
ARM GAS   			page 142


 7426 03af 03       	 .uleb128 0x3
 7427 03b0 0E       	 .uleb128 0xe
 7428 03b1 3A       	 .uleb128 0x3a
 7429 03b2 0B       	 .uleb128 0xb
 7430 03b3 3B       	 .uleb128 0x3b
 7431 03b4 0B       	 .uleb128 0xb
 7432 03b5 39       	 .uleb128 0x39
 7433 03b6 0B       	 .uleb128 0xb
 7434 03b7 49       	 .uleb128 0x49
 7435 03b8 13       	 .uleb128 0x13
 7436 03b9 3C       	 .uleb128 0x3c
 7437 03ba 19       	 .uleb128 0x19
 7438 03bb 01       	 .uleb128 0x1
 7439 03bc 13       	 .uleb128 0x13
 7440 03bd 00       	 .byte 0
 7441 03be 00       	 .byte 0
 7442 03bf 41       	 .uleb128 0x41
 7443 03c0 2E       	 .uleb128 0x2e
 7444 03c1 01       	 .byte 0x1
 7445 03c2 3F       	 .uleb128 0x3f
 7446 03c3 19       	 .uleb128 0x19
 7447 03c4 03       	 .uleb128 0x3
 7448 03c5 0E       	 .uleb128 0xe
 7449 03c6 3A       	 .uleb128 0x3a
 7450 03c7 0B       	 .uleb128 0xb
 7451 03c8 3B       	 .uleb128 0x3b
 7452 03c9 05       	 .uleb128 0x5
 7453 03ca 39       	 .uleb128 0x39
 7454 03cb 0B       	 .uleb128 0xb
 7455 03cc 49       	 .uleb128 0x49
 7456 03cd 13       	 .uleb128 0x13
 7457 03ce 3C       	 .uleb128 0x3c
 7458 03cf 19       	 .uleb128 0x19
 7459 03d0 01       	 .uleb128 0x1
 7460 03d1 13       	 .uleb128 0x13
 7461 03d2 00       	 .byte 0
 7462 03d3 00       	 .byte 0
 7463 03d4 42       	 .uleb128 0x42
 7464 03d5 18       	 .uleb128 0x18
 7465 03d6 00       	 .byte 0
 7466 03d7 00       	 .byte 0
 7467 03d8 00       	 .byte 0
 7468 03d9 43       	 .uleb128 0x43
 7469 03da 2E       	 .uleb128 0x2e
 7470 03db 00       	 .byte 0
 7471 03dc 3F       	 .uleb128 0x3f
 7472 03dd 19       	 .uleb128 0x19
 7473 03de 03       	 .uleb128 0x3
 7474 03df 0E       	 .uleb128 0xe
 7475 03e0 3A       	 .uleb128 0x3a
 7476 03e1 0B       	 .uleb128 0xb
 7477 03e2 3B       	 .uleb128 0x3b
 7478 03e3 0B       	 .uleb128 0xb
 7479 03e4 39       	 .uleb128 0x39
 7480 03e5 0B       	 .uleb128 0xb
 7481 03e6 49       	 .uleb128 0x49
 7482 03e7 13       	 .uleb128 0x13
ARM GAS   			page 143


 7483 03e8 3C       	 .uleb128 0x3c
 7484 03e9 19       	 .uleb128 0x19
 7485 03ea 00       	 .byte 0
 7486 03eb 00       	 .byte 0
 7487 03ec 44       	 .uleb128 0x44
 7488 03ed 13       	 .uleb128 0x13
 7489 03ee 00       	 .byte 0
 7490 03ef 03       	 .uleb128 0x3
 7491 03f0 08       	 .uleb128 0x8
 7492 03f1 3C       	 .uleb128 0x3c
 7493 03f2 19       	 .uleb128 0x19
 7494 03f3 00       	 .byte 0
 7495 03f4 00       	 .byte 0
 7496 03f5 45       	 .uleb128 0x45
 7497 03f6 26       	 .uleb128 0x26
 7498 03f7 00       	 .byte 0
 7499 03f8 00       	 .byte 0
 7500 03f9 00       	 .byte 0
 7501 03fa 46       	 .uleb128 0x46
 7502 03fb 2E       	 .uleb128 0x2e
 7503 03fc 01       	 .byte 0x1
 7504 03fd 3F       	 .uleb128 0x3f
 7505 03fe 19       	 .uleb128 0x19
 7506 03ff 03       	 .uleb128 0x3
 7507 0400 08       	 .uleb128 0x8
 7508 0401 3A       	 .uleb128 0x3a
 7509 0402 0B       	 .uleb128 0xb
 7510 0403 3B       	 .uleb128 0x3b
 7511 0404 0B       	 .uleb128 0xb
 7512 0405 39       	 .uleb128 0x39
 7513 0406 0B       	 .uleb128 0xb
 7514 0407 49       	 .uleb128 0x49
 7515 0408 13       	 .uleb128 0x13
 7516 0409 3C       	 .uleb128 0x3c
 7517 040a 19       	 .uleb128 0x19
 7518 040b 01       	 .uleb128 0x1
 7519 040c 13       	 .uleb128 0x13
 7520 040d 00       	 .byte 0
 7521 040e 00       	 .byte 0
 7522 040f 47       	 .uleb128 0x47
 7523 0410 2E       	 .uleb128 0x2e
 7524 0411 01       	 .byte 0x1
 7525 0412 3F       	 .uleb128 0x3f
 7526 0413 19       	 .uleb128 0x19
 7527 0414 03       	 .uleb128 0x3
 7528 0415 0E       	 .uleb128 0xe
 7529 0416 3A       	 .uleb128 0x3a
 7530 0417 0B       	 .uleb128 0xb
 7531 0418 3B       	 .uleb128 0x3b
 7532 0419 0B       	 .uleb128 0xb
 7533 041a 39       	 .uleb128 0x39
 7534 041b 0B       	 .uleb128 0xb
 7535 041c 3C       	 .uleb128 0x3c
 7536 041d 19       	 .uleb128 0x19
 7537 041e 01       	 .uleb128 0x1
 7538 041f 13       	 .uleb128 0x13
 7539 0420 00       	 .byte 0
ARM GAS   			page 144


 7540 0421 00       	 .byte 0
 7541 0422 48       	 .uleb128 0x48
 7542 0423 02       	 .uleb128 0x2
 7543 0424 01       	 .byte 0x1
 7544 0425 03       	 .uleb128 0x3
 7545 0426 0E       	 .uleb128 0xe
 7546 0427 0B       	 .uleb128 0xb
 7547 0428 0B       	 .uleb128 0xb
 7548 0429 3A       	 .uleb128 0x3a
 7549 042a 0B       	 .uleb128 0xb
 7550 042b 3B       	 .uleb128 0x3b
 7551 042c 0B       	 .uleb128 0xb
 7552 042d 39       	 .uleb128 0x39
 7553 042e 0B       	 .uleb128 0xb
 7554 042f 1D       	 .uleb128 0x1d
 7555 0430 13       	 .uleb128 0x13
 7556 0431 01       	 .uleb128 0x1
 7557 0432 13       	 .uleb128 0x13
 7558 0433 00       	 .byte 0
 7559 0434 00       	 .byte 0
 7560 0435 49       	 .uleb128 0x49
 7561 0436 1C       	 .uleb128 0x1c
 7562 0437 00       	 .byte 0
 7563 0438 49       	 .uleb128 0x49
 7564 0439 13       	 .uleb128 0x13
 7565 043a 38       	 .uleb128 0x38
 7566 043b 0B       	 .uleb128 0xb
 7567 043c 32       	 .uleb128 0x32
 7568 043d 0B       	 .uleb128 0xb
 7569 043e 00       	 .byte 0
 7570 043f 00       	 .byte 0
 7571 0440 4A       	 .uleb128 0x4a
 7572 0441 2E       	 .uleb128 0x2e
 7573 0442 01       	 .byte 0x1
 7574 0443 3F       	 .uleb128 0x3f
 7575 0444 19       	 .uleb128 0x19
 7576 0445 03       	 .uleb128 0x3
 7577 0446 0E       	 .uleb128 0xe
 7578 0447 6E       	 .uleb128 0x6e
 7579 0448 0E       	 .uleb128 0xe
 7580 0449 49       	 .uleb128 0x49
 7581 044a 13       	 .uleb128 0x13
 7582 044b 34       	 .uleb128 0x34
 7583 044c 19       	 .uleb128 0x19
 7584 044d 32       	 .uleb128 0x32
 7585 044e 0B       	 .uleb128 0xb
 7586 044f 3C       	 .uleb128 0x3c
 7587 0450 19       	 .uleb128 0x19
 7588 0451 64       	 .uleb128 0x64
 7589 0452 13       	 .uleb128 0x13
 7590 0453 01       	 .uleb128 0x1
 7591 0454 13       	 .uleb128 0x13
 7592 0455 00       	 .byte 0
 7593 0456 00       	 .byte 0
 7594 0457 4B       	 .uleb128 0x4b
 7595 0458 2E       	 .uleb128 0x2e
 7596 0459 01       	 .byte 0x1
ARM GAS   			page 145


 7597 045a 3F       	 .uleb128 0x3f
 7598 045b 19       	 .uleb128 0x19
 7599 045c 03       	 .uleb128 0x3
 7600 045d 0E       	 .uleb128 0xe
 7601 045e 3A       	 .uleb128 0x3a
 7602 045f 0B       	 .uleb128 0xb
 7603 0460 3B       	 .uleb128 0x3b
 7604 0461 0B       	 .uleb128 0xb
 7605 0462 39       	 .uleb128 0x39
 7606 0463 0B       	 .uleb128 0xb
 7607 0464 6E       	 .uleb128 0x6e
 7608 0465 0E       	 .uleb128 0xe
 7609 0466 49       	 .uleb128 0x49
 7610 0467 13       	 .uleb128 0x13
 7611 0468 4C       	 .uleb128 0x4c
 7612 0469 0B       	 .uleb128 0xb
 7613 046a 1D       	 .uleb128 0x1d
 7614 046b 13       	 .uleb128 0x13
 7615 046c 32       	 .uleb128 0x32
 7616 046d 0B       	 .uleb128 0xb
 7617 046e 3C       	 .uleb128 0x3c
 7618 046f 19       	 .uleb128 0x19
 7619 0470 64       	 .uleb128 0x64
 7620 0471 13       	 .uleb128 0x13
 7621 0472 01       	 .uleb128 0x1
 7622 0473 13       	 .uleb128 0x13
 7623 0474 00       	 .byte 0
 7624 0475 00       	 .byte 0
 7625 0476 4C       	 .uleb128 0x4c
 7626 0477 2E       	 .uleb128 0x2e
 7627 0478 01       	 .byte 0x1
 7628 0479 3F       	 .uleb128 0x3f
 7629 047a 19       	 .uleb128 0x19
 7630 047b 03       	 .uleb128 0x3
 7631 047c 0E       	 .uleb128 0xe
 7632 047d 3A       	 .uleb128 0x3a
 7633 047e 0B       	 .uleb128 0xb
 7634 047f 3B       	 .uleb128 0x3b
 7635 0480 0B       	 .uleb128 0xb
 7636 0481 39       	 .uleb128 0x39
 7637 0482 0B       	 .uleb128 0xb
 7638 0483 6E       	 .uleb128 0x6e
 7639 0484 0E       	 .uleb128 0xe
 7640 0485 4C       	 .uleb128 0x4c
 7641 0486 0B       	 .uleb128 0xb
 7642 0487 4D       	 .uleb128 0x4d
 7643 0488 18       	 .uleb128 0x18
 7644 0489 1D       	 .uleb128 0x1d
 7645 048a 13       	 .uleb128 0x13
 7646 048b 32       	 .uleb128 0x32
 7647 048c 0B       	 .uleb128 0xb
 7648 048d 3C       	 .uleb128 0x3c
 7649 048e 19       	 .uleb128 0x19
 7650 048f 64       	 .uleb128 0x64
 7651 0490 13       	 .uleb128 0x13
 7652 0491 01       	 .uleb128 0x1
 7653 0492 13       	 .uleb128 0x13
ARM GAS   			page 146


 7654 0493 00       	 .byte 0
 7655 0494 00       	 .byte 0
 7656 0495 4D       	 .uleb128 0x4d
 7657 0496 0D       	 .uleb128 0xd
 7658 0497 00       	 .byte 0
 7659 0498 03       	 .uleb128 0x3
 7660 0499 0E       	 .uleb128 0xe
 7661 049a 49       	 .uleb128 0x49
 7662 049b 13       	 .uleb128 0x13
 7663 049c 38       	 .uleb128 0x38
 7664 049d 0B       	 .uleb128 0xb
 7665 049e 34       	 .uleb128 0x34
 7666 049f 19       	 .uleb128 0x19
 7667 04a0 32       	 .uleb128 0x32
 7668 04a1 0B       	 .uleb128 0xb
 7669 04a2 00       	 .byte 0
 7670 04a3 00       	 .byte 0
 7671 04a4 4E       	 .uleb128 0x4e
 7672 04a5 0D       	 .uleb128 0xd
 7673 04a6 00       	 .byte 0
 7674 04a7 03       	 .uleb128 0x3
 7675 04a8 0E       	 .uleb128 0xe
 7676 04a9 3A       	 .uleb128 0x3a
 7677 04aa 0B       	 .uleb128 0xb
 7678 04ab 3B       	 .uleb128 0x3b
 7679 04ac 0B       	 .uleb128 0xb
 7680 04ad 39       	 .uleb128 0x39
 7681 04ae 0B       	 .uleb128 0xb
 7682 04af 49       	 .uleb128 0x49
 7683 04b0 13       	 .uleb128 0x13
 7684 04b1 38       	 .uleb128 0x38
 7685 04b2 0B       	 .uleb128 0xb
 7686 04b3 32       	 .uleb128 0x32
 7687 04b4 0B       	 .uleb128 0xb
 7688 04b5 00       	 .byte 0
 7689 04b6 00       	 .byte 0
 7690 04b7 4F       	 .uleb128 0x4f
 7691 04b8 02       	 .uleb128 0x2
 7692 04b9 01       	 .byte 0x1
 7693 04ba 03       	 .uleb128 0x3
 7694 04bb 0E       	 .uleb128 0xe
 7695 04bc 0B       	 .uleb128 0xb
 7696 04bd 0B       	 .uleb128 0xb
 7697 04be 3A       	 .uleb128 0x3a
 7698 04bf 0B       	 .uleb128 0xb
 7699 04c0 3B       	 .uleb128 0x3b
 7700 04c1 0B       	 .uleb128 0xb
 7701 04c2 39       	 .uleb128 0x39
 7702 04c3 0B       	 .uleb128 0xb
 7703 04c4 1D       	 .uleb128 0x1d
 7704 04c5 13       	 .uleb128 0x13
 7705 04c6 00       	 .byte 0
 7706 04c7 00       	 .byte 0
 7707 04c8 50       	 .uleb128 0x50
 7708 04c9 2E       	 .uleb128 0x2e
 7709 04ca 01       	 .byte 0x1
 7710 04cb 3F       	 .uleb128 0x3f
ARM GAS   			page 147


 7711 04cc 19       	 .uleb128 0x19
 7712 04cd 03       	 .uleb128 0x3
 7713 04ce 0E       	 .uleb128 0xe
 7714 04cf 6E       	 .uleb128 0x6e
 7715 04d0 0E       	 .uleb128 0xe
 7716 04d1 49       	 .uleb128 0x49
 7717 04d2 13       	 .uleb128 0x13
 7718 04d3 4C       	 .uleb128 0x4c
 7719 04d4 0B       	 .uleb128 0xb
 7720 04d5 1D       	 .uleb128 0x1d
 7721 04d6 13       	 .uleb128 0x13
 7722 04d7 34       	 .uleb128 0x34
 7723 04d8 19       	 .uleb128 0x19
 7724 04d9 32       	 .uleb128 0x32
 7725 04da 0B       	 .uleb128 0xb
 7726 04db 3C       	 .uleb128 0x3c
 7727 04dc 19       	 .uleb128 0x19
 7728 04dd 64       	 .uleb128 0x64
 7729 04de 13       	 .uleb128 0x13
 7730 04df 00       	 .byte 0
 7731 04e0 00       	 .byte 0
 7732 04e1 51       	 .uleb128 0x51
 7733 04e2 0F       	 .uleb128 0xf
 7734 04e3 00       	 .byte 0
 7735 04e4 0B       	 .uleb128 0xb
 7736 04e5 0B       	 .uleb128 0xb
 7737 04e6 03       	 .uleb128 0x3
 7738 04e7 0E       	 .uleb128 0xe
 7739 04e8 49       	 .uleb128 0x49
 7740 04e9 13       	 .uleb128 0x13
 7741 04ea 00       	 .byte 0
 7742 04eb 00       	 .byte 0
 7743 04ec 52       	 .uleb128 0x52
 7744 04ed 2E       	 .uleb128 0x2e
 7745 04ee 01       	 .byte 0x1
 7746 04ef 47       	 .uleb128 0x47
 7747 04f0 13       	 .uleb128 0x13
 7748 04f1 3A       	 .uleb128 0x3a
 7749 04f2 0B       	 .uleb128 0xb
 7750 04f3 3B       	 .uleb128 0x3b
 7751 04f4 0B       	 .uleb128 0xb
 7752 04f5 39       	 .uleb128 0x39
 7753 04f6 0B       	 .uleb128 0xb
 7754 04f7 49       	 .uleb128 0x49
 7755 04f8 13       	 .uleb128 0x13
 7756 04f9 64       	 .uleb128 0x64
 7757 04fa 13       	 .uleb128 0x13
 7758 04fb 20       	 .uleb128 0x20
 7759 04fc 0B       	 .uleb128 0xb
 7760 04fd 01       	 .uleb128 0x1
 7761 04fe 13       	 .uleb128 0x13
 7762 04ff 00       	 .byte 0
 7763 0500 00       	 .byte 0
 7764 0501 53       	 .uleb128 0x53
 7765 0502 05       	 .uleb128 0x5
 7766 0503 00       	 .byte 0
 7767 0504 03       	 .uleb128 0x3
ARM GAS   			page 148


 7768 0505 0E       	 .uleb128 0xe
 7769 0506 49       	 .uleb128 0x49
 7770 0507 13       	 .uleb128 0x13
 7771 0508 34       	 .uleb128 0x34
 7772 0509 19       	 .uleb128 0x19
 7773 050a 00       	 .byte 0
 7774 050b 00       	 .byte 0
 7775 050c 54       	 .uleb128 0x54
 7776 050d 2E       	 .uleb128 0x2e
 7777 050e 01       	 .byte 0x1
 7778 050f 31       	 .uleb128 0x31
 7779 0510 13       	 .uleb128 0x13
 7780 0511 6E       	 .uleb128 0x6e
 7781 0512 0E       	 .uleb128 0xe
 7782 0513 64       	 .uleb128 0x64
 7783 0514 13       	 .uleb128 0x13
 7784 0515 11       	 .uleb128 0x11
 7785 0516 01       	 .uleb128 0x1
 7786 0517 12       	 .uleb128 0x12
 7787 0518 06       	 .uleb128 0x6
 7788 0519 40       	 .uleb128 0x40
 7789 051a 18       	 .uleb128 0x18
 7790 051b 9642     	 .uleb128 0x2116
 7791 051d 19       	 .uleb128 0x19
 7792 051e 01       	 .uleb128 0x1
 7793 051f 13       	 .uleb128 0x13
 7794 0520 00       	 .byte 0
 7795 0521 00       	 .byte 0
 7796 0522 55       	 .uleb128 0x55
 7797 0523 05       	 .uleb128 0x5
 7798 0524 00       	 .byte 0
 7799 0525 31       	 .uleb128 0x31
 7800 0526 13       	 .uleb128 0x13
 7801 0527 02       	 .uleb128 0x2
 7802 0528 18       	 .uleb128 0x18
 7803 0529 00       	 .byte 0
 7804 052a 00       	 .byte 0
 7805 052b 56       	 .uleb128 0x56
 7806 052c 2E       	 .uleb128 0x2e
 7807 052d 01       	 .byte 0x1
 7808 052e 47       	 .uleb128 0x47
 7809 052f 13       	 .uleb128 0x13
 7810 0530 64       	 .uleb128 0x64
 7811 0531 13       	 .uleb128 0x13
 7812 0532 11       	 .uleb128 0x11
 7813 0533 01       	 .uleb128 0x1
 7814 0534 12       	 .uleb128 0x12
 7815 0535 06       	 .uleb128 0x6
 7816 0536 40       	 .uleb128 0x40
 7817 0537 18       	 .uleb128 0x18
 7818 0538 9642     	 .uleb128 0x2116
 7819 053a 19       	 .uleb128 0x19
 7820 053b 01       	 .uleb128 0x1
 7821 053c 13       	 .uleb128 0x13
 7822 053d 00       	 .byte 0
 7823 053e 00       	 .byte 0
 7824 053f 57       	 .uleb128 0x57
ARM GAS   			page 149


 7825 0540 05       	 .uleb128 0x5
 7826 0541 00       	 .byte 0
 7827 0542 03       	 .uleb128 0x3
 7828 0543 0E       	 .uleb128 0xe
 7829 0544 49       	 .uleb128 0x49
 7830 0545 13       	 .uleb128 0x13
 7831 0546 34       	 .uleb128 0x34
 7832 0547 19       	 .uleb128 0x19
 7833 0548 02       	 .uleb128 0x2
 7834 0549 18       	 .uleb128 0x18
 7835 054a 00       	 .byte 0
 7836 054b 00       	 .byte 0
 7837 054c 58       	 .uleb128 0x58
 7838 054d 2E       	 .uleb128 0x2e
 7839 054e 01       	 .byte 0x1
 7840 054f 47       	 .uleb128 0x47
 7841 0550 13       	 .uleb128 0x13
 7842 0551 49       	 .uleb128 0x49
 7843 0552 13       	 .uleb128 0x13
 7844 0553 64       	 .uleb128 0x64
 7845 0554 13       	 .uleb128 0x13
 7846 0555 20       	 .uleb128 0x20
 7847 0556 0B       	 .uleb128 0xb
 7848 0557 01       	 .uleb128 0x1
 7849 0558 13       	 .uleb128 0x13
 7850 0559 00       	 .byte 0
 7851 055a 00       	 .byte 0
 7852 055b 59       	 .uleb128 0x59
 7853 055c 2E       	 .uleb128 0x2e
 7854 055d 01       	 .byte 0x1
 7855 055e 47       	 .uleb128 0x47
 7856 055f 13       	 .uleb128 0x13
 7857 0560 64       	 .uleb128 0x64
 7858 0561 13       	 .uleb128 0x13
 7859 0562 20       	 .uleb128 0x20
 7860 0563 0B       	 .uleb128 0xb
 7861 0564 01       	 .uleb128 0x1
 7862 0565 13       	 .uleb128 0x13
 7863 0566 00       	 .byte 0
 7864 0567 00       	 .byte 0
 7865 0568 5A       	 .uleb128 0x5a
 7866 0569 34       	 .uleb128 0x34
 7867 056a 00       	 .byte 0
 7868 056b 03       	 .uleb128 0x3
 7869 056c 0E       	 .uleb128 0xe
 7870 056d 49       	 .uleb128 0x49
 7871 056e 13       	 .uleb128 0x13
 7872 056f 34       	 .uleb128 0x34
 7873 0570 19       	 .uleb128 0x19
 7874 0571 6C       	 .uleb128 0x6c
 7875 0572 19       	 .uleb128 0x19
 7876 0573 00       	 .byte 0
 7877 0574 00       	 .byte 0
 7878 0575 5B       	 .uleb128 0x5b
 7879 0576 0B       	 .uleb128 0xb
 7880 0577 00       	 .byte 0
 7881 0578 00       	 .byte 0
ARM GAS   			page 150


 7882 0579 00       	 .byte 0
 7883 057a 5C       	 .uleb128 0x5c
 7884 057b 0B       	 .uleb128 0xb
 7885 057c 00       	 .byte 0
 7886 057d 11       	 .uleb128 0x11
 7887 057e 01       	 .uleb128 0x1
 7888 057f 12       	 .uleb128 0x12
 7889 0580 06       	 .uleb128 0x6
 7890 0581 00       	 .byte 0
 7891 0582 00       	 .byte 0
 7892 0583 5D       	 .uleb128 0x5d
 7893 0584 2E       	 .uleb128 0x2e
 7894 0585 01       	 .byte 0x1
 7895 0586 03       	 .uleb128 0x3
 7896 0587 0E       	 .uleb128 0xe
 7897 0588 3A       	 .uleb128 0x3a
 7898 0589 0B       	 .uleb128 0xb
 7899 058a 3B       	 .uleb128 0x3b
 7900 058b 0B       	 .uleb128 0xb
 7901 058c 39       	 .uleb128 0x39
 7902 058d 0B       	 .uleb128 0xb
 7903 058e 49       	 .uleb128 0x49
 7904 058f 13       	 .uleb128 0x13
 7905 0590 11       	 .uleb128 0x11
 7906 0591 01       	 .uleb128 0x1
 7907 0592 12       	 .uleb128 0x12
 7908 0593 06       	 .uleb128 0x6
 7909 0594 40       	 .uleb128 0x40
 7910 0595 18       	 .uleb128 0x18
 7911 0596 9742     	 .uleb128 0x2117
 7912 0598 19       	 .uleb128 0x19
 7913 0599 00       	 .byte 0
 7914 059a 00       	 .byte 0
 7915 059b 5E       	 .uleb128 0x5e
 7916 059c 05       	 .uleb128 0x5
 7917 059d 00       	 .byte 0
 7918 059e 03       	 .uleb128 0x3
 7919 059f 0E       	 .uleb128 0xe
 7920 05a0 3A       	 .uleb128 0x3a
 7921 05a1 0B       	 .uleb128 0xb
 7922 05a2 3B       	 .uleb128 0x3b
 7923 05a3 0B       	 .uleb128 0xb
 7924 05a4 39       	 .uleb128 0x39
 7925 05a5 0B       	 .uleb128 0xb
 7926 05a6 49       	 .uleb128 0x49
 7927 05a7 13       	 .uleb128 0x13
 7928 05a8 02       	 .uleb128 0x2
 7929 05a9 18       	 .uleb128 0x18
 7930 05aa 00       	 .byte 0
 7931 05ab 00       	 .byte 0
 7932 05ac 00       	 .byte 0
 7933              	 .section .debug_aranges,"",%progbits
 7934 0000 9C000000 	 .4byte 0x9c
 7935 0004 0200     	 .2byte 0x2
 7936 0006 00000000 	 .4byte .Ldebug_info0
 7937 000a 04       	 .byte 0x4
 7938 000b 00       	 .byte 0
ARM GAS   			page 151


 7939 000c 0000     	 .2byte 0
 7940 000e 0000     	 .2byte 0
 7941 0010 00000000 	 .4byte .LFB602
 7942 0014 16000000 	 .4byte .LFE602-.LFB602
 7943 0018 00000000 	 .4byte .LFB976
 7944 001c 90000000 	 .4byte .LFE976-.LFB976
 7945 0020 00000000 	 .4byte .LFB979
 7946 0024 30000000 	 .4byte .LFE979-.LFB979
 7947 0028 00000000 	 .4byte .LFB981
 7948 002c 1E000000 	 .4byte .LFE981-.LFB981
 7949 0030 00000000 	 .4byte .LFB982
 7950 0034 50000000 	 .4byte .LFE982-.LFB982
 7951 0038 00000000 	 .4byte .LFB983
 7952 003c 4E000000 	 .4byte .LFE983-.LFB983
 7953 0040 00000000 	 .4byte .LFB984
 7954 0044 20000000 	 .4byte .LFE984-.LFB984
 7955 0048 00000000 	 .4byte .LFB985
 7956 004c 1E000000 	 .4byte .LFE985-.LFB985
 7957 0050 00000000 	 .4byte .LFB987
 7958 0054 98000000 	 .4byte .LFE987-.LFB987
 7959 0058 00000000 	 .4byte .LFB990
 7960 005c 38000000 	 .4byte .LFE990-.LFB990
 7961 0060 00000000 	 .4byte .LFB992
 7962 0064 1E000000 	 .4byte .LFE992-.LFB992
 7963 0068 00000000 	 .4byte .LFB993
 7964 006c 6E000000 	 .4byte .LFE993-.LFB993
 7965 0070 00000000 	 .4byte .LFB994
 7966 0074 4E000000 	 .4byte .LFE994-.LFB994
 7967 0078 00000000 	 .4byte .LFB995
 7968 007c 60000000 	 .4byte .LFE995-.LFB995
 7969 0080 00000000 	 .4byte .LFB996
 7970 0084 5C000000 	 .4byte .LFE996-.LFB996
 7971 0088 00000000 	 .4byte .LFB1299
 7972 008c 24000000 	 .4byte .LFE1299-.LFB1299
 7973 0090 00000000 	 .4byte .LFB1301
 7974 0094 1E000000 	 .4byte .LFE1301-.LFB1301
 7975 0098 00000000 	 .4byte 0
 7976 009c 00000000 	 .4byte 0
 7977              	 .section .debug_ranges,"",%progbits
 7978              	.Ldebug_ranges0:
 7979 0000 00000000 	 .4byte .LFB602
 7980 0004 16000000 	 .4byte .LFE602
 7981 0008 00000000 	 .4byte .LFB976
 7982 000c 90000000 	 .4byte .LFE976
 7983 0010 00000000 	 .4byte .LFB979
 7984 0014 30000000 	 .4byte .LFE979
 7985 0018 00000000 	 .4byte .LFB981
 7986 001c 1E000000 	 .4byte .LFE981
 7987 0020 00000000 	 .4byte .LFB982
 7988 0024 50000000 	 .4byte .LFE982
 7989 0028 00000000 	 .4byte .LFB983
 7990 002c 4E000000 	 .4byte .LFE983
 7991 0030 00000000 	 .4byte .LFB984
 7992 0034 20000000 	 .4byte .LFE984
 7993 0038 00000000 	 .4byte .LFB985
 7994 003c 1E000000 	 .4byte .LFE985
 7995 0040 00000000 	 .4byte .LFB987
ARM GAS   			page 152


 7996 0044 98000000 	 .4byte .LFE987
 7997 0048 00000000 	 .4byte .LFB990
 7998 004c 38000000 	 .4byte .LFE990
 7999 0050 00000000 	 .4byte .LFB992
 8000 0054 1E000000 	 .4byte .LFE992
 8001 0058 00000000 	 .4byte .LFB993
 8002 005c 6E000000 	 .4byte .LFE993
 8003 0060 00000000 	 .4byte .LFB994
 8004 0064 4E000000 	 .4byte .LFE994
 8005 0068 00000000 	 .4byte .LFB995
 8006 006c 60000000 	 .4byte .LFE995
 8007 0070 00000000 	 .4byte .LFB996
 8008 0074 5C000000 	 .4byte .LFE996
 8009 0078 00000000 	 .4byte .LFB1299
 8010 007c 24000000 	 .4byte .LFE1299
 8011 0080 00000000 	 .4byte .LFB1301
 8012 0084 1E000000 	 .4byte .LFE1301
 8013 0088 00000000 	 .4byte 0
 8014 008c 00000000 	 .4byte 0
 8015              	 .section .debug_line,"",%progbits
 8016              	.Ldebug_line0:
 8017 0000 68080000 	 .section .debug_str,"MS",%progbits,1
 8017      03000906 
 8017      00000201 
 8017      FB0E0D00 
 8017      01010101 
 8018              	.LASF316:
 8019 0000 67657465 	 .ascii "getenv\000"
 8019      6E7600
 8020              	.LASF268:
 8021 0007 75696E74 	 .ascii "uint_fast16_t\000"
 8021      5F666173 
 8021      7431365F 
 8021      7400
 8022              	.LASF381:
 8023 0015 57726974 	 .ascii "WriteCount\000"
 8023      65436F75 
 8023      6E7400
 8024              	.LASF31:
 8025 0020 5F5F6465 	 .ascii "__debug\000"
 8025      62756700 
 8026              	.LASF295:
 8027 0028 696E745F 	 .ascii "int_p_cs_precedes\000"
 8027      705F6373 
 8027      5F707265 
 8027      63656465 
 8027      7300
 8028              	.LASF5:
 8029 003a 5F5A4E53 	 .ascii "_ZNSt15__exception_ptr13exception_ptrC4EPv\000"
 8029      7431355F 
 8029      5F657863 
 8029      65707469 
 8029      6F6E5F70 
 8030              	.LASF333:
 8031 0065 73747274 	 .ascii "strtoull\000"
 8031      6F756C6C 
 8031      00
ARM GAS   			page 153


 8032              	.LASF229:
 8033 006e 77637378 	 .ascii "wcsxfrm\000"
 8033      66726D00 
 8034              	.LASF51:
 8035 0076 63686172 	 .ascii "char32_t\000"
 8035      33325F74 
 8035      00
 8036              	.LASF13:
 8037 007f 7E657863 	 .ascii "~exception_ptr\000"
 8037      65707469 
 8037      6F6E5F70 
 8037      747200
 8038              	.LASF321:
 8039 008e 72616E64 	 .ascii "rand\000"
 8039      00
 8040              	.LASF424:
 8041 0093 5F5F7661 	 .ascii "__va_list\000"
 8041      5F6C6973 
 8041      7400
 8042              	.LASF373:
 8043 009d 5F5A4E31 	 .ascii "_ZN12cpp_freertos25ReadWriteLockPreferWriterD4Ev\000"
 8043      32637070 
 8043      5F667265 
 8043      6572746F 
 8043      73323552 
 8044              	.LASF235:
 8045 00ce 77707269 	 .ascii "wprintf\000"
 8045      6E746600 
 8046              	.LASF359:
 8047 00d6 73657476 	 .ascii "setvbuf\000"
 8047      62756600 
 8048              	.LASF411:
 8049 00de 5F5A4E31 	 .ascii "_ZN12cpp_freertos13ReadWriteLockD0Ev\000"
 8049      32637070 
 8049      5F667265 
 8049      6572746F 
 8049      73313352 
 8050              	.LASF355:
 8051 0103 72656D6F 	 .ascii "remove\000"
 8051      766500
 8052              	.LASF101:
 8053 010a 5F6F6E5F 	 .ascii "_on_exit_args\000"
 8053      65786974 
 8053      5F617267 
 8053      7300
 8054              	.LASF327:
 8055 0118 73797374 	 .ascii "system\000"
 8055      656D00
 8056              	.LASF30:
 8057 011f 5F5A4E53 	 .ascii "_ZNSt21piecewise_construct_tC4Ev\000"
 8057      74323170 
 8057      69656365 
 8057      77697365 
 8057      5F636F6E 
 8058              	.LASF388:
 8059 0140 5F5A4E31 	 .ascii "_ZN12cpp_freertos13ReadWriteLockC4Ev\000"
 8059      32637070 
ARM GAS   			page 154


 8059      5F667265 
 8059      6572746F 
 8059      73313352 
 8060              	.LASF139:
 8061 0165 5F776374 	 .ascii "_wctomb_state\000"
 8061      6F6D625F 
 8061      73746174 
 8061      6500
 8062              	.LASF175:
 8063 0173 5F676C75 	 .ascii "_glue\000"
 8063      6500
 8064              	.LASF368:
 8065 0179 6370705F 	 .ascii "cpp_freertos\000"
 8065      66726565 
 8065      72746F73 
 8065      00
 8066              	.LASF303:
 8067 0186 35646976 	 .ascii "5div_t\000"
 8067      5F7400
 8068              	.LASF341:
 8069 018d 66666C75 	 .ascii "fflush\000"
 8069      736800
 8070              	.LASF12:
 8071 0194 5F5A4E53 	 .ascii "_ZNSt15__exception_ptr13exception_ptraSEOS0_\000"
 8071      7431355F 
 8071      5F657863 
 8071      65707469 
 8071      6F6E5F70 
 8072              	.LASF206:
 8073 01c1 76667773 	 .ascii "vfwscanf\000"
 8073      63616E66 
 8073      00
 8074              	.LASF92:
 8075 01ca 5F5F746D 	 .ascii "__tm_sec\000"
 8075      5F736563 
 8075      00
 8076              	.LASF18:
 8077 01d3 5F5A4E53 	 .ascii "_ZNSt15__exception_ptr13exception_ptr4swapERS0_\000"
 8077      7431355F 
 8077      5F657863 
 8077      65707469 
 8077      6F6E5F70 
 8078              	.LASF141:
 8079 0203 5F736967 	 .ascii "_signal_buf\000"
 8079      6E616C5F 
 8079      62756600 
 8080              	.LASF318:
 8081 020f 6D626C65 	 .ascii "mblen\000"
 8081      6E00
 8082              	.LASF38:
 8083 0215 756E7369 	 .ascii "unsigned int\000"
 8083      676E6564 
 8083      20696E74 
 8083      00
 8084              	.LASF398:
 8085 0222 52656164 	 .ascii "ReadWriteLockPreferReader\000"
 8085      57726974 
ARM GAS   			page 155


 8085      654C6F63 
 8085      6B507265 
 8085      66657252 
 8086              	.LASF33:
 8087 023c 5F5F676E 	 .ascii "__gnu_cxx\000"
 8087      755F6378 
 8087      7800
 8088              	.LASF32:
 8089 0246 5F5F6578 	 .ascii "__exception_ptr\000"
 8089      63657074 
 8089      696F6E5F 
 8089      70747200 
 8090              	.LASF115:
 8091 0256 5F6C6266 	 .ascii "_lbfsize\000"
 8091      73697A65 
 8091      00
 8092              	.LASF113:
 8093 025f 5F666C61 	 .ascii "_flags\000"
 8093      677300
 8094              	.LASF253:
 8095 0266 696E746D 	 .ascii "intmax_t\000"
 8095      61785F74 
 8095      00
 8096              	.LASF272:
 8097 026f 75696E74 	 .ascii "uint_fast64_t\000"
 8097      5F666173 
 8097      7436345F 
 8097      7400
 8098              	.LASF267:
 8099 027d 696E745F 	 .ascii "int_fast16_t\000"
 8099      66617374 
 8099      31365F74 
 8099      00
 8100              	.LASF369:
 8101 028a 52656164 	 .ascii "ReadWriteLockPreferWriter\000"
 8101      57726974 
 8101      654C6F63 
 8101      6B507265 
 8101      66657257 
 8102              	.LASF152:
 8103 02a4 5F657272 	 .ascii "_errno\000"
 8103      6E6F00
 8104              	.LASF49:
 8105 02ab 77636861 	 .ascii "wchar_t\000"
 8105      725F7400 
 8106              	.LASF73:
 8107 02b3 5F5F7569 	 .ascii "__uintmax_t\000"
 8107      6E746D61 
 8107      785F7400 
 8108              	.LASF210:
 8109 02bf 76777363 	 .ascii "vwscanf\000"
 8109      616E6600 
 8110              	.LASF278:
 8111 02c7 63757272 	 .ascii "currency_symbol\000"
 8111      656E6379 
 8111      5F73796D 
 8111      626F6C00 
ARM GAS   			page 156


 8112              	.LASF23:
 8113 02d7 5F5F7377 	 .ascii "__swappable_details\000"
 8113      61707061 
 8113      626C655F 
 8113      64657461 
 8113      696C7300 
 8114              	.LASF422:
 8115 02eb 5F5A4E39 	 .ascii "_ZN9__gnu_cxx3divExx\000"
 8115      5F5F676E 
 8115      755F6378 
 8115      78336469 
 8115      76457878 
 8116              	.LASF68:
 8117 0300 5F5F696E 	 .ascii "__int_least32_t\000"
 8117      745F6C65 
 8117      61737433 
 8117      325F7400 
 8118              	.LASF279:
 8119 0310 6D6F6E5F 	 .ascii "mon_decimal_point\000"
 8119      64656369 
 8119      6D616C5F 
 8119      706F696E 
 8119      7400
 8120              	.LASF127:
 8121 0322 5F6D6273 	 .ascii "_mbstate\000"
 8121      74617465 
 8121      00
 8122              	.LASF414:
 8123 032b 5F5A4E31 	 .ascii "_ZN12cpp_freertos13ReadWriteLockC2Ev\000"
 8123      32637070 
 8123      5F667265 
 8123      6572746F 
 8123      73313352 
 8124              	.LASF36:
 8125 0350 6E756C6C 	 .ascii "nullptr_t\000"
 8125      7074725F 
 8125      7400
 8126              	.LASF117:
 8127 035a 5F726561 	 .ascii "_read\000"
 8127      6400
 8128              	.LASF136:
 8129 0360 5F723438 	 .ascii "_r48\000"
 8129      00
 8130              	.LASF83:
 8131 0365 5F5F554C 	 .ascii "__ULong\000"
 8131      6F6E6700 
 8132              	.LASF35:
 8133 036d 5F5F6F70 	 .ascii "__ops\000"
 8133      7300
 8134              	.LASF427:
 8135 0373 5F5F7674 	 .ascii "__vtbl_ptr_type\000"
 8135      626C5F70 
 8135      74725F74 
 8135      79706500 
 8136              	.LASF215:
 8137 0383 77637363 	 .ascii "wcscpy\000"
 8137      707900
ARM GAS   			page 157


 8138              	.LASF154:
 8139 038a 5F737464 	 .ascii "_stdout\000"
 8139      6F757400 
 8140              	.LASF400:
 8141 0392 5F5A4E31 	 .ascii "_ZN12cpp_freertos25ReadWriteLockPreferReader12Reade"
 8141      32637070 
 8141      5F667265 
 8141      6572746F 
 8141      73323552 
 8142 03c5 72556E6C 	 .ascii "rUnlockEv\000"
 8142      6F636B45 
 8142      7600
 8143              	.LASF74:
 8144 03cf 5F5F696E 	 .ascii "__intptr_t\000"
 8144      74707472 
 8144      5F7400
 8145              	.LASF77:
 8146 03da 5F66706F 	 .ascii "_fpos_t\000"
 8146      735F7400 
 8147              	.LASF212:
 8148 03e2 77637363 	 .ascii "wcscat\000"
 8148      617400
 8149              	.LASF274:
 8150 03e9 64656369 	 .ascii "decimal_point\000"
 8150      6D616C5F 
 8150      706F696E 
 8150      7400
 8151              	.LASF108:
 8152 03f7 5F666E73 	 .ascii "_fns\000"
 8152      00
 8153              	.LASF116:
 8154 03fc 5F636F6F 	 .ascii "_cookie\000"
 8154      6B696500 
 8155              	.LASF289:
 8156 0404 6E5F7365 	 .ascii "n_sep_by_space\000"
 8156      705F6279 
 8156      5F737061 
 8156      636500
 8157              	.LASF86:
 8158 0413 5F426967 	 .ascii "_Bigint\000"
 8158      696E7400 
 8159              	.LASF209:
 8160 041b 76777072 	 .ascii "vwprintf\000"
 8160      696E7466 
 8160      00
 8161              	.LASF98:
 8162 0424 5F5F746D 	 .ascii "__tm_wday\000"
 8162      5F776461 
 8162      7900
 8163              	.LASF138:
 8164 042e 5F6D6274 	 .ascii "_mbtowc_state\000"
 8164      6F77635F 
 8164      73746174 
 8164      6500
 8165              	.LASF403:
 8166 043c 7E526561 	 .ascii "~ReadWriteLockPreferReader\000"
 8166      64577269 
ARM GAS   			page 158


 8166      74654C6F 
 8166      636B5072 
 8166      65666572 
 8167              	.LASF54:
 8168 0457 5F5F676E 	 .ascii "__gnu_debug\000"
 8168      755F6465 
 8168      62756700 
 8169              	.LASF162:
 8170 0463 5F726573 	 .ascii "_result\000"
 8170      756C7400 
 8171              	.LASF194:
 8172 046b 66777363 	 .ascii "fwscanf\000"
 8172      616E6600 
 8173              	.LASF332:
 8174 0473 73747274 	 .ascii "strtoll\000"
 8174      6F6C6C00 
 8175              	.LASF260:
 8176 047b 75696E74 	 .ascii "uint_least16_t\000"
 8176      5F6C6561 
 8176      73743136 
 8176      5F7400
 8177              	.LASF250:
 8178 048a 75696E74 	 .ascii "uint32_t\000"
 8178      33325F74 
 8178      00
 8179              	.LASF245:
 8180 0493 696E7438 	 .ascii "int8_t\000"
 8180      5F7400
 8181              	.LASF94:
 8182 049a 5F5F746D 	 .ascii "__tm_hour\000"
 8182      5F686F75 
 8182      7200
 8183              	.LASF287:
 8184 04a4 705F7365 	 .ascii "p_sep_by_space\000"
 8184      705F6279 
 8184      5F737061 
 8184      636500
 8185              	.LASF197:
 8186 04b3 6D627274 	 .ascii "mbrtowc\000"
 8186      6F776300 
 8187              	.LASF157:
 8188 04bb 5F656D65 	 .ascii "_emergency\000"
 8188      7267656E 
 8188      637900
 8189              	.LASF320:
 8190 04c6 6D62746F 	 .ascii "mbtowc\000"
 8190      776300
 8191              	.LASF336:
 8192 04cd 66706F73 	 .ascii "fpos_t\000"
 8192      5F7400
 8193              	.LASF81:
 8194 04d4 5F5F636F 	 .ascii "__count\000"
 8194      756E7400 
 8195              	.LASF53:
 8196 04dc 666C6F61 	 .ascii "float\000"
 8196      7400
 8197              	.LASF415:
ARM GAS   			page 159


 8198 04e2 474E5520 	 .ascii "GNU C++11 10.3.1 20210824 (release) -mcpu=cortex-m4"
 8198      432B2B31 
 8198      31203130 
 8198      2E332E31 
 8198      20323032 
 8199 0515 202D6D66 	 .ascii " -mfloat-abi=hard -mfpu=fpv4-sp-d16 -mfix-cortex-m3"
 8199      6C6F6174 
 8199      2D616269 
 8199      3D686172 
 8199      64202D6D 
 8200 0548 2D6C6472 	 .ascii "-ldrd -mthumb -mno-unaligned-access -mapcs-frame -m"
 8200      64202D6D 
 8200      7468756D 
 8200      62202D6D 
 8200      6E6F2D75 
 8201 057b 61726368 	 .ascii "arch=armv7e-m+fp -g -g -O0 -std=gnu++11 -fsingle-pr"
 8201      3D61726D 
 8201      7637652D 
 8201      6D2B6670 
 8201      202D6720 
 8202 05ae 65636973 	 .ascii "ecision-constant -funsigned-char -ffunction-section"
 8202      696F6E2D 
 8202      636F6E73 
 8202      74616E74 
 8202      202D6675 
 8203 05e1 73202D66 	 .ascii "s -fdata-sections -fno-rtti -fno-exceptions -finlin"
 8203      64617461 
 8203      2D736563 
 8203      74696F6E 
 8203      73202D66 
 8204 0614 652D6C69 	 .ascii "e-limit=20\000"
 8204      6D69743D 
 8204      323000
 8205              	.LASF343:
 8206 061f 66676574 	 .ascii "fgetpos\000"
 8206      706F7300 
 8207              	.LASF28:
 8208 0627 5F5F6973 	 .ascii "__is_integer<float>\000"
 8208      5F696E74 
 8208      65676572 
 8208      3C666C6F 
 8208      61743E00 
 8209              	.LASF149:
 8210 063b 5F6E6578 	 .ascii "_nextf\000"
 8210      746600
 8211              	.LASF24:
 8212 0642 5F5F7377 	 .ascii "__swappable_with_details\000"
 8212      61707061 
 8212      626C655F 
 8212      77697468 
 8212      5F646574 
 8213              	.LASF409:
 8214 065b 5F5A4E31 	 .ascii "_ZN12cpp_freertos25ReadWriteLockPreferWriterD2Ev\000"
 8214      32637070 
 8214      5F667265 
 8214      6572746F 
 8214      73323552 
ARM GAS   			page 160


 8215              	.LASF247:
 8216 068c 696E7431 	 .ascii "int16_t\000"
 8216      365F7400 
 8217              	.LASF145:
 8218 0694 5F6D6273 	 .ascii "_mbsrtowcs_state\000"
 8218      72746F77 
 8218      63735F73 
 8218      74617465 
 8218      00
 8219              	.LASF426:
 8220 06a5 5F5A4E31 	 .ascii "_ZN12cpp_freertos25ReadWriteLockPreferReaderD4Ev\000"
 8220      32637070 
 8220      5F667265 
 8220      6572746F 
 8220      73323552 
 8221              	.LASF259:
 8222 06d6 696E745F 	 .ascii "int_least16_t\000"
 8222      6C656173 
 8222      7431365F 
 8222      7400
 8223              	.LASF254:
 8224 06e4 75696E74 	 .ascii "uintmax_t\000"
 8224      6D61785F 
 8224      7400
 8225              	.LASF195:
 8226 06ee 67657477 	 .ascii "getwc\000"
 8226      6300
 8227              	.LASF417:
 8228 06f4 433A5C55 	 .ascii "C:\\Users\\niels\\DOCUME~1\\ELEKTR~1\\JAAR2~1\\ECS\\"
 8228      73657273 
 8228      5C6E6965 
 8228      6C735C44 
 8228      4F43554D 
 8229 0721 4543534C 	 .ascii "ECSL\\software\\STM32\\PRACTI~1\\CLion\\Debug\\FREE"
 8229      5C736F66 
 8229      74776172 
 8229      655C5354 
 8229      4D33325C 
 8230 074e 52547E31 	 .ascii "RT~1\000"
 8230      00
 8231              	.LASF45:
 8232 0753 6C6F6E67 	 .ascii "long long unsigned int\000"
 8232      206C6F6E 
 8232      6720756E 
 8232      7369676E 
 8232      65642069 
 8233              	.LASF22:
 8234 076a 5F5A5374 	 .ascii "_ZSt17rethrow_exceptionNSt15__exception_ptr13except"
 8234      31377265 
 8234      7468726F 
 8234      775F6578 
 8234      63657074 
 8235 079d 696F6E5F 	 .ascii "ion_ptrE\000"
 8235      70747245 
 8235      00
 8236              	.LASF178:
 8237 07a6 5F72616E 	 .ascii "_rand48\000"
ARM GAS   			page 161


 8237      64343800 
 8238              	.LASF9:
 8239 07ae 5F5A4E53 	 .ascii "_ZNSt15__exception_ptr13exception_ptrC4EOS0_\000"
 8239      7431355F 
 8239      5F657863 
 8239      65707469 
 8239      6F6E5F70 
 8240              	.LASF90:
 8241 07db 5F776473 	 .ascii "_wds\000"
 8241      00
 8242              	.LASF228:
 8243 07e0 77637374 	 .ascii "wcstoul\000"
 8243      6F756C00 
 8244              	.LASF294:
 8245 07e8 696E745F 	 .ascii "int_n_sign_posn\000"
 8245      6E5F7369 
 8245      676E5F70 
 8245      6F736E00 
 8246              	.LASF329:
 8247 07f8 7763746F 	 .ascii "wctomb\000"
 8247      6D6200
 8248              	.LASF392:
 8249 07ff 5F5A4E31 	 .ascii "_ZN12cpp_freertos13ReadWriteLock12ReaderUnlockEv\000"
 8249      32637070 
 8249      5F667265 
 8249      6572746F 
 8249      73313352 
 8250              	.LASF300:
 8251 0830 6C6F6361 	 .ascii "localeconv\000"
 8251      6C65636F 
 8251      6E7600
 8252              	.LASF75:
 8253 083b 5F5F7569 	 .ascii "__uintptr_t\000"
 8253      6E747074 
 8253      725F7400 
 8254              	.LASF174:
 8255 0847 5F5F4649 	 .ascii "__FILE\000"
 8255      4C4500
 8256              	.LASF124:
 8257 084e 5F6F6666 	 .ascii "_offset\000"
 8257      73657400 
 8258              	.LASF121:
 8259 0856 5F756275 	 .ascii "_ubuf\000"
 8259      6600
 8260              	.LASF211:
 8261 085c 77637274 	 .ascii "wcrtomb\000"
 8261      6F6D6200 
 8262              	.LASF264:
 8263 0864 75696E74 	 .ascii "uint_least64_t\000"
 8263      5F6C6561 
 8263      73743634 
 8263      5F7400
 8264              	.LASF80:
 8265 0873 5F4D5F65 	 .ascii "_M_exception_object\000"
 8265      78636570 
 8265      74696F6E 
 8265      5F6F626A 
ARM GAS   			page 162


 8265      65637400 
 8266              	.LASF330:
 8267 0887 6C6C6469 	 .ascii "lldiv\000"
 8267      7600
 8268              	.LASF331:
 8269 088d 61746F6C 	 .ascii "atoll\000"
 8269      6C00
 8270              	.LASF395:
 8271 0893 52656164 	 .ascii "ReadCount\000"
 8271      436F756E 
 8271      7400
 8272              	.LASF208:
 8273 089d 76737773 	 .ascii "vswscanf\000"
 8273      63616E66 
 8273      00
 8274              	.LASF301:
 8275 08a6 5F5F6774 	 .ascii "__gthread_key_t\000"
 8275      68726561 
 8275      645F6B65 
 8275      795F7400 
 8276              	.LASF205:
 8277 08b6 76667770 	 .ascii "vfwprintf\000"
 8277      72696E74 
 8277      6600
 8278              	.LASF271:
 8279 08c0 696E745F 	 .ascii "int_fast64_t\000"
 8279      66617374 
 8279      36345F74 
 8279      00
 8280              	.LASF158:
 8281 08cd 5F756E73 	 .ascii "_unspecified_locale_info\000"
 8281      70656369 
 8281      66696564 
 8281      5F6C6F63 
 8281      616C655F 
 8282              	.LASF184:
 8283 08e6 5F5F676E 	 .ascii "__gnuc_va_list\000"
 8283      75635F76 
 8283      615F6C69 
 8283      737400
 8284              	.LASF290:
 8285 08f5 705F7369 	 .ascii "p_sign_posn\000"
 8285      676E5F70 
 8285      6F736E00 
 8286              	.LASF377:
 8287 0901 57726974 	 .ascii "WriterLock\000"
 8287      65724C6F 
 8287      636B00
 8288              	.LASF37:
 8289 090c 73697A65 	 .ascii "size_t\000"
 8289      5F7400
 8290              	.LASF324:
 8291 0913 73747274 	 .ascii "strtod\000"
 8291      6F6400
 8292              	.LASF48:
 8293 091a 6C6F6E67 	 .ascii "long int\000"
 8293      20696E74 
ARM GAS   			page 163


 8293      00
 8294              	.LASF257:
 8295 0923 696E745F 	 .ascii "int_least8_t\000"
 8295      6C656173 
 8295      74385F74 
 8295      00
 8296              	.LASF251:
 8297 0930 696E7436 	 .ascii "int64_t\000"
 8297      345F7400 
 8298              	.LASF263:
 8299 0938 696E745F 	 .ascii "int_least64_t\000"
 8299      6C656173 
 8299      7436345F 
 8299      7400
 8300              	.LASF132:
 8301 0946 5F617363 	 .ascii "_asctime_buf\000"
 8301      74696D65 
 8301      5F627566 
 8301      00
 8302              	.LASF200:
 8303 0953 70757477 	 .ascii "putwc\000"
 8303      6300
 8304              	.LASF167:
 8305 0959 5F637674 	 .ascii "_cvtbuf\000"
 8305      62756600 
 8306              	.LASF99:
 8307 0961 5F5F746D 	 .ascii "__tm_yday\000"
 8307      5F796461 
 8307      7900
 8308              	.LASF258:
 8309 096b 75696E74 	 .ascii "uint_least8_t\000"
 8309      5F6C6561 
 8309      7374385F 
 8309      7400
 8310              	.LASF156:
 8311 0979 5F696E63 	 .ascii "_inc\000"
 8311      00
 8312              	.LASF107:
 8313 097e 5F696E64 	 .ascii "_ind\000"
 8313      00
 8314              	.LASF69:
 8315 0983 5F5F7569 	 .ascii "__uint_least32_t\000"
 8315      6E745F6C 
 8315      65617374 
 8315      33325F74 
 8315      00
 8316              	.LASF315:
 8317 0994 62736561 	 .ascii "bsearch\000"
 8317      72636800 
 8318              	.LASF399:
 8319 099c 5F5A4E31 	 .ascii "_ZN12cpp_freertos25ReadWriteLockPreferReader10Reade"
 8319      32637070 
 8319      5F667265 
 8319      6572746F 
 8319      73323552 
 8320 09cf 724C6F63 	 .ascii "rLockEv\000"
 8320      6B457600 
ARM GAS   			page 164


 8321              	.LASF87:
 8322 09d7 5F6E6578 	 .ascii "_next\000"
 8322      7400
 8323              	.LASF284:
 8324 09dd 696E745F 	 .ascii "int_frac_digits\000"
 8324      66726163 
 8324      5F646967 
 8324      69747300 
 8325              	.LASF63:
 8326 09ed 5F5F7569 	 .ascii "__uint64_t\000"
 8326      6E743634 
 8326      5F7400
 8327              	.LASF337:
 8328 09f8 636C6561 	 .ascii "clearerr\000"
 8328      72657272 
 8328      00
 8329              	.LASF401:
 8330 0a01 5F5A4E31 	 .ascii "_ZN12cpp_freertos25ReadWriteLockPreferReader10Write"
 8330      32637070 
 8330      5F667265 
 8330      6572746F 
 8330      73323552 
 8331 0a34 724C6F63 	 .ascii "rLockEv\000"
 8331      6B457600 
 8332              	.LASF240:
 8333 0a3c 77637373 	 .ascii "wcsstr\000"
 8333      747200
 8334              	.LASF233:
 8335 0a43 776D656D 	 .ascii "wmemmove\000"
 8335      6D6F7665 
 8335      00
 8336              	.LASF292:
 8337 0a4c 696E745F 	 .ascii "int_n_cs_precedes\000"
 8337      6E5F6373 
 8337      5F707265 
 8337      63656465 
 8337      7300
 8338              	.LASF383:
 8339 0a5e 426C6F63 	 .ascii "BlockReadersLock\000"
 8339      6B526561 
 8339      64657273 
 8339      4C6F636B 
 8339      00
 8340              	.LASF283:
 8341 0a6f 6E656761 	 .ascii "negative_sign\000"
 8341      74697665 
 8341      5F736967 
 8341      6E00
 8342              	.LASF347:
 8343 0a7d 6672656F 	 .ascii "freopen\000"
 8343      70656E00 
 8344              	.LASF27:
 8345 0a85 5F5F7661 	 .ascii "__value\000"
 8345      6C756500 
 8346              	.LASF59:
 8347 0a8d 5F5F7569 	 .ascii "__uint16_t\000"
 8347      6E743136 
ARM GAS   			page 165


 8347      5F7400
 8348              	.LASF164:
 8349 0a98 5F703573 	 .ascii "_p5s\000"
 8349      00
 8350              	.LASF29:
 8351 0a9d 70696563 	 .ascii "piecewise_construct_t\000"
 8351      65776973 
 8351      655F636F 
 8351      6E737472 
 8351      7563745F 
 8352              	.LASF379:
 8353 0ab3 57726974 	 .ascii "WriterUnlock\000"
 8353      6572556E 
 8353      6C6F636B 
 8353      00
 8354              	.LASF276:
 8355 0ac0 67726F75 	 .ascii "grouping\000"
 8355      70696E67 
 8355      00
 8356              	.LASF302:
 8357 0ac9 31305F6D 	 .ascii "10_mbstate_t\000"
 8357      62737461 
 8357      74655F74 
 8357      00
 8358              	.LASF236:
 8359 0ad6 77736361 	 .ascii "wscanf\000"
 8359      6E6600
 8360              	.LASF26:
 8361 0add 5F5F6973 	 .ascii "__is_integer<double>\000"
 8361      5F696E74 
 8361      65676572 
 8361      3C646F75 
 8361      626C653E 
 8362              	.LASF192:
 8363 0af2 66776964 	 .ascii "fwide\000"
 8363      6500
 8364              	.LASF137:
 8365 0af8 5F6D626C 	 .ascii "_mblen_state\000"
 8365      656E5F73 
 8365      74617465 
 8365      00
 8366              	.LASF89:
 8367 0b05 5F736967 	 .ascii "_sign\000"
 8367      6E00
 8368              	.LASF173:
 8369 0b0b 63686172 	 .ascii "char\000"
 8369      00
 8370              	.LASF362:
 8371 0b10 756E6765 	 .ascii "ungetc\000"
 8371      746300
 8372              	.LASF95:
 8373 0b17 5F5F746D 	 .ascii "__tm_mday\000"
 8373      5F6D6461 
 8373      7900
 8374              	.LASF170:
 8375 0b21 5F736967 	 .ascii "_sig_func\000"
 8375      5F66756E 
ARM GAS   			page 166


 8375      6300
 8376              	.LASF144:
 8377 0b2b 5F6D6272 	 .ascii "_mbrtowc_state\000"
 8377      746F7763 
 8377      5F737461 
 8377      746500
 8378              	.LASF169:
 8379 0b3a 5F617465 	 .ascii "_atexit0\000"
 8379      78697430 
 8379      00
 8380              	.LASF203:
 8381 0b43 73777363 	 .ascii "swscanf\000"
 8381      616E6600 
 8382              	.LASF364:
 8383 0b4b 55426173 	 .ascii "UBaseType_t\000"
 8383      65547970 
 8383      655F7400 
 8384              	.LASF340:
 8385 0b57 66657272 	 .ascii "ferror\000"
 8385      6F7200
 8386              	.LASF34:
 8387 0b5e 5F5F6378 	 .ascii "__cxx11\000"
 8387      78313100 
 8388              	.LASF123:
 8389 0b66 5F626C6B 	 .ascii "_blksize\000"
 8389      73697A65 
 8389      00
 8390              	.LASF382:
 8391 0b6f 57726974 	 .ascii "WriteLock\000"
 8391      654C6F63 
 8391      6B00
 8392              	.LASF408:
 8393 0b79 5F5A4E31 	 .ascii "_ZN12cpp_freertos25ReadWriteLockPreferWriterD0Ev\000"
 8393      32637070 
 8393      5F667265 
 8393      6572746F 
 8393      73323552 
 8394              	.LASF163:
 8395 0baa 5F726573 	 .ascii "_result_k\000"
 8395      756C745F 
 8395      6B00
 8396              	.LASF39:
 8397 0bb4 6C6F6E67 	 .ascii "long long int\000"
 8397      206C6F6E 
 8397      6720696E 
 8397      7400
 8398              	.LASF407:
 8399 0bc2 5F5A4E31 	 .ascii "_ZN12cpp_freertos25ReadWriteLockPreferReaderD2Ev\000"
 8399      32637070 
 8399      5F667265 
 8399      6572746F 
 8399      73323552 
 8400              	.LASF366:
 8401 0bf3 51756575 	 .ascii "QueueHandle_t\000"
 8401      6548616E 
 8401      646C655F 
 8401      7400
ARM GAS   			page 167


 8402              	.LASF370:
 8403 0c01 5F5A4E31 	 .ascii "_ZN12cpp_freertos25ReadWriteLockPreferWriterC4Ev\000"
 8403      32637070 
 8403      5F667265 
 8403      6572746F 
 8403      73323552 
 8404              	.LASF78:
 8405 0c32 5F5F7763 	 .ascii "__wch\000"
 8405      6800
 8406              	.LASF246:
 8407 0c38 75696E74 	 .ascii "uint8_t\000"
 8407      385F7400 
 8408              	.LASF393:
 8409 0c40 5F5A4E31 	 .ascii "_ZN12cpp_freertos13ReadWriteLock10WriterLockEv\000"
 8409      32637070 
 8409      5F667265 
 8409      6572746F 
 8409      73313352 
 8410              	.LASF391:
 8411 0c6f 5F5A4E31 	 .ascii "_ZN12cpp_freertos13ReadWriteLock10ReaderLockEv\000"
 8411      32637070 
 8411      5F667265 
 8411      6572746F 
 8411      73313352 
 8412              	.LASF14:
 8413 0c9e 5F5A4E53 	 .ascii "_ZNSt15__exception_ptr13exception_ptrD4Ev\000"
 8413      7431355F 
 8413      5F657863 
 8413      65707469 
 8413      6F6E5F70 
 8414              	.LASF304:
 8415 0cc8 71756F74 	 .ascii "quot\000"
 8415      00
 8416              	.LASF120:
 8417 0ccd 5F636C6F 	 .ascii "_close\000"
 8417      736500
 8418              	.LASF385:
 8419 0cd4 5F5A4E31 	 .ascii "_ZN12cpp_freertos25ReadWriteLockPreferWriterC4ERKS0"
 8419      32637070 
 8419      5F667265 
 8419      6572746F 
 8419      73323552 
 8420 0d07 5F00     	 .ascii "_\000"
 8421              	.LASF199:
 8422 0d09 6D627372 	 .ascii "mbsrtowcs\000"
 8422      746F7763 
 8422      7300
 8423              	.LASF389:
 8424 0d13 7E526561 	 .ascii "~ReadWriteLock\000"
 8424      64577269 
 8424      74654C6F 
 8424      636B00
 8425              	.LASF160:
 8426 0d22 5F5F7364 	 .ascii "__sdidinit\000"
 8426      6964696E 
 8426      697400
 8427              	.LASF356:
ARM GAS   			page 168


 8428 0d2d 72656E61 	 .ascii "rename\000"
 8428      6D6500
 8429              	.LASF319:
 8430 0d34 6D627374 	 .ascii "mbstowcs\000"
 8430      6F776373 
 8430      00
 8431              	.LASF16:
 8432 0d3d 73776170 	 .ascii "swap\000"
 8432      00
 8433              	.LASF4:
 8434 0d42 65786365 	 .ascii "exception_ptr\000"
 8434      7074696F 
 8434      6E5F7074 
 8434      7200
 8435              	.LASF225:
 8436 0d50 77637374 	 .ascii "wcstof\000"
 8436      6F6600
 8437              	.LASF223:
 8438 0d57 77637373 	 .ascii "wcsspn\000"
 8438      706E00
 8439              	.LASF153:
 8440 0d5e 5F737464 	 .ascii "_stdin\000"
 8440      696E00
 8441              	.LASF20:
 8442 0d65 5F5A4E4B 	 .ascii "_ZNKSt15__exception_ptr13exception_ptr20__cxa_excep"
 8442      53743135 
 8442      5F5F6578 
 8442      63657074 
 8442      696F6E5F 
 8443 0d98 74696F6E 	 .ascii "tion_typeEv\000"
 8443      5F747970 
 8443      65457600 
 8444              	.LASF375:
 8445 0da4 52656164 	 .ascii "ReaderUnlock\000"
 8445      6572556E 
 8445      6C6F636B 
 8445      00
 8446              	.LASF358:
 8447 0db1 73657462 	 .ascii "setbuf\000"
 8447      756600
 8448              	.LASF226:
 8449 0db8 77637374 	 .ascii "wcstok\000"
 8449      6F6B00
 8450              	.LASF110:
 8451 0dbf 5F626173 	 .ascii "_base\000"
 8451      6500
 8452              	.LASF165:
 8453 0dc5 5F667265 	 .ascii "_freelist\000"
 8453      656C6973 
 8453      7400
 8454              	.LASF180:
 8455 0dcf 5F6D756C 	 .ascii "_mult\000"
 8455      7400
 8456              	.LASF181:
 8457 0dd5 5F616464 	 .ascii "_add\000"
 8457      00
 8458              	.LASF281:
ARM GAS   			page 169


 8459 0dda 6D6F6E5F 	 .ascii "mon_grouping\000"
 8459      67726F75 
 8459      70696E67 
 8459      00
 8460              	.LASF428:
 8461 0de7 5F5F6774 	 .ascii "__gthread_key_delete\000"
 8461      68726561 
 8461      645F6B65 
 8461      795F6465 
 8461      6C657465 
 8462              	.LASF146:
 8463 0dfc 5F776372 	 .ascii "_wcrtomb_state\000"
 8463      746F6D62 
 8463      5F737461 
 8463      746500
 8464              	.LASF363:
 8465 0e0b 42617365 	 .ascii "BaseType_t\000"
 8465      54797065 
 8465      5F7400
 8466              	.LASF41:
 8467 0e16 626F6F6C 	 .ascii "bool\000"
 8467      00
 8468              	.LASF372:
 8469 0e1b 52656164 	 .ascii "ReaderLock\000"
 8469      65724C6F 
 8469      636B00
 8470              	.LASF58:
 8471 0e26 5F5F696E 	 .ascii "__int16_t\000"
 8471      7431365F 
 8471      7400
 8472              	.LASF286:
 8473 0e30 705F6373 	 .ascii "p_cs_precedes\000"
 8473      5F707265 
 8473      63656465 
 8473      7300
 8474              	.LASF376:
 8475 0e3e 5F5A4E31 	 .ascii "_ZN12cpp_freertos25ReadWriteLockPreferWriter12Reade"
 8475      32637070 
 8475      5F667265 
 8475      6572746F 
 8475      73323552 
 8476 0e71 72556E6C 	 .ascii "rUnlockEv\000"
 8476      6F636B45 
 8476      7600
 8477              	.LASF416:
 8478 0e7b 433A5C55 	 .ascii "C:\\Users\\niels\\Documents\\Elektrotechniek\\Jaar "
 8478      73657273 
 8478      5C6E6965 
 8478      6C735C44 
 8478      6F63756D 
 8479 0ea9 325C4543 	 .ascii "2\\ECS\\ECSL\\software\\STM32\\STM32Basis\\HAL\\gem"
 8479      535C4543 
 8479      534C5C73 
 8479      6F667477 
 8479      6172655C 
 8480 0ed5 65656E73 	 .ascii "eenschappelijk\\Third_Party\\freertos-addons-1.1.0\\"
 8480      63686170 
ARM GAS   			page 170


 8480      70656C69 
 8480      6A6B5C54 
 8480      68697264 
 8481 0f06 632B2B5C 	 .ascii "c++\\Source\\cread_write_lock.cpp\000"
 8481      536F7572 
 8481      63655C63 
 8481      72656164 
 8481      5F777269 
 8482              	.LASF25:
 8483 0f26 5F5F6973 	 .ascii "__is_integer<long double>\000"
 8483      5F696E74 
 8483      65676572 
 8483      3C6C6F6E 
 8483      6720646F 
 8484              	.LASF265:
 8485 0f40 696E745F 	 .ascii "int_fast8_t\000"
 8485      66617374 
 8485      385F7400 
 8486              	.LASF348:
 8487 0f4c 66736565 	 .ascii "fseek\000"
 8487      6B00
 8488              	.LASF317:
 8489 0f52 6C646976 	 .ascii "ldiv\000"
 8489      00
 8490              	.LASF161:
 8491 0f57 5F5F636C 	 .ascii "__cleanup\000"
 8491      65616E75 
 8491      7000
 8492              	.LASF189:
 8493 0f61 66676574 	 .ascii "fgetws\000"
 8493      777300
 8494              	.LASF82:
 8495 0f68 5F6D6273 	 .ascii "_mbstate_t\000"
 8495      74617465 
 8495      5F7400
 8496              	.LASF421:
 8497 0f73 70696563 	 .ascii "piecewise_construct\000"
 8497      65776973 
 8497      655F636F 
 8497      6E737472 
 8497      75637400 
 8498              	.LASF10:
 8499 0f87 6F706572 	 .ascii "operator=\000"
 8499      61746F72 
 8499      3D00
 8500              	.LASF15:
 8501 0f91 5F4D5F67 	 .ascii "_M_get\000"
 8501      657400
 8502              	.LASF66:
 8503 0f98 5F5F696E 	 .ascii "__int_least16_t\000"
 8503      745F6C65 
 8503      61737431 
 8503      365F7400 
 8504              	.LASF323:
 8505 0fa8 7372616E 	 .ascii "srand\000"
 8505      6400
 8506              	.LASF40:
ARM GAS   			page 171


 8507 0fae 6C6F6E67 	 .ascii "long double\000"
 8507      20646F75 
 8507      626C6500 
 8508              	.LASF85:
 8509 0fba 5F666C6F 	 .ascii "_flock_t\000"
 8509      636B5F74 
 8509      00
 8510              	.LASF349:
 8511 0fc3 66736574 	 .ascii "fsetpos\000"
 8511      706F7300 
 8512              	.LASF100:
 8513 0fcb 5F5F746D 	 .ascii "__tm_isdst\000"
 8513      5F697364 
 8513      737400
 8514              	.LASF270:
 8515 0fd6 75696E74 	 .ascii "uint_fast32_t\000"
 8515      5F666173 
 8515      7433325F 
 8515      7400
 8516              	.LASF147:
 8517 0fe4 5F776373 	 .ascii "_wcsrtombs_state\000"
 8517      72746F6D 
 8517      62735F73 
 8517      74617465 
 8517      00
 8518              	.LASF350:
 8519 0ff5 6674656C 	 .ascii "ftell\000"
 8519      6C00
 8520              	.LASF204:
 8521 0ffb 756E6765 	 .ascii "ungetwc\000"
 8521      74776300 
 8522              	.LASF44:
 8523 1003 6C6F6E67 	 .ascii "long unsigned int\000"
 8523      20756E73 
 8523      69676E65 
 8523      6420696E 
 8523      7400
 8524              	.LASF148:
 8525 1015 5F685F65 	 .ascii "_h_errno\000"
 8525      72726E6F 
 8525      00
 8526              	.LASF342:
 8527 101e 66676574 	 .ascii "fgetc\000"
 8527      6300
 8528              	.LASF345:
 8529 1024 666F7065 	 .ascii "fopen\000"
 8529      6E00
 8530              	.LASF365:
 8531 102a 5469636B 	 .ascii "TickType_t\000"
 8531      54797065 
 8531      5F7400
 8532              	.LASF394:
 8533 1035 5F5A4E31 	 .ascii "_ZN12cpp_freertos13ReadWriteLock12WriterUnlockEv\000"
 8533      32637070 
 8533      5F667265 
 8533      6572746F 
 8533      73313352 
ARM GAS   			page 172


 8534              	.LASF344:
 8535 1066 66676574 	 .ascii "fgets\000"
 8535      7300
 8536              	.LASF96:
 8537 106c 5F5F746D 	 .ascii "__tm_mon\000"
 8537      5F6D6F6E 
 8537      00
 8538              	.LASF237:
 8539 1075 77637363 	 .ascii "wcschr\000"
 8539      687200
 8540              	.LASF62:
 8541 107c 5F5F696E 	 .ascii "__int64_t\000"
 8541      7436345F 
 8541      7400
 8542              	.LASF390:
 8543 1086 5F5A4E31 	 .ascii "_ZN12cpp_freertos13ReadWriteLockD4Ev\000"
 8543      32637070 
 8543      5F667265 
 8543      6572746F 
 8543      73313352 
 8544              	.LASF72:
 8545 10ab 5F5F696E 	 .ascii "__intmax_t\000"
 8545      746D6178 
 8545      5F7400
 8546              	.LASF190:
 8547 10b6 66707574 	 .ascii "fputwc\000"
 8547      776300
 8548              	.LASF255:
 8549 10bd 696E7470 	 .ascii "intptr_t\000"
 8549      74725F74 
 8549      00
 8550              	.LASF84:
 8551 10c6 5F4C4F43 	 .ascii "_LOCK_T\000"
 8551      4B5F5400 
 8552              	.LASF248:
 8553 10ce 75696E74 	 .ascii "uint16_t\000"
 8553      31365F74 
 8553      00
 8554              	.LASF214:
 8555 10d7 77637363 	 .ascii "wcscoll\000"
 8555      6F6C6C00 
 8556              	.LASF384:
 8557 10df 52656164 	 .ascii "ReadWriteLock\000"
 8557      57726974 
 8557      654C6F63 
 8557      6B00
 8558              	.LASF118:
 8559 10ed 5F777269 	 .ascii "_write\000"
 8559      746500
 8560              	.LASF404:
 8561 10f4 74686973 	 .ascii "this\000"
 8561      00
 8562              	.LASF134:
 8563 10f9 5F67616D 	 .ascii "_gamma_signgam\000"
 8563      6D615F73 
 8563      69676E67 
 8563      616D00
ARM GAS   			page 173


 8564              	.LASF191:
 8565 1108 66707574 	 .ascii "fputws\000"
 8565      777300
 8566              	.LASF61:
 8567 110f 5F5F7569 	 .ascii "__uint32_t\000"
 8567      6E743332 
 8567      5F7400
 8568              	.LASF6:
 8569 111a 5F5A4E53 	 .ascii "_ZNSt15__exception_ptr13exception_ptrC4Ev\000"
 8569      7431355F 
 8569      5F657863 
 8569      65707469 
 8569      6F6E5F70 
 8570              	.LASF135:
 8571 1144 5F72616E 	 .ascii "_rand_next\000"
 8571      645F6E65 
 8571      787400
 8572              	.LASF406:
 8573 114f 5F5A4E31 	 .ascii "_ZN12cpp_freertos25ReadWriteLockPreferReaderD0Ev\000"
 8573      32637070 
 8573      5F667265 
 8573      6572746F 
 8573      73323552 
 8574              	.LASF70:
 8575 1180 5F5F696E 	 .ascii "__int_least64_t\000"
 8575      745F6C65 
 8575      61737436 
 8575      345F7400 
 8576              	.LASF187:
 8577 1190 62746F77 	 .ascii "btowc\000"
 8577      6300
 8578              	.LASF106:
 8579 1196 5F617465 	 .ascii "_atexit\000"
 8579      78697400 
 8580              	.LASF410:
 8581 119e 5F5A4E31 	 .ascii "_ZN12cpp_freertos25ReadWriteLockPreferWriterC2Ev\000"
 8581      32637070 
 8581      5F667265 
 8581      6572746F 
 8581      73323552 
 8582              	.LASF65:
 8583 11cf 5F5F7569 	 .ascii "__uint_least8_t\000"
 8583      6E745F6C 
 8583      65617374 
 8583      385F7400 
 8584              	.LASF269:
 8585 11df 696E745F 	 .ascii "int_fast32_t\000"
 8585      66617374 
 8585      33325F74 
 8585      00
 8586              	.LASF21:
 8587 11ec 72657468 	 .ascii "rethrow_exception\000"
 8587      726F775F 
 8587      65786365 
 8587      7074696F 
 8587      6E00
 8588              	.LASF198:
ARM GAS   			page 174


 8589 11fe 6D627369 	 .ascii "mbsinit\000"
 8589      6E697400 
 8590              	.LASF241:
 8591 1206 776D656D 	 .ascii "wmemchr\000"
 8591      63687200 
 8592              	.LASF47:
 8593 120e 73686F72 	 .ascii "short int\000"
 8593      7420696E 
 8593      7400
 8594              	.LASF222:
 8595 1218 77637372 	 .ascii "wcsrtombs\000"
 8595      746F6D62 
 8595      7300
 8596              	.LASF277:
 8597 1222 696E745F 	 .ascii "int_curr_symbol\000"
 8597      63757272 
 8597      5F73796D 
 8597      626F6C00 
 8598              	.LASF244:
 8599 1232 77637374 	 .ascii "wcstoull\000"
 8599      6F756C6C 
 8599      00
 8600              	.LASF19:
 8601 123b 5F5F6378 	 .ascii "__cxa_exception_type\000"
 8601      615F6578 
 8601      63657074 
 8601      696F6E5F 
 8601      74797065 
 8602              	.LASF285:
 8603 1250 66726163 	 .ascii "frac_digits\000"
 8603      5F646967 
 8603      69747300 
 8604              	.LASF196:
 8605 125c 6D62726C 	 .ascii "mbrlen\000"
 8605      656E00
 8606              	.LASF232:
 8607 1263 776D656D 	 .ascii "wmemcpy\000"
 8607      63707900 
 8608              	.LASF367:
 8609 126b 53656D61 	 .ascii "SemaphoreHandle_t\000"
 8609      70686F72 
 8609      6548616E 
 8609      646C655F 
 8609      7400
 8610              	.LASF346:
 8611 127d 66726561 	 .ascii "fread\000"
 8611      6400
 8612              	.LASF420:
 8613 1283 74797065 	 .ascii "type_info\000"
 8613      5F696E66 
 8613      6F00
 8614              	.LASF291:
 8615 128d 6E5F7369 	 .ascii "n_sign_posn\000"
 8615      676E5F70 
 8615      6F736E00 
 8616              	.LASF371:
 8617 1299 7E526561 	 .ascii "~ReadWriteLockPreferWriter\000"
ARM GAS   			page 175


 8617      64577269 
 8617      74654C6F 
 8617      636B5072 
 8617      65666572 
 8618              	.LASF172:
 8619 12b4 5F5F7366 	 .ascii "__sf\000"
 8619      00
 8620              	.LASF311:
 8621 12b9 61746578 	 .ascii "atexit\000"
 8621      697400
 8622              	.LASF201:
 8623 12c0 70757477 	 .ascii "putwchar\000"
 8623      63686172 
 8623      00
 8624              	.LASF239:
 8625 12c9 77637372 	 .ascii "wcsrchr\000"
 8625      63687200 
 8626              	.LASF402:
 8627 12d1 5F5A4E31 	 .ascii "_ZN12cpp_freertos25ReadWriteLockPreferReader12Write"
 8627      32637070 
 8627      5F667265 
 8627      6572746F 
 8627      73323552 
 8628 1304 72556E6C 	 .ascii "rUnlockEv\000"
 8628      6F636B45 
 8628      7600
 8629              	.LASF299:
 8630 130e 67657477 	 .ascii "getwchar\000"
 8630      63686172 
 8630      00
 8631              	.LASF354:
 8632 1317 70657272 	 .ascii "perror\000"
 8632      6F7200
 8633              	.LASF125:
 8634 131e 5F646174 	 .ascii "_data\000"
 8634      6100
 8635              	.LASF282:
 8636 1324 706F7369 	 .ascii "positive_sign\000"
 8636      74697665 
 8636      5F736967 
 8636      6E00
 8637              	.LASF79:
 8638 1332 5F5F7763 	 .ascii "__wchb\000"
 8638      686200
 8639              	.LASF252:
 8640 1339 75696E74 	 .ascii "uint64_t\000"
 8640      36345F74 
 8640      00
 8641              	.LASF293:
 8642 1342 696E745F 	 .ascii "int_n_sep_by_space\000"
 8642      6E5F7365 
 8642      705F6279 
 8642      5F737061 
 8642      636500
 8643              	.LASF338:
 8644 1355 66636C6F 	 .ascii "fclose\000"
 8644      736500
ARM GAS   			page 176


 8645              	.LASF374:
 8646 135c 5F5A4E31 	 .ascii "_ZN12cpp_freertos25ReadWriteLockPreferWriter10Reade"
 8646      32637070 
 8646      5F667265 
 8646      6572746F 
 8646      73323552 
 8647 138f 724C6F63 	 .ascii "rLockEv\000"
 8647      6B457600 
 8648              	.LASF97:
 8649 1397 5F5F746D 	 .ascii "__tm_year\000"
 8649      5F796561 
 8649      7200
 8650              	.LASF220:
 8651 13a1 7763736E 	 .ascii "wcsncmp\000"
 8651      636D7000 
 8652              	.LASF114:
 8653 13a9 5F66696C 	 .ascii "_file\000"
 8653      6500
 8654              	.LASF378:
 8655 13af 5F5A4E31 	 .ascii "_ZN12cpp_freertos25ReadWriteLockPreferWriter10Write"
 8655      32637070 
 8655      5F667265 
 8655      6572746F 
 8655      73323552 
 8656 13e2 724C6F63 	 .ascii "rLockEv\000"
 8656      6B457600 
 8657              	.LASF307:
 8658 13ea 6C646976 	 .ascii "ldiv_t\000"
 8658      5F7400
 8659              	.LASF133:
 8660 13f1 5F6C6F63 	 .ascii "_localtime_buf\000"
 8660      616C7469 
 8660      6D655F62 
 8660      756600
 8661              	.LASF60:
 8662 1400 5F5F696E 	 .ascii "__int32_t\000"
 8662      7433325F 
 8662      7400
 8663              	.LASF151:
 8664 140a 5F756E75 	 .ascii "_unused\000"
 8664      73656400 
 8665              	.LASF57:
 8666 1412 5F5F7569 	 .ascii "__uint8_t\000"
 8666      6E74385F 
 8666      7400
 8667              	.LASF217:
 8668 141c 77637366 	 .ascii "wcsftime\000"
 8668      74696D65 
 8668      00
 8669              	.LASF168:
 8670 1425 5F6E6577 	 .ascii "_new\000"
 8670      00
 8671              	.LASF296:
 8672 142a 696E745F 	 .ascii "int_p_sep_by_space\000"
 8672      705F7365 
 8672      705F6279 
 8672      5F737061 
ARM GAS   			page 177


 8672      636500
 8673              	.LASF166:
 8674 143d 5F637674 	 .ascii "_cvtlen\000"
 8674      6C656E00 
 8675              	.LASF88:
 8676 1445 5F6D6178 	 .ascii "_maxwds\000"
 8676      77647300 
 8677              	.LASF140:
 8678 144d 5F6C3634 	 .ascii "_l64a_buf\000"
 8678      615F6275 
 8678      6600
 8679              	.LASF351:
 8680 1457 67657463 	 .ascii "getc\000"
 8680      00
 8681              	.LASF262:
 8682 145c 75696E74 	 .ascii "uint_least32_t\000"
 8682      5F6C6561 
 8682      73743332 
 8682      5F7400
 8683              	.LASF418:
 8684 146b 6F706572 	 .ascii "operator bool\000"
 8684      61746F72 
 8684      20626F6F 
 8684      6C00
 8685              	.LASF56:
 8686 1479 5F5F696E 	 .ascii "__int8_t\000"
 8686      74385F74 
 8686      00
 8687              	.LASF419:
 8688 1482 5F5A4E4B 	 .ascii "_ZNKSt15__exception_ptr13exception_ptrcvbEv\000"
 8688      53743135 
 8688      5F5F6578 
 8688      63657074 
 8688      696F6E5F 
 8689              	.LASF64:
 8690 14ae 5F5F696E 	 .ascii "__int_least8_t\000"
 8690      745F6C65 
 8690      61737438 
 8690      5F7400
 8691              	.LASF256:
 8692 14bd 75696E74 	 .ascii "uintptr_t\000"
 8692      7074725F 
 8692      7400
 8693              	.LASF91:
 8694 14c7 5F5F746D 	 .ascii "__tm\000"
 8694      00
 8695              	.LASF353:
 8696 14cc 67657473 	 .ascii "gets\000"
 8696      00
 8697              	.LASF0:
 8698 14d1 5F4D5F61 	 .ascii "_M_addref\000"
 8698      64647265 
 8698      6600
 8699              	.LASF126:
 8700 14db 5F6C6F63 	 .ascii "_lock\000"
 8700      6B00
 8701              	.LASF326:
ARM GAS   			page 178


 8702 14e1 73747274 	 .ascii "strtoul\000"
 8702      6F756C00 
 8703              	.LASF273:
 8704 14e9 6C636F6E 	 .ascii "lconv\000"
 8704      7600
 8705              	.LASF176:
 8706 14ef 5F6E696F 	 .ascii "_niobs\000"
 8706      627300
 8707              	.LASF55:
 8708 14f6 77696E74 	 .ascii "wint_t\000"
 8708      5F7400
 8709              	.LASF249:
 8710 14fd 696E7433 	 .ascii "int32_t\000"
 8710      325F7400 
 8711              	.LASF261:
 8712 1505 696E745F 	 .ascii "int_least32_t\000"
 8712      6C656173 
 8712      7433325F 
 8712      7400
 8713              	.LASF93:
 8714 1513 5F5F746D 	 .ascii "__tm_min\000"
 8714      5F6D696E 
 8714      00
 8715              	.LASF224:
 8716 151c 77637374 	 .ascii "wcstod\000"
 8716      6F6400
 8717              	.LASF238:
 8718 1523 77637370 	 .ascii "wcspbrk\000"
 8718      62726B00 
 8719              	.LASF103:
 8720 152b 5F64736F 	 .ascii "_dso_handle\000"
 8720      5F68616E 
 8720      646C6500 
 8721              	.LASF8:
 8722 1537 5F5A4E53 	 .ascii "_ZNSt15__exception_ptr13exception_ptrC4EDn\000"
 8722      7431355F 
 8722      5F657863 
 8722      65707469 
 8722      6F6E5F70 
 8723              	.LASF186:
 8724 1562 6D627374 	 .ascii "mbstate_t\000"
 8724      6174655F 
 8724      7400
 8725              	.LASF182:
 8726 156c 5F5F6C6F 	 .ascii "__lock\000"
 8726      636B00
 8727              	.LASF227:
 8728 1573 77637374 	 .ascii "wcstol\000"
 8728      6F6C00
 8729              	.LASF280:
 8730 157a 6D6F6E5F 	 .ascii "mon_thousands_sep\000"
 8730      74686F75 
 8730      73616E64 
 8730      735F7365 
 8730      7000
 8731              	.LASF234:
 8732 158c 776D656D 	 .ascii "wmemset\000"
ARM GAS   			page 179


 8732      73657400 
 8733              	.LASF298:
 8734 1594 7365746C 	 .ascii "setlocale\000"
 8734      6F63616C 
 8734      6500
 8735              	.LASF3:
 8736 159e 5F5A4E53 	 .ascii "_ZNSt15__exception_ptr13exception_ptr10_M_releaseEv"
 8736      7431355F 
 8736      5F657863 
 8736      65707469 
 8736      6F6E5F70 
 8737 15d1 00       	 .ascii "\000"
 8738              	.LASF412:
 8739 15d2 5F5A4E31 	 .ascii "_ZN12cpp_freertos13ReadWriteLockD2Ev\000"
 8739      32637070 
 8739      5F667265 
 8739      6572746F 
 8739      73313352 
 8740              	.LASF397:
 8741 15f7 5265736F 	 .ascii "ResourceLock\000"
 8741      75726365 
 8741      4C6F636B 
 8741      00
 8742              	.LASF42:
 8743 1604 756E7369 	 .ascii "unsigned char\000"
 8743      676E6564 
 8743      20636861 
 8743      7200
 8744              	.LASF17:
 8745 1612 5F5A4E4B 	 .ascii "_ZNKSt15__exception_ptr13exception_ptr6_M_getEv\000"
 8745      53743135 
 8745      5F5F6578 
 8745      63657074 
 8745      696F6E5F 
 8746              	.LASF429:
 8747 1642 5F5F6B65 	 .ascii "__key\000"
 8747      7900
 8748              	.LASF360:
 8749 1648 746D7066 	 .ascii "tmpfile\000"
 8749      696C6500 
 8750              	.LASF352:
 8751 1650 67657463 	 .ascii "getchar\000"
 8751      68617200 
 8752              	.LASF142:
 8753 1658 5F676574 	 .ascii "_getdate_err\000"
 8753      64617465 
 8753      5F657272 
 8753      00
 8754              	.LASF275:
 8755 1665 74686F75 	 .ascii "thousands_sep\000"
 8755      73616E64 
 8755      735F7365 
 8755      7000
 8756              	.LASF1:
 8757 1673 5F4D5F72 	 .ascii "_M_release\000"
 8757      656C6561 
 8757      736500
ARM GAS   			page 180


 8758              	.LASF423:
 8759 167e 6465636C 	 .ascii "decltype(nullptr)\000"
 8759      74797065 
 8759      286E756C 
 8759      6C707472 
 8759      2900
 8760              	.LASF334:
 8761 1690 73747274 	 .ascii "strtof\000"
 8761      6F6600
 8762              	.LASF266:
 8763 1697 75696E74 	 .ascii "uint_fast8_t\000"
 8763      5F666173 
 8763      74385F74 
 8763      00
 8764              	.LASF339:
 8765 16a4 66656F66 	 .ascii "feof\000"
 8765      00
 8766              	.LASF143:
 8767 16a9 5F6D6272 	 .ascii "_mbrlen_state\000"
 8767      6C656E5F 
 8767      73746174 
 8767      6500
 8768              	.LASF328:
 8769 16b7 77637374 	 .ascii "wcstombs\000"
 8769      6F6D6273 
 8769      00
 8770              	.LASF325:
 8771 16c0 73747274 	 .ascii "strtol\000"
 8771      6F6C00
 8772              	.LASF193:
 8773 16c7 66777072 	 .ascii "fwprintf\000"
 8773      696E7466 
 8773      00
 8774              	.LASF71:
 8775 16d0 5F5F7569 	 .ascii "__uint_least64_t\000"
 8775      6E745F6C 
 8775      65617374 
 8775      36345F74 
 8775      00
 8776              	.LASF380:
 8777 16e1 5F5A4E31 	 .ascii "_ZN12cpp_freertos25ReadWriteLockPreferWriter12Write"
 8777      32637070 
 8777      5F667265 
 8777      6572746F 
 8777      73323552 
 8778 1714 72556E6C 	 .ascii "rUnlockEv\000"
 8778      6F636B45 
 8778      7600
 8779              	.LASF310:
 8780 171e 5F5F636F 	 .ascii "__compar_fn_t\000"
 8780      6D706172 
 8780      5F666E5F 
 8780      7400
 8781              	.LASF109:
 8782 172c 5F5F7362 	 .ascii "__sbuf\000"
 8782      756600
 8783              	.LASF242:
ARM GAS   			page 181


 8784 1733 77637374 	 .ascii "wcstold\000"
 8784      6F6C6400 
 8785              	.LASF305:
 8786 173b 6469765F 	 .ascii "div_t\000"
 8786      7400
 8787              	.LASF230:
 8788 1741 7763746F 	 .ascii "wctob\000"
 8788      6200
 8789              	.LASF387:
 8790 1747 5F767074 	 .ascii "_vptr.ReadWriteLock\000"
 8790      722E5265 
 8790      61645772 
 8790      6974654C 
 8790      6F636B00 
 8791              	.LASF306:
 8792 175b 366C6469 	 .ascii "6ldiv_t\000"
 8792      765F7400 
 8793              	.LASF243:
 8794 1763 77637374 	 .ascii "wcstoll\000"
 8794      6F6C6C00 
 8795              	.LASF425:
 8796 176b 5F5F6170 	 .ascii "__ap\000"
 8796      00
 8797              	.LASF361:
 8798 1770 746D706E 	 .ascii "tmpnam\000"
 8798      616D00
 8799              	.LASF202:
 8800 1777 73777072 	 .ascii "swprintf\000"
 8800      696E7466 
 8800      00
 8801              	.LASF7:
 8802 1780 5F5A4E53 	 .ascii "_ZNSt15__exception_ptr13exception_ptrC4ERKS0_\000"
 8802      7431355F 
 8802      5F657863 
 8802      65707469 
 8802      6F6E5F70 
 8803              	.LASF171:
 8804 17ae 5F5F7367 	 .ascii "__sglue\000"
 8804      6C756500 
 8805              	.LASF131:
 8806 17b6 5F737472 	 .ascii "_strtok_last\000"
 8806      746F6B5F 
 8806      6C617374 
 8806      00
 8807              	.LASF335:
 8808 17c3 73747274 	 .ascii "strtold\000"
 8808      6F6C6400 
 8809              	.LASF357:
 8810 17cb 72657769 	 .ascii "rewind\000"
 8810      6E6400
 8811              	.LASF308:
 8812 17d2 376C6C64 	 .ascii "7lldiv_t\000"
 8812      69765F74 
 8812      00
 8813              	.LASF102:
 8814 17db 5F666E61 	 .ascii "_fnargs\000"
 8814      72677300 
ARM GAS   			page 182


 8815              	.LASF46:
 8816 17e3 7369676E 	 .ascii "signed char\000"
 8816      65642063 
 8816      68617200 
 8817              	.LASF396:
 8818 17ef 52656164 	 .ascii "ReadLock\000"
 8818      4C6F636B 
 8818      00
 8819              	.LASF129:
 8820 17f8 5F726565 	 .ascii "_reent\000"
 8820      6E7400
 8821              	.LASF43:
 8822 17ff 73686F72 	 .ascii "short unsigned int\000"
 8822      7420756E 
 8822      7369676E 
 8822      65642069 
 8822      6E7400
 8823              	.LASF159:
 8824 1812 5F6C6F63 	 .ascii "_locale\000"
 8824      616C6500 
 8825              	.LASF309:
 8826 181a 6C6C6469 	 .ascii "lldiv_t\000"
 8826      765F7400 
 8827              	.LASF312:
 8828 1822 61746F66 	 .ascii "atof\000"
 8828      00
 8829              	.LASF216:
 8830 1827 77637363 	 .ascii "wcscspn\000"
 8830      73706E00 
 8831              	.LASF313:
 8832 182f 61746F69 	 .ascii "atoi\000"
 8832      00
 8833              	.LASF288:
 8834 1834 6E5F6373 	 .ascii "n_cs_precedes\000"
 8834      5F707265 
 8834      63656465 
 8834      7300
 8835              	.LASF314:
 8836 1842 61746F6C 	 .ascii "atol\000"
 8836      00
 8837              	.LASF11:
 8838 1847 5F5A4E53 	 .ascii "_ZNSt15__exception_ptr13exception_ptraSERKS0_\000"
 8838      7431355F 
 8838      5F657863 
 8838      65707469 
 8838      6F6E5F70 
 8839              	.LASF221:
 8840 1875 7763736E 	 .ascii "wcsncpy\000"
 8840      63707900 
 8841              	.LASF188:
 8842 187d 66676574 	 .ascii "fgetwc\000"
 8842      776300
 8843              	.LASF104:
 8844 1884 5F666E74 	 .ascii "_fntypes\000"
 8844      79706573 
 8844      00
 8845              	.LASF112:
ARM GAS   			page 183


 8846 188d 5F5F7346 	 .ascii "__sFILE\000"
 8846      494C4500 
 8847              	.LASF111:
 8848 1895 5F73697A 	 .ascii "_size\000"
 8848      6500
 8849              	.LASF52:
 8850 189b 646F7562 	 .ascii "double\000"
 8850      6C6500
 8851              	.LASF213:
 8852 18a2 77637363 	 .ascii "wcscmp\000"
 8852      6D7000
 8853              	.LASF219:
 8854 18a9 7763736E 	 .ascii "wcsncat\000"
 8854      63617400 
 8855              	.LASF405:
 8856 18b1 5F5F696E 	 .ascii "__in_chrg\000"
 8856      5F636872 
 8856      6700
 8857              	.LASF76:
 8858 18bb 5F6F6666 	 .ascii "_off_t\000"
 8858      5F7400
 8859              	.LASF122:
 8860 18c2 5F6E6275 	 .ascii "_nbuf\000"
 8860      6600
 8861              	.LASF130:
 8862 18c8 5F756E75 	 .ascii "_unused_rand\000"
 8862      7365645F 
 8862      72616E64 
 8862      00
 8863              	.LASF67:
 8864 18d5 5F5F7569 	 .ascii "__uint_least16_t\000"
 8864      6E745F6C 
 8864      65617374 
 8864      31365F74 
 8864      00
 8865              	.LASF50:
 8866 18e6 63686172 	 .ascii "char16_t\000"
 8866      31365F74 
 8866      00
 8867              	.LASF2:
 8868 18ef 5F5A4E53 	 .ascii "_ZNSt15__exception_ptr13exception_ptr9_M_addrefEv\000"
 8868      7431355F 
 8868      5F657863 
 8868      65707469 
 8868      6F6E5F70 
 8869              	.LASF185:
 8870 1921 46494C45 	 .ascii "FILE\000"
 8870      00
 8871              	.LASF207:
 8872 1926 76737770 	 .ascii "vswprintf\000"
 8872      72696E74 
 8872      6600
 8873              	.LASF128:
 8874 1930 5F666C61 	 .ascii "_flags2\000"
 8874      67733200 
 8875              	.LASF413:
 8876 1938 5F5F5052 	 .ascii "__PRETTY_FUNCTION__\000"
ARM GAS   			page 184


 8876      45545459 
 8876      5F46554E 
 8876      4354494F 
 8876      4E5F5F00 
 8877              	.LASF105:
 8878 194c 5F69735F 	 .ascii "_is_cxa\000"
 8878      63786100 
 8879              	.LASF179:
 8880 1954 5F736565 	 .ascii "_seed\000"
 8880      6400
 8881              	.LASF183:
 8882 195a 5F5F6C6F 	 .ascii "__locale_t\000"
 8882      63616C65 
 8882      5F7400
 8883              	.LASF297:
 8884 1965 696E745F 	 .ascii "int_p_sign_posn\000"
 8884      705F7369 
 8884      676E5F70 
 8884      6F736E00 
 8885              	.LASF119:
 8886 1975 5F736565 	 .ascii "_seek\000"
 8886      6B00
 8887              	.LASF218:
 8888 197b 7763736C 	 .ascii "wcslen\000"
 8888      656E00
 8889              	.LASF386:
 8890 1982 5F5A4E31 	 .ascii "_ZN12cpp_freertos13ReadWriteLockC4ERKS0_\000"
 8890      32637070 
 8890      5F667265 
 8890      6572746F 
 8890      73313352 
 8891              	.LASF155:
 8892 19ab 5F737464 	 .ascii "_stderr\000"
 8892      65727200 
 8893              	.LASF150:
 8894 19b3 5F6E6D61 	 .ascii "_nmalloc\000"
 8894      6C6C6F63 
 8894      00
 8895              	.LASF177:
 8896 19bc 5F696F62 	 .ascii "_iobs\000"
 8896      7300
 8897              	.LASF231:
 8898 19c2 776D656D 	 .ascii "wmemcmp\000"
 8898      636D7000 
 8899              	.LASF322:
 8900 19ca 71736F72 	 .ascii "qsort\000"
 8900      7400
 8901              	 .ident "GCC: (GNU Arm Embedded Toolchain 10.3-2021.10) 10.3.1 20210824 (release)"
