ARM GAS   			page 1


   1              	 .cpu cortex-m4
   2              	 .arch armv7e-m
   3              	 .fpu fpv4-sp-d16
   4              	 .eabi_attribute 27,1
   5              	 .eabi_attribute 28,1
   6              	 .eabi_attribute 20,1
   7              	 .eabi_attribute 21,1
   8              	 .eabi_attribute 23,3
   9              	 .eabi_attribute 24,1
  10              	 .eabi_attribute 25,1
  11              	 .eabi_attribute 26,1
  12              	 .eabi_attribute 30,6
  13              	 .eabi_attribute 34,0
  14              	 .eabi_attribute 18,4
  15              	 .file "cread_write_lock.cpp"
  16              	 .text
  17              	.Ltext0:
  18              	 .cfi_sections .debug_frame
  19              	 .section .rodata._ZStL19piecewise_construct,"a"
  20              	 .align 2
  21              	 .type _ZStL19piecewise_construct,%object
  22              	 .size _ZStL19piecewise_construct,1
  23              	_ZStL19piecewise_construct:
  24 0000 00       	 .space 1
  25              	 .section .text._ZL20__gthread_key_deletei,"ax",%progbits
  26              	 .align 1
  27              	 .syntax unified
  28              	 .thumb
  29              	 .thumb_func
  30              	 .type _ZL20__gthread_key_deletei,%function
  31              	_ZL20__gthread_key_deletei:
  32              	.LFB602:
  33              	 .file 1 "c:\\progra~2\\gnuarm~1\\102021~1.10\\arm-none-eabi\\include\\c++\\10.3.1\\arm-none-eabi\\thumb\\v7e-m+fp\\hard\\bits\\gthr-default.h"
   1:c:\progra~2\gnuarm~1\102021~1.10\arm-none-eabi\include\c++\10.3.1\arm-none-eabi\thumb\v7e-m+fp\hard\bits\gthr-default.h **** /* Threads compatibility routines for libgcc2 and libobjc.  */
   2:c:\progra~2\gnuarm~1\102021~1.10\arm-none-eabi\include\c++\10.3.1\arm-none-eabi\thumb\v7e-m+fp\hard\bits\gthr-default.h **** /* Compile this one with gcc.  */
   3:c:\progra~2\gnuarm~1\102021~1.10\arm-none-eabi\include\c++\10.3.1\arm-none-eabi\thumb\v7e-m+fp\hard\bits\gthr-default.h **** /* Copyright (C) 1997-2020 Free Software Foundation, Inc.
   4:c:\progra~2\gnuarm~1\102021~1.10\arm-none-eabi\include\c++\10.3.1\arm-none-eabi\thumb\v7e-m+fp\hard\bits\gthr-default.h **** 
   5:c:\progra~2\gnuarm~1\102021~1.10\arm-none-eabi\include\c++\10.3.1\arm-none-eabi\thumb\v7e-m+fp\hard\bits\gthr-default.h **** This file is part of GCC.
   6:c:\progra~2\gnuarm~1\102021~1.10\arm-none-eabi\include\c++\10.3.1\arm-none-eabi\thumb\v7e-m+fp\hard\bits\gthr-default.h **** 
   7:c:\progra~2\gnuarm~1\102021~1.10\arm-none-eabi\include\c++\10.3.1\arm-none-eabi\thumb\v7e-m+fp\hard\bits\gthr-default.h **** GCC is free software; you can redistribute it and/or modify it under
   8:c:\progra~2\gnuarm~1\102021~1.10\arm-none-eabi\include\c++\10.3.1\arm-none-eabi\thumb\v7e-m+fp\hard\bits\gthr-default.h **** the terms of the GNU General Public License as published by the Free
   9:c:\progra~2\gnuarm~1\102021~1.10\arm-none-eabi\include\c++\10.3.1\arm-none-eabi\thumb\v7e-m+fp\hard\bits\gthr-default.h **** Software Foundation; either version 3, or (at your option) any later
  10:c:\progra~2\gnuarm~1\102021~1.10\arm-none-eabi\include\c++\10.3.1\arm-none-eabi\thumb\v7e-m+fp\hard\bits\gthr-default.h **** version.
  11:c:\progra~2\gnuarm~1\102021~1.10\arm-none-eabi\include\c++\10.3.1\arm-none-eabi\thumb\v7e-m+fp\hard\bits\gthr-default.h **** 
  12:c:\progra~2\gnuarm~1\102021~1.10\arm-none-eabi\include\c++\10.3.1\arm-none-eabi\thumb\v7e-m+fp\hard\bits\gthr-default.h **** GCC is distributed in the hope that it will be useful, but WITHOUT ANY
  13:c:\progra~2\gnuarm~1\102021~1.10\arm-none-eabi\include\c++\10.3.1\arm-none-eabi\thumb\v7e-m+fp\hard\bits\gthr-default.h **** WARRANTY; without even the implied warranty of MERCHANTABILITY or
  14:c:\progra~2\gnuarm~1\102021~1.10\arm-none-eabi\include\c++\10.3.1\arm-none-eabi\thumb\v7e-m+fp\hard\bits\gthr-default.h **** FITNESS FOR A PARTICULAR PURPOSE.  See the GNU General Public License
  15:c:\progra~2\gnuarm~1\102021~1.10\arm-none-eabi\include\c++\10.3.1\arm-none-eabi\thumb\v7e-m+fp\hard\bits\gthr-default.h **** for more details.
  16:c:\progra~2\gnuarm~1\102021~1.10\arm-none-eabi\include\c++\10.3.1\arm-none-eabi\thumb\v7e-m+fp\hard\bits\gthr-default.h **** 
  17:c:\progra~2\gnuarm~1\102021~1.10\arm-none-eabi\include\c++\10.3.1\arm-none-eabi\thumb\v7e-m+fp\hard\bits\gthr-default.h **** Under Section 7 of GPL version 3, you are granted additional
  18:c:\progra~2\gnuarm~1\102021~1.10\arm-none-eabi\include\c++\10.3.1\arm-none-eabi\thumb\v7e-m+fp\hard\bits\gthr-default.h **** permissions described in the GCC Runtime Library Exception, version
  19:c:\progra~2\gnuarm~1\102021~1.10\arm-none-eabi\include\c++\10.3.1\arm-none-eabi\thumb\v7e-m+fp\hard\bits\gthr-default.h **** 3.1, as published by the Free Software Foundation.
  20:c:\progra~2\gnuarm~1\102021~1.10\arm-none-eabi\include\c++\10.3.1\arm-none-eabi\thumb\v7e-m+fp\hard\bits\gthr-default.h **** 
  21:c:\progra~2\gnuarm~1\102021~1.10\arm-none-eabi\include\c++\10.3.1\arm-none-eabi\thumb\v7e-m+fp\hard\bits\gthr-default.h **** You should have received a copy of the GNU General Public License and
  22:c:\progra~2\gnuarm~1\102021~1.10\arm-none-eabi\include\c++\10.3.1\arm-none-eabi\thumb\v7e-m+fp\hard\bits\gthr-default.h **** a copy of the GCC Runtime Library Exception along with this program;
  23:c:\progra~2\gnuarm~1\102021~1.10\arm-none-eabi\include\c++\10.3.1\arm-none-eabi\thumb\v7e-m+fp\hard\bits\gthr-default.h **** see the files COPYING3 and COPYING.RUNTIME respectively.  If not, see
  24:c:\progra~2\gnuarm~1\102021~1.10\arm-none-eabi\include\c++\10.3.1\arm-none-eabi\thumb\v7e-m+fp\hard\bits\gthr-default.h **** <http://www.gnu.org/licenses/>.  */
ARM GAS   			page 2


  25:c:\progra~2\gnuarm~1\102021~1.10\arm-none-eabi\include\c++\10.3.1\arm-none-eabi\thumb\v7e-m+fp\hard\bits\gthr-default.h **** 
  26:c:\progra~2\gnuarm~1\102021~1.10\arm-none-eabi\include\c++\10.3.1\arm-none-eabi\thumb\v7e-m+fp\hard\bits\gthr-default.h **** #ifndef _GLIBCXX_GCC_GTHR_SINGLE_H
  27:c:\progra~2\gnuarm~1\102021~1.10\arm-none-eabi\include\c++\10.3.1\arm-none-eabi\thumb\v7e-m+fp\hard\bits\gthr-default.h **** #define _GLIBCXX_GCC_GTHR_SINGLE_H
  28:c:\progra~2\gnuarm~1\102021~1.10\arm-none-eabi\include\c++\10.3.1\arm-none-eabi\thumb\v7e-m+fp\hard\bits\gthr-default.h **** 
  29:c:\progra~2\gnuarm~1\102021~1.10\arm-none-eabi\include\c++\10.3.1\arm-none-eabi\thumb\v7e-m+fp\hard\bits\gthr-default.h **** /* Just provide compatibility for mutex handling.  */
  30:c:\progra~2\gnuarm~1\102021~1.10\arm-none-eabi\include\c++\10.3.1\arm-none-eabi\thumb\v7e-m+fp\hard\bits\gthr-default.h **** 
  31:c:\progra~2\gnuarm~1\102021~1.10\arm-none-eabi\include\c++\10.3.1\arm-none-eabi\thumb\v7e-m+fp\hard\bits\gthr-default.h **** typedef int __gthread_key_t;
  32:c:\progra~2\gnuarm~1\102021~1.10\arm-none-eabi\include\c++\10.3.1\arm-none-eabi\thumb\v7e-m+fp\hard\bits\gthr-default.h **** typedef int __gthread_once_t;
  33:c:\progra~2\gnuarm~1\102021~1.10\arm-none-eabi\include\c++\10.3.1\arm-none-eabi\thumb\v7e-m+fp\hard\bits\gthr-default.h **** typedef int __gthread_mutex_t;
  34:c:\progra~2\gnuarm~1\102021~1.10\arm-none-eabi\include\c++\10.3.1\arm-none-eabi\thumb\v7e-m+fp\hard\bits\gthr-default.h **** typedef int __gthread_recursive_mutex_t;
  35:c:\progra~2\gnuarm~1\102021~1.10\arm-none-eabi\include\c++\10.3.1\arm-none-eabi\thumb\v7e-m+fp\hard\bits\gthr-default.h **** 
  36:c:\progra~2\gnuarm~1\102021~1.10\arm-none-eabi\include\c++\10.3.1\arm-none-eabi\thumb\v7e-m+fp\hard\bits\gthr-default.h **** #define __GTHREAD_ONCE_INIT 0
  37:c:\progra~2\gnuarm~1\102021~1.10\arm-none-eabi\include\c++\10.3.1\arm-none-eabi\thumb\v7e-m+fp\hard\bits\gthr-default.h **** #define __GTHREAD_MUTEX_INIT 0
  38:c:\progra~2\gnuarm~1\102021~1.10\arm-none-eabi\include\c++\10.3.1\arm-none-eabi\thumb\v7e-m+fp\hard\bits\gthr-default.h **** #define __GTHREAD_MUTEX_INIT_FUNCTION(mx) do {} while (0)
  39:c:\progra~2\gnuarm~1\102021~1.10\arm-none-eabi\include\c++\10.3.1\arm-none-eabi\thumb\v7e-m+fp\hard\bits\gthr-default.h **** #define __GTHREAD_RECURSIVE_MUTEX_INIT 0
  40:c:\progra~2\gnuarm~1\102021~1.10\arm-none-eabi\include\c++\10.3.1\arm-none-eabi\thumb\v7e-m+fp\hard\bits\gthr-default.h **** 
  41:c:\progra~2\gnuarm~1\102021~1.10\arm-none-eabi\include\c++\10.3.1\arm-none-eabi\thumb\v7e-m+fp\hard\bits\gthr-default.h **** #define _GLIBCXX_UNUSED __attribute__((__unused__))
  42:c:\progra~2\gnuarm~1\102021~1.10\arm-none-eabi\include\c++\10.3.1\arm-none-eabi\thumb\v7e-m+fp\hard\bits\gthr-default.h **** 
  43:c:\progra~2\gnuarm~1\102021~1.10\arm-none-eabi\include\c++\10.3.1\arm-none-eabi\thumb\v7e-m+fp\hard\bits\gthr-default.h **** #ifdef _LIBOBJC
  44:c:\progra~2\gnuarm~1\102021~1.10\arm-none-eabi\include\c++\10.3.1\arm-none-eabi\thumb\v7e-m+fp\hard\bits\gthr-default.h **** 
  45:c:\progra~2\gnuarm~1\102021~1.10\arm-none-eabi\include\c++\10.3.1\arm-none-eabi\thumb\v7e-m+fp\hard\bits\gthr-default.h **** /* Thread local storage for a single thread */
  46:c:\progra~2\gnuarm~1\102021~1.10\arm-none-eabi\include\c++\10.3.1\arm-none-eabi\thumb\v7e-m+fp\hard\bits\gthr-default.h **** static void *thread_local_storage = NULL;
  47:c:\progra~2\gnuarm~1\102021~1.10\arm-none-eabi\include\c++\10.3.1\arm-none-eabi\thumb\v7e-m+fp\hard\bits\gthr-default.h **** 
  48:c:\progra~2\gnuarm~1\102021~1.10\arm-none-eabi\include\c++\10.3.1\arm-none-eabi\thumb\v7e-m+fp\hard\bits\gthr-default.h **** /* Backend initialization functions */
  49:c:\progra~2\gnuarm~1\102021~1.10\arm-none-eabi\include\c++\10.3.1\arm-none-eabi\thumb\v7e-m+fp\hard\bits\gthr-default.h **** 
  50:c:\progra~2\gnuarm~1\102021~1.10\arm-none-eabi\include\c++\10.3.1\arm-none-eabi\thumb\v7e-m+fp\hard\bits\gthr-default.h **** /* Initialize the threads subsystem.  */
  51:c:\progra~2\gnuarm~1\102021~1.10\arm-none-eabi\include\c++\10.3.1\arm-none-eabi\thumb\v7e-m+fp\hard\bits\gthr-default.h **** static inline int
  52:c:\progra~2\gnuarm~1\102021~1.10\arm-none-eabi\include\c++\10.3.1\arm-none-eabi\thumb\v7e-m+fp\hard\bits\gthr-default.h **** __gthread_objc_init_thread_system (void)
  53:c:\progra~2\gnuarm~1\102021~1.10\arm-none-eabi\include\c++\10.3.1\arm-none-eabi\thumb\v7e-m+fp\hard\bits\gthr-default.h **** {
  54:c:\progra~2\gnuarm~1\102021~1.10\arm-none-eabi\include\c++\10.3.1\arm-none-eabi\thumb\v7e-m+fp\hard\bits\gthr-default.h ****   /* No thread support available */
  55:c:\progra~2\gnuarm~1\102021~1.10\arm-none-eabi\include\c++\10.3.1\arm-none-eabi\thumb\v7e-m+fp\hard\bits\gthr-default.h ****   return -1;
  56:c:\progra~2\gnuarm~1\102021~1.10\arm-none-eabi\include\c++\10.3.1\arm-none-eabi\thumb\v7e-m+fp\hard\bits\gthr-default.h **** }
  57:c:\progra~2\gnuarm~1\102021~1.10\arm-none-eabi\include\c++\10.3.1\arm-none-eabi\thumb\v7e-m+fp\hard\bits\gthr-default.h **** 
  58:c:\progra~2\gnuarm~1\102021~1.10\arm-none-eabi\include\c++\10.3.1\arm-none-eabi\thumb\v7e-m+fp\hard\bits\gthr-default.h **** /* Close the threads subsystem.  */
  59:c:\progra~2\gnuarm~1\102021~1.10\arm-none-eabi\include\c++\10.3.1\arm-none-eabi\thumb\v7e-m+fp\hard\bits\gthr-default.h **** static inline int
  60:c:\progra~2\gnuarm~1\102021~1.10\arm-none-eabi\include\c++\10.3.1\arm-none-eabi\thumb\v7e-m+fp\hard\bits\gthr-default.h **** __gthread_objc_close_thread_system (void)
  61:c:\progra~2\gnuarm~1\102021~1.10\arm-none-eabi\include\c++\10.3.1\arm-none-eabi\thumb\v7e-m+fp\hard\bits\gthr-default.h **** {
  62:c:\progra~2\gnuarm~1\102021~1.10\arm-none-eabi\include\c++\10.3.1\arm-none-eabi\thumb\v7e-m+fp\hard\bits\gthr-default.h ****   /* No thread support available */
  63:c:\progra~2\gnuarm~1\102021~1.10\arm-none-eabi\include\c++\10.3.1\arm-none-eabi\thumb\v7e-m+fp\hard\bits\gthr-default.h ****   return -1;
  64:c:\progra~2\gnuarm~1\102021~1.10\arm-none-eabi\include\c++\10.3.1\arm-none-eabi\thumb\v7e-m+fp\hard\bits\gthr-default.h **** }
  65:c:\progra~2\gnuarm~1\102021~1.10\arm-none-eabi\include\c++\10.3.1\arm-none-eabi\thumb\v7e-m+fp\hard\bits\gthr-default.h **** 
  66:c:\progra~2\gnuarm~1\102021~1.10\arm-none-eabi\include\c++\10.3.1\arm-none-eabi\thumb\v7e-m+fp\hard\bits\gthr-default.h **** /* Backend thread functions */
  67:c:\progra~2\gnuarm~1\102021~1.10\arm-none-eabi\include\c++\10.3.1\arm-none-eabi\thumb\v7e-m+fp\hard\bits\gthr-default.h **** 
  68:c:\progra~2\gnuarm~1\102021~1.10\arm-none-eabi\include\c++\10.3.1\arm-none-eabi\thumb\v7e-m+fp\hard\bits\gthr-default.h **** /* Create a new thread of execution.  */
  69:c:\progra~2\gnuarm~1\102021~1.10\arm-none-eabi\include\c++\10.3.1\arm-none-eabi\thumb\v7e-m+fp\hard\bits\gthr-default.h **** static inline objc_thread_t
  70:c:\progra~2\gnuarm~1\102021~1.10\arm-none-eabi\include\c++\10.3.1\arm-none-eabi\thumb\v7e-m+fp\hard\bits\gthr-default.h **** __gthread_objc_thread_detach (void (* func)(void *), void * arg _GLIBCXX_UNUSED)
  71:c:\progra~2\gnuarm~1\102021~1.10\arm-none-eabi\include\c++\10.3.1\arm-none-eabi\thumb\v7e-m+fp\hard\bits\gthr-default.h **** {
  72:c:\progra~2\gnuarm~1\102021~1.10\arm-none-eabi\include\c++\10.3.1\arm-none-eabi\thumb\v7e-m+fp\hard\bits\gthr-default.h ****   /* No thread support available */
  73:c:\progra~2\gnuarm~1\102021~1.10\arm-none-eabi\include\c++\10.3.1\arm-none-eabi\thumb\v7e-m+fp\hard\bits\gthr-default.h ****   return NULL;
  74:c:\progra~2\gnuarm~1\102021~1.10\arm-none-eabi\include\c++\10.3.1\arm-none-eabi\thumb\v7e-m+fp\hard\bits\gthr-default.h **** }
  75:c:\progra~2\gnuarm~1\102021~1.10\arm-none-eabi\include\c++\10.3.1\arm-none-eabi\thumb\v7e-m+fp\hard\bits\gthr-default.h **** 
  76:c:\progra~2\gnuarm~1\102021~1.10\arm-none-eabi\include\c++\10.3.1\arm-none-eabi\thumb\v7e-m+fp\hard\bits\gthr-default.h **** /* Set the current thread's priority.  */
  77:c:\progra~2\gnuarm~1\102021~1.10\arm-none-eabi\include\c++\10.3.1\arm-none-eabi\thumb\v7e-m+fp\hard\bits\gthr-default.h **** static inline int
  78:c:\progra~2\gnuarm~1\102021~1.10\arm-none-eabi\include\c++\10.3.1\arm-none-eabi\thumb\v7e-m+fp\hard\bits\gthr-default.h **** __gthread_objc_thread_set_priority (int priority _GLIBCXX_UNUSED)
  79:c:\progra~2\gnuarm~1\102021~1.10\arm-none-eabi\include\c++\10.3.1\arm-none-eabi\thumb\v7e-m+fp\hard\bits\gthr-default.h **** {
  80:c:\progra~2\gnuarm~1\102021~1.10\arm-none-eabi\include\c++\10.3.1\arm-none-eabi\thumb\v7e-m+fp\hard\bits\gthr-default.h ****   /* No thread support available */
  81:c:\progra~2\gnuarm~1\102021~1.10\arm-none-eabi\include\c++\10.3.1\arm-none-eabi\thumb\v7e-m+fp\hard\bits\gthr-default.h ****   return -1;
ARM GAS   			page 3


  82:c:\progra~2\gnuarm~1\102021~1.10\arm-none-eabi\include\c++\10.3.1\arm-none-eabi\thumb\v7e-m+fp\hard\bits\gthr-default.h **** }
  83:c:\progra~2\gnuarm~1\102021~1.10\arm-none-eabi\include\c++\10.3.1\arm-none-eabi\thumb\v7e-m+fp\hard\bits\gthr-default.h **** 
  84:c:\progra~2\gnuarm~1\102021~1.10\arm-none-eabi\include\c++\10.3.1\arm-none-eabi\thumb\v7e-m+fp\hard\bits\gthr-default.h **** /* Return the current thread's priority.  */
  85:c:\progra~2\gnuarm~1\102021~1.10\arm-none-eabi\include\c++\10.3.1\arm-none-eabi\thumb\v7e-m+fp\hard\bits\gthr-default.h **** static inline int
  86:c:\progra~2\gnuarm~1\102021~1.10\arm-none-eabi\include\c++\10.3.1\arm-none-eabi\thumb\v7e-m+fp\hard\bits\gthr-default.h **** __gthread_objc_thread_get_priority (void)
  87:c:\progra~2\gnuarm~1\102021~1.10\arm-none-eabi\include\c++\10.3.1\arm-none-eabi\thumb\v7e-m+fp\hard\bits\gthr-default.h **** {
  88:c:\progra~2\gnuarm~1\102021~1.10\arm-none-eabi\include\c++\10.3.1\arm-none-eabi\thumb\v7e-m+fp\hard\bits\gthr-default.h ****   return OBJC_THREAD_INTERACTIVE_PRIORITY;
  89:c:\progra~2\gnuarm~1\102021~1.10\arm-none-eabi\include\c++\10.3.1\arm-none-eabi\thumb\v7e-m+fp\hard\bits\gthr-default.h **** }
  90:c:\progra~2\gnuarm~1\102021~1.10\arm-none-eabi\include\c++\10.3.1\arm-none-eabi\thumb\v7e-m+fp\hard\bits\gthr-default.h **** 
  91:c:\progra~2\gnuarm~1\102021~1.10\arm-none-eabi\include\c++\10.3.1\arm-none-eabi\thumb\v7e-m+fp\hard\bits\gthr-default.h **** /* Yield our process time to another thread.  */
  92:c:\progra~2\gnuarm~1\102021~1.10\arm-none-eabi\include\c++\10.3.1\arm-none-eabi\thumb\v7e-m+fp\hard\bits\gthr-default.h **** static inline void
  93:c:\progra~2\gnuarm~1\102021~1.10\arm-none-eabi\include\c++\10.3.1\arm-none-eabi\thumb\v7e-m+fp\hard\bits\gthr-default.h **** __gthread_objc_thread_yield (void)
  94:c:\progra~2\gnuarm~1\102021~1.10\arm-none-eabi\include\c++\10.3.1\arm-none-eabi\thumb\v7e-m+fp\hard\bits\gthr-default.h **** {
  95:c:\progra~2\gnuarm~1\102021~1.10\arm-none-eabi\include\c++\10.3.1\arm-none-eabi\thumb\v7e-m+fp\hard\bits\gthr-default.h ****   return;
  96:c:\progra~2\gnuarm~1\102021~1.10\arm-none-eabi\include\c++\10.3.1\arm-none-eabi\thumb\v7e-m+fp\hard\bits\gthr-default.h **** }
  97:c:\progra~2\gnuarm~1\102021~1.10\arm-none-eabi\include\c++\10.3.1\arm-none-eabi\thumb\v7e-m+fp\hard\bits\gthr-default.h **** 
  98:c:\progra~2\gnuarm~1\102021~1.10\arm-none-eabi\include\c++\10.3.1\arm-none-eabi\thumb\v7e-m+fp\hard\bits\gthr-default.h **** /* Terminate the current thread.  */
  99:c:\progra~2\gnuarm~1\102021~1.10\arm-none-eabi\include\c++\10.3.1\arm-none-eabi\thumb\v7e-m+fp\hard\bits\gthr-default.h **** static inline int
 100:c:\progra~2\gnuarm~1\102021~1.10\arm-none-eabi\include\c++\10.3.1\arm-none-eabi\thumb\v7e-m+fp\hard\bits\gthr-default.h **** __gthread_objc_thread_exit (void)
 101:c:\progra~2\gnuarm~1\102021~1.10\arm-none-eabi\include\c++\10.3.1\arm-none-eabi\thumb\v7e-m+fp\hard\bits\gthr-default.h **** {
 102:c:\progra~2\gnuarm~1\102021~1.10\arm-none-eabi\include\c++\10.3.1\arm-none-eabi\thumb\v7e-m+fp\hard\bits\gthr-default.h ****   /* No thread support available */
 103:c:\progra~2\gnuarm~1\102021~1.10\arm-none-eabi\include\c++\10.3.1\arm-none-eabi\thumb\v7e-m+fp\hard\bits\gthr-default.h ****   /* Should we really exit the program */
 104:c:\progra~2\gnuarm~1\102021~1.10\arm-none-eabi\include\c++\10.3.1\arm-none-eabi\thumb\v7e-m+fp\hard\bits\gthr-default.h ****   /* exit (&__objc_thread_exit_status); */
 105:c:\progra~2\gnuarm~1\102021~1.10\arm-none-eabi\include\c++\10.3.1\arm-none-eabi\thumb\v7e-m+fp\hard\bits\gthr-default.h ****   return -1;
 106:c:\progra~2\gnuarm~1\102021~1.10\arm-none-eabi\include\c++\10.3.1\arm-none-eabi\thumb\v7e-m+fp\hard\bits\gthr-default.h **** }
 107:c:\progra~2\gnuarm~1\102021~1.10\arm-none-eabi\include\c++\10.3.1\arm-none-eabi\thumb\v7e-m+fp\hard\bits\gthr-default.h **** 
 108:c:\progra~2\gnuarm~1\102021~1.10\arm-none-eabi\include\c++\10.3.1\arm-none-eabi\thumb\v7e-m+fp\hard\bits\gthr-default.h **** /* Returns an integer value which uniquely describes a thread.  */
 109:c:\progra~2\gnuarm~1\102021~1.10\arm-none-eabi\include\c++\10.3.1\arm-none-eabi\thumb\v7e-m+fp\hard\bits\gthr-default.h **** static inline objc_thread_t
 110:c:\progra~2\gnuarm~1\102021~1.10\arm-none-eabi\include\c++\10.3.1\arm-none-eabi\thumb\v7e-m+fp\hard\bits\gthr-default.h **** __gthread_objc_thread_id (void)
 111:c:\progra~2\gnuarm~1\102021~1.10\arm-none-eabi\include\c++\10.3.1\arm-none-eabi\thumb\v7e-m+fp\hard\bits\gthr-default.h **** {
 112:c:\progra~2\gnuarm~1\102021~1.10\arm-none-eabi\include\c++\10.3.1\arm-none-eabi\thumb\v7e-m+fp\hard\bits\gthr-default.h ****   /* No thread support, use 1.  */
 113:c:\progra~2\gnuarm~1\102021~1.10\arm-none-eabi\include\c++\10.3.1\arm-none-eabi\thumb\v7e-m+fp\hard\bits\gthr-default.h ****   return (objc_thread_t) 1;
 114:c:\progra~2\gnuarm~1\102021~1.10\arm-none-eabi\include\c++\10.3.1\arm-none-eabi\thumb\v7e-m+fp\hard\bits\gthr-default.h **** }
 115:c:\progra~2\gnuarm~1\102021~1.10\arm-none-eabi\include\c++\10.3.1\arm-none-eabi\thumb\v7e-m+fp\hard\bits\gthr-default.h **** 
 116:c:\progra~2\gnuarm~1\102021~1.10\arm-none-eabi\include\c++\10.3.1\arm-none-eabi\thumb\v7e-m+fp\hard\bits\gthr-default.h **** /* Sets the thread's local storage pointer.  */
 117:c:\progra~2\gnuarm~1\102021~1.10\arm-none-eabi\include\c++\10.3.1\arm-none-eabi\thumb\v7e-m+fp\hard\bits\gthr-default.h **** static inline int
 118:c:\progra~2\gnuarm~1\102021~1.10\arm-none-eabi\include\c++\10.3.1\arm-none-eabi\thumb\v7e-m+fp\hard\bits\gthr-default.h **** __gthread_objc_thread_set_data (void *value)
 119:c:\progra~2\gnuarm~1\102021~1.10\arm-none-eabi\include\c++\10.3.1\arm-none-eabi\thumb\v7e-m+fp\hard\bits\gthr-default.h **** {
 120:c:\progra~2\gnuarm~1\102021~1.10\arm-none-eabi\include\c++\10.3.1\arm-none-eabi\thumb\v7e-m+fp\hard\bits\gthr-default.h ****   thread_local_storage = value;
 121:c:\progra~2\gnuarm~1\102021~1.10\arm-none-eabi\include\c++\10.3.1\arm-none-eabi\thumb\v7e-m+fp\hard\bits\gthr-default.h ****   return 0;
 122:c:\progra~2\gnuarm~1\102021~1.10\arm-none-eabi\include\c++\10.3.1\arm-none-eabi\thumb\v7e-m+fp\hard\bits\gthr-default.h **** }
 123:c:\progra~2\gnuarm~1\102021~1.10\arm-none-eabi\include\c++\10.3.1\arm-none-eabi\thumb\v7e-m+fp\hard\bits\gthr-default.h **** 
 124:c:\progra~2\gnuarm~1\102021~1.10\arm-none-eabi\include\c++\10.3.1\arm-none-eabi\thumb\v7e-m+fp\hard\bits\gthr-default.h **** /* Returns the thread's local storage pointer.  */
 125:c:\progra~2\gnuarm~1\102021~1.10\arm-none-eabi\include\c++\10.3.1\arm-none-eabi\thumb\v7e-m+fp\hard\bits\gthr-default.h **** static inline void *
 126:c:\progra~2\gnuarm~1\102021~1.10\arm-none-eabi\include\c++\10.3.1\arm-none-eabi\thumb\v7e-m+fp\hard\bits\gthr-default.h **** __gthread_objc_thread_get_data (void)
 127:c:\progra~2\gnuarm~1\102021~1.10\arm-none-eabi\include\c++\10.3.1\arm-none-eabi\thumb\v7e-m+fp\hard\bits\gthr-default.h **** {
 128:c:\progra~2\gnuarm~1\102021~1.10\arm-none-eabi\include\c++\10.3.1\arm-none-eabi\thumb\v7e-m+fp\hard\bits\gthr-default.h ****   return thread_local_storage;
 129:c:\progra~2\gnuarm~1\102021~1.10\arm-none-eabi\include\c++\10.3.1\arm-none-eabi\thumb\v7e-m+fp\hard\bits\gthr-default.h **** }
 130:c:\progra~2\gnuarm~1\102021~1.10\arm-none-eabi\include\c++\10.3.1\arm-none-eabi\thumb\v7e-m+fp\hard\bits\gthr-default.h **** 
 131:c:\progra~2\gnuarm~1\102021~1.10\arm-none-eabi\include\c++\10.3.1\arm-none-eabi\thumb\v7e-m+fp\hard\bits\gthr-default.h **** /* Backend mutex functions */
 132:c:\progra~2\gnuarm~1\102021~1.10\arm-none-eabi\include\c++\10.3.1\arm-none-eabi\thumb\v7e-m+fp\hard\bits\gthr-default.h **** 
 133:c:\progra~2\gnuarm~1\102021~1.10\arm-none-eabi\include\c++\10.3.1\arm-none-eabi\thumb\v7e-m+fp\hard\bits\gthr-default.h **** /* Allocate a mutex.  */
 134:c:\progra~2\gnuarm~1\102021~1.10\arm-none-eabi\include\c++\10.3.1\arm-none-eabi\thumb\v7e-m+fp\hard\bits\gthr-default.h **** static inline int
 135:c:\progra~2\gnuarm~1\102021~1.10\arm-none-eabi\include\c++\10.3.1\arm-none-eabi\thumb\v7e-m+fp\hard\bits\gthr-default.h **** __gthread_objc_mutex_allocate (objc_mutex_t mutex _GLIBCXX_UNUSED)
 136:c:\progra~2\gnuarm~1\102021~1.10\arm-none-eabi\include\c++\10.3.1\arm-none-eabi\thumb\v7e-m+fp\hard\bits\gthr-default.h **** {
 137:c:\progra~2\gnuarm~1\102021~1.10\arm-none-eabi\include\c++\10.3.1\arm-none-eabi\thumb\v7e-m+fp\hard\bits\gthr-default.h ****   return 0;
 138:c:\progra~2\gnuarm~1\102021~1.10\arm-none-eabi\include\c++\10.3.1\arm-none-eabi\thumb\v7e-m+fp\hard\bits\gthr-default.h **** }
ARM GAS   			page 4


 139:c:\progra~2\gnuarm~1\102021~1.10\arm-none-eabi\include\c++\10.3.1\arm-none-eabi\thumb\v7e-m+fp\hard\bits\gthr-default.h **** 
 140:c:\progra~2\gnuarm~1\102021~1.10\arm-none-eabi\include\c++\10.3.1\arm-none-eabi\thumb\v7e-m+fp\hard\bits\gthr-default.h **** /* Deallocate a mutex.  */
 141:c:\progra~2\gnuarm~1\102021~1.10\arm-none-eabi\include\c++\10.3.1\arm-none-eabi\thumb\v7e-m+fp\hard\bits\gthr-default.h **** static inline int
 142:c:\progra~2\gnuarm~1\102021~1.10\arm-none-eabi\include\c++\10.3.1\arm-none-eabi\thumb\v7e-m+fp\hard\bits\gthr-default.h **** __gthread_objc_mutex_deallocate (objc_mutex_t mutex _GLIBCXX_UNUSED)
 143:c:\progra~2\gnuarm~1\102021~1.10\arm-none-eabi\include\c++\10.3.1\arm-none-eabi\thumb\v7e-m+fp\hard\bits\gthr-default.h **** {
 144:c:\progra~2\gnuarm~1\102021~1.10\arm-none-eabi\include\c++\10.3.1\arm-none-eabi\thumb\v7e-m+fp\hard\bits\gthr-default.h ****   return 0;
 145:c:\progra~2\gnuarm~1\102021~1.10\arm-none-eabi\include\c++\10.3.1\arm-none-eabi\thumb\v7e-m+fp\hard\bits\gthr-default.h **** }
 146:c:\progra~2\gnuarm~1\102021~1.10\arm-none-eabi\include\c++\10.3.1\arm-none-eabi\thumb\v7e-m+fp\hard\bits\gthr-default.h **** 
 147:c:\progra~2\gnuarm~1\102021~1.10\arm-none-eabi\include\c++\10.3.1\arm-none-eabi\thumb\v7e-m+fp\hard\bits\gthr-default.h **** /* Grab a lock on a mutex.  */
 148:c:\progra~2\gnuarm~1\102021~1.10\arm-none-eabi\include\c++\10.3.1\arm-none-eabi\thumb\v7e-m+fp\hard\bits\gthr-default.h **** static inline int
 149:c:\progra~2\gnuarm~1\102021~1.10\arm-none-eabi\include\c++\10.3.1\arm-none-eabi\thumb\v7e-m+fp\hard\bits\gthr-default.h **** __gthread_objc_mutex_lock (objc_mutex_t mutex _GLIBCXX_UNUSED)
 150:c:\progra~2\gnuarm~1\102021~1.10\arm-none-eabi\include\c++\10.3.1\arm-none-eabi\thumb\v7e-m+fp\hard\bits\gthr-default.h **** {
 151:c:\progra~2\gnuarm~1\102021~1.10\arm-none-eabi\include\c++\10.3.1\arm-none-eabi\thumb\v7e-m+fp\hard\bits\gthr-default.h ****   /* There can only be one thread, so we always get the lock */
 152:c:\progra~2\gnuarm~1\102021~1.10\arm-none-eabi\include\c++\10.3.1\arm-none-eabi\thumb\v7e-m+fp\hard\bits\gthr-default.h ****   return 0;
 153:c:\progra~2\gnuarm~1\102021~1.10\arm-none-eabi\include\c++\10.3.1\arm-none-eabi\thumb\v7e-m+fp\hard\bits\gthr-default.h **** }
 154:c:\progra~2\gnuarm~1\102021~1.10\arm-none-eabi\include\c++\10.3.1\arm-none-eabi\thumb\v7e-m+fp\hard\bits\gthr-default.h **** 
 155:c:\progra~2\gnuarm~1\102021~1.10\arm-none-eabi\include\c++\10.3.1\arm-none-eabi\thumb\v7e-m+fp\hard\bits\gthr-default.h **** /* Try to grab a lock on a mutex.  */
 156:c:\progra~2\gnuarm~1\102021~1.10\arm-none-eabi\include\c++\10.3.1\arm-none-eabi\thumb\v7e-m+fp\hard\bits\gthr-default.h **** static inline int
 157:c:\progra~2\gnuarm~1\102021~1.10\arm-none-eabi\include\c++\10.3.1\arm-none-eabi\thumb\v7e-m+fp\hard\bits\gthr-default.h **** __gthread_objc_mutex_trylock (objc_mutex_t mutex _GLIBCXX_UNUSED)
 158:c:\progra~2\gnuarm~1\102021~1.10\arm-none-eabi\include\c++\10.3.1\arm-none-eabi\thumb\v7e-m+fp\hard\bits\gthr-default.h **** {
 159:c:\progra~2\gnuarm~1\102021~1.10\arm-none-eabi\include\c++\10.3.1\arm-none-eabi\thumb\v7e-m+fp\hard\bits\gthr-default.h ****   /* There can only be one thread, so we always get the lock */
 160:c:\progra~2\gnuarm~1\102021~1.10\arm-none-eabi\include\c++\10.3.1\arm-none-eabi\thumb\v7e-m+fp\hard\bits\gthr-default.h ****   return 0;
 161:c:\progra~2\gnuarm~1\102021~1.10\arm-none-eabi\include\c++\10.3.1\arm-none-eabi\thumb\v7e-m+fp\hard\bits\gthr-default.h **** }
 162:c:\progra~2\gnuarm~1\102021~1.10\arm-none-eabi\include\c++\10.3.1\arm-none-eabi\thumb\v7e-m+fp\hard\bits\gthr-default.h **** 
 163:c:\progra~2\gnuarm~1\102021~1.10\arm-none-eabi\include\c++\10.3.1\arm-none-eabi\thumb\v7e-m+fp\hard\bits\gthr-default.h **** /* Unlock the mutex */
 164:c:\progra~2\gnuarm~1\102021~1.10\arm-none-eabi\include\c++\10.3.1\arm-none-eabi\thumb\v7e-m+fp\hard\bits\gthr-default.h **** static inline int
 165:c:\progra~2\gnuarm~1\102021~1.10\arm-none-eabi\include\c++\10.3.1\arm-none-eabi\thumb\v7e-m+fp\hard\bits\gthr-default.h **** __gthread_objc_mutex_unlock (objc_mutex_t mutex _GLIBCXX_UNUSED)
 166:c:\progra~2\gnuarm~1\102021~1.10\arm-none-eabi\include\c++\10.3.1\arm-none-eabi\thumb\v7e-m+fp\hard\bits\gthr-default.h **** {
 167:c:\progra~2\gnuarm~1\102021~1.10\arm-none-eabi\include\c++\10.3.1\arm-none-eabi\thumb\v7e-m+fp\hard\bits\gthr-default.h ****   return 0;
 168:c:\progra~2\gnuarm~1\102021~1.10\arm-none-eabi\include\c++\10.3.1\arm-none-eabi\thumb\v7e-m+fp\hard\bits\gthr-default.h **** }
 169:c:\progra~2\gnuarm~1\102021~1.10\arm-none-eabi\include\c++\10.3.1\arm-none-eabi\thumb\v7e-m+fp\hard\bits\gthr-default.h **** 
 170:c:\progra~2\gnuarm~1\102021~1.10\arm-none-eabi\include\c++\10.3.1\arm-none-eabi\thumb\v7e-m+fp\hard\bits\gthr-default.h **** /* Backend condition mutex functions */
 171:c:\progra~2\gnuarm~1\102021~1.10\arm-none-eabi\include\c++\10.3.1\arm-none-eabi\thumb\v7e-m+fp\hard\bits\gthr-default.h **** 
 172:c:\progra~2\gnuarm~1\102021~1.10\arm-none-eabi\include\c++\10.3.1\arm-none-eabi\thumb\v7e-m+fp\hard\bits\gthr-default.h **** /* Allocate a condition.  */
 173:c:\progra~2\gnuarm~1\102021~1.10\arm-none-eabi\include\c++\10.3.1\arm-none-eabi\thumb\v7e-m+fp\hard\bits\gthr-default.h **** static inline int
 174:c:\progra~2\gnuarm~1\102021~1.10\arm-none-eabi\include\c++\10.3.1\arm-none-eabi\thumb\v7e-m+fp\hard\bits\gthr-default.h **** __gthread_objc_condition_allocate (objc_condition_t condition _GLIBCXX_UNUSED)
 175:c:\progra~2\gnuarm~1\102021~1.10\arm-none-eabi\include\c++\10.3.1\arm-none-eabi\thumb\v7e-m+fp\hard\bits\gthr-default.h **** {
 176:c:\progra~2\gnuarm~1\102021~1.10\arm-none-eabi\include\c++\10.3.1\arm-none-eabi\thumb\v7e-m+fp\hard\bits\gthr-default.h ****   return 0;
 177:c:\progra~2\gnuarm~1\102021~1.10\arm-none-eabi\include\c++\10.3.1\arm-none-eabi\thumb\v7e-m+fp\hard\bits\gthr-default.h **** }
 178:c:\progra~2\gnuarm~1\102021~1.10\arm-none-eabi\include\c++\10.3.1\arm-none-eabi\thumb\v7e-m+fp\hard\bits\gthr-default.h **** 
 179:c:\progra~2\gnuarm~1\102021~1.10\arm-none-eabi\include\c++\10.3.1\arm-none-eabi\thumb\v7e-m+fp\hard\bits\gthr-default.h **** /* Deallocate a condition.  */
 180:c:\progra~2\gnuarm~1\102021~1.10\arm-none-eabi\include\c++\10.3.1\arm-none-eabi\thumb\v7e-m+fp\hard\bits\gthr-default.h **** static inline int
 181:c:\progra~2\gnuarm~1\102021~1.10\arm-none-eabi\include\c++\10.3.1\arm-none-eabi\thumb\v7e-m+fp\hard\bits\gthr-default.h **** __gthread_objc_condition_deallocate (objc_condition_t condition _GLIBCXX_UNUSED)
 182:c:\progra~2\gnuarm~1\102021~1.10\arm-none-eabi\include\c++\10.3.1\arm-none-eabi\thumb\v7e-m+fp\hard\bits\gthr-default.h **** {
 183:c:\progra~2\gnuarm~1\102021~1.10\arm-none-eabi\include\c++\10.3.1\arm-none-eabi\thumb\v7e-m+fp\hard\bits\gthr-default.h ****   return 0;
 184:c:\progra~2\gnuarm~1\102021~1.10\arm-none-eabi\include\c++\10.3.1\arm-none-eabi\thumb\v7e-m+fp\hard\bits\gthr-default.h **** }
 185:c:\progra~2\gnuarm~1\102021~1.10\arm-none-eabi\include\c++\10.3.1\arm-none-eabi\thumb\v7e-m+fp\hard\bits\gthr-default.h **** 
 186:c:\progra~2\gnuarm~1\102021~1.10\arm-none-eabi\include\c++\10.3.1\arm-none-eabi\thumb\v7e-m+fp\hard\bits\gthr-default.h **** /* Wait on the condition */
 187:c:\progra~2\gnuarm~1\102021~1.10\arm-none-eabi\include\c++\10.3.1\arm-none-eabi\thumb\v7e-m+fp\hard\bits\gthr-default.h **** static inline int
 188:c:\progra~2\gnuarm~1\102021~1.10\arm-none-eabi\include\c++\10.3.1\arm-none-eabi\thumb\v7e-m+fp\hard\bits\gthr-default.h **** __gthread_objc_condition_wait (objc_condition_t condition _GLIBCXX_UNUSED,
 189:c:\progra~2\gnuarm~1\102021~1.10\arm-none-eabi\include\c++\10.3.1\arm-none-eabi\thumb\v7e-m+fp\hard\bits\gthr-default.h **** 			       objc_mutex_t mutex _GLIBCXX_UNUSED)
 190:c:\progra~2\gnuarm~1\102021~1.10\arm-none-eabi\include\c++\10.3.1\arm-none-eabi\thumb\v7e-m+fp\hard\bits\gthr-default.h **** {
 191:c:\progra~2\gnuarm~1\102021~1.10\arm-none-eabi\include\c++\10.3.1\arm-none-eabi\thumb\v7e-m+fp\hard\bits\gthr-default.h ****   return 0;
 192:c:\progra~2\gnuarm~1\102021~1.10\arm-none-eabi\include\c++\10.3.1\arm-none-eabi\thumb\v7e-m+fp\hard\bits\gthr-default.h **** }
 193:c:\progra~2\gnuarm~1\102021~1.10\arm-none-eabi\include\c++\10.3.1\arm-none-eabi\thumb\v7e-m+fp\hard\bits\gthr-default.h **** 
 194:c:\progra~2\gnuarm~1\102021~1.10\arm-none-eabi\include\c++\10.3.1\arm-none-eabi\thumb\v7e-m+fp\hard\bits\gthr-default.h **** /* Wake up all threads waiting on this condition.  */
 195:c:\progra~2\gnuarm~1\102021~1.10\arm-none-eabi\include\c++\10.3.1\arm-none-eabi\thumb\v7e-m+fp\hard\bits\gthr-default.h **** static inline int
ARM GAS   			page 5


 196:c:\progra~2\gnuarm~1\102021~1.10\arm-none-eabi\include\c++\10.3.1\arm-none-eabi\thumb\v7e-m+fp\hard\bits\gthr-default.h **** __gthread_objc_condition_broadcast (objc_condition_t condition _GLIBCXX_UNUSED)
 197:c:\progra~2\gnuarm~1\102021~1.10\arm-none-eabi\include\c++\10.3.1\arm-none-eabi\thumb\v7e-m+fp\hard\bits\gthr-default.h **** {
 198:c:\progra~2\gnuarm~1\102021~1.10\arm-none-eabi\include\c++\10.3.1\arm-none-eabi\thumb\v7e-m+fp\hard\bits\gthr-default.h ****   return 0;
 199:c:\progra~2\gnuarm~1\102021~1.10\arm-none-eabi\include\c++\10.3.1\arm-none-eabi\thumb\v7e-m+fp\hard\bits\gthr-default.h **** }
 200:c:\progra~2\gnuarm~1\102021~1.10\arm-none-eabi\include\c++\10.3.1\arm-none-eabi\thumb\v7e-m+fp\hard\bits\gthr-default.h **** 
 201:c:\progra~2\gnuarm~1\102021~1.10\arm-none-eabi\include\c++\10.3.1\arm-none-eabi\thumb\v7e-m+fp\hard\bits\gthr-default.h **** /* Wake up one thread waiting on this condition.  */
 202:c:\progra~2\gnuarm~1\102021~1.10\arm-none-eabi\include\c++\10.3.1\arm-none-eabi\thumb\v7e-m+fp\hard\bits\gthr-default.h **** static inline int
 203:c:\progra~2\gnuarm~1\102021~1.10\arm-none-eabi\include\c++\10.3.1\arm-none-eabi\thumb\v7e-m+fp\hard\bits\gthr-default.h **** __gthread_objc_condition_signal (objc_condition_t condition _GLIBCXX_UNUSED)
 204:c:\progra~2\gnuarm~1\102021~1.10\arm-none-eabi\include\c++\10.3.1\arm-none-eabi\thumb\v7e-m+fp\hard\bits\gthr-default.h **** {
 205:c:\progra~2\gnuarm~1\102021~1.10\arm-none-eabi\include\c++\10.3.1\arm-none-eabi\thumb\v7e-m+fp\hard\bits\gthr-default.h ****   return 0;
 206:c:\progra~2\gnuarm~1\102021~1.10\arm-none-eabi\include\c++\10.3.1\arm-none-eabi\thumb\v7e-m+fp\hard\bits\gthr-default.h **** }
 207:c:\progra~2\gnuarm~1\102021~1.10\arm-none-eabi\include\c++\10.3.1\arm-none-eabi\thumb\v7e-m+fp\hard\bits\gthr-default.h **** 
 208:c:\progra~2\gnuarm~1\102021~1.10\arm-none-eabi\include\c++\10.3.1\arm-none-eabi\thumb\v7e-m+fp\hard\bits\gthr-default.h **** #else /* _LIBOBJC */
 209:c:\progra~2\gnuarm~1\102021~1.10\arm-none-eabi\include\c++\10.3.1\arm-none-eabi\thumb\v7e-m+fp\hard\bits\gthr-default.h **** 
 210:c:\progra~2\gnuarm~1\102021~1.10\arm-none-eabi\include\c++\10.3.1\arm-none-eabi\thumb\v7e-m+fp\hard\bits\gthr-default.h **** static inline int
 211:c:\progra~2\gnuarm~1\102021~1.10\arm-none-eabi\include\c++\10.3.1\arm-none-eabi\thumb\v7e-m+fp\hard\bits\gthr-default.h **** __gthread_active_p (void)
 212:c:\progra~2\gnuarm~1\102021~1.10\arm-none-eabi\include\c++\10.3.1\arm-none-eabi\thumb\v7e-m+fp\hard\bits\gthr-default.h **** {
 213:c:\progra~2\gnuarm~1\102021~1.10\arm-none-eabi\include\c++\10.3.1\arm-none-eabi\thumb\v7e-m+fp\hard\bits\gthr-default.h ****   return 0;
 214:c:\progra~2\gnuarm~1\102021~1.10\arm-none-eabi\include\c++\10.3.1\arm-none-eabi\thumb\v7e-m+fp\hard\bits\gthr-default.h **** }
 215:c:\progra~2\gnuarm~1\102021~1.10\arm-none-eabi\include\c++\10.3.1\arm-none-eabi\thumb\v7e-m+fp\hard\bits\gthr-default.h **** 
 216:c:\progra~2\gnuarm~1\102021~1.10\arm-none-eabi\include\c++\10.3.1\arm-none-eabi\thumb\v7e-m+fp\hard\bits\gthr-default.h **** static inline int
 217:c:\progra~2\gnuarm~1\102021~1.10\arm-none-eabi\include\c++\10.3.1\arm-none-eabi\thumb\v7e-m+fp\hard\bits\gthr-default.h **** __gthread_once (__gthread_once_t *__once _GLIBCXX_UNUSED, void (*__func) (void) _GLIBCXX_UNUSED)
 218:c:\progra~2\gnuarm~1\102021~1.10\arm-none-eabi\include\c++\10.3.1\arm-none-eabi\thumb\v7e-m+fp\hard\bits\gthr-default.h **** {
 219:c:\progra~2\gnuarm~1\102021~1.10\arm-none-eabi\include\c++\10.3.1\arm-none-eabi\thumb\v7e-m+fp\hard\bits\gthr-default.h ****   return 0;
 220:c:\progra~2\gnuarm~1\102021~1.10\arm-none-eabi\include\c++\10.3.1\arm-none-eabi\thumb\v7e-m+fp\hard\bits\gthr-default.h **** }
 221:c:\progra~2\gnuarm~1\102021~1.10\arm-none-eabi\include\c++\10.3.1\arm-none-eabi\thumb\v7e-m+fp\hard\bits\gthr-default.h **** 
 222:c:\progra~2\gnuarm~1\102021~1.10\arm-none-eabi\include\c++\10.3.1\arm-none-eabi\thumb\v7e-m+fp\hard\bits\gthr-default.h **** static inline int _GLIBCXX_UNUSED
 223:c:\progra~2\gnuarm~1\102021~1.10\arm-none-eabi\include\c++\10.3.1\arm-none-eabi\thumb\v7e-m+fp\hard\bits\gthr-default.h **** __gthread_key_create (__gthread_key_t *__key _GLIBCXX_UNUSED, void (*__func) (void *) _GLIBCXX_UNUS
 224:c:\progra~2\gnuarm~1\102021~1.10\arm-none-eabi\include\c++\10.3.1\arm-none-eabi\thumb\v7e-m+fp\hard\bits\gthr-default.h **** {
 225:c:\progra~2\gnuarm~1\102021~1.10\arm-none-eabi\include\c++\10.3.1\arm-none-eabi\thumb\v7e-m+fp\hard\bits\gthr-default.h ****   return 0;
 226:c:\progra~2\gnuarm~1\102021~1.10\arm-none-eabi\include\c++\10.3.1\arm-none-eabi\thumb\v7e-m+fp\hard\bits\gthr-default.h **** }
 227:c:\progra~2\gnuarm~1\102021~1.10\arm-none-eabi\include\c++\10.3.1\arm-none-eabi\thumb\v7e-m+fp\hard\bits\gthr-default.h **** 
 228:c:\progra~2\gnuarm~1\102021~1.10\arm-none-eabi\include\c++\10.3.1\arm-none-eabi\thumb\v7e-m+fp\hard\bits\gthr-default.h **** static int _GLIBCXX_UNUSED
 229:c:\progra~2\gnuarm~1\102021~1.10\arm-none-eabi\include\c++\10.3.1\arm-none-eabi\thumb\v7e-m+fp\hard\bits\gthr-default.h **** __gthread_key_delete (__gthread_key_t __key _GLIBCXX_UNUSED)
 230:c:\progra~2\gnuarm~1\102021~1.10\arm-none-eabi\include\c++\10.3.1\arm-none-eabi\thumb\v7e-m+fp\hard\bits\gthr-default.h **** {
  34              	 .loc 1 230 1
  35              	 .cfi_startproc
  36              	 
  37              	 
  38              	 
  39 0000 80B4     	 push {r7}
  40              	 .cfi_def_cfa_offset 4
  41              	 .cfi_offset 7,-4
  42 0002 83B0     	 sub sp,sp,#12
  43              	 .cfi_def_cfa_offset 16
  44 0004 00AF     	 add r7,sp,#0
  45              	 .cfi_def_cfa_register 7
  46 0006 7860     	 str r0,[r7,#4]
 231:c:\progra~2\gnuarm~1\102021~1.10\arm-none-eabi\include\c++\10.3.1\arm-none-eabi\thumb\v7e-m+fp\hard\bits\gthr-default.h ****   return 0;
  47              	 .loc 1 231 10
  48 0008 0023     	 movs r3,#0
 232:c:\progra~2\gnuarm~1\102021~1.10\arm-none-eabi\include\c++\10.3.1\arm-none-eabi\thumb\v7e-m+fp\hard\bits\gthr-default.h **** }
  49              	 .loc 1 232 1
  50 000a 1846     	 mov r0,r3
  51 000c 0C37     	 adds r7,r7,#12
  52              	 .cfi_def_cfa_offset 4
  53 000e BD46     	 mov sp,r7
ARM GAS   			page 6


  54              	 .cfi_def_cfa_register 13
  55              	 
  56 0010 5DF8047B 	 ldr r7,[sp],#4
  57              	 .cfi_restore 7
  58              	 .cfi_def_cfa_offset 0
  59 0014 7047     	 bx lr
  60              	 .cfi_endproc
  61              	.LFE602:
  62              	 .size _ZL20__gthread_key_deletei,.-_ZL20__gthread_key_deletei
  63              	 .section .rodata
  64              	 .align 2
  65              	.LC0:
  66 0000 52656164 	 .ascii "ReadLock != NULL\000"
  66      4C6F636B 
  66      20213D20 
  66      4E554C4C 
  66      00
  67 0011 000000   	 .align 2
  68              	.LC1:
  69 0014 6370705F 	 .ascii "cpp_freertos::ReadWriteLock::ReadWriteLock()\000"
  69      66726565 
  69      72746F73 
  69      3A3A5265 
  69      61645772 
  70 0041 000000   	 .align 2
  71              	.LC2:
  72 0044 433A5C55 	 .ascii "C:\\Users\\niels\\Documents\\Elektrotechniek\\Jaar "
  72      73657273 
  72      5C6E6965 
  72      6C735C44 
  72      6F63756D 
  73 0072 325C4543 	 .ascii "2\\ECS\\ECSL\\software\\STM32\\STM32Basis\\HAL\\gem"
  73      535C4543 
  73      534C5C73 
  73      6F667477 
  73      6172655C 
  74 009e 65656E73 	 .ascii "eenschappelijk\\Third_Party\\freertos-addons-1.1.0\\"
  74      63686170 
  74      70656C69 
  74      6A6B5C54 
  74      68697264 
  75 00cf 632B2B5C 	 .ascii "c++\\Source\\cread_write_lock.cpp\000"
  75      536F7572 
  75      63655C63 
  75      72656164 
  75      5F777269 
  76 00ef 00       	 .align 2
  77              	.LC3:
  78 00f0 66616C73 	 .ascii "false\000"
  78      6500
  79              	 .section .text._ZN12cpp_freertos13ReadWriteLockC2Ev,"ax",%progbits
  80              	 .align 1
  81              	 .global _ZN12cpp_freertos13ReadWriteLockC2Ev
  82              	 .syntax unified
  83              	 .thumb
  84              	 .thumb_func
  85              	 .type _ZN12cpp_freertos13ReadWriteLockC2Ev,%function
ARM GAS   			page 7


  86              	_ZN12cpp_freertos13ReadWriteLockC2Ev:
  87              	.LFB976:
  88              	 .file 2 "C:\\Users\\niels\\Documents\\Elektrotechniek\\Jaar 2\\ECS\\ECSL\\software\\STM32\\STM32Basis\\HAL\\gemeenschappelijk\\Third_Party\\freertos-addons-1.1.0\\c++\\Source\\cread_write_lock.cpp"
   1:C:\Users\niels\Documents\Elektrotechniek\Jaar 2\ECS\ECSL\software\STM32\STM32Basis\HAL\gemeenschappelijk\Third_Party\freertos-addons-1.1.0\c++\Source\cread_write_lock.cpp **** /****************************************************************************
   2:C:\Users\niels\Documents\Elektrotechniek\Jaar 2\ECS\ECSL\software\STM32\STM32Basis\HAL\gemeenschappelijk\Third_Party\freertos-addons-1.1.0\c++\Source\cread_write_lock.cpp ****  *
   3:C:\Users\niels\Documents\Elektrotechniek\Jaar 2\ECS\ECSL\software\STM32\STM32Basis\HAL\gemeenschappelijk\Third_Party\freertos-addons-1.1.0\c++\Source\cread_write_lock.cpp ****  *  Copyright (c) 2016, Michael Becker (michael.f.becker@gmail.com)
   4:C:\Users\niels\Documents\Elektrotechniek\Jaar 2\ECS\ECSL\software\STM32\STM32Basis\HAL\gemeenschappelijk\Third_Party\freertos-addons-1.1.0\c++\Source\cread_write_lock.cpp ****  *
   5:C:\Users\niels\Documents\Elektrotechniek\Jaar 2\ECS\ECSL\software\STM32\STM32Basis\HAL\gemeenschappelijk\Third_Party\freertos-addons-1.1.0\c++\Source\cread_write_lock.cpp ****  *  This file is part of the FreeRTOS C++ Wrappers project.
   6:C:\Users\niels\Documents\Elektrotechniek\Jaar 2\ECS\ECSL\software\STM32\STM32Basis\HAL\gemeenschappelijk\Third_Party\freertos-addons-1.1.0\c++\Source\cread_write_lock.cpp ****  *
   7:C:\Users\niels\Documents\Elektrotechniek\Jaar 2\ECS\ECSL\software\STM32\STM32Basis\HAL\gemeenschappelijk\Third_Party\freertos-addons-1.1.0\c++\Source\cread_write_lock.cpp ****  *  The FreeRTOS C++ Wrappers project is free software: you can redistribute
   8:C:\Users\niels\Documents\Elektrotechniek\Jaar 2\ECS\ECSL\software\STM32\STM32Basis\HAL\gemeenschappelijk\Third_Party\freertos-addons-1.1.0\c++\Source\cread_write_lock.cpp ****  *  it and/or modify it under the terms of the GNU General Public License as
   9:C:\Users\niels\Documents\Elektrotechniek\Jaar 2\ECS\ECSL\software\STM32\STM32Basis\HAL\gemeenschappelijk\Third_Party\freertos-addons-1.1.0\c++\Source\cread_write_lock.cpp ****  *  published by the Free Software Foundation, either version 2
  10:C:\Users\niels\Documents\Elektrotechniek\Jaar 2\ECS\ECSL\software\STM32\STM32Basis\HAL\gemeenschappelijk\Third_Party\freertos-addons-1.1.0\c++\Source\cread_write_lock.cpp ****  *  of the License, or (at your option) any later version.
  11:C:\Users\niels\Documents\Elektrotechniek\Jaar 2\ECS\ECSL\software\STM32\STM32Basis\HAL\gemeenschappelijk\Third_Party\freertos-addons-1.1.0\c++\Source\cread_write_lock.cpp ****  *
  12:C:\Users\niels\Documents\Elektrotechniek\Jaar 2\ECS\ECSL\software\STM32\STM32Basis\HAL\gemeenschappelijk\Third_Party\freertos-addons-1.1.0\c++\Source\cread_write_lock.cpp ****  *  The FreeRTOS C++ Wrappers project is distributed in the hope that it will
  13:C:\Users\niels\Documents\Elektrotechniek\Jaar 2\ECS\ECSL\software\STM32\STM32Basis\HAL\gemeenschappelijk\Third_Party\freertos-addons-1.1.0\c++\Source\cread_write_lock.cpp ****  *  be useful, but WITHOUT ANY WARRANTY; without even the implied warranty of
  14:C:\Users\niels\Documents\Elektrotechniek\Jaar 2\ECS\ECSL\software\STM32\STM32Basis\HAL\gemeenschappelijk\Third_Party\freertos-addons-1.1.0\c++\Source\cread_write_lock.cpp ****  *  MERCHANTABILITY or FITNESS FOR A PARTICULAR PURPOSE.  See the
  15:C:\Users\niels\Documents\Elektrotechniek\Jaar 2\ECS\ECSL\software\STM32\STM32Basis\HAL\gemeenschappelijk\Third_Party\freertos-addons-1.1.0\c++\Source\cread_write_lock.cpp ****  *  GNU General Public License for more details.
  16:C:\Users\niels\Documents\Elektrotechniek\Jaar 2\ECS\ECSL\software\STM32\STM32Basis\HAL\gemeenschappelijk\Third_Party\freertos-addons-1.1.0\c++\Source\cread_write_lock.cpp ****  *
  17:C:\Users\niels\Documents\Elektrotechniek\Jaar 2\ECS\ECSL\software\STM32\STM32Basis\HAL\gemeenschappelijk\Third_Party\freertos-addons-1.1.0\c++\Source\cread_write_lock.cpp ****  *  You should have received a copy of the GNU General Public License
  18:C:\Users\niels\Documents\Elektrotechniek\Jaar 2\ECS\ECSL\software\STM32\STM32Basis\HAL\gemeenschappelijk\Third_Party\freertos-addons-1.1.0\c++\Source\cread_write_lock.cpp ****  *  along with the FreeRTOS C++ Wrappers project.
  19:C:\Users\niels\Documents\Elektrotechniek\Jaar 2\ECS\ECSL\software\STM32\STM32Basis\HAL\gemeenschappelijk\Third_Party\freertos-addons-1.1.0\c++\Source\cread_write_lock.cpp ****  *  If not, see <http://www.gnu.org/licenses/>.
  20:C:\Users\niels\Documents\Elektrotechniek\Jaar 2\ECS\ECSL\software\STM32\STM32Basis\HAL\gemeenschappelijk\Third_Party\freertos-addons-1.1.0\c++\Source\cread_write_lock.cpp ****  *
  21:C:\Users\niels\Documents\Elektrotechniek\Jaar 2\ECS\ECSL\software\STM32\STM32Basis\HAL\gemeenschappelijk\Third_Party\freertos-addons-1.1.0\c++\Source\cread_write_lock.cpp ****  ***************************************************************************/
  22:C:\Users\niels\Documents\Elektrotechniek\Jaar 2\ECS\ECSL\software\STM32\STM32Basis\HAL\gemeenschappelijk\Third_Party\freertos-addons-1.1.0\c++\Source\cread_write_lock.cpp **** #include <assert.h>
  23:C:\Users\niels\Documents\Elektrotechniek\Jaar 2\ECS\ECSL\software\STM32\STM32Basis\HAL\gemeenschappelijk\Third_Party\freertos-addons-1.1.0\c++\Source\cread_write_lock.cpp **** #include "read_write_lock.hpp"
  24:C:\Users\niels\Documents\Elektrotechniek\Jaar 2\ECS\ECSL\software\STM32\STM32Basis\HAL\gemeenschappelijk\Third_Party\freertos-addons-1.1.0\c++\Source\cread_write_lock.cpp **** 
  25:C:\Users\niels\Documents\Elektrotechniek\Jaar 2\ECS\ECSL\software\STM32\STM32Basis\HAL\gemeenschappelijk\Third_Party\freertos-addons-1.1.0\c++\Source\cread_write_lock.cpp **** 
  26:C:\Users\niels\Documents\Elektrotechniek\Jaar 2\ECS\ECSL\software\STM32\STM32Basis\HAL\gemeenschappelijk\Third_Party\freertos-addons-1.1.0\c++\Source\cread_write_lock.cpp **** using namespace cpp_freertos;
  27:C:\Users\niels\Documents\Elektrotechniek\Jaar 2\ECS\ECSL\software\STM32\STM32Basis\HAL\gemeenschappelijk\Third_Party\freertos-addons-1.1.0\c++\Source\cread_write_lock.cpp **** 
  28:C:\Users\niels\Documents\Elektrotechniek\Jaar 2\ECS\ECSL\software\STM32\STM32Basis\HAL\gemeenschappelijk\Third_Party\freertos-addons-1.1.0\c++\Source\cread_write_lock.cpp **** 
  29:C:\Users\niels\Documents\Elektrotechniek\Jaar 2\ECS\ECSL\software\STM32\STM32Basis\HAL\gemeenschappelijk\Third_Party\freertos-addons-1.1.0\c++\Source\cread_write_lock.cpp **** ReadWriteLock::ReadWriteLock()
  89              	 .loc 2 29 1
  90              	 .cfi_startproc
  91              	 
  92              	 
  93 0000 80B5     	 push {r7,lr}
  94              	 .cfi_def_cfa_offset 8
  95              	 .cfi_offset 7,-8
  96              	 .cfi_offset 14,-4
  97 0002 82B0     	 sub sp,sp,#8
  98              	 .cfi_def_cfa_offset 16
  99 0004 00AF     	 add r7,sp,#0
 100              	 .cfi_def_cfa_register 7
 101 0006 7860     	 str r0,[r7,#4]
 102              	.LBB2:
  30:C:\Users\niels\Documents\Elektrotechniek\Jaar 2\ECS\ECSL\software\STM32\STM32Basis\HAL\gemeenschappelijk\Third_Party\freertos-addons-1.1.0\c++\Source\cread_write_lock.cpp ****     : ReadCount(0)
 103              	 .loc 2 30 18
 104 0008 1C4A     	 ldr r2,.L7
 105 000a 7B68     	 ldr r3,[r7,#4]
 106 000c 1A60     	 str r2,[r3]
 107 000e 7B68     	 ldr r3,[r7,#4]
 108 0010 0022     	 movs r2,#0
 109 0012 5A60     	 str r2,[r3,#4]
  31:C:\Users\niels\Documents\Elektrotechniek\Jaar 2\ECS\ECSL\software\STM32\STM32Basis\HAL\gemeenschappelijk\Third_Party\freertos-addons-1.1.0\c++\Source\cread_write_lock.cpp **** {
  32:C:\Users\niels\Documents\Elektrotechniek\Jaar 2\ECS\ECSL\software\STM32\STM32Basis\HAL\gemeenschappelijk\Third_Party\freertos-addons-1.1.0\c++\Source\cread_write_lock.cpp ****     ReadLock = xSemaphoreCreateMutex();
 110              	 .loc 2 32 16
ARM GAS   			page 8


 111 0014 0120     	 movs r0,#1
 112 0016 FFF7FEFF 	 bl xQueueCreateMutex
 113 001a 0246     	 mov r2,r0
 114              	 .loc 2 32 14
 115 001c 7B68     	 ldr r3,[r7,#4]
 116 001e 9A60     	 str r2,[r3,#8]
  33:C:\Users\niels\Documents\Elektrotechniek\Jaar 2\ECS\ECSL\software\STM32\STM32Basis\HAL\gemeenschappelijk\Third_Party\freertos-addons-1.1.0\c++\Source\cread_write_lock.cpp ****     assert(ReadLock != NULL);
 117              	 .loc 2 33 5
 118 0020 7B68     	 ldr r3,[r7,#4]
 119 0022 9B68     	 ldr r3,[r3,#8]
 120 0024 002B     	 cmp r3,#0
 121 0026 05D1     	 bne .L4
 122              	 .loc 2 33 5 is_stmt 0 discriminator 1
 123 0028 154B     	 ldr r3,.L7+4
 124 002a 164A     	 ldr r2,.L7+8
 125 002c 2121     	 movs r1,#33
 126 002e 1648     	 ldr r0,.L7+12
 127 0030 FFF7FEFF 	 bl __assert_func
 128              	.L4:
  34:C:\Users\niels\Documents\Elektrotechniek\Jaar 2\ECS\ECSL\software\STM32\STM32Basis\HAL\gemeenschappelijk\Third_Party\freertos-addons-1.1.0\c++\Source\cread_write_lock.cpp **** 
  35:C:\Users\niels\Documents\Elektrotechniek\Jaar 2\ECS\ECSL\software\STM32\STM32Basis\HAL\gemeenschappelijk\Third_Party\freertos-addons-1.1.0\c++\Source\cread_write_lock.cpp ****     //
  36:C:\Users\niels\Documents\Elektrotechniek\Jaar 2\ECS\ECSL\software\STM32\STM32Basis\HAL\gemeenschappelijk\Third_Party\freertos-addons-1.1.0\c++\Source\cread_write_lock.cpp ****     //  ResourceLock CANNOT be a mutex. In FreeRTOS, as in most OS's,
  37:C:\Users\niels\Documents\Elektrotechniek\Jaar 2\ECS\ECSL\software\STM32\STM32Basis\HAL\gemeenschappelijk\Third_Party\freertos-addons-1.1.0\c++\Source\cread_write_lock.cpp ****     //  a thread is not allowed to unlock another thread's mutex. But
  38:C:\Users\niels\Documents\Elektrotechniek\Jaar 2\ECS\ECSL\software\STM32\STM32Basis\HAL\gemeenschappelijk\Third_Party\freertos-addons-1.1.0\c++\Source\cread_write_lock.cpp ****     //  the very nature of a Reader Lock allows an arbitrary ordering 
  39:C:\Users\niels\Documents\Elektrotechniek\Jaar 2\ECS\ECSL\software\STM32\STM32Basis\HAL\gemeenschappelijk\Third_Party\freertos-addons-1.1.0\c++\Source\cread_write_lock.cpp ****     //  of unlocks when multiple threads hold the reader lock. 
  40:C:\Users\niels\Documents\Elektrotechniek\Jaar 2\ECS\ECSL\software\STM32\STM32Basis\HAL\gemeenschappelijk\Third_Party\freertos-addons-1.1.0\c++\Source\cread_write_lock.cpp ****     //  Semaphores are not subject to this constraint.
  41:C:\Users\niels\Documents\Elektrotechniek\Jaar 2\ECS\ECSL\software\STM32\STM32Basis\HAL\gemeenschappelijk\Third_Party\freertos-addons-1.1.0\c++\Source\cread_write_lock.cpp ****     //
  42:C:\Users\niels\Documents\Elektrotechniek\Jaar 2\ECS\ECSL\software\STM32\STM32Basis\HAL\gemeenschappelijk\Third_Party\freertos-addons-1.1.0\c++\Source\cread_write_lock.cpp ****     ResourceLock = xSemaphoreCreateBinary();
 129              	 .loc 2 42 20 is_stmt 1
 130 0034 0322     	 movs r2,#3
 131 0036 0021     	 movs r1,#0
 132 0038 0120     	 movs r0,#1
 133 003a FFF7FEFF 	 bl xQueueGenericCreate
 134 003e 0246     	 mov r2,r0
 135              	 .loc 2 42 18
 136 0040 7B68     	 ldr r3,[r7,#4]
 137 0042 DA60     	 str r2,[r3,#12]
  43:C:\Users\niels\Documents\Elektrotechniek\Jaar 2\ECS\ECSL\software\STM32\STM32Basis\HAL\gemeenschappelijk\Third_Party\freertos-addons-1.1.0\c++\Source\cread_write_lock.cpp ****     if (ResourceLock == NULL) {
 138              	 .loc 2 43 9
 139 0044 7B68     	 ldr r3,[r7,#4]
 140 0046 DB68     	 ldr r3,[r3,#12]
 141              	 .loc 2 43 5
 142 0048 002B     	 cmp r3,#0
 143 004a 0AD1     	 bne .L5
  44:C:\Users\niels\Documents\Elektrotechniek\Jaar 2\ECS\ECSL\software\STM32\STM32Basis\HAL\gemeenschappelijk\Third_Party\freertos-addons-1.1.0\c++\Source\cread_write_lock.cpp ****         vSemaphoreDelete(ReadLock);
 144              	 .loc 2 44 9
 145 004c 7B68     	 ldr r3,[r7,#4]
 146 004e 9B68     	 ldr r3,[r3,#8]
 147 0050 1846     	 mov r0,r3
 148 0052 FFF7FEFF 	 bl vQueueDelete
  45:C:\Users\niels\Documents\Elektrotechniek\Jaar 2\ECS\ECSL\software\STM32\STM32Basis\HAL\gemeenschappelijk\Third_Party\freertos-addons-1.1.0\c++\Source\cread_write_lock.cpp ****         assert(false);
 149              	 .loc 2 45 9
 150 0056 0D4B     	 ldr r3,.L7+16
 151 0058 0A4A     	 ldr r2,.L7+8
 152 005a 2D21     	 movs r1,#45
 153 005c 0A48     	 ldr r0,.L7+12
 154 005e FFF7FEFF 	 bl __assert_func
ARM GAS   			page 9


 155              	.L5:
  46:C:\Users\niels\Documents\Elektrotechniek\Jaar 2\ECS\ECSL\software\STM32\STM32Basis\HAL\gemeenschappelijk\Third_Party\freertos-addons-1.1.0\c++\Source\cread_write_lock.cpp ****     }
  47:C:\Users\niels\Documents\Elektrotechniek\Jaar 2\ECS\ECSL\software\STM32\STM32Basis\HAL\gemeenschappelijk\Third_Party\freertos-addons-1.1.0\c++\Source\cread_write_lock.cpp **** 
  48:C:\Users\niels\Documents\Elektrotechniek\Jaar 2\ECS\ECSL\software\STM32\STM32Basis\HAL\gemeenschappelijk\Third_Party\freertos-addons-1.1.0\c++\Source\cread_write_lock.cpp ****     //
  49:C:\Users\niels\Documents\Elektrotechniek\Jaar 2\ECS\ECSL\software\STM32\STM32Basis\HAL\gemeenschappelijk\Third_Party\freertos-addons-1.1.0\c++\Source\cread_write_lock.cpp ****     //  Initialize it as "full", so it behaves similar to a mutex.
  50:C:\Users\niels\Documents\Elektrotechniek\Jaar 2\ECS\ECSL\software\STM32\STM32Basis\HAL\gemeenschappelijk\Third_Party\freertos-addons-1.1.0\c++\Source\cread_write_lock.cpp ****     //
  51:C:\Users\niels\Documents\Elektrotechniek\Jaar 2\ECS\ECSL\software\STM32\STM32Basis\HAL\gemeenschappelijk\Third_Party\freertos-addons-1.1.0\c++\Source\cread_write_lock.cpp ****     xSemaphoreGive(ResourceLock);
 156              	 .loc 2 51 5
 157 0062 7B68     	 ldr r3,[r7,#4]
 158 0064 D868     	 ldr r0,[r3,#12]
 159 0066 0023     	 movs r3,#0
 160 0068 0022     	 movs r2,#0
 161 006a 0021     	 movs r1,#0
 162 006c FFF7FEFF 	 bl xQueueGenericSend
 163              	.LBE2:
  52:C:\Users\niels\Documents\Elektrotechniek\Jaar 2\ECS\ECSL\software\STM32\STM32Basis\HAL\gemeenschappelijk\Third_Party\freertos-addons-1.1.0\c++\Source\cread_write_lock.cpp **** }
 164              	 .loc 2 52 1
 165 0070 7B68     	 ldr r3,[r7,#4]
 166 0072 1846     	 mov r0,r3
 167 0074 0837     	 adds r7,r7,#8
 168              	 .cfi_def_cfa_offset 8
 169 0076 BD46     	 mov sp,r7
 170              	 .cfi_def_cfa_register 13
 171              	 
 172 0078 80BD     	 pop {r7,pc}
 173              	.L8:
 174 007a 00BF     	 .align 2
 175              	.L7:
 176 007c 08000000 	 .word _ZTVN12cpp_freertos13ReadWriteLockE+8
 177 0080 00000000 	 .word .LC0
 178 0084 14000000 	 .word .LC1
 179 0088 44000000 	 .word .LC2
 180 008c F0000000 	 .word .LC3
 181              	 .cfi_endproc
 182              	.LFE976:
 183              	 .size _ZN12cpp_freertos13ReadWriteLockC2Ev,.-_ZN12cpp_freertos13ReadWriteLockC2Ev
 184              	 .global _ZN12cpp_freertos13ReadWriteLockC1Ev
 185              	 .thumb_set _ZN12cpp_freertos13ReadWriteLockC1Ev,_ZN12cpp_freertos13ReadWriteLockC2Ev
 186              	 .section .text._ZN12cpp_freertos13ReadWriteLockD2Ev,"ax",%progbits
 187              	 .align 1
 188              	 .global _ZN12cpp_freertos13ReadWriteLockD2Ev
 189              	 .syntax unified
 190              	 .thumb
 191              	 .thumb_func
 192              	 .type _ZN12cpp_freertos13ReadWriteLockD2Ev,%function
 193              	_ZN12cpp_freertos13ReadWriteLockD2Ev:
 194              	.LFB979:
  53:C:\Users\niels\Documents\Elektrotechniek\Jaar 2\ECS\ECSL\software\STM32\STM32Basis\HAL\gemeenschappelijk\Third_Party\freertos-addons-1.1.0\c++\Source\cread_write_lock.cpp **** 
  54:C:\Users\niels\Documents\Elektrotechniek\Jaar 2\ECS\ECSL\software\STM32\STM32Basis\HAL\gemeenschappelijk\Third_Party\freertos-addons-1.1.0\c++\Source\cread_write_lock.cpp **** 
  55:C:\Users\niels\Documents\Elektrotechniek\Jaar 2\ECS\ECSL\software\STM32\STM32Basis\HAL\gemeenschappelijk\Third_Party\freertos-addons-1.1.0\c++\Source\cread_write_lock.cpp **** ReadWriteLock::~ReadWriteLock()
 195              	 .loc 2 55 1
 196              	 .cfi_startproc
 197              	 
 198              	 
 199 0000 80B5     	 push {r7,lr}
 200              	 .cfi_def_cfa_offset 8
 201              	 .cfi_offset 7,-8
ARM GAS   			page 10


 202              	 .cfi_offset 14,-4
 203 0002 82B0     	 sub sp,sp,#8
 204              	 .cfi_def_cfa_offset 16
 205 0004 00AF     	 add r7,sp,#0
 206              	 .cfi_def_cfa_register 7
 207 0006 7860     	 str r0,[r7,#4]
 208              	.LBB3:
 209              	 .loc 2 55 31
 210 0008 084A     	 ldr r2,.L11
 211 000a 7B68     	 ldr r3,[r7,#4]
 212 000c 1A60     	 str r2,[r3]
  56:C:\Users\niels\Documents\Elektrotechniek\Jaar 2\ECS\ECSL\software\STM32\STM32Basis\HAL\gemeenschappelijk\Third_Party\freertos-addons-1.1.0\c++\Source\cread_write_lock.cpp **** {
  57:C:\Users\niels\Documents\Elektrotechniek\Jaar 2\ECS\ECSL\software\STM32\STM32Basis\HAL\gemeenschappelijk\Third_Party\freertos-addons-1.1.0\c++\Source\cread_write_lock.cpp ****     vSemaphoreDelete(ReadLock);
 213              	 .loc 2 57 5
 214 000e 7B68     	 ldr r3,[r7,#4]
 215 0010 9B68     	 ldr r3,[r3,#8]
 216 0012 1846     	 mov r0,r3
 217 0014 FFF7FEFF 	 bl vQueueDelete
  58:C:\Users\niels\Documents\Elektrotechniek\Jaar 2\ECS\ECSL\software\STM32\STM32Basis\HAL\gemeenschappelijk\Third_Party\freertos-addons-1.1.0\c++\Source\cread_write_lock.cpp ****     vSemaphoreDelete(ResourceLock);
 218              	 .loc 2 58 5
 219 0018 7B68     	 ldr r3,[r7,#4]
 220 001a DB68     	 ldr r3,[r3,#12]
 221 001c 1846     	 mov r0,r3
 222 001e FFF7FEFF 	 bl vQueueDelete
 223              	.LBE3:
  59:C:\Users\niels\Documents\Elektrotechniek\Jaar 2\ECS\ECSL\software\STM32\STM32Basis\HAL\gemeenschappelijk\Third_Party\freertos-addons-1.1.0\c++\Source\cread_write_lock.cpp **** }
 224              	 .loc 2 59 1
 225 0022 7B68     	 ldr r3,[r7,#4]
 226 0024 1846     	 mov r0,r3
 227 0026 0837     	 adds r7,r7,#8
 228              	 .cfi_def_cfa_offset 8
 229 0028 BD46     	 mov sp,r7
 230              	 .cfi_def_cfa_register 13
 231              	 
 232 002a 80BD     	 pop {r7,pc}
 233              	.L12:
 234              	 .align 2
 235              	.L11:
 236 002c 08000000 	 .word _ZTVN12cpp_freertos13ReadWriteLockE+8
 237              	 .cfi_endproc
 238              	.LFE979:
 239              	 .size _ZN12cpp_freertos13ReadWriteLockD2Ev,.-_ZN12cpp_freertos13ReadWriteLockD2Ev
 240              	 .global _ZN12cpp_freertos13ReadWriteLockD1Ev
 241              	 .thumb_set _ZN12cpp_freertos13ReadWriteLockD1Ev,_ZN12cpp_freertos13ReadWriteLockD2Ev
 242              	 .section .text._ZN12cpp_freertos13ReadWriteLockD0Ev,"ax",%progbits
 243              	 .align 1
 244              	 .global _ZN12cpp_freertos13ReadWriteLockD0Ev
 245              	 .syntax unified
 246              	 .thumb
 247              	 .thumb_func
 248              	 .type _ZN12cpp_freertos13ReadWriteLockD0Ev,%function
 249              	_ZN12cpp_freertos13ReadWriteLockD0Ev:
 250              	.LFB981:
  55:C:\Users\niels\Documents\Elektrotechniek\Jaar 2\ECS\ECSL\software\STM32\STM32Basis\HAL\gemeenschappelijk\Third_Party\freertos-addons-1.1.0\c++\Source\cread_write_lock.cpp **** {
 251              	 .loc 2 55 1
 252              	 .cfi_startproc
 253              	 
ARM GAS   			page 11


 254              	 
 255 0000 80B5     	 push {r7,lr}
 256              	 .cfi_def_cfa_offset 8
 257              	 .cfi_offset 7,-8
 258              	 .cfi_offset 14,-4
 259 0002 82B0     	 sub sp,sp,#8
 260              	 .cfi_def_cfa_offset 16
 261 0004 00AF     	 add r7,sp,#0
 262              	 .cfi_def_cfa_register 7
 263 0006 7860     	 str r0,[r7,#4]
 264              	 .loc 2 59 1
 265 0008 7868     	 ldr r0,[r7,#4]
 266 000a FFF7FEFF 	 bl _ZN12cpp_freertos13ReadWriteLockD1Ev
 267 000e 7868     	 ldr r0,[r7,#4]
 268 0010 FFF7FEFF 	 bl _ZdlPv
 269 0014 7B68     	 ldr r3,[r7,#4]
 270 0016 1846     	 mov r0,r3
 271 0018 0837     	 adds r7,r7,#8
 272              	 .cfi_def_cfa_offset 8
 273 001a BD46     	 mov sp,r7
 274              	 .cfi_def_cfa_register 13
 275              	 
 276 001c 80BD     	 pop {r7,pc}
 277              	 .cfi_endproc
 278              	.LFE981:
 279              	 .size _ZN12cpp_freertos13ReadWriteLockD0Ev,.-_ZN12cpp_freertos13ReadWriteLockD0Ev
 280              	 .section .text._ZN12cpp_freertos25ReadWriteLockPreferReader10ReaderLockEv,"ax",%progbits
 281              	 .align 1
 282              	 .global _ZN12cpp_freertos25ReadWriteLockPreferReader10ReaderLockEv
 283              	 .syntax unified
 284              	 .thumb
 285              	 .thumb_func
 286              	 .type _ZN12cpp_freertos25ReadWriteLockPreferReader10ReaderLockEv,%function
 287              	_ZN12cpp_freertos25ReadWriteLockPreferReader10ReaderLockEv:
 288              	.LFB982:
  60:C:\Users\niels\Documents\Elektrotechniek\Jaar 2\ECS\ECSL\software\STM32\STM32Basis\HAL\gemeenschappelijk\Third_Party\freertos-addons-1.1.0\c++\Source\cread_write_lock.cpp **** 
  61:C:\Users\niels\Documents\Elektrotechniek\Jaar 2\ECS\ECSL\software\STM32\STM32Basis\HAL\gemeenschappelijk\Third_Party\freertos-addons-1.1.0\c++\Source\cread_write_lock.cpp **** 
  62:C:\Users\niels\Documents\Elektrotechniek\Jaar 2\ECS\ECSL\software\STM32\STM32Basis\HAL\gemeenschappelijk\Third_Party\freertos-addons-1.1.0\c++\Source\cread_write_lock.cpp **** void ReadWriteLockPreferReader::ReaderLock()
  63:C:\Users\niels\Documents\Elektrotechniek\Jaar 2\ECS\ECSL\software\STM32\STM32Basis\HAL\gemeenschappelijk\Third_Party\freertos-addons-1.1.0\c++\Source\cread_write_lock.cpp **** {
 289              	 .loc 2 63 1
 290              	 .cfi_startproc
 291              	 
 292              	 
 293 0000 80B5     	 push {r7,lr}
 294              	 .cfi_def_cfa_offset 8
 295              	 .cfi_offset 7,-8
 296              	 .cfi_offset 14,-4
 297 0002 82B0     	 sub sp,sp,#8
 298              	 .cfi_def_cfa_offset 16
 299 0004 00AF     	 add r7,sp,#0
 300              	 .cfi_def_cfa_register 7
 301 0006 7860     	 str r0,[r7,#4]
  64:C:\Users\niels\Documents\Elektrotechniek\Jaar 2\ECS\ECSL\software\STM32\STM32Basis\HAL\gemeenschappelijk\Third_Party\freertos-addons-1.1.0\c++\Source\cread_write_lock.cpp ****     xSemaphoreTake(ReadLock, portMAX_DELAY);
 302              	 .loc 2 64 5
 303 0008 7B68     	 ldr r3,[r7,#4]
 304 000a 9868     	 ldr r0,[r3,#8]
 305 000c 0023     	 movs r3,#0
ARM GAS   			page 12


 306 000e 4FF0FF32 	 mov r2,#-1
 307 0012 0021     	 movs r1,#0
 308 0014 FFF7FEFF 	 bl xQueueGenericReceive
  65:C:\Users\niels\Documents\Elektrotechniek\Jaar 2\ECS\ECSL\software\STM32\STM32Basis\HAL\gemeenschappelijk\Third_Party\freertos-addons-1.1.0\c++\Source\cread_write_lock.cpp **** 
  66:C:\Users\niels\Documents\Elektrotechniek\Jaar 2\ECS\ECSL\software\STM32\STM32Basis\HAL\gemeenschappelijk\Third_Party\freertos-addons-1.1.0\c++\Source\cread_write_lock.cpp ****     ReadCount++;
 309              	 .loc 2 66 5
 310 0018 7B68     	 ldr r3,[r7,#4]
 311 001a 5B68     	 ldr r3,[r3,#4]
 312              	 .loc 2 66 14
 313 001c 5A1C     	 adds r2,r3,#1
 314 001e 7B68     	 ldr r3,[r7,#4]
 315 0020 5A60     	 str r2,[r3,#4]
  67:C:\Users\niels\Documents\Elektrotechniek\Jaar 2\ECS\ECSL\software\STM32\STM32Basis\HAL\gemeenschappelijk\Third_Party\freertos-addons-1.1.0\c++\Source\cread_write_lock.cpp ****     if (ReadCount == 1) {
 316              	 .loc 2 67 9
 317 0022 7B68     	 ldr r3,[r7,#4]
 318 0024 5B68     	 ldr r3,[r3,#4]
 319              	 .loc 2 67 5
 320 0026 012B     	 cmp r3,#1
 321 0028 07D1     	 bne .L16
  68:C:\Users\niels\Documents\Elektrotechniek\Jaar 2\ECS\ECSL\software\STM32\STM32Basis\HAL\gemeenschappelijk\Third_Party\freertos-addons-1.1.0\c++\Source\cread_write_lock.cpp ****         xSemaphoreTake(ResourceLock, portMAX_DELAY);
 322              	 .loc 2 68 9
 323 002a 7B68     	 ldr r3,[r7,#4]
 324 002c D868     	 ldr r0,[r3,#12]
 325 002e 0023     	 movs r3,#0
 326 0030 4FF0FF32 	 mov r2,#-1
 327 0034 0021     	 movs r1,#0
 328 0036 FFF7FEFF 	 bl xQueueGenericReceive
 329              	.L16:
  69:C:\Users\niels\Documents\Elektrotechniek\Jaar 2\ECS\ECSL\software\STM32\STM32Basis\HAL\gemeenschappelijk\Third_Party\freertos-addons-1.1.0\c++\Source\cread_write_lock.cpp ****     }
  70:C:\Users\niels\Documents\Elektrotechniek\Jaar 2\ECS\ECSL\software\STM32\STM32Basis\HAL\gemeenschappelijk\Third_Party\freertos-addons-1.1.0\c++\Source\cread_write_lock.cpp **** 
  71:C:\Users\niels\Documents\Elektrotechniek\Jaar 2\ECS\ECSL\software\STM32\STM32Basis\HAL\gemeenschappelijk\Third_Party\freertos-addons-1.1.0\c++\Source\cread_write_lock.cpp ****     xSemaphoreGive(ReadLock);
 330              	 .loc 2 71 5
 331 003a 7B68     	 ldr r3,[r7,#4]
 332 003c 9868     	 ldr r0,[r3,#8]
 333 003e 0023     	 movs r3,#0
 334 0040 0022     	 movs r2,#0
 335 0042 0021     	 movs r1,#0
 336 0044 FFF7FEFF 	 bl xQueueGenericSend
  72:C:\Users\niels\Documents\Elektrotechniek\Jaar 2\ECS\ECSL\software\STM32\STM32Basis\HAL\gemeenschappelijk\Third_Party\freertos-addons-1.1.0\c++\Source\cread_write_lock.cpp **** }
 337              	 .loc 2 72 1
 338 0048 00BF     	 nop
 339 004a 0837     	 adds r7,r7,#8
 340              	 .cfi_def_cfa_offset 8
 341 004c BD46     	 mov sp,r7
 342              	 .cfi_def_cfa_register 13
 343              	 
 344 004e 80BD     	 pop {r7,pc}
 345              	 .cfi_endproc
 346              	.LFE982:
 347              	 .size _ZN12cpp_freertos25ReadWriteLockPreferReader10ReaderLockEv,.-_ZN12cpp_freertos25ReadWriteLockPreferReader10ReaderLockEv
 348              	 .section .text._ZN12cpp_freertos25ReadWriteLockPreferReader12ReaderUnlockEv,"ax",%progbits
 349              	 .align 1
 350              	 .global _ZN12cpp_freertos25ReadWriteLockPreferReader12ReaderUnlockEv
 351              	 .syntax unified
 352              	 .thumb
 353              	 .thumb_func
 354              	 .type _ZN12cpp_freertos25ReadWriteLockPreferReader12ReaderUnlockEv,%function
ARM GAS   			page 13


 355              	_ZN12cpp_freertos25ReadWriteLockPreferReader12ReaderUnlockEv:
 356              	.LFB983:
  73:C:\Users\niels\Documents\Elektrotechniek\Jaar 2\ECS\ECSL\software\STM32\STM32Basis\HAL\gemeenschappelijk\Third_Party\freertos-addons-1.1.0\c++\Source\cread_write_lock.cpp **** 
  74:C:\Users\niels\Documents\Elektrotechniek\Jaar 2\ECS\ECSL\software\STM32\STM32Basis\HAL\gemeenschappelijk\Third_Party\freertos-addons-1.1.0\c++\Source\cread_write_lock.cpp **** 
  75:C:\Users\niels\Documents\Elektrotechniek\Jaar 2\ECS\ECSL\software\STM32\STM32Basis\HAL\gemeenschappelijk\Third_Party\freertos-addons-1.1.0\c++\Source\cread_write_lock.cpp **** void ReadWriteLockPreferReader::ReaderUnlock()
  76:C:\Users\niels\Documents\Elektrotechniek\Jaar 2\ECS\ECSL\software\STM32\STM32Basis\HAL\gemeenschappelijk\Third_Party\freertos-addons-1.1.0\c++\Source\cread_write_lock.cpp **** {
 357              	 .loc 2 76 1
 358              	 .cfi_startproc
 359              	 
 360              	 
 361 0000 80B5     	 push {r7,lr}
 362              	 .cfi_def_cfa_offset 8
 363              	 .cfi_offset 7,-8
 364              	 .cfi_offset 14,-4
 365 0002 82B0     	 sub sp,sp,#8
 366              	 .cfi_def_cfa_offset 16
 367 0004 00AF     	 add r7,sp,#0
 368              	 .cfi_def_cfa_register 7
 369 0006 7860     	 str r0,[r7,#4]
  77:C:\Users\niels\Documents\Elektrotechniek\Jaar 2\ECS\ECSL\software\STM32\STM32Basis\HAL\gemeenschappelijk\Third_Party\freertos-addons-1.1.0\c++\Source\cread_write_lock.cpp ****     xSemaphoreTake(ReadLock, portMAX_DELAY);
 370              	 .loc 2 77 5
 371 0008 7B68     	 ldr r3,[r7,#4]
 372 000a 9868     	 ldr r0,[r3,#8]
 373 000c 0023     	 movs r3,#0
 374 000e 4FF0FF32 	 mov r2,#-1
 375 0012 0021     	 movs r1,#0
 376 0014 FFF7FEFF 	 bl xQueueGenericReceive
  78:C:\Users\niels\Documents\Elektrotechniek\Jaar 2\ECS\ECSL\software\STM32\STM32Basis\HAL\gemeenschappelijk\Third_Party\freertos-addons-1.1.0\c++\Source\cread_write_lock.cpp **** 
  79:C:\Users\niels\Documents\Elektrotechniek\Jaar 2\ECS\ECSL\software\STM32\STM32Basis\HAL\gemeenschappelijk\Third_Party\freertos-addons-1.1.0\c++\Source\cread_write_lock.cpp ****     ReadCount--;
 377              	 .loc 2 79 5
 378 0018 7B68     	 ldr r3,[r7,#4]
 379 001a 5B68     	 ldr r3,[r3,#4]
 380              	 .loc 2 79 14
 381 001c 5A1E     	 subs r2,r3,#1
 382 001e 7B68     	 ldr r3,[r7,#4]
 383 0020 5A60     	 str r2,[r3,#4]
  80:C:\Users\niels\Documents\Elektrotechniek\Jaar 2\ECS\ECSL\software\STM32\STM32Basis\HAL\gemeenschappelijk\Third_Party\freertos-addons-1.1.0\c++\Source\cread_write_lock.cpp ****     if (ReadCount == 0) {
 384              	 .loc 2 80 9
 385 0022 7B68     	 ldr r3,[r7,#4]
 386 0024 5B68     	 ldr r3,[r3,#4]
 387              	 .loc 2 80 5
 388 0026 002B     	 cmp r3,#0
 389 0028 06D1     	 bne .L18
  81:C:\Users\niels\Documents\Elektrotechniek\Jaar 2\ECS\ECSL\software\STM32\STM32Basis\HAL\gemeenschappelijk\Third_Party\freertos-addons-1.1.0\c++\Source\cread_write_lock.cpp ****         xSemaphoreGive(ResourceLock);
 390              	 .loc 2 81 9
 391 002a 7B68     	 ldr r3,[r7,#4]
 392 002c D868     	 ldr r0,[r3,#12]
 393 002e 0023     	 movs r3,#0
 394 0030 0022     	 movs r2,#0
 395 0032 0021     	 movs r1,#0
 396 0034 FFF7FEFF 	 bl xQueueGenericSend
 397              	.L18:
  82:C:\Users\niels\Documents\Elektrotechniek\Jaar 2\ECS\ECSL\software\STM32\STM32Basis\HAL\gemeenschappelijk\Third_Party\freertos-addons-1.1.0\c++\Source\cread_write_lock.cpp ****     }
  83:C:\Users\niels\Documents\Elektrotechniek\Jaar 2\ECS\ECSL\software\STM32\STM32Basis\HAL\gemeenschappelijk\Third_Party\freertos-addons-1.1.0\c++\Source\cread_write_lock.cpp **** 
  84:C:\Users\niels\Documents\Elektrotechniek\Jaar 2\ECS\ECSL\software\STM32\STM32Basis\HAL\gemeenschappelijk\Third_Party\freertos-addons-1.1.0\c++\Source\cread_write_lock.cpp ****     xSemaphoreGive(ReadLock);
 398              	 .loc 2 84 5
 399 0038 7B68     	 ldr r3,[r7,#4]
ARM GAS   			page 14


 400 003a 9868     	 ldr r0,[r3,#8]
 401 003c 0023     	 movs r3,#0
 402 003e 0022     	 movs r2,#0
 403 0040 0021     	 movs r1,#0
 404 0042 FFF7FEFF 	 bl xQueueGenericSend
  85:C:\Users\niels\Documents\Elektrotechniek\Jaar 2\ECS\ECSL\software\STM32\STM32Basis\HAL\gemeenschappelijk\Third_Party\freertos-addons-1.1.0\c++\Source\cread_write_lock.cpp **** }
 405              	 .loc 2 85 1
 406 0046 00BF     	 nop
 407 0048 0837     	 adds r7,r7,#8
 408              	 .cfi_def_cfa_offset 8
 409 004a BD46     	 mov sp,r7
 410              	 .cfi_def_cfa_register 13
 411              	 
 412 004c 80BD     	 pop {r7,pc}
 413              	 .cfi_endproc
 414              	.LFE983:
 415              	 .size _ZN12cpp_freertos25ReadWriteLockPreferReader12ReaderUnlockEv,.-_ZN12cpp_freertos25ReadWriteLockPreferReader12ReaderUnlockEv
 416              	 .section .text._ZN12cpp_freertos25ReadWriteLockPreferReader10WriterLockEv,"ax",%progbits
 417              	 .align 1
 418              	 .global _ZN12cpp_freertos25ReadWriteLockPreferReader10WriterLockEv
 419              	 .syntax unified
 420              	 .thumb
 421              	 .thumb_func
 422              	 .type _ZN12cpp_freertos25ReadWriteLockPreferReader10WriterLockEv,%function
 423              	_ZN12cpp_freertos25ReadWriteLockPreferReader10WriterLockEv:
 424              	.LFB984:
  86:C:\Users\niels\Documents\Elektrotechniek\Jaar 2\ECS\ECSL\software\STM32\STM32Basis\HAL\gemeenschappelijk\Third_Party\freertos-addons-1.1.0\c++\Source\cread_write_lock.cpp **** 
  87:C:\Users\niels\Documents\Elektrotechniek\Jaar 2\ECS\ECSL\software\STM32\STM32Basis\HAL\gemeenschappelijk\Third_Party\freertos-addons-1.1.0\c++\Source\cread_write_lock.cpp **** 
  88:C:\Users\niels\Documents\Elektrotechniek\Jaar 2\ECS\ECSL\software\STM32\STM32Basis\HAL\gemeenschappelijk\Third_Party\freertos-addons-1.1.0\c++\Source\cread_write_lock.cpp **** void ReadWriteLockPreferReader::WriterLock()
  89:C:\Users\niels\Documents\Elektrotechniek\Jaar 2\ECS\ECSL\software\STM32\STM32Basis\HAL\gemeenschappelijk\Third_Party\freertos-addons-1.1.0\c++\Source\cread_write_lock.cpp **** {
 425              	 .loc 2 89 1
 426              	 .cfi_startproc
 427              	 
 428              	 
 429 0000 80B5     	 push {r7,lr}
 430              	 .cfi_def_cfa_offset 8
 431              	 .cfi_offset 7,-8
 432              	 .cfi_offset 14,-4
 433 0002 82B0     	 sub sp,sp,#8
 434              	 .cfi_def_cfa_offset 16
 435 0004 00AF     	 add r7,sp,#0
 436              	 .cfi_def_cfa_register 7
 437 0006 7860     	 str r0,[r7,#4]
  90:C:\Users\niels\Documents\Elektrotechniek\Jaar 2\ECS\ECSL\software\STM32\STM32Basis\HAL\gemeenschappelijk\Third_Party\freertos-addons-1.1.0\c++\Source\cread_write_lock.cpp ****     xSemaphoreTake(ResourceLock, portMAX_DELAY);
 438              	 .loc 2 90 5
 439 0008 7B68     	 ldr r3,[r7,#4]
 440 000a D868     	 ldr r0,[r3,#12]
 441 000c 0023     	 movs r3,#0
 442 000e 4FF0FF32 	 mov r2,#-1
 443 0012 0021     	 movs r1,#0
 444 0014 FFF7FEFF 	 bl xQueueGenericReceive
  91:C:\Users\niels\Documents\Elektrotechniek\Jaar 2\ECS\ECSL\software\STM32\STM32Basis\HAL\gemeenschappelijk\Third_Party\freertos-addons-1.1.0\c++\Source\cread_write_lock.cpp **** }
 445              	 .loc 2 91 1
 446 0018 00BF     	 nop
 447 001a 0837     	 adds r7,r7,#8
 448              	 .cfi_def_cfa_offset 8
 449 001c BD46     	 mov sp,r7
ARM GAS   			page 15


 450              	 .cfi_def_cfa_register 13
 451              	 
 452 001e 80BD     	 pop {r7,pc}
 453              	 .cfi_endproc
 454              	.LFE984:
 455              	 .size _ZN12cpp_freertos25ReadWriteLockPreferReader10WriterLockEv,.-_ZN12cpp_freertos25ReadWriteLockPreferReader10WriterLockEv
 456              	 .section .text._ZN12cpp_freertos25ReadWriteLockPreferReader12WriterUnlockEv,"ax",%progbits
 457              	 .align 1
 458              	 .global _ZN12cpp_freertos25ReadWriteLockPreferReader12WriterUnlockEv
 459              	 .syntax unified
 460              	 .thumb
 461              	 .thumb_func
 462              	 .type _ZN12cpp_freertos25ReadWriteLockPreferReader12WriterUnlockEv,%function
 463              	_ZN12cpp_freertos25ReadWriteLockPreferReader12WriterUnlockEv:
 464              	.LFB985:
  92:C:\Users\niels\Documents\Elektrotechniek\Jaar 2\ECS\ECSL\software\STM32\STM32Basis\HAL\gemeenschappelijk\Third_Party\freertos-addons-1.1.0\c++\Source\cread_write_lock.cpp **** 
  93:C:\Users\niels\Documents\Elektrotechniek\Jaar 2\ECS\ECSL\software\STM32\STM32Basis\HAL\gemeenschappelijk\Third_Party\freertos-addons-1.1.0\c++\Source\cread_write_lock.cpp **** 
  94:C:\Users\niels\Documents\Elektrotechniek\Jaar 2\ECS\ECSL\software\STM32\STM32Basis\HAL\gemeenschappelijk\Third_Party\freertos-addons-1.1.0\c++\Source\cread_write_lock.cpp **** void ReadWriteLockPreferReader::WriterUnlock()
  95:C:\Users\niels\Documents\Elektrotechniek\Jaar 2\ECS\ECSL\software\STM32\STM32Basis\HAL\gemeenschappelijk\Third_Party\freertos-addons-1.1.0\c++\Source\cread_write_lock.cpp **** {
 465              	 .loc 2 95 1
 466              	 .cfi_startproc
 467              	 
 468              	 
 469 0000 80B5     	 push {r7,lr}
 470              	 .cfi_def_cfa_offset 8
 471              	 .cfi_offset 7,-8
 472              	 .cfi_offset 14,-4
 473 0002 82B0     	 sub sp,sp,#8
 474              	 .cfi_def_cfa_offset 16
 475 0004 00AF     	 add r7,sp,#0
 476              	 .cfi_def_cfa_register 7
 477 0006 7860     	 str r0,[r7,#4]
  96:C:\Users\niels\Documents\Elektrotechniek\Jaar 2\ECS\ECSL\software\STM32\STM32Basis\HAL\gemeenschappelijk\Third_Party\freertos-addons-1.1.0\c++\Source\cread_write_lock.cpp ****     xSemaphoreGive(ResourceLock);
 478              	 .loc 2 96 5
 479 0008 7B68     	 ldr r3,[r7,#4]
 480 000a D868     	 ldr r0,[r3,#12]
 481 000c 0023     	 movs r3,#0
 482 000e 0022     	 movs r2,#0
 483 0010 0021     	 movs r1,#0
 484 0012 FFF7FEFF 	 bl xQueueGenericSend
  97:C:\Users\niels\Documents\Elektrotechniek\Jaar 2\ECS\ECSL\software\STM32\STM32Basis\HAL\gemeenschappelijk\Third_Party\freertos-addons-1.1.0\c++\Source\cread_write_lock.cpp **** }
 485              	 .loc 2 97 1
 486 0016 00BF     	 nop
 487 0018 0837     	 adds r7,r7,#8
 488              	 .cfi_def_cfa_offset 8
 489 001a BD46     	 mov sp,r7
 490              	 .cfi_def_cfa_register 13
 491              	 
 492 001c 80BD     	 pop {r7,pc}
 493              	 .cfi_endproc
 494              	.LFE985:
 495              	 .size _ZN12cpp_freertos25ReadWriteLockPreferReader12WriterUnlockEv,.-_ZN12cpp_freertos25ReadWriteLockPreferReader12WriterUnlockEv
 496              	 .section .rodata
 497 00f6 0000     	 .align 2
 498              	.LC4:
 499 00f8 57726974 	 .ascii "WriteLock != NULL\000"
 499      654C6F63 
ARM GAS   			page 16


 499      6B20213D 
 499      204E554C 
 499      4C00
 500 010a 0000     	 .align 2
 501              	.LC5:
 502 010c 6370705F 	 .ascii "cpp_freertos::ReadWriteLockPreferWriter::ReadWriteL"
 502      66726565 
 502      72746F73 
 502      3A3A5265 
 502      61645772 
 503 013f 6F636B50 	 .ascii "ockPreferWriter()\000"
 503      72656665 
 503      72577269 
 503      74657228 
 503      2900
 504              	 .section .text._ZN12cpp_freertos25ReadWriteLockPreferWriterC2Ev,"ax",%progbits
 505              	 .align 1
 506              	 .global _ZN12cpp_freertos25ReadWriteLockPreferWriterC2Ev
 507              	 .syntax unified
 508              	 .thumb
 509              	 .thumb_func
 510              	 .type _ZN12cpp_freertos25ReadWriteLockPreferWriterC2Ev,%function
 511              	_ZN12cpp_freertos25ReadWriteLockPreferWriterC2Ev:
 512              	.LFB987:
  98:C:\Users\niels\Documents\Elektrotechniek\Jaar 2\ECS\ECSL\software\STM32\STM32Basis\HAL\gemeenschappelijk\Third_Party\freertos-addons-1.1.0\c++\Source\cread_write_lock.cpp **** 
  99:C:\Users\niels\Documents\Elektrotechniek\Jaar 2\ECS\ECSL\software\STM32\STM32Basis\HAL\gemeenschappelijk\Third_Party\freertos-addons-1.1.0\c++\Source\cread_write_lock.cpp **** 
 100:C:\Users\niels\Documents\Elektrotechniek\Jaar 2\ECS\ECSL\software\STM32\STM32Basis\HAL\gemeenschappelijk\Third_Party\freertos-addons-1.1.0\c++\Source\cread_write_lock.cpp **** ReadWriteLockPreferWriter::ReadWriteLockPreferWriter()
 513              	 .loc 2 100 1
 514              	 .cfi_startproc
 515              	 
 516              	 
 517 0000 80B5     	 push {r7,lr}
 518              	 .cfi_def_cfa_offset 8
 519              	 .cfi_offset 7,-8
 520              	 .cfi_offset 14,-4
 521 0002 82B0     	 sub sp,sp,#8
 522              	 .cfi_def_cfa_offset 16
 523 0004 00AF     	 add r7,sp,#0
 524              	 .cfi_def_cfa_register 7
 525 0006 7860     	 str r0,[r7,#4]
 526              	.LBB4:
 101:C:\Users\niels\Documents\Elektrotechniek\Jaar 2\ECS\ECSL\software\STM32\STM32Basis\HAL\gemeenschappelijk\Third_Party\freertos-addons-1.1.0\c++\Source\cread_write_lock.cpp ****     : ReadWriteLock(),
 102:C:\Users\niels\Documents\Elektrotechniek\Jaar 2\ECS\ECSL\software\STM32\STM32Basis\HAL\gemeenschappelijk\Third_Party\freertos-addons-1.1.0\c++\Source\cread_write_lock.cpp ****       WriteCount(0)
 527              	 .loc 2 102 19
 528 0008 7B68     	 ldr r3,[r7,#4]
 529 000a 1846     	 mov r0,r3
 530 000c FFF7FEFF 	 bl _ZN12cpp_freertos13ReadWriteLockC2Ev
 531 0010 1C4A     	 ldr r2,.L25
 532 0012 7B68     	 ldr r3,[r7,#4]
 533 0014 1A60     	 str r2,[r3]
 534 0016 7B68     	 ldr r3,[r7,#4]
 535 0018 0022     	 movs r2,#0
 536 001a 1A61     	 str r2,[r3,#16]
 103:C:\Users\niels\Documents\Elektrotechniek\Jaar 2\ECS\ECSL\software\STM32\STM32Basis\HAL\gemeenschappelijk\Third_Party\freertos-addons-1.1.0\c++\Source\cread_write_lock.cpp **** {
 104:C:\Users\niels\Documents\Elektrotechniek\Jaar 2\ECS\ECSL\software\STM32\STM32Basis\HAL\gemeenschappelijk\Third_Party\freertos-addons-1.1.0\c++\Source\cread_write_lock.cpp ****     WriteLock = xSemaphoreCreateMutex();
 537              	 .loc 2 104 17
 538 001c 0120     	 movs r0,#1
ARM GAS   			page 17


 539 001e FFF7FEFF 	 bl xQueueCreateMutex
 540 0022 0246     	 mov r2,r0
 541              	 .loc 2 104 15
 542 0024 7B68     	 ldr r3,[r7,#4]
 543 0026 5A61     	 str r2,[r3,#20]
 105:C:\Users\niels\Documents\Elektrotechniek\Jaar 2\ECS\ECSL\software\STM32\STM32Basis\HAL\gemeenschappelijk\Third_Party\freertos-addons-1.1.0\c++\Source\cread_write_lock.cpp **** 	assert(WriteLock != NULL);
 544              	 .loc 2 105 2
 545 0028 7B68     	 ldr r3,[r7,#4]
 546 002a 5B69     	 ldr r3,[r3,#20]
 547 002c 002B     	 cmp r3,#0
 548 002e 05D1     	 bne .L22
 549              	 .loc 2 105 2 is_stmt 0 discriminator 1
 550 0030 154B     	 ldr r3,.L25+4
 551 0032 164A     	 ldr r2,.L25+8
 552 0034 6921     	 movs r1,#105
 553 0036 1648     	 ldr r0,.L25+12
 554 0038 FFF7FEFF 	 bl __assert_func
 555              	.L22:
 106:C:\Users\niels\Documents\Elektrotechniek\Jaar 2\ECS\ECSL\software\STM32\STM32Basis\HAL\gemeenschappelijk\Third_Party\freertos-addons-1.1.0\c++\Source\cread_write_lock.cpp **** 
 107:C:\Users\niels\Documents\Elektrotechniek\Jaar 2\ECS\ECSL\software\STM32\STM32Basis\HAL\gemeenschappelijk\Third_Party\freertos-addons-1.1.0\c++\Source\cread_write_lock.cpp ****     //
 108:C:\Users\niels\Documents\Elektrotechniek\Jaar 2\ECS\ECSL\software\STM32\STM32Basis\HAL\gemeenschappelijk\Third_Party\freertos-addons-1.1.0\c++\Source\cread_write_lock.cpp ****     //  BlockReadersLock CANNOT be a mutex. In FreeRTOS, as in most OS's,
 109:C:\Users\niels\Documents\Elektrotechniek\Jaar 2\ECS\ECSL\software\STM32\STM32Basis\HAL\gemeenschappelijk\Third_Party\freertos-addons-1.1.0\c++\Source\cread_write_lock.cpp ****     //  a thread is not allowed to unlock another thread's mutex. But
 110:C:\Users\niels\Documents\Elektrotechniek\Jaar 2\ECS\ECSL\software\STM32\STM32Basis\HAL\gemeenschappelijk\Third_Party\freertos-addons-1.1.0\c++\Source\cread_write_lock.cpp ****     //  the very nature of a Reader Lock allows an arbitrary ordering 
 111:C:\Users\niels\Documents\Elektrotechniek\Jaar 2\ECS\ECSL\software\STM32\STM32Basis\HAL\gemeenschappelijk\Third_Party\freertos-addons-1.1.0\c++\Source\cread_write_lock.cpp ****     //  of unlocks when multiple threads hold the reader lock. 
 112:C:\Users\niels\Documents\Elektrotechniek\Jaar 2\ECS\ECSL\software\STM32\STM32Basis\HAL\gemeenschappelijk\Third_Party\freertos-addons-1.1.0\c++\Source\cread_write_lock.cpp ****     //  Semaphores are not subject to this constraint.
 113:C:\Users\niels\Documents\Elektrotechniek\Jaar 2\ECS\ECSL\software\STM32\STM32Basis\HAL\gemeenschappelijk\Third_Party\freertos-addons-1.1.0\c++\Source\cread_write_lock.cpp ****     //
 114:C:\Users\niels\Documents\Elektrotechniek\Jaar 2\ECS\ECSL\software\STM32\STM32Basis\HAL\gemeenschappelijk\Third_Party\freertos-addons-1.1.0\c++\Source\cread_write_lock.cpp ****     BlockReadersLock = xSemaphoreCreateBinary();
 556              	 .loc 2 114 24 is_stmt 1
 557 003c 0322     	 movs r2,#3
 558 003e 0021     	 movs r1,#0
 559 0040 0120     	 movs r0,#1
 560 0042 FFF7FEFF 	 bl xQueueGenericCreate
 561 0046 0246     	 mov r2,r0
 562              	 .loc 2 114 22
 563 0048 7B68     	 ldr r3,[r7,#4]
 564 004a 9A61     	 str r2,[r3,#24]
 115:C:\Users\niels\Documents\Elektrotechniek\Jaar 2\ECS\ECSL\software\STM32\STM32Basis\HAL\gemeenschappelijk\Third_Party\freertos-addons-1.1.0\c++\Source\cread_write_lock.cpp ****     if (BlockReadersLock == NULL) {
 565              	 .loc 2 115 9
 566 004c 7B68     	 ldr r3,[r7,#4]
 567 004e 9B69     	 ldr r3,[r3,#24]
 568              	 .loc 2 115 5
 569 0050 002B     	 cmp r3,#0
 570 0052 0AD1     	 bne .L23
 116:C:\Users\niels\Documents\Elektrotechniek\Jaar 2\ECS\ECSL\software\STM32\STM32Basis\HAL\gemeenschappelijk\Third_Party\freertos-addons-1.1.0\c++\Source\cread_write_lock.cpp ****         vSemaphoreDelete(WriteLock);
 571              	 .loc 2 116 9
 572 0054 7B68     	 ldr r3,[r7,#4]
 573 0056 5B69     	 ldr r3,[r3,#20]
 574 0058 1846     	 mov r0,r3
 575 005a FFF7FEFF 	 bl vQueueDelete
 117:C:\Users\niels\Documents\Elektrotechniek\Jaar 2\ECS\ECSL\software\STM32\STM32Basis\HAL\gemeenschappelijk\Third_Party\freertos-addons-1.1.0\c++\Source\cread_write_lock.cpp ****         assert(false);
 576              	 .loc 2 117 9
 577 005e 0D4B     	 ldr r3,.L25+16
 578 0060 0A4A     	 ldr r2,.L25+8
 579 0062 7521     	 movs r1,#117
 580 0064 0A48     	 ldr r0,.L25+12
 581 0066 FFF7FEFF 	 bl __assert_func
 582              	.L23:
ARM GAS   			page 18


 118:C:\Users\niels\Documents\Elektrotechniek\Jaar 2\ECS\ECSL\software\STM32\STM32Basis\HAL\gemeenschappelijk\Third_Party\freertos-addons-1.1.0\c++\Source\cread_write_lock.cpp ****     }
 119:C:\Users\niels\Documents\Elektrotechniek\Jaar 2\ECS\ECSL\software\STM32\STM32Basis\HAL\gemeenschappelijk\Third_Party\freertos-addons-1.1.0\c++\Source\cread_write_lock.cpp **** 
 120:C:\Users\niels\Documents\Elektrotechniek\Jaar 2\ECS\ECSL\software\STM32\STM32Basis\HAL\gemeenschappelijk\Third_Party\freertos-addons-1.1.0\c++\Source\cread_write_lock.cpp ****     //
 121:C:\Users\niels\Documents\Elektrotechniek\Jaar 2\ECS\ECSL\software\STM32\STM32Basis\HAL\gemeenschappelijk\Third_Party\freertos-addons-1.1.0\c++\Source\cread_write_lock.cpp ****     //  Initialize it as "full", so it behaves similar to a mutex.
 122:C:\Users\niels\Documents\Elektrotechniek\Jaar 2\ECS\ECSL\software\STM32\STM32Basis\HAL\gemeenschappelijk\Third_Party\freertos-addons-1.1.0\c++\Source\cread_write_lock.cpp ****     //
 123:C:\Users\niels\Documents\Elektrotechniek\Jaar 2\ECS\ECSL\software\STM32\STM32Basis\HAL\gemeenschappelijk\Third_Party\freertos-addons-1.1.0\c++\Source\cread_write_lock.cpp ****     xSemaphoreGive(BlockReadersLock);
 583              	 .loc 2 123 5
 584 006a 7B68     	 ldr r3,[r7,#4]
 585 006c 9869     	 ldr r0,[r3,#24]
 586 006e 0023     	 movs r3,#0
 587 0070 0022     	 movs r2,#0
 588 0072 0021     	 movs r1,#0
 589 0074 FFF7FEFF 	 bl xQueueGenericSend
 590              	.LBE4:
 124:C:\Users\niels\Documents\Elektrotechniek\Jaar 2\ECS\ECSL\software\STM32\STM32Basis\HAL\gemeenschappelijk\Third_Party\freertos-addons-1.1.0\c++\Source\cread_write_lock.cpp **** }
 591              	 .loc 2 124 1
 592 0078 7B68     	 ldr r3,[r7,#4]
 593 007a 1846     	 mov r0,r3
 594 007c 0837     	 adds r7,r7,#8
 595              	 .cfi_def_cfa_offset 8
 596 007e BD46     	 mov sp,r7
 597              	 .cfi_def_cfa_register 13
 598              	 
 599 0080 80BD     	 pop {r7,pc}
 600              	.L26:
 601 0082 00BF     	 .align 2
 602              	.L25:
 603 0084 08000000 	 .word _ZTVN12cpp_freertos25ReadWriteLockPreferWriterE+8
 604 0088 F8000000 	 .word .LC4
 605 008c 0C010000 	 .word .LC5
 606 0090 44000000 	 .word .LC2
 607 0094 F0000000 	 .word .LC3
 608              	 .cfi_endproc
 609              	.LFE987:
 610              	 .size _ZN12cpp_freertos25ReadWriteLockPreferWriterC2Ev,.-_ZN12cpp_freertos25ReadWriteLockPreferWriterC2Ev
 611              	 .global _ZN12cpp_freertos25ReadWriteLockPreferWriterC1Ev
 612              	 .thumb_set _ZN12cpp_freertos25ReadWriteLockPreferWriterC1Ev,_ZN12cpp_freertos25ReadWriteLockPreferWriterC2Ev
 613              	 .section .text._ZN12cpp_freertos25ReadWriteLockPreferWriterD2Ev,"ax",%progbits
 614              	 .align 1
 615              	 .global _ZN12cpp_freertos25ReadWriteLockPreferWriterD2Ev
 616              	 .syntax unified
 617              	 .thumb
 618              	 .thumb_func
 619              	 .type _ZN12cpp_freertos25ReadWriteLockPreferWriterD2Ev,%function
 620              	_ZN12cpp_freertos25ReadWriteLockPreferWriterD2Ev:
 621              	.LFB990:
 125:C:\Users\niels\Documents\Elektrotechniek\Jaar 2\ECS\ECSL\software\STM32\STM32Basis\HAL\gemeenschappelijk\Third_Party\freertos-addons-1.1.0\c++\Source\cread_write_lock.cpp **** 
 126:C:\Users\niels\Documents\Elektrotechniek\Jaar 2\ECS\ECSL\software\STM32\STM32Basis\HAL\gemeenschappelijk\Third_Party\freertos-addons-1.1.0\c++\Source\cread_write_lock.cpp **** 
 127:C:\Users\niels\Documents\Elektrotechniek\Jaar 2\ECS\ECSL\software\STM32\STM32Basis\HAL\gemeenschappelijk\Third_Party\freertos-addons-1.1.0\c++\Source\cread_write_lock.cpp **** ReadWriteLockPreferWriter::~ReadWriteLockPreferWriter()
 622              	 .loc 2 127 1
 623              	 .cfi_startproc
 624              	 
 625              	 
 626 0000 80B5     	 push {r7,lr}
 627              	 .cfi_def_cfa_offset 8
 628              	 .cfi_offset 7,-8
 629              	 .cfi_offset 14,-4
ARM GAS   			page 19


 630 0002 82B0     	 sub sp,sp,#8
 631              	 .cfi_def_cfa_offset 16
 632 0004 00AF     	 add r7,sp,#0
 633              	 .cfi_def_cfa_register 7
 634 0006 7860     	 str r0,[r7,#4]
 635              	.LBB5:
 636              	 .loc 2 127 55
 637 0008 0A4A     	 ldr r2,.L29
 638 000a 7B68     	 ldr r3,[r7,#4]
 639 000c 1A60     	 str r2,[r3]
 128:C:\Users\niels\Documents\Elektrotechniek\Jaar 2\ECS\ECSL\software\STM32\STM32Basis\HAL\gemeenschappelijk\Third_Party\freertos-addons-1.1.0\c++\Source\cread_write_lock.cpp **** {
 129:C:\Users\niels\Documents\Elektrotechniek\Jaar 2\ECS\ECSL\software\STM32\STM32Basis\HAL\gemeenschappelijk\Third_Party\freertos-addons-1.1.0\c++\Source\cread_write_lock.cpp ****     vSemaphoreDelete(WriteLock);
 640              	 .loc 2 129 5
 641 000e 7B68     	 ldr r3,[r7,#4]
 642 0010 5B69     	 ldr r3,[r3,#20]
 643 0012 1846     	 mov r0,r3
 644 0014 FFF7FEFF 	 bl vQueueDelete
 130:C:\Users\niels\Documents\Elektrotechniek\Jaar 2\ECS\ECSL\software\STM32\STM32Basis\HAL\gemeenschappelijk\Third_Party\freertos-addons-1.1.0\c++\Source\cread_write_lock.cpp ****     vSemaphoreDelete(BlockReadersLock);
 645              	 .loc 2 130 5
 646 0018 7B68     	 ldr r3,[r7,#4]
 647 001a 9B69     	 ldr r3,[r3,#24]
 648 001c 1846     	 mov r0,r3
 649 001e FFF7FEFF 	 bl vQueueDelete
 127:C:\Users\niels\Documents\Elektrotechniek\Jaar 2\ECS\ECSL\software\STM32\STM32Basis\HAL\gemeenschappelijk\Third_Party\freertos-addons-1.1.0\c++\Source\cread_write_lock.cpp **** {
 650              	 .loc 2 127 55
 651 0022 7B68     	 ldr r3,[r7,#4]
 652 0024 1846     	 mov r0,r3
 653 0026 FFF7FEFF 	 bl _ZN12cpp_freertos13ReadWriteLockD2Ev
 654              	.LBE5:
 131:C:\Users\niels\Documents\Elektrotechniek\Jaar 2\ECS\ECSL\software\STM32\STM32Basis\HAL\gemeenschappelijk\Third_Party\freertos-addons-1.1.0\c++\Source\cread_write_lock.cpp **** }
 655              	 .loc 2 131 1
 656 002a 7B68     	 ldr r3,[r7,#4]
 657 002c 1846     	 mov r0,r3
 658 002e 0837     	 adds r7,r7,#8
 659              	 .cfi_def_cfa_offset 8
 660 0030 BD46     	 mov sp,r7
 661              	 .cfi_def_cfa_register 13
 662              	 
 663 0032 80BD     	 pop {r7,pc}
 664              	.L30:
 665              	 .align 2
 666              	.L29:
 667 0034 08000000 	 .word _ZTVN12cpp_freertos25ReadWriteLockPreferWriterE+8
 668              	 .cfi_endproc
 669              	.LFE990:
 670              	 .size _ZN12cpp_freertos25ReadWriteLockPreferWriterD2Ev,.-_ZN12cpp_freertos25ReadWriteLockPreferWriterD2Ev
 671              	 .global _ZN12cpp_freertos25ReadWriteLockPreferWriterD1Ev
 672              	 .thumb_set _ZN12cpp_freertos25ReadWriteLockPreferWriterD1Ev,_ZN12cpp_freertos25ReadWriteLockPreferWriterD2Ev
 673              	 .section .text._ZN12cpp_freertos25ReadWriteLockPreferWriterD0Ev,"ax",%progbits
 674              	 .align 1
 675              	 .global _ZN12cpp_freertos25ReadWriteLockPreferWriterD0Ev
 676              	 .syntax unified
 677              	 .thumb
 678              	 .thumb_func
 679              	 .type _ZN12cpp_freertos25ReadWriteLockPreferWriterD0Ev,%function
 680              	_ZN12cpp_freertos25ReadWriteLockPreferWriterD0Ev:
 681              	.LFB992:
ARM GAS   			page 20


 127:C:\Users\niels\Documents\Elektrotechniek\Jaar 2\ECS\ECSL\software\STM32\STM32Basis\HAL\gemeenschappelijk\Third_Party\freertos-addons-1.1.0\c++\Source\cread_write_lock.cpp **** {
 682              	 .loc 2 127 1
 683              	 .cfi_startproc
 684              	 
 685              	 
 686 0000 80B5     	 push {r7,lr}
 687              	 .cfi_def_cfa_offset 8
 688              	 .cfi_offset 7,-8
 689              	 .cfi_offset 14,-4
 690 0002 82B0     	 sub sp,sp,#8
 691              	 .cfi_def_cfa_offset 16
 692 0004 00AF     	 add r7,sp,#0
 693              	 .cfi_def_cfa_register 7
 694 0006 7860     	 str r0,[r7,#4]
 695              	 .loc 2 131 1
 696 0008 7868     	 ldr r0,[r7,#4]
 697 000a FFF7FEFF 	 bl _ZN12cpp_freertos25ReadWriteLockPreferWriterD1Ev
 698 000e 7868     	 ldr r0,[r7,#4]
 699 0010 FFF7FEFF 	 bl _ZdlPv
 700 0014 7B68     	 ldr r3,[r7,#4]
 701 0016 1846     	 mov r0,r3
 702 0018 0837     	 adds r7,r7,#8
 703              	 .cfi_def_cfa_offset 8
 704 001a BD46     	 mov sp,r7
 705              	 .cfi_def_cfa_register 13
 706              	 
 707 001c 80BD     	 pop {r7,pc}
 708              	 .cfi_endproc
 709              	.LFE992:
 710              	 .size _ZN12cpp_freertos25ReadWriteLockPreferWriterD0Ev,.-_ZN12cpp_freertos25ReadWriteLockPreferWriterD0Ev
 711              	 .section .text._ZN12cpp_freertos25ReadWriteLockPreferWriter10ReaderLockEv,"ax",%progbits
 712              	 .align 1
 713              	 .global _ZN12cpp_freertos25ReadWriteLockPreferWriter10ReaderLockEv
 714              	 .syntax unified
 715              	 .thumb
 716              	 .thumb_func
 717              	 .type _ZN12cpp_freertos25ReadWriteLockPreferWriter10ReaderLockEv,%function
 718              	_ZN12cpp_freertos25ReadWriteLockPreferWriter10ReaderLockEv:
 719              	.LFB993:
 132:C:\Users\niels\Documents\Elektrotechniek\Jaar 2\ECS\ECSL\software\STM32\STM32Basis\HAL\gemeenschappelijk\Third_Party\freertos-addons-1.1.0\c++\Source\cread_write_lock.cpp **** 
 133:C:\Users\niels\Documents\Elektrotechniek\Jaar 2\ECS\ECSL\software\STM32\STM32Basis\HAL\gemeenschappelijk\Third_Party\freertos-addons-1.1.0\c++\Source\cread_write_lock.cpp **** 
 134:C:\Users\niels\Documents\Elektrotechniek\Jaar 2\ECS\ECSL\software\STM32\STM32Basis\HAL\gemeenschappelijk\Third_Party\freertos-addons-1.1.0\c++\Source\cread_write_lock.cpp **** void ReadWriteLockPreferWriter::ReaderLock()
 135:C:\Users\niels\Documents\Elektrotechniek\Jaar 2\ECS\ECSL\software\STM32\STM32Basis\HAL\gemeenschappelijk\Third_Party\freertos-addons-1.1.0\c++\Source\cread_write_lock.cpp **** {
 720              	 .loc 2 135 1
 721              	 .cfi_startproc
 722              	 
 723              	 
 724 0000 80B5     	 push {r7,lr}
 725              	 .cfi_def_cfa_offset 8
 726              	 .cfi_offset 7,-8
 727              	 .cfi_offset 14,-4
 728 0002 82B0     	 sub sp,sp,#8
 729              	 .cfi_def_cfa_offset 16
 730 0004 00AF     	 add r7,sp,#0
 731              	 .cfi_def_cfa_register 7
 732 0006 7860     	 str r0,[r7,#4]
 136:C:\Users\niels\Documents\Elektrotechniek\Jaar 2\ECS\ECSL\software\STM32\STM32Basis\HAL\gemeenschappelijk\Third_Party\freertos-addons-1.1.0\c++\Source\cread_write_lock.cpp ****     xSemaphoreTake(BlockReadersLock, portMAX_DELAY);
ARM GAS   			page 21


 733              	 .loc 2 136 5
 734 0008 7B68     	 ldr r3,[r7,#4]
 735 000a 9869     	 ldr r0,[r3,#24]
 736 000c 0023     	 movs r3,#0
 737 000e 4FF0FF32 	 mov r2,#-1
 738 0012 0021     	 movs r1,#0
 739 0014 FFF7FEFF 	 bl xQueueGenericReceive
 137:C:\Users\niels\Documents\Elektrotechniek\Jaar 2\ECS\ECSL\software\STM32\STM32Basis\HAL\gemeenschappelijk\Third_Party\freertos-addons-1.1.0\c++\Source\cread_write_lock.cpp ****     xSemaphoreTake(ReadLock, portMAX_DELAY);
 740              	 .loc 2 137 5
 741 0018 7B68     	 ldr r3,[r7,#4]
 742 001a 9868     	 ldr r0,[r3,#8]
 743 001c 0023     	 movs r3,#0
 744 001e 4FF0FF32 	 mov r2,#-1
 745 0022 0021     	 movs r1,#0
 746 0024 FFF7FEFF 	 bl xQueueGenericReceive
 138:C:\Users\niels\Documents\Elektrotechniek\Jaar 2\ECS\ECSL\software\STM32\STM32Basis\HAL\gemeenschappelijk\Third_Party\freertos-addons-1.1.0\c++\Source\cread_write_lock.cpp **** 
 139:C:\Users\niels\Documents\Elektrotechniek\Jaar 2\ECS\ECSL\software\STM32\STM32Basis\HAL\gemeenschappelijk\Third_Party\freertos-addons-1.1.0\c++\Source\cread_write_lock.cpp ****     ReadCount++;
 747              	 .loc 2 139 5
 748 0028 7B68     	 ldr r3,[r7,#4]
 749 002a 5B68     	 ldr r3,[r3,#4]
 750              	 .loc 2 139 14
 751 002c 5A1C     	 adds r2,r3,#1
 752 002e 7B68     	 ldr r3,[r7,#4]
 753 0030 5A60     	 str r2,[r3,#4]
 140:C:\Users\niels\Documents\Elektrotechniek\Jaar 2\ECS\ECSL\software\STM32\STM32Basis\HAL\gemeenschappelijk\Third_Party\freertos-addons-1.1.0\c++\Source\cread_write_lock.cpp ****     if (ReadCount == 1) {
 754              	 .loc 2 140 9
 755 0032 7B68     	 ldr r3,[r7,#4]
 756 0034 5B68     	 ldr r3,[r3,#4]
 757              	 .loc 2 140 5
 758 0036 012B     	 cmp r3,#1
 759 0038 07D1     	 bne .L34
 141:C:\Users\niels\Documents\Elektrotechniek\Jaar 2\ECS\ECSL\software\STM32\STM32Basis\HAL\gemeenschappelijk\Third_Party\freertos-addons-1.1.0\c++\Source\cread_write_lock.cpp ****         xSemaphoreTake(ResourceLock, portMAX_DELAY);
 760              	 .loc 2 141 9
 761 003a 7B68     	 ldr r3,[r7,#4]
 762 003c D868     	 ldr r0,[r3,#12]
 763 003e 0023     	 movs r3,#0
 764 0040 4FF0FF32 	 mov r2,#-1
 765 0044 0021     	 movs r1,#0
 766 0046 FFF7FEFF 	 bl xQueueGenericReceive
 767              	.L34:
 142:C:\Users\niels\Documents\Elektrotechniek\Jaar 2\ECS\ECSL\software\STM32\STM32Basis\HAL\gemeenschappelijk\Third_Party\freertos-addons-1.1.0\c++\Source\cread_write_lock.cpp ****     }
 143:C:\Users\niels\Documents\Elektrotechniek\Jaar 2\ECS\ECSL\software\STM32\STM32Basis\HAL\gemeenschappelijk\Third_Party\freertos-addons-1.1.0\c++\Source\cread_write_lock.cpp **** 
 144:C:\Users\niels\Documents\Elektrotechniek\Jaar 2\ECS\ECSL\software\STM32\STM32Basis\HAL\gemeenschappelijk\Third_Party\freertos-addons-1.1.0\c++\Source\cread_write_lock.cpp ****     xSemaphoreGive(ReadLock);
 768              	 .loc 2 144 5
 769 004a 7B68     	 ldr r3,[r7,#4]
 770 004c 9868     	 ldr r0,[r3,#8]
 771 004e 0023     	 movs r3,#0
 772 0050 0022     	 movs r2,#0
 773 0052 0021     	 movs r1,#0
 774 0054 FFF7FEFF 	 bl xQueueGenericSend
 145:C:\Users\niels\Documents\Elektrotechniek\Jaar 2\ECS\ECSL\software\STM32\STM32Basis\HAL\gemeenschappelijk\Third_Party\freertos-addons-1.1.0\c++\Source\cread_write_lock.cpp ****     xSemaphoreGive(BlockReadersLock);
 775              	 .loc 2 145 5
 776 0058 7B68     	 ldr r3,[r7,#4]
 777 005a 9869     	 ldr r0,[r3,#24]
 778 005c 0023     	 movs r3,#0
 779 005e 0022     	 movs r2,#0
 780 0060 0021     	 movs r1,#0
ARM GAS   			page 22


 781 0062 FFF7FEFF 	 bl xQueueGenericSend
 146:C:\Users\niels\Documents\Elektrotechniek\Jaar 2\ECS\ECSL\software\STM32\STM32Basis\HAL\gemeenschappelijk\Third_Party\freertos-addons-1.1.0\c++\Source\cread_write_lock.cpp **** }
 782              	 .loc 2 146 1
 783 0066 00BF     	 nop
 784 0068 0837     	 adds r7,r7,#8
 785              	 .cfi_def_cfa_offset 8
 786 006a BD46     	 mov sp,r7
 787              	 .cfi_def_cfa_register 13
 788              	 
 789 006c 80BD     	 pop {r7,pc}
 790              	 .cfi_endproc
 791              	.LFE993:
 792              	 .size _ZN12cpp_freertos25ReadWriteLockPreferWriter10ReaderLockEv,.-_ZN12cpp_freertos25ReadWriteLockPreferWriter10ReaderLockEv
 793              	 .section .text._ZN12cpp_freertos25ReadWriteLockPreferWriter12ReaderUnlockEv,"ax",%progbits
 794              	 .align 1
 795              	 .global _ZN12cpp_freertos25ReadWriteLockPreferWriter12ReaderUnlockEv
 796              	 .syntax unified
 797              	 .thumb
 798              	 .thumb_func
 799              	 .type _ZN12cpp_freertos25ReadWriteLockPreferWriter12ReaderUnlockEv,%function
 800              	_ZN12cpp_freertos25ReadWriteLockPreferWriter12ReaderUnlockEv:
 801              	.LFB994:
 147:C:\Users\niels\Documents\Elektrotechniek\Jaar 2\ECS\ECSL\software\STM32\STM32Basis\HAL\gemeenschappelijk\Third_Party\freertos-addons-1.1.0\c++\Source\cread_write_lock.cpp **** 
 148:C:\Users\niels\Documents\Elektrotechniek\Jaar 2\ECS\ECSL\software\STM32\STM32Basis\HAL\gemeenschappelijk\Third_Party\freertos-addons-1.1.0\c++\Source\cread_write_lock.cpp **** 
 149:C:\Users\niels\Documents\Elektrotechniek\Jaar 2\ECS\ECSL\software\STM32\STM32Basis\HAL\gemeenschappelijk\Third_Party\freertos-addons-1.1.0\c++\Source\cread_write_lock.cpp **** void ReadWriteLockPreferWriter::ReaderUnlock()
 150:C:\Users\niels\Documents\Elektrotechniek\Jaar 2\ECS\ECSL\software\STM32\STM32Basis\HAL\gemeenschappelijk\Third_Party\freertos-addons-1.1.0\c++\Source\cread_write_lock.cpp **** {
 802              	 .loc 2 150 1
 803              	 .cfi_startproc
 804              	 
 805              	 
 806 0000 80B5     	 push {r7,lr}
 807              	 .cfi_def_cfa_offset 8
 808              	 .cfi_offset 7,-8
 809              	 .cfi_offset 14,-4
 810 0002 82B0     	 sub sp,sp,#8
 811              	 .cfi_def_cfa_offset 16
 812 0004 00AF     	 add r7,sp,#0
 813              	 .cfi_def_cfa_register 7
 814 0006 7860     	 str r0,[r7,#4]
 151:C:\Users\niels\Documents\Elektrotechniek\Jaar 2\ECS\ECSL\software\STM32\STM32Basis\HAL\gemeenschappelijk\Third_Party\freertos-addons-1.1.0\c++\Source\cread_write_lock.cpp ****     xSemaphoreTake(ReadLock, portMAX_DELAY);
 815              	 .loc 2 151 5
 816 0008 7B68     	 ldr r3,[r7,#4]
 817 000a 9868     	 ldr r0,[r3,#8]
 818 000c 0023     	 movs r3,#0
 819 000e 4FF0FF32 	 mov r2,#-1
 820 0012 0021     	 movs r1,#0
 821 0014 FFF7FEFF 	 bl xQueueGenericReceive
 152:C:\Users\niels\Documents\Elektrotechniek\Jaar 2\ECS\ECSL\software\STM32\STM32Basis\HAL\gemeenschappelijk\Third_Party\freertos-addons-1.1.0\c++\Source\cread_write_lock.cpp **** 
 153:C:\Users\niels\Documents\Elektrotechniek\Jaar 2\ECS\ECSL\software\STM32\STM32Basis\HAL\gemeenschappelijk\Third_Party\freertos-addons-1.1.0\c++\Source\cread_write_lock.cpp ****     ReadCount--;
 822              	 .loc 2 153 5
 823 0018 7B68     	 ldr r3,[r7,#4]
 824 001a 5B68     	 ldr r3,[r3,#4]
 825              	 .loc 2 153 14
 826 001c 5A1E     	 subs r2,r3,#1
 827 001e 7B68     	 ldr r3,[r7,#4]
 828 0020 5A60     	 str r2,[r3,#4]
 154:C:\Users\niels\Documents\Elektrotechniek\Jaar 2\ECS\ECSL\software\STM32\STM32Basis\HAL\gemeenschappelijk\Third_Party\freertos-addons-1.1.0\c++\Source\cread_write_lock.cpp ****     if (ReadCount == 0) {
ARM GAS   			page 23


 829              	 .loc 2 154 9
 830 0022 7B68     	 ldr r3,[r7,#4]
 831 0024 5B68     	 ldr r3,[r3,#4]
 832              	 .loc 2 154 5
 833 0026 002B     	 cmp r3,#0
 834 0028 06D1     	 bne .L36
 155:C:\Users\niels\Documents\Elektrotechniek\Jaar 2\ECS\ECSL\software\STM32\STM32Basis\HAL\gemeenschappelijk\Third_Party\freertos-addons-1.1.0\c++\Source\cread_write_lock.cpp ****         xSemaphoreGive(ResourceLock);
 835              	 .loc 2 155 9
 836 002a 7B68     	 ldr r3,[r7,#4]
 837 002c D868     	 ldr r0,[r3,#12]
 838 002e 0023     	 movs r3,#0
 839 0030 0022     	 movs r2,#0
 840 0032 0021     	 movs r1,#0
 841 0034 FFF7FEFF 	 bl xQueueGenericSend
 842              	.L36:
 156:C:\Users\niels\Documents\Elektrotechniek\Jaar 2\ECS\ECSL\software\STM32\STM32Basis\HAL\gemeenschappelijk\Third_Party\freertos-addons-1.1.0\c++\Source\cread_write_lock.cpp ****     }
 157:C:\Users\niels\Documents\Elektrotechniek\Jaar 2\ECS\ECSL\software\STM32\STM32Basis\HAL\gemeenschappelijk\Third_Party\freertos-addons-1.1.0\c++\Source\cread_write_lock.cpp **** 
 158:C:\Users\niels\Documents\Elektrotechniek\Jaar 2\ECS\ECSL\software\STM32\STM32Basis\HAL\gemeenschappelijk\Third_Party\freertos-addons-1.1.0\c++\Source\cread_write_lock.cpp ****     xSemaphoreGive(ReadLock);
 843              	 .loc 2 158 5
 844 0038 7B68     	 ldr r3,[r7,#4]
 845 003a 9868     	 ldr r0,[r3,#8]
 846 003c 0023     	 movs r3,#0
 847 003e 0022     	 movs r2,#0
 848 0040 0021     	 movs r1,#0
 849 0042 FFF7FEFF 	 bl xQueueGenericSend
 159:C:\Users\niels\Documents\Elektrotechniek\Jaar 2\ECS\ECSL\software\STM32\STM32Basis\HAL\gemeenschappelijk\Third_Party\freertos-addons-1.1.0\c++\Source\cread_write_lock.cpp **** }
 850              	 .loc 2 159 1
 851 0046 00BF     	 nop
 852 0048 0837     	 adds r7,r7,#8
 853              	 .cfi_def_cfa_offset 8
 854 004a BD46     	 mov sp,r7
 855              	 .cfi_def_cfa_register 13
 856              	 
 857 004c 80BD     	 pop {r7,pc}
 858              	 .cfi_endproc
 859              	.LFE994:
 860              	 .size _ZN12cpp_freertos25ReadWriteLockPreferWriter12ReaderUnlockEv,.-_ZN12cpp_freertos25ReadWriteLockPreferWriter12ReaderUnlockEv
 861              	 .section .text._ZN12cpp_freertos25ReadWriteLockPreferWriter10WriterLockEv,"ax",%progbits
 862              	 .align 1
 863              	 .global _ZN12cpp_freertos25ReadWriteLockPreferWriter10WriterLockEv
 864              	 .syntax unified
 865              	 .thumb
 866              	 .thumb_func
 867              	 .type _ZN12cpp_freertos25ReadWriteLockPreferWriter10WriterLockEv,%function
 868              	_ZN12cpp_freertos25ReadWriteLockPreferWriter10WriterLockEv:
 869              	.LFB995:
 160:C:\Users\niels\Documents\Elektrotechniek\Jaar 2\ECS\ECSL\software\STM32\STM32Basis\HAL\gemeenschappelijk\Third_Party\freertos-addons-1.1.0\c++\Source\cread_write_lock.cpp **** 
 161:C:\Users\niels\Documents\Elektrotechniek\Jaar 2\ECS\ECSL\software\STM32\STM32Basis\HAL\gemeenschappelijk\Third_Party\freertos-addons-1.1.0\c++\Source\cread_write_lock.cpp **** 
 162:C:\Users\niels\Documents\Elektrotechniek\Jaar 2\ECS\ECSL\software\STM32\STM32Basis\HAL\gemeenschappelijk\Third_Party\freertos-addons-1.1.0\c++\Source\cread_write_lock.cpp **** void ReadWriteLockPreferWriter::WriterLock()
 163:C:\Users\niels\Documents\Elektrotechniek\Jaar 2\ECS\ECSL\software\STM32\STM32Basis\HAL\gemeenschappelijk\Third_Party\freertos-addons-1.1.0\c++\Source\cread_write_lock.cpp **** {
 870              	 .loc 2 163 1
 871              	 .cfi_startproc
 872              	 
 873              	 
 874 0000 80B5     	 push {r7,lr}
 875              	 .cfi_def_cfa_offset 8
 876              	 .cfi_offset 7,-8
ARM GAS   			page 24


 877              	 .cfi_offset 14,-4
 878 0002 82B0     	 sub sp,sp,#8
 879              	 .cfi_def_cfa_offset 16
 880 0004 00AF     	 add r7,sp,#0
 881              	 .cfi_def_cfa_register 7
 882 0006 7860     	 str r0,[r7,#4]
 164:C:\Users\niels\Documents\Elektrotechniek\Jaar 2\ECS\ECSL\software\STM32\STM32Basis\HAL\gemeenschappelijk\Third_Party\freertos-addons-1.1.0\c++\Source\cread_write_lock.cpp ****     xSemaphoreTake(WriteLock, portMAX_DELAY);
 883              	 .loc 2 164 5
 884 0008 7B68     	 ldr r3,[r7,#4]
 885 000a 5869     	 ldr r0,[r3,#20]
 886 000c 0023     	 movs r3,#0
 887 000e 4FF0FF32 	 mov r2,#-1
 888 0012 0021     	 movs r1,#0
 889 0014 FFF7FEFF 	 bl xQueueGenericReceive
 165:C:\Users\niels\Documents\Elektrotechniek\Jaar 2\ECS\ECSL\software\STM32\STM32Basis\HAL\gemeenschappelijk\Third_Party\freertos-addons-1.1.0\c++\Source\cread_write_lock.cpp **** 
 166:C:\Users\niels\Documents\Elektrotechniek\Jaar 2\ECS\ECSL\software\STM32\STM32Basis\HAL\gemeenschappelijk\Third_Party\freertos-addons-1.1.0\c++\Source\cread_write_lock.cpp ****     WriteCount++;
 890              	 .loc 2 166 5
 891 0018 7B68     	 ldr r3,[r7,#4]
 892 001a 1B69     	 ldr r3,[r3,#16]
 893              	 .loc 2 166 15
 894 001c 5A1C     	 adds r2,r3,#1
 895 001e 7B68     	 ldr r3,[r7,#4]
 896 0020 1A61     	 str r2,[r3,#16]
 167:C:\Users\niels\Documents\Elektrotechniek\Jaar 2\ECS\ECSL\software\STM32\STM32Basis\HAL\gemeenschappelijk\Third_Party\freertos-addons-1.1.0\c++\Source\cread_write_lock.cpp ****     if (WriteCount == 1) {
 897              	 .loc 2 167 9
 898 0022 7B68     	 ldr r3,[r7,#4]
 899 0024 1B69     	 ldr r3,[r3,#16]
 900              	 .loc 2 167 5
 901 0026 012B     	 cmp r3,#1
 902 0028 07D1     	 bne .L38
 168:C:\Users\niels\Documents\Elektrotechniek\Jaar 2\ECS\ECSL\software\STM32\STM32Basis\HAL\gemeenschappelijk\Third_Party\freertos-addons-1.1.0\c++\Source\cread_write_lock.cpp ****         xSemaphoreTake(BlockReadersLock, portMAX_DELAY);
 903              	 .loc 2 168 9
 904 002a 7B68     	 ldr r3,[r7,#4]
 905 002c 9869     	 ldr r0,[r3,#24]
 906 002e 0023     	 movs r3,#0
 907 0030 4FF0FF32 	 mov r2,#-1
 908 0034 0021     	 movs r1,#0
 909 0036 FFF7FEFF 	 bl xQueueGenericReceive
 910              	.L38:
 169:C:\Users\niels\Documents\Elektrotechniek\Jaar 2\ECS\ECSL\software\STM32\STM32Basis\HAL\gemeenschappelijk\Third_Party\freertos-addons-1.1.0\c++\Source\cread_write_lock.cpp ****     }
 170:C:\Users\niels\Documents\Elektrotechniek\Jaar 2\ECS\ECSL\software\STM32\STM32Basis\HAL\gemeenschappelijk\Third_Party\freertos-addons-1.1.0\c++\Source\cread_write_lock.cpp **** 
 171:C:\Users\niels\Documents\Elektrotechniek\Jaar 2\ECS\ECSL\software\STM32\STM32Basis\HAL\gemeenschappelijk\Third_Party\freertos-addons-1.1.0\c++\Source\cread_write_lock.cpp ****     xSemaphoreGive(WriteLock);
 911              	 .loc 2 171 5
 912 003a 7B68     	 ldr r3,[r7,#4]
 913 003c 5869     	 ldr r0,[r3,#20]
 914 003e 0023     	 movs r3,#0
 915 0040 0022     	 movs r2,#0
 916 0042 0021     	 movs r1,#0
 917 0044 FFF7FEFF 	 bl xQueueGenericSend
 172:C:\Users\niels\Documents\Elektrotechniek\Jaar 2\ECS\ECSL\software\STM32\STM32Basis\HAL\gemeenschappelijk\Third_Party\freertos-addons-1.1.0\c++\Source\cread_write_lock.cpp **** 
 173:C:\Users\niels\Documents\Elektrotechniek\Jaar 2\ECS\ECSL\software\STM32\STM32Basis\HAL\gemeenschappelijk\Third_Party\freertos-addons-1.1.0\c++\Source\cread_write_lock.cpp ****     xSemaphoreTake(ResourceLock, portMAX_DELAY);
 918              	 .loc 2 173 5
 919 0048 7B68     	 ldr r3,[r7,#4]
 920 004a D868     	 ldr r0,[r3,#12]
 921 004c 0023     	 movs r3,#0
 922 004e 4FF0FF32 	 mov r2,#-1
 923 0052 0021     	 movs r1,#0
ARM GAS   			page 25


 924 0054 FFF7FEFF 	 bl xQueueGenericReceive
 174:C:\Users\niels\Documents\Elektrotechniek\Jaar 2\ECS\ECSL\software\STM32\STM32Basis\HAL\gemeenschappelijk\Third_Party\freertos-addons-1.1.0\c++\Source\cread_write_lock.cpp **** }
 925              	 .loc 2 174 1
 926 0058 00BF     	 nop
 927 005a 0837     	 adds r7,r7,#8
 928              	 .cfi_def_cfa_offset 8
 929 005c BD46     	 mov sp,r7
 930              	 .cfi_def_cfa_register 13
 931              	 
 932 005e 80BD     	 pop {r7,pc}
 933              	 .cfi_endproc
 934              	.LFE995:
 935              	 .size _ZN12cpp_freertos25ReadWriteLockPreferWriter10WriterLockEv,.-_ZN12cpp_freertos25ReadWriteLockPreferWriter10WriterLockEv
 936              	 .section .text._ZN12cpp_freertos25ReadWriteLockPreferWriter12WriterUnlockEv,"ax",%progbits
 937              	 .align 1
 938              	 .global _ZN12cpp_freertos25ReadWriteLockPreferWriter12WriterUnlockEv
 939              	 .syntax unified
 940              	 .thumb
 941              	 .thumb_func
 942              	 .type _ZN12cpp_freertos25ReadWriteLockPreferWriter12WriterUnlockEv,%function
 943              	_ZN12cpp_freertos25ReadWriteLockPreferWriter12WriterUnlockEv:
 944              	.LFB996:
 175:C:\Users\niels\Documents\Elektrotechniek\Jaar 2\ECS\ECSL\software\STM32\STM32Basis\HAL\gemeenschappelijk\Third_Party\freertos-addons-1.1.0\c++\Source\cread_write_lock.cpp **** 
 176:C:\Users\niels\Documents\Elektrotechniek\Jaar 2\ECS\ECSL\software\STM32\STM32Basis\HAL\gemeenschappelijk\Third_Party\freertos-addons-1.1.0\c++\Source\cread_write_lock.cpp **** 
 177:C:\Users\niels\Documents\Elektrotechniek\Jaar 2\ECS\ECSL\software\STM32\STM32Basis\HAL\gemeenschappelijk\Third_Party\freertos-addons-1.1.0\c++\Source\cread_write_lock.cpp **** void ReadWriteLockPreferWriter::WriterUnlock()
 178:C:\Users\niels\Documents\Elektrotechniek\Jaar 2\ECS\ECSL\software\STM32\STM32Basis\HAL\gemeenschappelijk\Third_Party\freertos-addons-1.1.0\c++\Source\cread_write_lock.cpp **** {
 945              	 .loc 2 178 1
 946              	 .cfi_startproc
 947              	 
 948              	 
 949 0000 80B5     	 push {r7,lr}
 950              	 .cfi_def_cfa_offset 8
 951              	 .cfi_offset 7,-8
 952              	 .cfi_offset 14,-4
 953 0002 82B0     	 sub sp,sp,#8
 954              	 .cfi_def_cfa_offset 16
 955 0004 00AF     	 add r7,sp,#0
 956              	 .cfi_def_cfa_register 7
 957 0006 7860     	 str r0,[r7,#4]
 179:C:\Users\niels\Documents\Elektrotechniek\Jaar 2\ECS\ECSL\software\STM32\STM32Basis\HAL\gemeenschappelijk\Third_Party\freertos-addons-1.1.0\c++\Source\cread_write_lock.cpp ****     xSemaphoreGive(ResourceLock);
 958              	 .loc 2 179 5
 959 0008 7B68     	 ldr r3,[r7,#4]
 960 000a D868     	 ldr r0,[r3,#12]
 961 000c 0023     	 movs r3,#0
 962 000e 0022     	 movs r2,#0
 963 0010 0021     	 movs r1,#0
 964 0012 FFF7FEFF 	 bl xQueueGenericSend
 180:C:\Users\niels\Documents\Elektrotechniek\Jaar 2\ECS\ECSL\software\STM32\STM32Basis\HAL\gemeenschappelijk\Third_Party\freertos-addons-1.1.0\c++\Source\cread_write_lock.cpp **** 
 181:C:\Users\niels\Documents\Elektrotechniek\Jaar 2\ECS\ECSL\software\STM32\STM32Basis\HAL\gemeenschappelijk\Third_Party\freertos-addons-1.1.0\c++\Source\cread_write_lock.cpp ****     xSemaphoreTake(WriteLock, portMAX_DELAY);
 965              	 .loc 2 181 5
 966 0016 7B68     	 ldr r3,[r7,#4]
 967 0018 5869     	 ldr r0,[r3,#20]
 968 001a 0023     	 movs r3,#0
 969 001c 4FF0FF32 	 mov r2,#-1
 970 0020 0021     	 movs r1,#0
 971 0022 FFF7FEFF 	 bl xQueueGenericReceive
 182:C:\Users\niels\Documents\Elektrotechniek\Jaar 2\ECS\ECSL\software\STM32\STM32Basis\HAL\gemeenschappelijk\Third_Party\freertos-addons-1.1.0\c++\Source\cread_write_lock.cpp **** 
ARM GAS   			page 26


 183:C:\Users\niels\Documents\Elektrotechniek\Jaar 2\ECS\ECSL\software\STM32\STM32Basis\HAL\gemeenschappelijk\Third_Party\freertos-addons-1.1.0\c++\Source\cread_write_lock.cpp ****     WriteCount--;
 972              	 .loc 2 183 5
 973 0026 7B68     	 ldr r3,[r7,#4]
 974 0028 1B69     	 ldr r3,[r3,#16]
 975              	 .loc 2 183 15
 976 002a 5A1E     	 subs r2,r3,#1
 977 002c 7B68     	 ldr r3,[r7,#4]
 978 002e 1A61     	 str r2,[r3,#16]
 184:C:\Users\niels\Documents\Elektrotechniek\Jaar 2\ECS\ECSL\software\STM32\STM32Basis\HAL\gemeenschappelijk\Third_Party\freertos-addons-1.1.0\c++\Source\cread_write_lock.cpp ****     if (WriteCount == 0) {
 979              	 .loc 2 184 9
 980 0030 7B68     	 ldr r3,[r7,#4]
 981 0032 1B69     	 ldr r3,[r3,#16]
 982              	 .loc 2 184 5
 983 0034 002B     	 cmp r3,#0
 984 0036 06D1     	 bne .L40
 185:C:\Users\niels\Documents\Elektrotechniek\Jaar 2\ECS\ECSL\software\STM32\STM32Basis\HAL\gemeenschappelijk\Third_Party\freertos-addons-1.1.0\c++\Source\cread_write_lock.cpp ****         xSemaphoreGive(BlockReadersLock);
 985              	 .loc 2 185 9
 986 0038 7B68     	 ldr r3,[r7,#4]
 987 003a 9869     	 ldr r0,[r3,#24]
 988 003c 0023     	 movs r3,#0
 989 003e 0022     	 movs r2,#0
 990 0040 0021     	 movs r1,#0
 991 0042 FFF7FEFF 	 bl xQueueGenericSend
 992              	.L40:
 186:C:\Users\niels\Documents\Elektrotechniek\Jaar 2\ECS\ECSL\software\STM32\STM32Basis\HAL\gemeenschappelijk\Third_Party\freertos-addons-1.1.0\c++\Source\cread_write_lock.cpp ****     }
 187:C:\Users\niels\Documents\Elektrotechniek\Jaar 2\ECS\ECSL\software\STM32\STM32Basis\HAL\gemeenschappelijk\Third_Party\freertos-addons-1.1.0\c++\Source\cread_write_lock.cpp **** 
 188:C:\Users\niels\Documents\Elektrotechniek\Jaar 2\ECS\ECSL\software\STM32\STM32Basis\HAL\gemeenschappelijk\Third_Party\freertos-addons-1.1.0\c++\Source\cread_write_lock.cpp ****     xSemaphoreGive(WriteLock);
 993              	 .loc 2 188 5
 994 0046 7B68     	 ldr r3,[r7,#4]
 995 0048 5869     	 ldr r0,[r3,#20]
 996 004a 0023     	 movs r3,#0
 997 004c 0022     	 movs r2,#0
 998 004e 0021     	 movs r1,#0
 999 0050 FFF7FEFF 	 bl xQueueGenericSend
 189:C:\Users\niels\Documents\Elektrotechniek\Jaar 2\ECS\ECSL\software\STM32\STM32Basis\HAL\gemeenschappelijk\Third_Party\freertos-addons-1.1.0\c++\Source\cread_write_lock.cpp **** }
 1000              	 .loc 2 189 1
 1001 0054 00BF     	 nop
 1002 0056 0837     	 adds r7,r7,#8
 1003              	 .cfi_def_cfa_offset 8
 1004 0058 BD46     	 mov sp,r7
 1005              	 .cfi_def_cfa_register 13
 1006              	 
 1007 005a 80BD     	 pop {r7,pc}
 1008              	 .cfi_endproc
 1009              	.LFE996:
 1010              	 .size _ZN12cpp_freertos25ReadWriteLockPreferWriter12WriterUnlockEv,.-_ZN12cpp_freertos25ReadWriteLockPreferWriter12WriterUnlockEv
 1011              	 .global _ZTVN12cpp_freertos25ReadWriteLockPreferWriterE
 1012              	 .section .rodata._ZTVN12cpp_freertos25ReadWriteLockPreferWriterE,"a"
 1013              	 .align 2
 1014              	 .type _ZTVN12cpp_freertos25ReadWriteLockPreferWriterE,%object
 1015              	 .size _ZTVN12cpp_freertos25ReadWriteLockPreferWriterE,32
 1016              	_ZTVN12cpp_freertos25ReadWriteLockPreferWriterE:
 1017 0000 00000000 	 .word 0
 1018 0004 00000000 	 .word 0
 1019 0008 00000000 	 .word _ZN12cpp_freertos25ReadWriteLockPreferWriterD1Ev
 1020 000c 00000000 	 .word _ZN12cpp_freertos25ReadWriteLockPreferWriterD0Ev
 1021 0010 00000000 	 .word _ZN12cpp_freertos25ReadWriteLockPreferWriter10ReaderLockEv
ARM GAS   			page 27


 1022 0014 00000000 	 .word _ZN12cpp_freertos25ReadWriteLockPreferWriter12ReaderUnlockEv
 1023 0018 00000000 	 .word _ZN12cpp_freertos25ReadWriteLockPreferWriter10WriterLockEv
 1024 001c 00000000 	 .word _ZN12cpp_freertos25ReadWriteLockPreferWriter12WriterUnlockEv
 1025              	 .global _ZTVN12cpp_freertos25ReadWriteLockPreferReaderE
 1026              	 .section .rodata._ZTVN12cpp_freertos25ReadWriteLockPreferReaderE,"a"
 1027              	 .align 2
 1028              	 .type _ZTVN12cpp_freertos25ReadWriteLockPreferReaderE,%object
 1029              	 .size _ZTVN12cpp_freertos25ReadWriteLockPreferReaderE,32
 1030              	_ZTVN12cpp_freertos25ReadWriteLockPreferReaderE:
 1031 0000 00000000 	 .word 0
 1032 0004 00000000 	 .word 0
 1033 0008 00000000 	 .word _ZN12cpp_freertos25ReadWriteLockPreferReaderD1Ev
 1034 000c 00000000 	 .word _ZN12cpp_freertos25ReadWriteLockPreferReaderD0Ev
 1035 0010 00000000 	 .word _ZN12cpp_freertos25ReadWriteLockPreferReader10ReaderLockEv
 1036 0014 00000000 	 .word _ZN12cpp_freertos25ReadWriteLockPreferReader12ReaderUnlockEv
 1037 0018 00000000 	 .word _ZN12cpp_freertos25ReadWriteLockPreferReader10WriterLockEv
 1038 001c 00000000 	 .word _ZN12cpp_freertos25ReadWriteLockPreferReader12WriterUnlockEv
 1039              	 .section .text._ZN12cpp_freertos25ReadWriteLockPreferReaderD2Ev,"axG",%progbits,_ZN12cpp_freertos25ReadWriteLockPreferReaderD5Ev,comdat
 1040              	 .align 1
 1041              	 .weak _ZN12cpp_freertos25ReadWriteLockPreferReaderD2Ev
 1042              	 .syntax unified
 1043              	 .thumb
 1044              	 .thumb_func
 1045              	 .type _ZN12cpp_freertos25ReadWriteLockPreferReaderD2Ev,%function
 1046              	_ZN12cpp_freertos25ReadWriteLockPreferReaderD2Ev:
 1047              	.LFB1299:
 1048              	 .file 3 "C:/Users/niels/DOCUME~1/ELEKTR~1/JAAR2~1/ECS/ECSL/software/STM32/STM32B~1/HAL/GEMEEN~1/THIRD_~1/FREERT~1.0/C__~1/Source/include/read_write_lock.hpp"
   1:C:/Users/niels/DOCUME~1/ELEKTR~1/JAAR2~1/ECS/ECSL/software/STM32/STM32B~1/HAL/GEMEEN~1/THIRD_~1/FREERT~1.0/C__~1/Source/include\read_write_lock.hpp **** /****************************************************************************
   2:C:/Users/niels/DOCUME~1/ELEKTR~1/JAAR2~1/ECS/ECSL/software/STM32/STM32B~1/HAL/GEMEEN~1/THIRD_~1/FREERT~1.0/C__~1/Source/include\read_write_lock.hpp ****  *
   3:C:/Users/niels/DOCUME~1/ELEKTR~1/JAAR2~1/ECS/ECSL/software/STM32/STM32B~1/HAL/GEMEEN~1/THIRD_~1/FREERT~1.0/C__~1/Source/include\read_write_lock.hpp ****  *  Copyright (c) 2016, Michael Becker (michael.f.becker@gmail.com)
   4:C:/Users/niels/DOCUME~1/ELEKTR~1/JAAR2~1/ECS/ECSL/software/STM32/STM32B~1/HAL/GEMEEN~1/THIRD_~1/FREERT~1.0/C__~1/Source/include\read_write_lock.hpp ****  *
   5:C:/Users/niels/DOCUME~1/ELEKTR~1/JAAR2~1/ECS/ECSL/software/STM32/STM32B~1/HAL/GEMEEN~1/THIRD_~1/FREERT~1.0/C__~1/Source/include\read_write_lock.hpp ****  *  This file is part of the FreeRTOS C++ Wrappers project.
   6:C:/Users/niels/DOCUME~1/ELEKTR~1/JAAR2~1/ECS/ECSL/software/STM32/STM32B~1/HAL/GEMEEN~1/THIRD_~1/FREERT~1.0/C__~1/Source/include\read_write_lock.hpp ****  *
   7:C:/Users/niels/DOCUME~1/ELEKTR~1/JAAR2~1/ECS/ECSL/software/STM32/STM32B~1/HAL/GEMEEN~1/THIRD_~1/FREERT~1.0/C__~1/Source/include\read_write_lock.hpp ****  *  The FreeRTOS C++ Wrappers project is free software: you can redistribute
   8:C:/Users/niels/DOCUME~1/ELEKTR~1/JAAR2~1/ECS/ECSL/software/STM32/STM32B~1/HAL/GEMEEN~1/THIRD_~1/FREERT~1.0/C__~1/Source/include\read_write_lock.hpp ****  *  it and/or modify it under the terms of the GNU General Public License as
   9:C:/Users/niels/DOCUME~1/ELEKTR~1/JAAR2~1/ECS/ECSL/software/STM32/STM32B~1/HAL/GEMEEN~1/THIRD_~1/FREERT~1.0/C__~1/Source/include\read_write_lock.hpp ****  *  published by the Free Software Foundation, either version 2
  10:C:/Users/niels/DOCUME~1/ELEKTR~1/JAAR2~1/ECS/ECSL/software/STM32/STM32B~1/HAL/GEMEEN~1/THIRD_~1/FREERT~1.0/C__~1/Source/include\read_write_lock.hpp ****  *  of the License, or (at your option) any later version.
  11:C:/Users/niels/DOCUME~1/ELEKTR~1/JAAR2~1/ECS/ECSL/software/STM32/STM32B~1/HAL/GEMEEN~1/THIRD_~1/FREERT~1.0/C__~1/Source/include\read_write_lock.hpp ****  *
  12:C:/Users/niels/DOCUME~1/ELEKTR~1/JAAR2~1/ECS/ECSL/software/STM32/STM32B~1/HAL/GEMEEN~1/THIRD_~1/FREERT~1.0/C__~1/Source/include\read_write_lock.hpp ****  *  The FreeRTOS C++ Wrappers project is distributed in the hope that it will
  13:C:/Users/niels/DOCUME~1/ELEKTR~1/JAAR2~1/ECS/ECSL/software/STM32/STM32B~1/HAL/GEMEEN~1/THIRD_~1/FREERT~1.0/C__~1/Source/include\read_write_lock.hpp ****  *  be useful, but WITHOUT ANY WARRANTY; without even the implied warranty of
  14:C:/Users/niels/DOCUME~1/ELEKTR~1/JAAR2~1/ECS/ECSL/software/STM32/STM32B~1/HAL/GEMEEN~1/THIRD_~1/FREERT~1.0/C__~1/Source/include\read_write_lock.hpp ****  *  MERCHANTABILITY or FITNESS FOR A PARTICULAR PURPOSE.  See the
  15:C:/Users/niels/DOCUME~1/ELEKTR~1/JAAR2~1/ECS/ECSL/software/STM32/STM32B~1/HAL/GEMEEN~1/THIRD_~1/FREERT~1.0/C__~1/Source/include\read_write_lock.hpp ****  *  GNU General Public License for more details.
  16:C:/Users/niels/DOCUME~1/ELEKTR~1/JAAR2~1/ECS/ECSL/software/STM32/STM32B~1/HAL/GEMEEN~1/THIRD_~1/FREERT~1.0/C__~1/Source/include\read_write_lock.hpp ****  *
  17:C:/Users/niels/DOCUME~1/ELEKTR~1/JAAR2~1/ECS/ECSL/software/STM32/STM32B~1/HAL/GEMEEN~1/THIRD_~1/FREERT~1.0/C__~1/Source/include\read_write_lock.hpp ****  *  You should have received a copy of the GNU General Public License
  18:C:/Users/niels/DOCUME~1/ELEKTR~1/JAAR2~1/ECS/ECSL/software/STM32/STM32B~1/HAL/GEMEEN~1/THIRD_~1/FREERT~1.0/C__~1/Source/include\read_write_lock.hpp ****  *  along with the FreeRTOS C++ Wrappers project.
  19:C:/Users/niels/DOCUME~1/ELEKTR~1/JAAR2~1/ECS/ECSL/software/STM32/STM32B~1/HAL/GEMEEN~1/THIRD_~1/FREERT~1.0/C__~1/Source/include\read_write_lock.hpp ****  *  If not, see <http://www.gnu.org/licenses/>.
  20:C:/Users/niels/DOCUME~1/ELEKTR~1/JAAR2~1/ECS/ECSL/software/STM32/STM32B~1/HAL/GEMEEN~1/THIRD_~1/FREERT~1.0/C__~1/Source/include\read_write_lock.hpp ****  *
  21:C:/Users/niels/DOCUME~1/ELEKTR~1/JAAR2~1/ECS/ECSL/software/STM32/STM32B~1/HAL/GEMEEN~1/THIRD_~1/FREERT~1.0/C__~1/Source/include\read_write_lock.hpp ****  ***************************************************************************/
  22:C:/Users/niels/DOCUME~1/ELEKTR~1/JAAR2~1/ECS/ECSL/software/STM32/STM32B~1/HAL/GEMEEN~1/THIRD_~1/FREERT~1.0/C__~1/Source/include\read_write_lock.hpp **** #ifndef READ_WRITE_LOCK_HPP_
  23:C:/Users/niels/DOCUME~1/ELEKTR~1/JAAR2~1/ECS/ECSL/software/STM32/STM32B~1/HAL/GEMEEN~1/THIRD_~1/FREERT~1.0/C__~1/Source/include\read_write_lock.hpp **** #define READ_WRITE_LOCK_HPP_
  24:C:/Users/niels/DOCUME~1/ELEKTR~1/JAAR2~1/ECS/ECSL/software/STM32/STM32B~1/HAL/GEMEEN~1/THIRD_~1/FREERT~1.0/C__~1/Source/include\read_write_lock.hpp **** 
  25:C:/Users/niels/DOCUME~1/ELEKTR~1/JAAR2~1/ECS/ECSL/software/STM32/STM32B~1/HAL/GEMEEN~1/THIRD_~1/FREERT~1.0/C__~1/Source/include\read_write_lock.hpp **** 
  26:C:/Users/niels/DOCUME~1/ELEKTR~1/JAAR2~1/ECS/ECSL/software/STM32/STM32B~1/HAL/GEMEEN~1/THIRD_~1/FREERT~1.0/C__~1/Source/include\read_write_lock.hpp **** #include <exception>
  27:C:/Users/niels/DOCUME~1/ELEKTR~1/JAAR2~1/ECS/ECSL/software/STM32/STM32B~1/HAL/GEMEEN~1/THIRD_~1/FREERT~1.0/C__~1/Source/include\read_write_lock.hpp **** #include <string>
  28:C:/Users/niels/DOCUME~1/ELEKTR~1/JAAR2~1/ECS/ECSL/software/STM32/STM32B~1/HAL/GEMEEN~1/THIRD_~1/FREERT~1.0/C__~1/Source/include\read_write_lock.hpp **** #include "FreeRTOS.h"
  29:C:/Users/niels/DOCUME~1/ELEKTR~1/JAAR2~1/ECS/ECSL/software/STM32/STM32B~1/HAL/GEMEEN~1/THIRD_~1/FREERT~1.0/C__~1/Source/include\read_write_lock.hpp **** #include "semphr.h"
  30:C:/Users/niels/DOCUME~1/ELEKTR~1/JAAR2~1/ECS/ECSL/software/STM32/STM32B~1/HAL/GEMEEN~1/THIRD_~1/FREERT~1.0/C__~1/Source/include\read_write_lock.hpp **** // TODO - explore replacing sprintf with stringstream
ARM GAS   			page 28


  31:C:/Users/niels/DOCUME~1/ELEKTR~1/JAAR2~1/ECS/ECSL/software/STM32/STM32B~1/HAL/GEMEEN~1/THIRD_~1/FREERT~1.0/C__~1/Source/include\read_write_lock.hpp **** #include <cstdio>
  32:C:/Users/niels/DOCUME~1/ELEKTR~1/JAAR2~1/ECS/ECSL/software/STM32/STM32B~1/HAL/GEMEEN~1/THIRD_~1/FREERT~1.0/C__~1/Source/include\read_write_lock.hpp **** 
  33:C:/Users/niels/DOCUME~1/ELEKTR~1/JAAR2~1/ECS/ECSL/software/STM32/STM32B~1/HAL/GEMEEN~1/THIRD_~1/FREERT~1.0/C__~1/Source/include\read_write_lock.hpp **** 
  34:C:/Users/niels/DOCUME~1/ELEKTR~1/JAAR2~1/ECS/ECSL/software/STM32/STM32B~1/HAL/GEMEEN~1/THIRD_~1/FREERT~1.0/C__~1/Source/include\read_write_lock.hpp **** namespace cpp_freertos {
  35:C:/Users/niels/DOCUME~1/ELEKTR~1/JAAR2~1/ECS/ECSL/software/STM32/STM32B~1/HAL/GEMEEN~1/THIRD_~1/FREERT~1.0/C__~1/Source/include\read_write_lock.hpp **** 
  36:C:/Users/niels/DOCUME~1/ELEKTR~1/JAAR2~1/ECS/ECSL/software/STM32/STM32B~1/HAL/GEMEEN~1/THIRD_~1/FREERT~1.0/C__~1/Source/include\read_write_lock.hpp **** 
  37:C:/Users/niels/DOCUME~1/ELEKTR~1/JAAR2~1/ECS/ECSL/software/STM32/STM32B~1/HAL/GEMEEN~1/THIRD_~1/FREERT~1.0/C__~1/Source/include\read_write_lock.hpp **** /**
  38:C:/Users/niels/DOCUME~1/ELEKTR~1/JAAR2~1/ECS/ECSL/software/STM32/STM32B~1/HAL/GEMEEN~1/THIRD_~1/FREERT~1.0/C__~1/Source/include\read_write_lock.hpp ****  *  This is the exception that is thrown if a ReadWriteLock constructor fails.
  39:C:/Users/niels/DOCUME~1/ELEKTR~1/JAAR2~1/ECS/ECSL/software/STM32/STM32B~1/HAL/GEMEEN~1/THIRD_~1/FREERT~1.0/C__~1/Source/include\read_write_lock.hpp ****  */
  40:C:/Users/niels/DOCUME~1/ELEKTR~1/JAAR2~1/ECS/ECSL/software/STM32/STM32B~1/HAL/GEMEEN~1/THIRD_~1/FREERT~1.0/C__~1/Source/include\read_write_lock.hpp **** class ReadWriteLockCreateException : public std::exception {
  41:C:/Users/niels/DOCUME~1/ELEKTR~1/JAAR2~1/ECS/ECSL/software/STM32/STM32B~1/HAL/GEMEEN~1/THIRD_~1/FREERT~1.0/C__~1/Source/include\read_write_lock.hpp **** 
  42:C:/Users/niels/DOCUME~1/ELEKTR~1/JAAR2~1/ECS/ECSL/software/STM32/STM32B~1/HAL/GEMEEN~1/THIRD_~1/FREERT~1.0/C__~1/Source/include\read_write_lock.hpp ****     public:
  43:C:/Users/niels/DOCUME~1/ELEKTR~1/JAAR2~1/ECS/ECSL/software/STM32/STM32B~1/HAL/GEMEEN~1/THIRD_~1/FREERT~1.0/C__~1/Source/include\read_write_lock.hpp ****         /**
  44:C:/Users/niels/DOCUME~1/ELEKTR~1/JAAR2~1/ECS/ECSL/software/STM32/STM32B~1/HAL/GEMEEN~1/THIRD_~1/FREERT~1.0/C__~1/Source/include\read_write_lock.hpp ****          *  Create the exception.
  45:C:/Users/niels/DOCUME~1/ELEKTR~1/JAAR2~1/ECS/ECSL/software/STM32/STM32B~1/HAL/GEMEEN~1/THIRD_~1/FREERT~1.0/C__~1/Source/include\read_write_lock.hpp ****          */
  46:C:/Users/niels/DOCUME~1/ELEKTR~1/JAAR2~1/ECS/ECSL/software/STM32/STM32B~1/HAL/GEMEEN~1/THIRD_~1/FREERT~1.0/C__~1/Source/include\read_write_lock.hpp ****         ReadWriteLockCreateException()
  47:C:/Users/niels/DOCUME~1/ELEKTR~1/JAAR2~1/ECS/ECSL/software/STM32/STM32B~1/HAL/GEMEEN~1/THIRD_~1/FREERT~1.0/C__~1/Source/include\read_write_lock.hpp ****         {
  48:C:/Users/niels/DOCUME~1/ELEKTR~1/JAAR2~1/ECS/ECSL/software/STM32/STM32B~1/HAL/GEMEEN~1/THIRD_~1/FREERT~1.0/C__~1/Source/include\read_write_lock.hpp ****             sprintf(errorString, "ReadWriteLock Constructor Failed");
  49:C:/Users/niels/DOCUME~1/ELEKTR~1/JAAR2~1/ECS/ECSL/software/STM32/STM32B~1/HAL/GEMEEN~1/THIRD_~1/FREERT~1.0/C__~1/Source/include\read_write_lock.hpp ****         }
  50:C:/Users/niels/DOCUME~1/ELEKTR~1/JAAR2~1/ECS/ECSL/software/STM32/STM32B~1/HAL/GEMEEN~1/THIRD_~1/FREERT~1.0/C__~1/Source/include\read_write_lock.hpp **** 
  51:C:/Users/niels/DOCUME~1/ELEKTR~1/JAAR2~1/ECS/ECSL/software/STM32/STM32B~1/HAL/GEMEEN~1/THIRD_~1/FREERT~1.0/C__~1/Source/include\read_write_lock.hpp ****         /**
  52:C:/Users/niels/DOCUME~1/ELEKTR~1/JAAR2~1/ECS/ECSL/software/STM32/STM32B~1/HAL/GEMEEN~1/THIRD_~1/FREERT~1.0/C__~1/Source/include\read_write_lock.hpp ****          *  Get what happened as a string.
  53:C:/Users/niels/DOCUME~1/ELEKTR~1/JAAR2~1/ECS/ECSL/software/STM32/STM32B~1/HAL/GEMEEN~1/THIRD_~1/FREERT~1.0/C__~1/Source/include\read_write_lock.hpp ****          *  We are overriding the base implementation here.
  54:C:/Users/niels/DOCUME~1/ELEKTR~1/JAAR2~1/ECS/ECSL/software/STM32/STM32B~1/HAL/GEMEEN~1/THIRD_~1/FREERT~1.0/C__~1/Source/include\read_write_lock.hpp ****          */
  55:C:/Users/niels/DOCUME~1/ELEKTR~1/JAAR2~1/ECS/ECSL/software/STM32/STM32B~1/HAL/GEMEEN~1/THIRD_~1/FREERT~1.0/C__~1/Source/include\read_write_lock.hpp ****         virtual const char *what() const throw()
  56:C:/Users/niels/DOCUME~1/ELEKTR~1/JAAR2~1/ECS/ECSL/software/STM32/STM32B~1/HAL/GEMEEN~1/THIRD_~1/FREERT~1.0/C__~1/Source/include\read_write_lock.hpp ****         {
  57:C:/Users/niels/DOCUME~1/ELEKTR~1/JAAR2~1/ECS/ECSL/software/STM32/STM32B~1/HAL/GEMEEN~1/THIRD_~1/FREERT~1.0/C__~1/Source/include\read_write_lock.hpp ****             return errorString;
  58:C:/Users/niels/DOCUME~1/ELEKTR~1/JAAR2~1/ECS/ECSL/software/STM32/STM32B~1/HAL/GEMEEN~1/THIRD_~1/FREERT~1.0/C__~1/Source/include\read_write_lock.hpp ****         }
  59:C:/Users/niels/DOCUME~1/ELEKTR~1/JAAR2~1/ECS/ECSL/software/STM32/STM32B~1/HAL/GEMEEN~1/THIRD_~1/FREERT~1.0/C__~1/Source/include\read_write_lock.hpp **** 
  60:C:/Users/niels/DOCUME~1/ELEKTR~1/JAAR2~1/ECS/ECSL/software/STM32/STM32B~1/HAL/GEMEEN~1/THIRD_~1/FREERT~1.0/C__~1/Source/include\read_write_lock.hpp ****     private:
  61:C:/Users/niels/DOCUME~1/ELEKTR~1/JAAR2~1/ECS/ECSL/software/STM32/STM32B~1/HAL/GEMEEN~1/THIRD_~1/FREERT~1.0/C__~1/Source/include\read_write_lock.hpp ****         /**
  62:C:/Users/niels/DOCUME~1/ELEKTR~1/JAAR2~1/ECS/ECSL/software/STM32/STM32B~1/HAL/GEMEEN~1/THIRD_~1/FREERT~1.0/C__~1/Source/include\read_write_lock.hpp ****          *  A text string representing what failed.
  63:C:/Users/niels/DOCUME~1/ELEKTR~1/JAAR2~1/ECS/ECSL/software/STM32/STM32B~1/HAL/GEMEEN~1/THIRD_~1/FREERT~1.0/C__~1/Source/include\read_write_lock.hpp ****          */
  64:C:/Users/niels/DOCUME~1/ELEKTR~1/JAAR2~1/ECS/ECSL/software/STM32/STM32B~1/HAL/GEMEEN~1/THIRD_~1/FREERT~1.0/C__~1/Source/include\read_write_lock.hpp ****         char errorString[80];
  65:C:/Users/niels/DOCUME~1/ELEKTR~1/JAAR2~1/ECS/ECSL/software/STM32/STM32B~1/HAL/GEMEEN~1/THIRD_~1/FREERT~1.0/C__~1/Source/include\read_write_lock.hpp **** };
  66:C:/Users/niels/DOCUME~1/ELEKTR~1/JAAR2~1/ECS/ECSL/software/STM32/STM32B~1/HAL/GEMEEN~1/THIRD_~1/FREERT~1.0/C__~1/Source/include\read_write_lock.hpp **** 
  67:C:/Users/niels/DOCUME~1/ELEKTR~1/JAAR2~1/ECS/ECSL/software/STM32/STM32B~1/HAL/GEMEEN~1/THIRD_~1/FREERT~1.0/C__~1/Source/include\read_write_lock.hpp **** 
  68:C:/Users/niels/DOCUME~1/ELEKTR~1/JAAR2~1/ECS/ECSL/software/STM32/STM32B~1/HAL/GEMEEN~1/THIRD_~1/FREERT~1.0/C__~1/Source/include\read_write_lock.hpp **** /**
  69:C:/Users/niels/DOCUME~1/ELEKTR~1/JAAR2~1/ECS/ECSL/software/STM32/STM32B~1/HAL/GEMEEN~1/THIRD_~1/FREERT~1.0/C__~1/Source/include\read_write_lock.hpp ****  *  Abstract base class encapsulating a Reader/Writer lock.
  70:C:/Users/niels/DOCUME~1/ELEKTR~1/JAAR2~1/ECS/ECSL/software/STM32/STM32B~1/HAL/GEMEEN~1/THIRD_~1/FREERT~1.0/C__~1/Source/include\read_write_lock.hpp ****  *
  71:C:/Users/niels/DOCUME~1/ELEKTR~1/JAAR2~1/ECS/ECSL/software/STM32/STM32B~1/HAL/GEMEEN~1/THIRD_~1/FREERT~1.0/C__~1/Source/include\read_write_lock.hpp ****  *  These locks are based on mutexs and cannot be used in any way from
  72:C:/Users/niels/DOCUME~1/ELEKTR~1/JAAR2~1/ECS/ECSL/software/STM32/STM32B~1/HAL/GEMEEN~1/THIRD_~1/FREERT~1.0/C__~1/Source/include\read_write_lock.hpp ****  *  ISR context. Likewise, these locks block indefinitely.
  73:C:/Users/niels/DOCUME~1/ELEKTR~1/JAAR2~1/ECS/ECSL/software/STM32/STM32B~1/HAL/GEMEEN~1/THIRD_~1/FREERT~1.0/C__~1/Source/include\read_write_lock.hpp ****  *
  74:C:/Users/niels/DOCUME~1/ELEKTR~1/JAAR2~1/ECS/ECSL/software/STM32/STM32B~1/HAL/GEMEEN~1/THIRD_~1/FREERT~1.0/C__~1/Source/include\read_write_lock.hpp ****  *  @note It is expected that an application will instantiate one of the
  75:C:/Users/niels/DOCUME~1/ELEKTR~1/JAAR2~1/ECS/ECSL/software/STM32/STM32B~1/HAL/GEMEEN~1/THIRD_~1/FREERT~1.0/C__~1/Source/include\read_write_lock.hpp ****  *        derived classes and use that object for synchronization. It is
  76:C:/Users/niels/DOCUME~1/ELEKTR~1/JAAR2~1/ECS/ECSL/software/STM32/STM32B~1/HAL/GEMEEN~1/THIRD_~1/FREERT~1.0/C__~1/Source/include\read_write_lock.hpp ****  *        not expected that a user or application will derive from these
  77:C:/Users/niels/DOCUME~1/ELEKTR~1/JAAR2~1/ECS/ECSL/software/STM32/STM32B~1/HAL/GEMEEN~1/THIRD_~1/FREERT~1.0/C__~1/Source/include\read_write_lock.hpp ****  *        classes.
  78:C:/Users/niels/DOCUME~1/ELEKTR~1/JAAR2~1/ECS/ECSL/software/STM32/STM32B~1/HAL/GEMEEN~1/THIRD_~1/FREERT~1.0/C__~1/Source/include\read_write_lock.hpp ****  */
  79:C:/Users/niels/DOCUME~1/ELEKTR~1/JAAR2~1/ECS/ECSL/software/STM32/STM32B~1/HAL/GEMEEN~1/THIRD_~1/FREERT~1.0/C__~1/Source/include\read_write_lock.hpp **** class ReadWriteLock {
  80:C:/Users/niels/DOCUME~1/ELEKTR~1/JAAR2~1/ECS/ECSL/software/STM32/STM32B~1/HAL/GEMEEN~1/THIRD_~1/FREERT~1.0/C__~1/Source/include\read_write_lock.hpp **** 
  81:C:/Users/niels/DOCUME~1/ELEKTR~1/JAAR2~1/ECS/ECSL/software/STM32/STM32B~1/HAL/GEMEEN~1/THIRD_~1/FREERT~1.0/C__~1/Source/include\read_write_lock.hpp ****     /////////////////////////////////////////////////////////////////////////
  82:C:/Users/niels/DOCUME~1/ELEKTR~1/JAAR2~1/ECS/ECSL/software/STM32/STM32B~1/HAL/GEMEEN~1/THIRD_~1/FREERT~1.0/C__~1/Source/include\read_write_lock.hpp ****     //
  83:C:/Users/niels/DOCUME~1/ELEKTR~1/JAAR2~1/ECS/ECSL/software/STM32/STM32B~1/HAL/GEMEEN~1/THIRD_~1/FREERT~1.0/C__~1/Source/include\read_write_lock.hpp ****     //  Public API
  84:C:/Users/niels/DOCUME~1/ELEKTR~1/JAAR2~1/ECS/ECSL/software/STM32/STM32B~1/HAL/GEMEEN~1/THIRD_~1/FREERT~1.0/C__~1/Source/include\read_write_lock.hpp ****     //
  85:C:/Users/niels/DOCUME~1/ELEKTR~1/JAAR2~1/ECS/ECSL/software/STM32/STM32B~1/HAL/GEMEEN~1/THIRD_~1/FREERT~1.0/C__~1/Source/include\read_write_lock.hpp ****     /////////////////////////////////////////////////////////////////////////
  86:C:/Users/niels/DOCUME~1/ELEKTR~1/JAAR2~1/ECS/ECSL/software/STM32/STM32B~1/HAL/GEMEEN~1/THIRD_~1/FREERT~1.0/C__~1/Source/include\read_write_lock.hpp ****     public:
  87:C:/Users/niels/DOCUME~1/ELEKTR~1/JAAR2~1/ECS/ECSL/software/STM32/STM32B~1/HAL/GEMEEN~1/THIRD_~1/FREERT~1.0/C__~1/Source/include\read_write_lock.hpp ****         /**
ARM GAS   			page 29


  88:C:/Users/niels/DOCUME~1/ELEKTR~1/JAAR2~1/ECS/ECSL/software/STM32/STM32B~1/HAL/GEMEEN~1/THIRD_~1/FREERT~1.0/C__~1/Source/include\read_write_lock.hpp ****          *  Constructor
  89:C:/Users/niels/DOCUME~1/ELEKTR~1/JAAR2~1/ECS/ECSL/software/STM32/STM32B~1/HAL/GEMEEN~1/THIRD_~1/FREERT~1.0/C__~1/Source/include\read_write_lock.hpp ****          *
  90:C:/Users/niels/DOCUME~1/ELEKTR~1/JAAR2~1/ECS/ECSL/software/STM32/STM32B~1/HAL/GEMEEN~1/THIRD_~1/FREERT~1.0/C__~1/Source/include\read_write_lock.hpp ****          *  @throws ReadWriteLockCreateException on failure.
  91:C:/Users/niels/DOCUME~1/ELEKTR~1/JAAR2~1/ECS/ECSL/software/STM32/STM32B~1/HAL/GEMEEN~1/THIRD_~1/FREERT~1.0/C__~1/Source/include\read_write_lock.hpp ****          */
  92:C:/Users/niels/DOCUME~1/ELEKTR~1/JAAR2~1/ECS/ECSL/software/STM32/STM32B~1/HAL/GEMEEN~1/THIRD_~1/FREERT~1.0/C__~1/Source/include\read_write_lock.hpp ****         ReadWriteLock();
  93:C:/Users/niels/DOCUME~1/ELEKTR~1/JAAR2~1/ECS/ECSL/software/STM32/STM32B~1/HAL/GEMEEN~1/THIRD_~1/FREERT~1.0/C__~1/Source/include\read_write_lock.hpp **** 
  94:C:/Users/niels/DOCUME~1/ELEKTR~1/JAAR2~1/ECS/ECSL/software/STM32/STM32B~1/HAL/GEMEEN~1/THIRD_~1/FREERT~1.0/C__~1/Source/include\read_write_lock.hpp ****         /**
  95:C:/Users/niels/DOCUME~1/ELEKTR~1/JAAR2~1/ECS/ECSL/software/STM32/STM32B~1/HAL/GEMEEN~1/THIRD_~1/FREERT~1.0/C__~1/Source/include\read_write_lock.hpp ****          *  Destructor
  96:C:/Users/niels/DOCUME~1/ELEKTR~1/JAAR2~1/ECS/ECSL/software/STM32/STM32B~1/HAL/GEMEEN~1/THIRD_~1/FREERT~1.0/C__~1/Source/include\read_write_lock.hpp ****          */
  97:C:/Users/niels/DOCUME~1/ELEKTR~1/JAAR2~1/ECS/ECSL/software/STM32/STM32B~1/HAL/GEMEEN~1/THIRD_~1/FREERT~1.0/C__~1/Source/include\read_write_lock.hpp ****         virtual ~ReadWriteLock();
  98:C:/Users/niels/DOCUME~1/ELEKTR~1/JAAR2~1/ECS/ECSL/software/STM32/STM32B~1/HAL/GEMEEN~1/THIRD_~1/FREERT~1.0/C__~1/Source/include\read_write_lock.hpp **** 
  99:C:/Users/niels/DOCUME~1/ELEKTR~1/JAAR2~1/ECS/ECSL/software/STM32/STM32B~1/HAL/GEMEEN~1/THIRD_~1/FREERT~1.0/C__~1/Source/include\read_write_lock.hpp ****         /**
 100:C:/Users/niels/DOCUME~1/ELEKTR~1/JAAR2~1/ECS/ECSL/software/STM32/STM32B~1/HAL/GEMEEN~1/THIRD_~1/FREERT~1.0/C__~1/Source/include\read_write_lock.hpp ****          *  Take the lock as a Reader.
 101:C:/Users/niels/DOCUME~1/ELEKTR~1/JAAR2~1/ECS/ECSL/software/STM32/STM32B~1/HAL/GEMEEN~1/THIRD_~1/FREERT~1.0/C__~1/Source/include\read_write_lock.hpp ****          *  This allows multiple reader access.
 102:C:/Users/niels/DOCUME~1/ELEKTR~1/JAAR2~1/ECS/ECSL/software/STM32/STM32B~1/HAL/GEMEEN~1/THIRD_~1/FREERT~1.0/C__~1/Source/include\read_write_lock.hpp ****          */
 103:C:/Users/niels/DOCUME~1/ELEKTR~1/JAAR2~1/ECS/ECSL/software/STM32/STM32B~1/HAL/GEMEEN~1/THIRD_~1/FREERT~1.0/C__~1/Source/include\read_write_lock.hpp ****         virtual void ReaderLock() = 0;
 104:C:/Users/niels/DOCUME~1/ELEKTR~1/JAAR2~1/ECS/ECSL/software/STM32/STM32B~1/HAL/GEMEEN~1/THIRD_~1/FREERT~1.0/C__~1/Source/include\read_write_lock.hpp **** 
 105:C:/Users/niels/DOCUME~1/ELEKTR~1/JAAR2~1/ECS/ECSL/software/STM32/STM32B~1/HAL/GEMEEN~1/THIRD_~1/FREERT~1.0/C__~1/Source/include\read_write_lock.hpp ****         /**
 106:C:/Users/niels/DOCUME~1/ELEKTR~1/JAAR2~1/ECS/ECSL/software/STM32/STM32B~1/HAL/GEMEEN~1/THIRD_~1/FREERT~1.0/C__~1/Source/include\read_write_lock.hpp ****          *  Unlock the Reader.
 107:C:/Users/niels/DOCUME~1/ELEKTR~1/JAAR2~1/ECS/ECSL/software/STM32/STM32B~1/HAL/GEMEEN~1/THIRD_~1/FREERT~1.0/C__~1/Source/include\read_write_lock.hpp ****          */
 108:C:/Users/niels/DOCUME~1/ELEKTR~1/JAAR2~1/ECS/ECSL/software/STM32/STM32B~1/HAL/GEMEEN~1/THIRD_~1/FREERT~1.0/C__~1/Source/include\read_write_lock.hpp ****         virtual void ReaderUnlock() = 0;
 109:C:/Users/niels/DOCUME~1/ELEKTR~1/JAAR2~1/ECS/ECSL/software/STM32/STM32B~1/HAL/GEMEEN~1/THIRD_~1/FREERT~1.0/C__~1/Source/include\read_write_lock.hpp **** 
 110:C:/Users/niels/DOCUME~1/ELEKTR~1/JAAR2~1/ECS/ECSL/software/STM32/STM32B~1/HAL/GEMEEN~1/THIRD_~1/FREERT~1.0/C__~1/Source/include\read_write_lock.hpp ****         /**
 111:C:/Users/niels/DOCUME~1/ELEKTR~1/JAAR2~1/ECS/ECSL/software/STM32/STM32B~1/HAL/GEMEEN~1/THIRD_~1/FREERT~1.0/C__~1/Source/include\read_write_lock.hpp ****          *  Take the lock as a Writer.
 112:C:/Users/niels/DOCUME~1/ELEKTR~1/JAAR2~1/ECS/ECSL/software/STM32/STM32B~1/HAL/GEMEEN~1/THIRD_~1/FREERT~1.0/C__~1/Source/include\read_write_lock.hpp ****          *  This allows only one thread access.
 113:C:/Users/niels/DOCUME~1/ELEKTR~1/JAAR2~1/ECS/ECSL/software/STM32/STM32B~1/HAL/GEMEEN~1/THIRD_~1/FREERT~1.0/C__~1/Source/include\read_write_lock.hpp ****          */
 114:C:/Users/niels/DOCUME~1/ELEKTR~1/JAAR2~1/ECS/ECSL/software/STM32/STM32B~1/HAL/GEMEEN~1/THIRD_~1/FREERT~1.0/C__~1/Source/include\read_write_lock.hpp ****         virtual void WriterLock() = 0;
 115:C:/Users/niels/DOCUME~1/ELEKTR~1/JAAR2~1/ECS/ECSL/software/STM32/STM32B~1/HAL/GEMEEN~1/THIRD_~1/FREERT~1.0/C__~1/Source/include\read_write_lock.hpp **** 
 116:C:/Users/niels/DOCUME~1/ELEKTR~1/JAAR2~1/ECS/ECSL/software/STM32/STM32B~1/HAL/GEMEEN~1/THIRD_~1/FREERT~1.0/C__~1/Source/include\read_write_lock.hpp ****         /**
 117:C:/Users/niels/DOCUME~1/ELEKTR~1/JAAR2~1/ECS/ECSL/software/STM32/STM32B~1/HAL/GEMEEN~1/THIRD_~1/FREERT~1.0/C__~1/Source/include\read_write_lock.hpp ****          *  Unlock the Writer.
 118:C:/Users/niels/DOCUME~1/ELEKTR~1/JAAR2~1/ECS/ECSL/software/STM32/STM32B~1/HAL/GEMEEN~1/THIRD_~1/FREERT~1.0/C__~1/Source/include\read_write_lock.hpp ****          */
 119:C:/Users/niels/DOCUME~1/ELEKTR~1/JAAR2~1/ECS/ECSL/software/STM32/STM32B~1/HAL/GEMEEN~1/THIRD_~1/FREERT~1.0/C__~1/Source/include\read_write_lock.hpp ****         virtual void WriterUnlock() = 0;
 120:C:/Users/niels/DOCUME~1/ELEKTR~1/JAAR2~1/ECS/ECSL/software/STM32/STM32B~1/HAL/GEMEEN~1/THIRD_~1/FREERT~1.0/C__~1/Source/include\read_write_lock.hpp **** 
 121:C:/Users/niels/DOCUME~1/ELEKTR~1/JAAR2~1/ECS/ECSL/software/STM32/STM32B~1/HAL/GEMEEN~1/THIRD_~1/FREERT~1.0/C__~1/Source/include\read_write_lock.hpp ****     /////////////////////////////////////////////////////////////////////////
 122:C:/Users/niels/DOCUME~1/ELEKTR~1/JAAR2~1/ECS/ECSL/software/STM32/STM32B~1/HAL/GEMEEN~1/THIRD_~1/FREERT~1.0/C__~1/Source/include\read_write_lock.hpp ****     //
 123:C:/Users/niels/DOCUME~1/ELEKTR~1/JAAR2~1/ECS/ECSL/software/STM32/STM32B~1/HAL/GEMEEN~1/THIRD_~1/FREERT~1.0/C__~1/Source/include\read_write_lock.hpp ****     //  Protected API
 124:C:/Users/niels/DOCUME~1/ELEKTR~1/JAAR2~1/ECS/ECSL/software/STM32/STM32B~1/HAL/GEMEEN~1/THIRD_~1/FREERT~1.0/C__~1/Source/include\read_write_lock.hpp ****     //  Not intended for use by application code.
 125:C:/Users/niels/DOCUME~1/ELEKTR~1/JAAR2~1/ECS/ECSL/software/STM32/STM32B~1/HAL/GEMEEN~1/THIRD_~1/FREERT~1.0/C__~1/Source/include\read_write_lock.hpp ****     //
 126:C:/Users/niels/DOCUME~1/ELEKTR~1/JAAR2~1/ECS/ECSL/software/STM32/STM32B~1/HAL/GEMEEN~1/THIRD_~1/FREERT~1.0/C__~1/Source/include\read_write_lock.hpp ****     /////////////////////////////////////////////////////////////////////////
 127:C:/Users/niels/DOCUME~1/ELEKTR~1/JAAR2~1/ECS/ECSL/software/STM32/STM32B~1/HAL/GEMEEN~1/THIRD_~1/FREERT~1.0/C__~1/Source/include\read_write_lock.hpp ****     protected:
 128:C:/Users/niels/DOCUME~1/ELEKTR~1/JAAR2~1/ECS/ECSL/software/STM32/STM32B~1/HAL/GEMEEN~1/THIRD_~1/FREERT~1.0/C__~1/Source/include\read_write_lock.hpp ****         /**
 129:C:/Users/niels/DOCUME~1/ELEKTR~1/JAAR2~1/ECS/ECSL/software/STM32/STM32B~1/HAL/GEMEEN~1/THIRD_~1/FREERT~1.0/C__~1/Source/include\read_write_lock.hpp ****          *  How many active readers are there.
 130:C:/Users/niels/DOCUME~1/ELEKTR~1/JAAR2~1/ECS/ECSL/software/STM32/STM32B~1/HAL/GEMEEN~1/THIRD_~1/FREERT~1.0/C__~1/Source/include\read_write_lock.hpp ****          */
 131:C:/Users/niels/DOCUME~1/ELEKTR~1/JAAR2~1/ECS/ECSL/software/STM32/STM32B~1/HAL/GEMEEN~1/THIRD_~1/FREERT~1.0/C__~1/Source/include\read_write_lock.hpp ****         int ReadCount;
 132:C:/Users/niels/DOCUME~1/ELEKTR~1/JAAR2~1/ECS/ECSL/software/STM32/STM32B~1/HAL/GEMEEN~1/THIRD_~1/FREERT~1.0/C__~1/Source/include\read_write_lock.hpp **** 
 133:C:/Users/niels/DOCUME~1/ELEKTR~1/JAAR2~1/ECS/ECSL/software/STM32/STM32B~1/HAL/GEMEEN~1/THIRD_~1/FREERT~1.0/C__~1/Source/include\read_write_lock.hpp ****         /**
 134:C:/Users/niels/DOCUME~1/ELEKTR~1/JAAR2~1/ECS/ECSL/software/STM32/STM32B~1/HAL/GEMEEN~1/THIRD_~1/FREERT~1.0/C__~1/Source/include\read_write_lock.hpp ****          *  Protect ReadCount.
 135:C:/Users/niels/DOCUME~1/ELEKTR~1/JAAR2~1/ECS/ECSL/software/STM32/STM32B~1/HAL/GEMEEN~1/THIRD_~1/FREERT~1.0/C__~1/Source/include\read_write_lock.hpp ****          */
 136:C:/Users/niels/DOCUME~1/ELEKTR~1/JAAR2~1/ECS/ECSL/software/STM32/STM32B~1/HAL/GEMEEN~1/THIRD_~1/FREERT~1.0/C__~1/Source/include\read_write_lock.hpp ****         SemaphoreHandle_t ReadLock;
 137:C:/Users/niels/DOCUME~1/ELEKTR~1/JAAR2~1/ECS/ECSL/software/STM32/STM32B~1/HAL/GEMEEN~1/THIRD_~1/FREERT~1.0/C__~1/Source/include\read_write_lock.hpp **** 
 138:C:/Users/niels/DOCUME~1/ELEKTR~1/JAAR2~1/ECS/ECSL/software/STM32/STM32B~1/HAL/GEMEEN~1/THIRD_~1/FREERT~1.0/C__~1/Source/include\read_write_lock.hpp ****         /**
 139:C:/Users/niels/DOCUME~1/ELEKTR~1/JAAR2~1/ECS/ECSL/software/STM32/STM32B~1/HAL/GEMEEN~1/THIRD_~1/FREERT~1.0/C__~1/Source/include\read_write_lock.hpp ****          *  Protect this resource from multiple writer access, or
 140:C:/Users/niels/DOCUME~1/ELEKTR~1/JAAR2~1/ECS/ECSL/software/STM32/STM32B~1/HAL/GEMEEN~1/THIRD_~1/FREERT~1.0/C__~1/Source/include\read_write_lock.hpp ****          *  from Reader access when a writer is changing something.
 141:C:/Users/niels/DOCUME~1/ELEKTR~1/JAAR2~1/ECS/ECSL/software/STM32/STM32B~1/HAL/GEMEEN~1/THIRD_~1/FREERT~1.0/C__~1/Source/include\read_write_lock.hpp ****          */
 142:C:/Users/niels/DOCUME~1/ELEKTR~1/JAAR2~1/ECS/ECSL/software/STM32/STM32B~1/HAL/GEMEEN~1/THIRD_~1/FREERT~1.0/C__~1/Source/include\read_write_lock.hpp ****         SemaphoreHandle_t ResourceLock;
 143:C:/Users/niels/DOCUME~1/ELEKTR~1/JAAR2~1/ECS/ECSL/software/STM32/STM32B~1/HAL/GEMEEN~1/THIRD_~1/FREERT~1.0/C__~1/Source/include\read_write_lock.hpp **** };
 144:C:/Users/niels/DOCUME~1/ELEKTR~1/JAAR2~1/ECS/ECSL/software/STM32/STM32B~1/HAL/GEMEEN~1/THIRD_~1/FREERT~1.0/C__~1/Source/include\read_write_lock.hpp **** 
ARM GAS   			page 30


 145:C:/Users/niels/DOCUME~1/ELEKTR~1/JAAR2~1/ECS/ECSL/software/STM32/STM32B~1/HAL/GEMEEN~1/THIRD_~1/FREERT~1.0/C__~1/Source/include\read_write_lock.hpp **** 
 146:C:/Users/niels/DOCUME~1/ELEKTR~1/JAAR2~1/ECS/ECSL/software/STM32/STM32B~1/HAL/GEMEEN~1/THIRD_~1/FREERT~1.0/C__~1/Source/include\read_write_lock.hpp **** /**
 147:C:/Users/niels/DOCUME~1/ELEKTR~1/JAAR2~1/ECS/ECSL/software/STM32/STM32B~1/HAL/GEMEEN~1/THIRD_~1/FREERT~1.0/C__~1/Source/include\read_write_lock.hpp ****  *  Concrete derived class that implements a Reader/Writer lock
 148:C:/Users/niels/DOCUME~1/ELEKTR~1/JAAR2~1/ECS/ECSL/software/STM32/STM32B~1/HAL/GEMEEN~1/THIRD_~1/FREERT~1.0/C__~1/Source/include\read_write_lock.hpp ****  *  that favors the Readers. That is, with enough aggressive readers,
 149:C:/Users/niels/DOCUME~1/ELEKTR~1/JAAR2~1/ECS/ECSL/software/STM32/STM32B~1/HAL/GEMEEN~1/THIRD_~1/FREERT~1.0/C__~1/Source/include\read_write_lock.hpp ****  *  a Writer may starve.
 150:C:/Users/niels/DOCUME~1/ELEKTR~1/JAAR2~1/ECS/ECSL/software/STM32/STM32B~1/HAL/GEMEEN~1/THIRD_~1/FREERT~1.0/C__~1/Source/include\read_write_lock.hpp ****  */
 151:C:/Users/niels/DOCUME~1/ELEKTR~1/JAAR2~1/ECS/ECSL/software/STM32/STM32B~1/HAL/GEMEEN~1/THIRD_~1/FREERT~1.0/C__~1/Source/include\read_write_lock.hpp **** class ReadWriteLockPreferReader : public ReadWriteLock {
 1049              	 .loc 3 151 7
 1050              	 .cfi_startproc
 1051              	 
 1052              	 
 1053 0000 80B5     	 push {r7,lr}
 1054              	 .cfi_def_cfa_offset 8
 1055              	 .cfi_offset 7,-8
 1056              	 .cfi_offset 14,-4
 1057 0002 82B0     	 sub sp,sp,#8
 1058              	 .cfi_def_cfa_offset 16
 1059 0004 00AF     	 add r7,sp,#0
 1060              	 .cfi_def_cfa_register 7
 1061 0006 7860     	 str r0,[r7,#4]
 1062              	.LBB6:
 1063              	 .loc 3 151 7
 1064 0008 054A     	 ldr r2,.L43
 1065 000a 7B68     	 ldr r3,[r7,#4]
 1066 000c 1A60     	 str r2,[r3]
 1067 000e 7B68     	 ldr r3,[r7,#4]
 1068 0010 1846     	 mov r0,r3
 1069 0012 FFF7FEFF 	 bl _ZN12cpp_freertos13ReadWriteLockD2Ev
 1070              	.LBE6:
 1071 0016 7B68     	 ldr r3,[r7,#4]
 1072 0018 1846     	 mov r0,r3
 1073 001a 0837     	 adds r7,r7,#8
 1074              	 .cfi_def_cfa_offset 8
 1075 001c BD46     	 mov sp,r7
 1076              	 .cfi_def_cfa_register 13
 1077              	 
 1078 001e 80BD     	 pop {r7,pc}
 1079              	.L44:
 1080              	 .align 2
 1081              	.L43:
 1082 0020 08000000 	 .word _ZTVN12cpp_freertos25ReadWriteLockPreferReaderE+8
 1083              	 .cfi_endproc
 1084              	.LFE1299:
 1085              	 .size _ZN12cpp_freertos25ReadWriteLockPreferReaderD2Ev,.-_ZN12cpp_freertos25ReadWriteLockPreferReaderD2Ev
 1086              	 .weak _ZN12cpp_freertos25ReadWriteLockPreferReaderD1Ev
 1087              	 .thumb_set _ZN12cpp_freertos25ReadWriteLockPreferReaderD1Ev,_ZN12cpp_freertos25ReadWriteLockPreferReaderD2Ev
 1088              	 .section .text._ZN12cpp_freertos25ReadWriteLockPreferReaderD0Ev,"axG",%progbits,_ZN12cpp_freertos25ReadWriteLockPreferReaderD5Ev,comdat
 1089              	 .align 1
 1090              	 .weak _ZN12cpp_freertos25ReadWriteLockPreferReaderD0Ev
 1091              	 .syntax unified
 1092              	 .thumb
 1093              	 .thumb_func
 1094              	 .type _ZN12cpp_freertos25ReadWriteLockPreferReaderD0Ev,%function
 1095              	_ZN12cpp_freertos25ReadWriteLockPreferReaderD0Ev:
 1096              	.LFB1301:
 1097              	 .loc 3 151 7
 1098              	 .cfi_startproc
ARM GAS   			page 31


 1099              	 
 1100              	 
 1101 0000 80B5     	 push {r7,lr}
 1102              	 .cfi_def_cfa_offset 8
 1103              	 .cfi_offset 7,-8
 1104              	 .cfi_offset 14,-4
 1105 0002 82B0     	 sub sp,sp,#8
 1106              	 .cfi_def_cfa_offset 16
 1107 0004 00AF     	 add r7,sp,#0
 1108              	 .cfi_def_cfa_register 7
 1109 0006 7860     	 str r0,[r7,#4]
 1110              	 .loc 3 151 7
 1111 0008 7868     	 ldr r0,[r7,#4]
 1112 000a FFF7FEFF 	 bl _ZN12cpp_freertos25ReadWriteLockPreferReaderD1Ev
 1113 000e 7868     	 ldr r0,[r7,#4]
 1114 0010 FFF7FEFF 	 bl _ZdlPv
 1115 0014 7B68     	 ldr r3,[r7,#4]
 1116 0016 1846     	 mov r0,r3
 1117 0018 0837     	 adds r7,r7,#8
 1118              	 .cfi_def_cfa_offset 8
 1119 001a BD46     	 mov sp,r7
 1120              	 .cfi_def_cfa_register 13
 1121              	 
 1122 001c 80BD     	 pop {r7,pc}
 1123              	 .cfi_endproc
 1124              	.LFE1301:
 1125              	 .size _ZN12cpp_freertos25ReadWriteLockPreferReaderD0Ev,.-_ZN12cpp_freertos25ReadWriteLockPreferReaderD0Ev
 1126              	 .global _ZTVN12cpp_freertos13ReadWriteLockE
 1127              	 .section .rodata._ZTVN12cpp_freertos13ReadWriteLockE,"a"
 1128              	 .align 2
 1129              	 .type _ZTVN12cpp_freertos13ReadWriteLockE,%object
 1130              	 .size _ZTVN12cpp_freertos13ReadWriteLockE,32
 1131              	_ZTVN12cpp_freertos13ReadWriteLockE:
 1132 0000 00000000 	 .word 0
 1133 0004 00000000 	 .word 0
 1134 0008 00000000 	 .word 0
 1135 000c 00000000 	 .word 0
 1136 0010 00000000 	 .word __cxa_pure_virtual
 1137 0014 00000000 	 .word __cxa_pure_virtual
 1138 0018 00000000 	 .word __cxa_pure_virtual
 1139 001c 00000000 	 .word __cxa_pure_virtual
 1140              	 .text
 1141              	.Letext0:
 1142              	 .file 4 "c:\\progra~2\\gnuarm~1\\102021~1.10\\arm-none-eabi\\include\\c++\\10.3.1\\bits\\exception_ptr.h"
 1143              	 .file 5 "c:\\progra~2\\gnuarm~1\\102021~1.10\\arm-none-eabi\\include\\c++\\10.3.1\\type_traits"
 1144              	 .file 6 "c:\\progra~2\\gnuarm~1\\102021~1.10\\arm-none-eabi\\include\\c++\\10.3.1\\bits\\cpp_type_traits.h"
 1145              	 .file 7 "c:\\progra~2\\gnuarm~1\\102021~1.10\\arm-none-eabi\\include\\c++\\10.3.1\\bits\\stl_pair.h"
 1146              	 .file 8 "c:\\progra~2\\gnuarm~1\\102021~1.10\\arm-none-eabi\\include\\c++\\10.3.1\\debug\\debug.h"
 1147              	 .file 9 "c:\\progra~2\\gnuarm~1\\102021~1.10\\arm-none-eabi\\include\\c++\\10.3.1\\cwchar"
 1148              	 .file 10 "c:\\progra~2\\gnuarm~1\\102021~1.10\\arm-none-eabi\\include\\c++\\10.3.1\\cstdint"
 1149              	 .file 11 "c:\\progra~2\\gnuarm~1\\102021~1.10\\arm-none-eabi\\include\\c++\\10.3.1\\clocale"
 1150              	 .file 12 "c:\\progra~2\\gnuarm~1\\102021~1.10\\arm-none-eabi\\include\\c++\\10.3.1\\cstdlib"
 1151              	 .file 13 "c:\\progra~2\\gnuarm~1\\102021~1.10\\arm-none-eabi\\include\\c++\\10.3.1\\cstdio"
 1152              	 .file 14 "c:\\progra~2\\gnuarm~1\\102021~1.10\\arm-none-eabi\\include\\c++\\10.3.1\\arm-none-eabi\\thumb\\v7e-m+fp\\hard\\bits\\c++config.h"
 1153              	 .file 15 "c:\\progra~2\\gnuarm~1\\102021~1.10\\arm-none-eabi\\include\\c++\\10.3.1\\bits\\predefined_ops.h"
 1154              	 .file 16 "c:\\progra~2\\gnuarm~1\\102021~1.10\\lib\\gcc\\arm-none-eabi\\10.3.1\\include\\stddef.h"
 1155              	 .file 17 "c:\\progra~2\\gnuarm~1\\102021~1.10\\arm-none-eabi\\include\\machine\\_default_types.h"
ARM GAS   			page 32


 1156              	 .file 18 "c:\\progra~2\\gnuarm~1\\102021~1.10\\arm-none-eabi\\include\\sys\\_types.h"
 1157              	 .file 19 "c:\\progra~2\\gnuarm~1\\102021~1.10\\arm-none-eabi\\include\\sys\\reent.h"
 1158              	 .file 20 "c:\\progra~2\\gnuarm~1\\102021~1.10\\arm-none-eabi\\include\\sys\\lock.h"
 1159              	 .file 21 "c:\\progra~2\\gnuarm~1\\102021~1.10\\lib\\gcc\\arm-none-eabi\\10.3.1\\include\\stdarg.h"
 1160              	 .file 22 "c:\\progra~2\\gnuarm~1\\102021~1.10\\arm-none-eabi\\include\\wchar.h"
 1161              	 .file 23 "c:\\progra~2\\gnuarm~1\\102021~1.10\\arm-none-eabi\\include\\sys\\_stdint.h"
 1162              	 .file 24 "c:\\progra~2\\gnuarm~1\\102021~1.10\\arm-none-eabi\\include\\stdint.h"
 1163              	 .file 25 "c:\\progra~2\\gnuarm~1\\102021~1.10\\arm-none-eabi\\include\\locale.h"
 1164              	 .file 26 "c:\\progra~2\\gnuarm~1\\102021~1.10\\arm-none-eabi\\include\\stdlib.h"
 1165              	 .file 27 "c:\\progra~2\\gnuarm~1\\102021~1.10\\arm-none-eabi\\include\\stdio.h"
 1166              	 .file 28 "C:/Users/niels/DOCUME~1/ELEKTR~1/JAAR2~1/ECS/ECSL/software/STM32/STM32B~1/HAL/GEMEEN~1/THIRD_~1/FreeRTOS/Source/portable/GCC/ARM_CM4F/portmacro.h"
 1167              	 .file 29 "C:/Users/niels/DOCUME~1/ELEKTR~1/JAAR2~1/ECS/ECSL/software/STM32/STM32B~1/HAL/GEMEEN~1/THIRD_~1/FreeRTOS/Source/include/queue.h"
 1168              	 .file 30 "C:/Users/niels/DOCUME~1/ELEKTR~1/JAAR2~1/ECS/ECSL/software/STM32/STM32B~1/HAL/GEMEEN~1/THIRD_~1/FreeRTOS/Source/include/semphr.h"
 1169              	 .file 31 "<built-in>"