ARM GAS   			page 1


   1              	 .cpu cortex-m4
   2              	 .arch armv7e-m
   3              	 .fpu fpv4-sp-d16
   4              	 .eabi_attribute 27,1
   5              	 .eabi_attribute 28,1
   6              	 .eabi_attribute 20,1
   7              	 .eabi_attribute 21,1
   8              	 .eabi_attribute 23,3
   9              	 .eabi_attribute 24,1
  10              	 .eabi_attribute 25,1
  11              	 .eabi_attribute 26,1
  12              	 .eabi_attribute 30,6
  13              	 .eabi_attribute 34,0
  14              	 .eabi_attribute 18,4
  15              	 .file "ctasklet.cpp"
  16              	 .text
  17              	.Ltext0:
  18              	 .cfi_sections .debug_frame
  19              	 .section .rodata._ZStL19piecewise_construct,"a"
  20              	 .align 2
  21              	 .type _ZStL19piecewise_construct,%object
  22              	 .size _ZStL19piecewise_construct,1
  23              	_ZStL19piecewise_construct:
  24 0000 00       	 .space 1
  25              	 .section .text._ZL20__gthread_key_deletei,"ax",%progbits
  26              	 .align 1
  27              	 .syntax unified
  28              	 .thumb
  29              	 .thumb_func
  30              	 .type _ZL20__gthread_key_deletei,%function
  31              	_ZL20__gthread_key_deletei:
  32              	.LFB602:
  33              	 .file 1 "c:\\progra~2\\gnuarm~1\\102021~1.10\\arm-none-eabi\\include\\c++\\10.3.1\\arm-none-eabi\\thumb\\v7e-m+fp\\hard\\bits\\gthr-default.h"
   1:c:\progra~2\gnuarm~1\102021~1.10\arm-none-eabi\include\c++\10.3.1\arm-none-eabi\thumb\v7e-m+fp\hard\bits\gthr-default.h **** /* Threads compatibility routines for libgcc2 and libobjc.  */
   2:c:\progra~2\gnuarm~1\102021~1.10\arm-none-eabi\include\c++\10.3.1\arm-none-eabi\thumb\v7e-m+fp\hard\bits\gthr-default.h **** /* Compile this one with gcc.  */
   3:c:\progra~2\gnuarm~1\102021~1.10\arm-none-eabi\include\c++\10.3.1\arm-none-eabi\thumb\v7e-m+fp\hard\bits\gthr-default.h **** /* Copyright (C) 1997-2020 Free Software Foundation, Inc.
   4:c:\progra~2\gnuarm~1\102021~1.10\arm-none-eabi\include\c++\10.3.1\arm-none-eabi\thumb\v7e-m+fp\hard\bits\gthr-default.h **** 
   5:c:\progra~2\gnuarm~1\102021~1.10\arm-none-eabi\include\c++\10.3.1\arm-none-eabi\thumb\v7e-m+fp\hard\bits\gthr-default.h **** This file is part of GCC.
   6:c:\progra~2\gnuarm~1\102021~1.10\arm-none-eabi\include\c++\10.3.1\arm-none-eabi\thumb\v7e-m+fp\hard\bits\gthr-default.h **** 
   7:c:\progra~2\gnuarm~1\102021~1.10\arm-none-eabi\include\c++\10.3.1\arm-none-eabi\thumb\v7e-m+fp\hard\bits\gthr-default.h **** GCC is free software; you can redistribute it and/or modify it under
   8:c:\progra~2\gnuarm~1\102021~1.10\arm-none-eabi\include\c++\10.3.1\arm-none-eabi\thumb\v7e-m+fp\hard\bits\gthr-default.h **** the terms of the GNU General Public License as published by the Free
   9:c:\progra~2\gnuarm~1\102021~1.10\arm-none-eabi\include\c++\10.3.1\arm-none-eabi\thumb\v7e-m+fp\hard\bits\gthr-default.h **** Software Foundation; either version 3, or (at your option) any later
  10:c:\progra~2\gnuarm~1\102021~1.10\arm-none-eabi\include\c++\10.3.1\arm-none-eabi\thumb\v7e-m+fp\hard\bits\gthr-default.h **** version.
  11:c:\progra~2\gnuarm~1\102021~1.10\arm-none-eabi\include\c++\10.3.1\arm-none-eabi\thumb\v7e-m+fp\hard\bits\gthr-default.h **** 
  12:c:\progra~2\gnuarm~1\102021~1.10\arm-none-eabi\include\c++\10.3.1\arm-none-eabi\thumb\v7e-m+fp\hard\bits\gthr-default.h **** GCC is distributed in the hope that it will be useful, but WITHOUT ANY
  13:c:\progra~2\gnuarm~1\102021~1.10\arm-none-eabi\include\c++\10.3.1\arm-none-eabi\thumb\v7e-m+fp\hard\bits\gthr-default.h **** WARRANTY; without even the implied warranty of MERCHANTABILITY or
  14:c:\progra~2\gnuarm~1\102021~1.10\arm-none-eabi\include\c++\10.3.1\arm-none-eabi\thumb\v7e-m+fp\hard\bits\gthr-default.h **** FITNESS FOR A PARTICULAR PURPOSE.  See the GNU General Public License
  15:c:\progra~2\gnuarm~1\102021~1.10\arm-none-eabi\include\c++\10.3.1\arm-none-eabi\thumb\v7e-m+fp\hard\bits\gthr-default.h **** for more details.
  16:c:\progra~2\gnuarm~1\102021~1.10\arm-none-eabi\include\c++\10.3.1\arm-none-eabi\thumb\v7e-m+fp\hard\bits\gthr-default.h **** 
  17:c:\progra~2\gnuarm~1\102021~1.10\arm-none-eabi\include\c++\10.3.1\arm-none-eabi\thumb\v7e-m+fp\hard\bits\gthr-default.h **** Under Section 7 of GPL version 3, you are granted additional
  18:c:\progra~2\gnuarm~1\102021~1.10\arm-none-eabi\include\c++\10.3.1\arm-none-eabi\thumb\v7e-m+fp\hard\bits\gthr-default.h **** permissions described in the GCC Runtime Library Exception, version
  19:c:\progra~2\gnuarm~1\102021~1.10\arm-none-eabi\include\c++\10.3.1\arm-none-eabi\thumb\v7e-m+fp\hard\bits\gthr-default.h **** 3.1, as published by the Free Software Foundation.
  20:c:\progra~2\gnuarm~1\102021~1.10\arm-none-eabi\include\c++\10.3.1\arm-none-eabi\thumb\v7e-m+fp\hard\bits\gthr-default.h **** 
  21:c:\progra~2\gnuarm~1\102021~1.10\arm-none-eabi\include\c++\10.3.1\arm-none-eabi\thumb\v7e-m+fp\hard\bits\gthr-default.h **** You should have received a copy of the GNU General Public License and
  22:c:\progra~2\gnuarm~1\102021~1.10\arm-none-eabi\include\c++\10.3.1\arm-none-eabi\thumb\v7e-m+fp\hard\bits\gthr-default.h **** a copy of the GCC Runtime Library Exception along with this program;
  23:c:\progra~2\gnuarm~1\102021~1.10\arm-none-eabi\include\c++\10.3.1\arm-none-eabi\thumb\v7e-m+fp\hard\bits\gthr-default.h **** see the files COPYING3 and COPYING.RUNTIME respectively.  If not, see
  24:c:\progra~2\gnuarm~1\102021~1.10\arm-none-eabi\include\c++\10.3.1\arm-none-eabi\thumb\v7e-m+fp\hard\bits\gthr-default.h **** <http://www.gnu.org/licenses/>.  */
ARM GAS   			page 2


  25:c:\progra~2\gnuarm~1\102021~1.10\arm-none-eabi\include\c++\10.3.1\arm-none-eabi\thumb\v7e-m+fp\hard\bits\gthr-default.h **** 
  26:c:\progra~2\gnuarm~1\102021~1.10\arm-none-eabi\include\c++\10.3.1\arm-none-eabi\thumb\v7e-m+fp\hard\bits\gthr-default.h **** #ifndef _GLIBCXX_GCC_GTHR_SINGLE_H
  27:c:\progra~2\gnuarm~1\102021~1.10\arm-none-eabi\include\c++\10.3.1\arm-none-eabi\thumb\v7e-m+fp\hard\bits\gthr-default.h **** #define _GLIBCXX_GCC_GTHR_SINGLE_H
  28:c:\progra~2\gnuarm~1\102021~1.10\arm-none-eabi\include\c++\10.3.1\arm-none-eabi\thumb\v7e-m+fp\hard\bits\gthr-default.h **** 
  29:c:\progra~2\gnuarm~1\102021~1.10\arm-none-eabi\include\c++\10.3.1\arm-none-eabi\thumb\v7e-m+fp\hard\bits\gthr-default.h **** /* Just provide compatibility for mutex handling.  */
  30:c:\progra~2\gnuarm~1\102021~1.10\arm-none-eabi\include\c++\10.3.1\arm-none-eabi\thumb\v7e-m+fp\hard\bits\gthr-default.h **** 
  31:c:\progra~2\gnuarm~1\102021~1.10\arm-none-eabi\include\c++\10.3.1\arm-none-eabi\thumb\v7e-m+fp\hard\bits\gthr-default.h **** typedef int __gthread_key_t;
  32:c:\progra~2\gnuarm~1\102021~1.10\arm-none-eabi\include\c++\10.3.1\arm-none-eabi\thumb\v7e-m+fp\hard\bits\gthr-default.h **** typedef int __gthread_once_t;
  33:c:\progra~2\gnuarm~1\102021~1.10\arm-none-eabi\include\c++\10.3.1\arm-none-eabi\thumb\v7e-m+fp\hard\bits\gthr-default.h **** typedef int __gthread_mutex_t;
  34:c:\progra~2\gnuarm~1\102021~1.10\arm-none-eabi\include\c++\10.3.1\arm-none-eabi\thumb\v7e-m+fp\hard\bits\gthr-default.h **** typedef int __gthread_recursive_mutex_t;
  35:c:\progra~2\gnuarm~1\102021~1.10\arm-none-eabi\include\c++\10.3.1\arm-none-eabi\thumb\v7e-m+fp\hard\bits\gthr-default.h **** 
  36:c:\progra~2\gnuarm~1\102021~1.10\arm-none-eabi\include\c++\10.3.1\arm-none-eabi\thumb\v7e-m+fp\hard\bits\gthr-default.h **** #define __GTHREAD_ONCE_INIT 0
  37:c:\progra~2\gnuarm~1\102021~1.10\arm-none-eabi\include\c++\10.3.1\arm-none-eabi\thumb\v7e-m+fp\hard\bits\gthr-default.h **** #define __GTHREAD_MUTEX_INIT 0
  38:c:\progra~2\gnuarm~1\102021~1.10\arm-none-eabi\include\c++\10.3.1\arm-none-eabi\thumb\v7e-m+fp\hard\bits\gthr-default.h **** #define __GTHREAD_MUTEX_INIT_FUNCTION(mx) do {} while (0)
  39:c:\progra~2\gnuarm~1\102021~1.10\arm-none-eabi\include\c++\10.3.1\arm-none-eabi\thumb\v7e-m+fp\hard\bits\gthr-default.h **** #define __GTHREAD_RECURSIVE_MUTEX_INIT 0
  40:c:\progra~2\gnuarm~1\102021~1.10\arm-none-eabi\include\c++\10.3.1\arm-none-eabi\thumb\v7e-m+fp\hard\bits\gthr-default.h **** 
  41:c:\progra~2\gnuarm~1\102021~1.10\arm-none-eabi\include\c++\10.3.1\arm-none-eabi\thumb\v7e-m+fp\hard\bits\gthr-default.h **** #define _GLIBCXX_UNUSED __attribute__((__unused__))
  42:c:\progra~2\gnuarm~1\102021~1.10\arm-none-eabi\include\c++\10.3.1\arm-none-eabi\thumb\v7e-m+fp\hard\bits\gthr-default.h **** 
  43:c:\progra~2\gnuarm~1\102021~1.10\arm-none-eabi\include\c++\10.3.1\arm-none-eabi\thumb\v7e-m+fp\hard\bits\gthr-default.h **** #ifdef _LIBOBJC
  44:c:\progra~2\gnuarm~1\102021~1.10\arm-none-eabi\include\c++\10.3.1\arm-none-eabi\thumb\v7e-m+fp\hard\bits\gthr-default.h **** 
  45:c:\progra~2\gnuarm~1\102021~1.10\arm-none-eabi\include\c++\10.3.1\arm-none-eabi\thumb\v7e-m+fp\hard\bits\gthr-default.h **** /* Thread local storage for a single thread */
  46:c:\progra~2\gnuarm~1\102021~1.10\arm-none-eabi\include\c++\10.3.1\arm-none-eabi\thumb\v7e-m+fp\hard\bits\gthr-default.h **** static void *thread_local_storage = NULL;
  47:c:\progra~2\gnuarm~1\102021~1.10\arm-none-eabi\include\c++\10.3.1\arm-none-eabi\thumb\v7e-m+fp\hard\bits\gthr-default.h **** 
  48:c:\progra~2\gnuarm~1\102021~1.10\arm-none-eabi\include\c++\10.3.1\arm-none-eabi\thumb\v7e-m+fp\hard\bits\gthr-default.h **** /* Backend initialization functions */
  49:c:\progra~2\gnuarm~1\102021~1.10\arm-none-eabi\include\c++\10.3.1\arm-none-eabi\thumb\v7e-m+fp\hard\bits\gthr-default.h **** 
  50:c:\progra~2\gnuarm~1\102021~1.10\arm-none-eabi\include\c++\10.3.1\arm-none-eabi\thumb\v7e-m+fp\hard\bits\gthr-default.h **** /* Initialize the threads subsystem.  */
  51:c:\progra~2\gnuarm~1\102021~1.10\arm-none-eabi\include\c++\10.3.1\arm-none-eabi\thumb\v7e-m+fp\hard\bits\gthr-default.h **** static inline int
  52:c:\progra~2\gnuarm~1\102021~1.10\arm-none-eabi\include\c++\10.3.1\arm-none-eabi\thumb\v7e-m+fp\hard\bits\gthr-default.h **** __gthread_objc_init_thread_system (void)
  53:c:\progra~2\gnuarm~1\102021~1.10\arm-none-eabi\include\c++\10.3.1\arm-none-eabi\thumb\v7e-m+fp\hard\bits\gthr-default.h **** {
  54:c:\progra~2\gnuarm~1\102021~1.10\arm-none-eabi\include\c++\10.3.1\arm-none-eabi\thumb\v7e-m+fp\hard\bits\gthr-default.h ****   /* No thread support available */
  55:c:\progra~2\gnuarm~1\102021~1.10\arm-none-eabi\include\c++\10.3.1\arm-none-eabi\thumb\v7e-m+fp\hard\bits\gthr-default.h ****   return -1;
  56:c:\progra~2\gnuarm~1\102021~1.10\arm-none-eabi\include\c++\10.3.1\arm-none-eabi\thumb\v7e-m+fp\hard\bits\gthr-default.h **** }
  57:c:\progra~2\gnuarm~1\102021~1.10\arm-none-eabi\include\c++\10.3.1\arm-none-eabi\thumb\v7e-m+fp\hard\bits\gthr-default.h **** 
  58:c:\progra~2\gnuarm~1\102021~1.10\arm-none-eabi\include\c++\10.3.1\arm-none-eabi\thumb\v7e-m+fp\hard\bits\gthr-default.h **** /* Close the threads subsystem.  */
  59:c:\progra~2\gnuarm~1\102021~1.10\arm-none-eabi\include\c++\10.3.1\arm-none-eabi\thumb\v7e-m+fp\hard\bits\gthr-default.h **** static inline int
  60:c:\progra~2\gnuarm~1\102021~1.10\arm-none-eabi\include\c++\10.3.1\arm-none-eabi\thumb\v7e-m+fp\hard\bits\gthr-default.h **** __gthread_objc_close_thread_system (void)
  61:c:\progra~2\gnuarm~1\102021~1.10\arm-none-eabi\include\c++\10.3.1\arm-none-eabi\thumb\v7e-m+fp\hard\bits\gthr-default.h **** {
  62:c:\progra~2\gnuarm~1\102021~1.10\arm-none-eabi\include\c++\10.3.1\arm-none-eabi\thumb\v7e-m+fp\hard\bits\gthr-default.h ****   /* No thread support available */
  63:c:\progra~2\gnuarm~1\102021~1.10\arm-none-eabi\include\c++\10.3.1\arm-none-eabi\thumb\v7e-m+fp\hard\bits\gthr-default.h ****   return -1;
  64:c:\progra~2\gnuarm~1\102021~1.10\arm-none-eabi\include\c++\10.3.1\arm-none-eabi\thumb\v7e-m+fp\hard\bits\gthr-default.h **** }
  65:c:\progra~2\gnuarm~1\102021~1.10\arm-none-eabi\include\c++\10.3.1\arm-none-eabi\thumb\v7e-m+fp\hard\bits\gthr-default.h **** 
  66:c:\progra~2\gnuarm~1\102021~1.10\arm-none-eabi\include\c++\10.3.1\arm-none-eabi\thumb\v7e-m+fp\hard\bits\gthr-default.h **** /* Backend thread functions */
  67:c:\progra~2\gnuarm~1\102021~1.10\arm-none-eabi\include\c++\10.3.1\arm-none-eabi\thumb\v7e-m+fp\hard\bits\gthr-default.h **** 
  68:c:\progra~2\gnuarm~1\102021~1.10\arm-none-eabi\include\c++\10.3.1\arm-none-eabi\thumb\v7e-m+fp\hard\bits\gthr-default.h **** /* Create a new thread of execution.  */
  69:c:\progra~2\gnuarm~1\102021~1.10\arm-none-eabi\include\c++\10.3.1\arm-none-eabi\thumb\v7e-m+fp\hard\bits\gthr-default.h **** static inline objc_thread_t
  70:c:\progra~2\gnuarm~1\102021~1.10\arm-none-eabi\include\c++\10.3.1\arm-none-eabi\thumb\v7e-m+fp\hard\bits\gthr-default.h **** __gthread_objc_thread_detach (void (* func)(void *), void * arg _GLIBCXX_UNUSED)
  71:c:\progra~2\gnuarm~1\102021~1.10\arm-none-eabi\include\c++\10.3.1\arm-none-eabi\thumb\v7e-m+fp\hard\bits\gthr-default.h **** {
  72:c:\progra~2\gnuarm~1\102021~1.10\arm-none-eabi\include\c++\10.3.1\arm-none-eabi\thumb\v7e-m+fp\hard\bits\gthr-default.h ****   /* No thread support available */
  73:c:\progra~2\gnuarm~1\102021~1.10\arm-none-eabi\include\c++\10.3.1\arm-none-eabi\thumb\v7e-m+fp\hard\bits\gthr-default.h ****   return NULL;
  74:c:\progra~2\gnuarm~1\102021~1.10\arm-none-eabi\include\c++\10.3.1\arm-none-eabi\thumb\v7e-m+fp\hard\bits\gthr-default.h **** }
  75:c:\progra~2\gnuarm~1\102021~1.10\arm-none-eabi\include\c++\10.3.1\arm-none-eabi\thumb\v7e-m+fp\hard\bits\gthr-default.h **** 
  76:c:\progra~2\gnuarm~1\102021~1.10\arm-none-eabi\include\c++\10.3.1\arm-none-eabi\thumb\v7e-m+fp\hard\bits\gthr-default.h **** /* Set the current thread's priority.  */
  77:c:\progra~2\gnuarm~1\102021~1.10\arm-none-eabi\include\c++\10.3.1\arm-none-eabi\thumb\v7e-m+fp\hard\bits\gthr-default.h **** static inline int
  78:c:\progra~2\gnuarm~1\102021~1.10\arm-none-eabi\include\c++\10.3.1\arm-none-eabi\thumb\v7e-m+fp\hard\bits\gthr-default.h **** __gthread_objc_thread_set_priority (int priority _GLIBCXX_UNUSED)
  79:c:\progra~2\gnuarm~1\102021~1.10\arm-none-eabi\include\c++\10.3.1\arm-none-eabi\thumb\v7e-m+fp\hard\bits\gthr-default.h **** {
  80:c:\progra~2\gnuarm~1\102021~1.10\arm-none-eabi\include\c++\10.3.1\arm-none-eabi\thumb\v7e-m+fp\hard\bits\gthr-default.h ****   /* No thread support available */
  81:c:\progra~2\gnuarm~1\102021~1.10\arm-none-eabi\include\c++\10.3.1\arm-none-eabi\thumb\v7e-m+fp\hard\bits\gthr-default.h ****   return -1;
ARM GAS   			page 3


  82:c:\progra~2\gnuarm~1\102021~1.10\arm-none-eabi\include\c++\10.3.1\arm-none-eabi\thumb\v7e-m+fp\hard\bits\gthr-default.h **** }
  83:c:\progra~2\gnuarm~1\102021~1.10\arm-none-eabi\include\c++\10.3.1\arm-none-eabi\thumb\v7e-m+fp\hard\bits\gthr-default.h **** 
  84:c:\progra~2\gnuarm~1\102021~1.10\arm-none-eabi\include\c++\10.3.1\arm-none-eabi\thumb\v7e-m+fp\hard\bits\gthr-default.h **** /* Return the current thread's priority.  */
  85:c:\progra~2\gnuarm~1\102021~1.10\arm-none-eabi\include\c++\10.3.1\arm-none-eabi\thumb\v7e-m+fp\hard\bits\gthr-default.h **** static inline int
  86:c:\progra~2\gnuarm~1\102021~1.10\arm-none-eabi\include\c++\10.3.1\arm-none-eabi\thumb\v7e-m+fp\hard\bits\gthr-default.h **** __gthread_objc_thread_get_priority (void)
  87:c:\progra~2\gnuarm~1\102021~1.10\arm-none-eabi\include\c++\10.3.1\arm-none-eabi\thumb\v7e-m+fp\hard\bits\gthr-default.h **** {
  88:c:\progra~2\gnuarm~1\102021~1.10\arm-none-eabi\include\c++\10.3.1\arm-none-eabi\thumb\v7e-m+fp\hard\bits\gthr-default.h ****   return OBJC_THREAD_INTERACTIVE_PRIORITY;
  89:c:\progra~2\gnuarm~1\102021~1.10\arm-none-eabi\include\c++\10.3.1\arm-none-eabi\thumb\v7e-m+fp\hard\bits\gthr-default.h **** }
  90:c:\progra~2\gnuarm~1\102021~1.10\arm-none-eabi\include\c++\10.3.1\arm-none-eabi\thumb\v7e-m+fp\hard\bits\gthr-default.h **** 
  91:c:\progra~2\gnuarm~1\102021~1.10\arm-none-eabi\include\c++\10.3.1\arm-none-eabi\thumb\v7e-m+fp\hard\bits\gthr-default.h **** /* Yield our process time to another thread.  */
  92:c:\progra~2\gnuarm~1\102021~1.10\arm-none-eabi\include\c++\10.3.1\arm-none-eabi\thumb\v7e-m+fp\hard\bits\gthr-default.h **** static inline void
  93:c:\progra~2\gnuarm~1\102021~1.10\arm-none-eabi\include\c++\10.3.1\arm-none-eabi\thumb\v7e-m+fp\hard\bits\gthr-default.h **** __gthread_objc_thread_yield (void)
  94:c:\progra~2\gnuarm~1\102021~1.10\arm-none-eabi\include\c++\10.3.1\arm-none-eabi\thumb\v7e-m+fp\hard\bits\gthr-default.h **** {
  95:c:\progra~2\gnuarm~1\102021~1.10\arm-none-eabi\include\c++\10.3.1\arm-none-eabi\thumb\v7e-m+fp\hard\bits\gthr-default.h ****   return;
  96:c:\progra~2\gnuarm~1\102021~1.10\arm-none-eabi\include\c++\10.3.1\arm-none-eabi\thumb\v7e-m+fp\hard\bits\gthr-default.h **** }
  97:c:\progra~2\gnuarm~1\102021~1.10\arm-none-eabi\include\c++\10.3.1\arm-none-eabi\thumb\v7e-m+fp\hard\bits\gthr-default.h **** 
  98:c:\progra~2\gnuarm~1\102021~1.10\arm-none-eabi\include\c++\10.3.1\arm-none-eabi\thumb\v7e-m+fp\hard\bits\gthr-default.h **** /* Terminate the current thread.  */
  99:c:\progra~2\gnuarm~1\102021~1.10\arm-none-eabi\include\c++\10.3.1\arm-none-eabi\thumb\v7e-m+fp\hard\bits\gthr-default.h **** static inline int
 100:c:\progra~2\gnuarm~1\102021~1.10\arm-none-eabi\include\c++\10.3.1\arm-none-eabi\thumb\v7e-m+fp\hard\bits\gthr-default.h **** __gthread_objc_thread_exit (void)
 101:c:\progra~2\gnuarm~1\102021~1.10\arm-none-eabi\include\c++\10.3.1\arm-none-eabi\thumb\v7e-m+fp\hard\bits\gthr-default.h **** {
 102:c:\progra~2\gnuarm~1\102021~1.10\arm-none-eabi\include\c++\10.3.1\arm-none-eabi\thumb\v7e-m+fp\hard\bits\gthr-default.h ****   /* No thread support available */
 103:c:\progra~2\gnuarm~1\102021~1.10\arm-none-eabi\include\c++\10.3.1\arm-none-eabi\thumb\v7e-m+fp\hard\bits\gthr-default.h ****   /* Should we really exit the program */
 104:c:\progra~2\gnuarm~1\102021~1.10\arm-none-eabi\include\c++\10.3.1\arm-none-eabi\thumb\v7e-m+fp\hard\bits\gthr-default.h ****   /* exit (&__objc_thread_exit_status); */
 105:c:\progra~2\gnuarm~1\102021~1.10\arm-none-eabi\include\c++\10.3.1\arm-none-eabi\thumb\v7e-m+fp\hard\bits\gthr-default.h ****   return -1;
 106:c:\progra~2\gnuarm~1\102021~1.10\arm-none-eabi\include\c++\10.3.1\arm-none-eabi\thumb\v7e-m+fp\hard\bits\gthr-default.h **** }
 107:c:\progra~2\gnuarm~1\102021~1.10\arm-none-eabi\include\c++\10.3.1\arm-none-eabi\thumb\v7e-m+fp\hard\bits\gthr-default.h **** 
 108:c:\progra~2\gnuarm~1\102021~1.10\arm-none-eabi\include\c++\10.3.1\arm-none-eabi\thumb\v7e-m+fp\hard\bits\gthr-default.h **** /* Returns an integer value which uniquely describes a thread.  */
 109:c:\progra~2\gnuarm~1\102021~1.10\arm-none-eabi\include\c++\10.3.1\arm-none-eabi\thumb\v7e-m+fp\hard\bits\gthr-default.h **** static inline objc_thread_t
 110:c:\progra~2\gnuarm~1\102021~1.10\arm-none-eabi\include\c++\10.3.1\arm-none-eabi\thumb\v7e-m+fp\hard\bits\gthr-default.h **** __gthread_objc_thread_id (void)
 111:c:\progra~2\gnuarm~1\102021~1.10\arm-none-eabi\include\c++\10.3.1\arm-none-eabi\thumb\v7e-m+fp\hard\bits\gthr-default.h **** {
 112:c:\progra~2\gnuarm~1\102021~1.10\arm-none-eabi\include\c++\10.3.1\arm-none-eabi\thumb\v7e-m+fp\hard\bits\gthr-default.h ****   /* No thread support, use 1.  */
 113:c:\progra~2\gnuarm~1\102021~1.10\arm-none-eabi\include\c++\10.3.1\arm-none-eabi\thumb\v7e-m+fp\hard\bits\gthr-default.h ****   return (objc_thread_t) 1;
 114:c:\progra~2\gnuarm~1\102021~1.10\arm-none-eabi\include\c++\10.3.1\arm-none-eabi\thumb\v7e-m+fp\hard\bits\gthr-default.h **** }
 115:c:\progra~2\gnuarm~1\102021~1.10\arm-none-eabi\include\c++\10.3.1\arm-none-eabi\thumb\v7e-m+fp\hard\bits\gthr-default.h **** 
 116:c:\progra~2\gnuarm~1\102021~1.10\arm-none-eabi\include\c++\10.3.1\arm-none-eabi\thumb\v7e-m+fp\hard\bits\gthr-default.h **** /* Sets the thread's local storage pointer.  */
 117:c:\progra~2\gnuarm~1\102021~1.10\arm-none-eabi\include\c++\10.3.1\arm-none-eabi\thumb\v7e-m+fp\hard\bits\gthr-default.h **** static inline int
 118:c:\progra~2\gnuarm~1\102021~1.10\arm-none-eabi\include\c++\10.3.1\arm-none-eabi\thumb\v7e-m+fp\hard\bits\gthr-default.h **** __gthread_objc_thread_set_data (void *value)
 119:c:\progra~2\gnuarm~1\102021~1.10\arm-none-eabi\include\c++\10.3.1\arm-none-eabi\thumb\v7e-m+fp\hard\bits\gthr-default.h **** {
 120:c:\progra~2\gnuarm~1\102021~1.10\arm-none-eabi\include\c++\10.3.1\arm-none-eabi\thumb\v7e-m+fp\hard\bits\gthr-default.h ****   thread_local_storage = value;
 121:c:\progra~2\gnuarm~1\102021~1.10\arm-none-eabi\include\c++\10.3.1\arm-none-eabi\thumb\v7e-m+fp\hard\bits\gthr-default.h ****   return 0;
 122:c:\progra~2\gnuarm~1\102021~1.10\arm-none-eabi\include\c++\10.3.1\arm-none-eabi\thumb\v7e-m+fp\hard\bits\gthr-default.h **** }
 123:c:\progra~2\gnuarm~1\102021~1.10\arm-none-eabi\include\c++\10.3.1\arm-none-eabi\thumb\v7e-m+fp\hard\bits\gthr-default.h **** 
 124:c:\progra~2\gnuarm~1\102021~1.10\arm-none-eabi\include\c++\10.3.1\arm-none-eabi\thumb\v7e-m+fp\hard\bits\gthr-default.h **** /* Returns the thread's local storage pointer.  */
 125:c:\progra~2\gnuarm~1\102021~1.10\arm-none-eabi\include\c++\10.3.1\arm-none-eabi\thumb\v7e-m+fp\hard\bits\gthr-default.h **** static inline void *
 126:c:\progra~2\gnuarm~1\102021~1.10\arm-none-eabi\include\c++\10.3.1\arm-none-eabi\thumb\v7e-m+fp\hard\bits\gthr-default.h **** __gthread_objc_thread_get_data (void)
 127:c:\progra~2\gnuarm~1\102021~1.10\arm-none-eabi\include\c++\10.3.1\arm-none-eabi\thumb\v7e-m+fp\hard\bits\gthr-default.h **** {
 128:c:\progra~2\gnuarm~1\102021~1.10\arm-none-eabi\include\c++\10.3.1\arm-none-eabi\thumb\v7e-m+fp\hard\bits\gthr-default.h ****   return thread_local_storage;
 129:c:\progra~2\gnuarm~1\102021~1.10\arm-none-eabi\include\c++\10.3.1\arm-none-eabi\thumb\v7e-m+fp\hard\bits\gthr-default.h **** }
 130:c:\progra~2\gnuarm~1\102021~1.10\arm-none-eabi\include\c++\10.3.1\arm-none-eabi\thumb\v7e-m+fp\hard\bits\gthr-default.h **** 
 131:c:\progra~2\gnuarm~1\102021~1.10\arm-none-eabi\include\c++\10.3.1\arm-none-eabi\thumb\v7e-m+fp\hard\bits\gthr-default.h **** /* Backend mutex functions */
 132:c:\progra~2\gnuarm~1\102021~1.10\arm-none-eabi\include\c++\10.3.1\arm-none-eabi\thumb\v7e-m+fp\hard\bits\gthr-default.h **** 
 133:c:\progra~2\gnuarm~1\102021~1.10\arm-none-eabi\include\c++\10.3.1\arm-none-eabi\thumb\v7e-m+fp\hard\bits\gthr-default.h **** /* Allocate a mutex.  */
 134:c:\progra~2\gnuarm~1\102021~1.10\arm-none-eabi\include\c++\10.3.1\arm-none-eabi\thumb\v7e-m+fp\hard\bits\gthr-default.h **** static inline int
 135:c:\progra~2\gnuarm~1\102021~1.10\arm-none-eabi\include\c++\10.3.1\arm-none-eabi\thumb\v7e-m+fp\hard\bits\gthr-default.h **** __gthread_objc_mutex_allocate (objc_mutex_t mutex _GLIBCXX_UNUSED)
 136:c:\progra~2\gnuarm~1\102021~1.10\arm-none-eabi\include\c++\10.3.1\arm-none-eabi\thumb\v7e-m+fp\hard\bits\gthr-default.h **** {
 137:c:\progra~2\gnuarm~1\102021~1.10\arm-none-eabi\include\c++\10.3.1\arm-none-eabi\thumb\v7e-m+fp\hard\bits\gthr-default.h ****   return 0;
 138:c:\progra~2\gnuarm~1\102021~1.10\arm-none-eabi\include\c++\10.3.1\arm-none-eabi\thumb\v7e-m+fp\hard\bits\gthr-default.h **** }
ARM GAS   			page 4


 139:c:\progra~2\gnuarm~1\102021~1.10\arm-none-eabi\include\c++\10.3.1\arm-none-eabi\thumb\v7e-m+fp\hard\bits\gthr-default.h **** 
 140:c:\progra~2\gnuarm~1\102021~1.10\arm-none-eabi\include\c++\10.3.1\arm-none-eabi\thumb\v7e-m+fp\hard\bits\gthr-default.h **** /* Deallocate a mutex.  */
 141:c:\progra~2\gnuarm~1\102021~1.10\arm-none-eabi\include\c++\10.3.1\arm-none-eabi\thumb\v7e-m+fp\hard\bits\gthr-default.h **** static inline int
 142:c:\progra~2\gnuarm~1\102021~1.10\arm-none-eabi\include\c++\10.3.1\arm-none-eabi\thumb\v7e-m+fp\hard\bits\gthr-default.h **** __gthread_objc_mutex_deallocate (objc_mutex_t mutex _GLIBCXX_UNUSED)
 143:c:\progra~2\gnuarm~1\102021~1.10\arm-none-eabi\include\c++\10.3.1\arm-none-eabi\thumb\v7e-m+fp\hard\bits\gthr-default.h **** {
 144:c:\progra~2\gnuarm~1\102021~1.10\arm-none-eabi\include\c++\10.3.1\arm-none-eabi\thumb\v7e-m+fp\hard\bits\gthr-default.h ****   return 0;
 145:c:\progra~2\gnuarm~1\102021~1.10\arm-none-eabi\include\c++\10.3.1\arm-none-eabi\thumb\v7e-m+fp\hard\bits\gthr-default.h **** }
 146:c:\progra~2\gnuarm~1\102021~1.10\arm-none-eabi\include\c++\10.3.1\arm-none-eabi\thumb\v7e-m+fp\hard\bits\gthr-default.h **** 
 147:c:\progra~2\gnuarm~1\102021~1.10\arm-none-eabi\include\c++\10.3.1\arm-none-eabi\thumb\v7e-m+fp\hard\bits\gthr-default.h **** /* Grab a lock on a mutex.  */
 148:c:\progra~2\gnuarm~1\102021~1.10\arm-none-eabi\include\c++\10.3.1\arm-none-eabi\thumb\v7e-m+fp\hard\bits\gthr-default.h **** static inline int
 149:c:\progra~2\gnuarm~1\102021~1.10\arm-none-eabi\include\c++\10.3.1\arm-none-eabi\thumb\v7e-m+fp\hard\bits\gthr-default.h **** __gthread_objc_mutex_lock (objc_mutex_t mutex _GLIBCXX_UNUSED)
 150:c:\progra~2\gnuarm~1\102021~1.10\arm-none-eabi\include\c++\10.3.1\arm-none-eabi\thumb\v7e-m+fp\hard\bits\gthr-default.h **** {
 151:c:\progra~2\gnuarm~1\102021~1.10\arm-none-eabi\include\c++\10.3.1\arm-none-eabi\thumb\v7e-m+fp\hard\bits\gthr-default.h ****   /* There can only be one thread, so we always get the lock */
 152:c:\progra~2\gnuarm~1\102021~1.10\arm-none-eabi\include\c++\10.3.1\arm-none-eabi\thumb\v7e-m+fp\hard\bits\gthr-default.h ****   return 0;
 153:c:\progra~2\gnuarm~1\102021~1.10\arm-none-eabi\include\c++\10.3.1\arm-none-eabi\thumb\v7e-m+fp\hard\bits\gthr-default.h **** }
 154:c:\progra~2\gnuarm~1\102021~1.10\arm-none-eabi\include\c++\10.3.1\arm-none-eabi\thumb\v7e-m+fp\hard\bits\gthr-default.h **** 
 155:c:\progra~2\gnuarm~1\102021~1.10\arm-none-eabi\include\c++\10.3.1\arm-none-eabi\thumb\v7e-m+fp\hard\bits\gthr-default.h **** /* Try to grab a lock on a mutex.  */
 156:c:\progra~2\gnuarm~1\102021~1.10\arm-none-eabi\include\c++\10.3.1\arm-none-eabi\thumb\v7e-m+fp\hard\bits\gthr-default.h **** static inline int
 157:c:\progra~2\gnuarm~1\102021~1.10\arm-none-eabi\include\c++\10.3.1\arm-none-eabi\thumb\v7e-m+fp\hard\bits\gthr-default.h **** __gthread_objc_mutex_trylock (objc_mutex_t mutex _GLIBCXX_UNUSED)
 158:c:\progra~2\gnuarm~1\102021~1.10\arm-none-eabi\include\c++\10.3.1\arm-none-eabi\thumb\v7e-m+fp\hard\bits\gthr-default.h **** {
 159:c:\progra~2\gnuarm~1\102021~1.10\arm-none-eabi\include\c++\10.3.1\arm-none-eabi\thumb\v7e-m+fp\hard\bits\gthr-default.h ****   /* There can only be one thread, so we always get the lock */
 160:c:\progra~2\gnuarm~1\102021~1.10\arm-none-eabi\include\c++\10.3.1\arm-none-eabi\thumb\v7e-m+fp\hard\bits\gthr-default.h ****   return 0;
 161:c:\progra~2\gnuarm~1\102021~1.10\arm-none-eabi\include\c++\10.3.1\arm-none-eabi\thumb\v7e-m+fp\hard\bits\gthr-default.h **** }
 162:c:\progra~2\gnuarm~1\102021~1.10\arm-none-eabi\include\c++\10.3.1\arm-none-eabi\thumb\v7e-m+fp\hard\bits\gthr-default.h **** 
 163:c:\progra~2\gnuarm~1\102021~1.10\arm-none-eabi\include\c++\10.3.1\arm-none-eabi\thumb\v7e-m+fp\hard\bits\gthr-default.h **** /* Unlock the mutex */
 164:c:\progra~2\gnuarm~1\102021~1.10\arm-none-eabi\include\c++\10.3.1\arm-none-eabi\thumb\v7e-m+fp\hard\bits\gthr-default.h **** static inline int
 165:c:\progra~2\gnuarm~1\102021~1.10\arm-none-eabi\include\c++\10.3.1\arm-none-eabi\thumb\v7e-m+fp\hard\bits\gthr-default.h **** __gthread_objc_mutex_unlock (objc_mutex_t mutex _GLIBCXX_UNUSED)
 166:c:\progra~2\gnuarm~1\102021~1.10\arm-none-eabi\include\c++\10.3.1\arm-none-eabi\thumb\v7e-m+fp\hard\bits\gthr-default.h **** {
 167:c:\progra~2\gnuarm~1\102021~1.10\arm-none-eabi\include\c++\10.3.1\arm-none-eabi\thumb\v7e-m+fp\hard\bits\gthr-default.h ****   return 0;
 168:c:\progra~2\gnuarm~1\102021~1.10\arm-none-eabi\include\c++\10.3.1\arm-none-eabi\thumb\v7e-m+fp\hard\bits\gthr-default.h **** }
 169:c:\progra~2\gnuarm~1\102021~1.10\arm-none-eabi\include\c++\10.3.1\arm-none-eabi\thumb\v7e-m+fp\hard\bits\gthr-default.h **** 
 170:c:\progra~2\gnuarm~1\102021~1.10\arm-none-eabi\include\c++\10.3.1\arm-none-eabi\thumb\v7e-m+fp\hard\bits\gthr-default.h **** /* Backend condition mutex functions */
 171:c:\progra~2\gnuarm~1\102021~1.10\arm-none-eabi\include\c++\10.3.1\arm-none-eabi\thumb\v7e-m+fp\hard\bits\gthr-default.h **** 
 172:c:\progra~2\gnuarm~1\102021~1.10\arm-none-eabi\include\c++\10.3.1\arm-none-eabi\thumb\v7e-m+fp\hard\bits\gthr-default.h **** /* Allocate a condition.  */
 173:c:\progra~2\gnuarm~1\102021~1.10\arm-none-eabi\include\c++\10.3.1\arm-none-eabi\thumb\v7e-m+fp\hard\bits\gthr-default.h **** static inline int
 174:c:\progra~2\gnuarm~1\102021~1.10\arm-none-eabi\include\c++\10.3.1\arm-none-eabi\thumb\v7e-m+fp\hard\bits\gthr-default.h **** __gthread_objc_condition_allocate (objc_condition_t condition _GLIBCXX_UNUSED)
 175:c:\progra~2\gnuarm~1\102021~1.10\arm-none-eabi\include\c++\10.3.1\arm-none-eabi\thumb\v7e-m+fp\hard\bits\gthr-default.h **** {
 176:c:\progra~2\gnuarm~1\102021~1.10\arm-none-eabi\include\c++\10.3.1\arm-none-eabi\thumb\v7e-m+fp\hard\bits\gthr-default.h ****   return 0;
 177:c:\progra~2\gnuarm~1\102021~1.10\arm-none-eabi\include\c++\10.3.1\arm-none-eabi\thumb\v7e-m+fp\hard\bits\gthr-default.h **** }
 178:c:\progra~2\gnuarm~1\102021~1.10\arm-none-eabi\include\c++\10.3.1\arm-none-eabi\thumb\v7e-m+fp\hard\bits\gthr-default.h **** 
 179:c:\progra~2\gnuarm~1\102021~1.10\arm-none-eabi\include\c++\10.3.1\arm-none-eabi\thumb\v7e-m+fp\hard\bits\gthr-default.h **** /* Deallocate a condition.  */
 180:c:\progra~2\gnuarm~1\102021~1.10\arm-none-eabi\include\c++\10.3.1\arm-none-eabi\thumb\v7e-m+fp\hard\bits\gthr-default.h **** static inline int
 181:c:\progra~2\gnuarm~1\102021~1.10\arm-none-eabi\include\c++\10.3.1\arm-none-eabi\thumb\v7e-m+fp\hard\bits\gthr-default.h **** __gthread_objc_condition_deallocate (objc_condition_t condition _GLIBCXX_UNUSED)
 182:c:\progra~2\gnuarm~1\102021~1.10\arm-none-eabi\include\c++\10.3.1\arm-none-eabi\thumb\v7e-m+fp\hard\bits\gthr-default.h **** {
 183:c:\progra~2\gnuarm~1\102021~1.10\arm-none-eabi\include\c++\10.3.1\arm-none-eabi\thumb\v7e-m+fp\hard\bits\gthr-default.h ****   return 0;
 184:c:\progra~2\gnuarm~1\102021~1.10\arm-none-eabi\include\c++\10.3.1\arm-none-eabi\thumb\v7e-m+fp\hard\bits\gthr-default.h **** }
 185:c:\progra~2\gnuarm~1\102021~1.10\arm-none-eabi\include\c++\10.3.1\arm-none-eabi\thumb\v7e-m+fp\hard\bits\gthr-default.h **** 
 186:c:\progra~2\gnuarm~1\102021~1.10\arm-none-eabi\include\c++\10.3.1\arm-none-eabi\thumb\v7e-m+fp\hard\bits\gthr-default.h **** /* Wait on the condition */
 187:c:\progra~2\gnuarm~1\102021~1.10\arm-none-eabi\include\c++\10.3.1\arm-none-eabi\thumb\v7e-m+fp\hard\bits\gthr-default.h **** static inline int
 188:c:\progra~2\gnuarm~1\102021~1.10\arm-none-eabi\include\c++\10.3.1\arm-none-eabi\thumb\v7e-m+fp\hard\bits\gthr-default.h **** __gthread_objc_condition_wait (objc_condition_t condition _GLIBCXX_UNUSED,
 189:c:\progra~2\gnuarm~1\102021~1.10\arm-none-eabi\include\c++\10.3.1\arm-none-eabi\thumb\v7e-m+fp\hard\bits\gthr-default.h **** 			       objc_mutex_t mutex _GLIBCXX_UNUSED)
 190:c:\progra~2\gnuarm~1\102021~1.10\arm-none-eabi\include\c++\10.3.1\arm-none-eabi\thumb\v7e-m+fp\hard\bits\gthr-default.h **** {
 191:c:\progra~2\gnuarm~1\102021~1.10\arm-none-eabi\include\c++\10.3.1\arm-none-eabi\thumb\v7e-m+fp\hard\bits\gthr-default.h ****   return 0;
 192:c:\progra~2\gnuarm~1\102021~1.10\arm-none-eabi\include\c++\10.3.1\arm-none-eabi\thumb\v7e-m+fp\hard\bits\gthr-default.h **** }
 193:c:\progra~2\gnuarm~1\102021~1.10\arm-none-eabi\include\c++\10.3.1\arm-none-eabi\thumb\v7e-m+fp\hard\bits\gthr-default.h **** 
 194:c:\progra~2\gnuarm~1\102021~1.10\arm-none-eabi\include\c++\10.3.1\arm-none-eabi\thumb\v7e-m+fp\hard\bits\gthr-default.h **** /* Wake up all threads waiting on this condition.  */
 195:c:\progra~2\gnuarm~1\102021~1.10\arm-none-eabi\include\c++\10.3.1\arm-none-eabi\thumb\v7e-m+fp\hard\bits\gthr-default.h **** static inline int
ARM GAS   			page 5


 196:c:\progra~2\gnuarm~1\102021~1.10\arm-none-eabi\include\c++\10.3.1\arm-none-eabi\thumb\v7e-m+fp\hard\bits\gthr-default.h **** __gthread_objc_condition_broadcast (objc_condition_t condition _GLIBCXX_UNUSED)
 197:c:\progra~2\gnuarm~1\102021~1.10\arm-none-eabi\include\c++\10.3.1\arm-none-eabi\thumb\v7e-m+fp\hard\bits\gthr-default.h **** {
 198:c:\progra~2\gnuarm~1\102021~1.10\arm-none-eabi\include\c++\10.3.1\arm-none-eabi\thumb\v7e-m+fp\hard\bits\gthr-default.h ****   return 0;
 199:c:\progra~2\gnuarm~1\102021~1.10\arm-none-eabi\include\c++\10.3.1\arm-none-eabi\thumb\v7e-m+fp\hard\bits\gthr-default.h **** }
 200:c:\progra~2\gnuarm~1\102021~1.10\arm-none-eabi\include\c++\10.3.1\arm-none-eabi\thumb\v7e-m+fp\hard\bits\gthr-default.h **** 
 201:c:\progra~2\gnuarm~1\102021~1.10\arm-none-eabi\include\c++\10.3.1\arm-none-eabi\thumb\v7e-m+fp\hard\bits\gthr-default.h **** /* Wake up one thread waiting on this condition.  */
 202:c:\progra~2\gnuarm~1\102021~1.10\arm-none-eabi\include\c++\10.3.1\arm-none-eabi\thumb\v7e-m+fp\hard\bits\gthr-default.h **** static inline int
 203:c:\progra~2\gnuarm~1\102021~1.10\arm-none-eabi\include\c++\10.3.1\arm-none-eabi\thumb\v7e-m+fp\hard\bits\gthr-default.h **** __gthread_objc_condition_signal (objc_condition_t condition _GLIBCXX_UNUSED)
 204:c:\progra~2\gnuarm~1\102021~1.10\arm-none-eabi\include\c++\10.3.1\arm-none-eabi\thumb\v7e-m+fp\hard\bits\gthr-default.h **** {
 205:c:\progra~2\gnuarm~1\102021~1.10\arm-none-eabi\include\c++\10.3.1\arm-none-eabi\thumb\v7e-m+fp\hard\bits\gthr-default.h ****   return 0;
 206:c:\progra~2\gnuarm~1\102021~1.10\arm-none-eabi\include\c++\10.3.1\arm-none-eabi\thumb\v7e-m+fp\hard\bits\gthr-default.h **** }
 207:c:\progra~2\gnuarm~1\102021~1.10\arm-none-eabi\include\c++\10.3.1\arm-none-eabi\thumb\v7e-m+fp\hard\bits\gthr-default.h **** 
 208:c:\progra~2\gnuarm~1\102021~1.10\arm-none-eabi\include\c++\10.3.1\arm-none-eabi\thumb\v7e-m+fp\hard\bits\gthr-default.h **** #else /* _LIBOBJC */
 209:c:\progra~2\gnuarm~1\102021~1.10\arm-none-eabi\include\c++\10.3.1\arm-none-eabi\thumb\v7e-m+fp\hard\bits\gthr-default.h **** 
 210:c:\progra~2\gnuarm~1\102021~1.10\arm-none-eabi\include\c++\10.3.1\arm-none-eabi\thumb\v7e-m+fp\hard\bits\gthr-default.h **** static inline int
 211:c:\progra~2\gnuarm~1\102021~1.10\arm-none-eabi\include\c++\10.3.1\arm-none-eabi\thumb\v7e-m+fp\hard\bits\gthr-default.h **** __gthread_active_p (void)
 212:c:\progra~2\gnuarm~1\102021~1.10\arm-none-eabi\include\c++\10.3.1\arm-none-eabi\thumb\v7e-m+fp\hard\bits\gthr-default.h **** {
 213:c:\progra~2\gnuarm~1\102021~1.10\arm-none-eabi\include\c++\10.3.1\arm-none-eabi\thumb\v7e-m+fp\hard\bits\gthr-default.h ****   return 0;
 214:c:\progra~2\gnuarm~1\102021~1.10\arm-none-eabi\include\c++\10.3.1\arm-none-eabi\thumb\v7e-m+fp\hard\bits\gthr-default.h **** }
 215:c:\progra~2\gnuarm~1\102021~1.10\arm-none-eabi\include\c++\10.3.1\arm-none-eabi\thumb\v7e-m+fp\hard\bits\gthr-default.h **** 
 216:c:\progra~2\gnuarm~1\102021~1.10\arm-none-eabi\include\c++\10.3.1\arm-none-eabi\thumb\v7e-m+fp\hard\bits\gthr-default.h **** static inline int
 217:c:\progra~2\gnuarm~1\102021~1.10\arm-none-eabi\include\c++\10.3.1\arm-none-eabi\thumb\v7e-m+fp\hard\bits\gthr-default.h **** __gthread_once (__gthread_once_t *__once _GLIBCXX_UNUSED, void (*__func) (void) _GLIBCXX_UNUSED)
 218:c:\progra~2\gnuarm~1\102021~1.10\arm-none-eabi\include\c++\10.3.1\arm-none-eabi\thumb\v7e-m+fp\hard\bits\gthr-default.h **** {
 219:c:\progra~2\gnuarm~1\102021~1.10\arm-none-eabi\include\c++\10.3.1\arm-none-eabi\thumb\v7e-m+fp\hard\bits\gthr-default.h ****   return 0;
 220:c:\progra~2\gnuarm~1\102021~1.10\arm-none-eabi\include\c++\10.3.1\arm-none-eabi\thumb\v7e-m+fp\hard\bits\gthr-default.h **** }
 221:c:\progra~2\gnuarm~1\102021~1.10\arm-none-eabi\include\c++\10.3.1\arm-none-eabi\thumb\v7e-m+fp\hard\bits\gthr-default.h **** 
 222:c:\progra~2\gnuarm~1\102021~1.10\arm-none-eabi\include\c++\10.3.1\arm-none-eabi\thumb\v7e-m+fp\hard\bits\gthr-default.h **** static inline int _GLIBCXX_UNUSED
 223:c:\progra~2\gnuarm~1\102021~1.10\arm-none-eabi\include\c++\10.3.1\arm-none-eabi\thumb\v7e-m+fp\hard\bits\gthr-default.h **** __gthread_key_create (__gthread_key_t *__key _GLIBCXX_UNUSED, void (*__func) (void *) _GLIBCXX_UNUS
 224:c:\progra~2\gnuarm~1\102021~1.10\arm-none-eabi\include\c++\10.3.1\arm-none-eabi\thumb\v7e-m+fp\hard\bits\gthr-default.h **** {
 225:c:\progra~2\gnuarm~1\102021~1.10\arm-none-eabi\include\c++\10.3.1\arm-none-eabi\thumb\v7e-m+fp\hard\bits\gthr-default.h ****   return 0;
 226:c:\progra~2\gnuarm~1\102021~1.10\arm-none-eabi\include\c++\10.3.1\arm-none-eabi\thumb\v7e-m+fp\hard\bits\gthr-default.h **** }
 227:c:\progra~2\gnuarm~1\102021~1.10\arm-none-eabi\include\c++\10.3.1\arm-none-eabi\thumb\v7e-m+fp\hard\bits\gthr-default.h **** 
 228:c:\progra~2\gnuarm~1\102021~1.10\arm-none-eabi\include\c++\10.3.1\arm-none-eabi\thumb\v7e-m+fp\hard\bits\gthr-default.h **** static int _GLIBCXX_UNUSED
 229:c:\progra~2\gnuarm~1\102021~1.10\arm-none-eabi\include\c++\10.3.1\arm-none-eabi\thumb\v7e-m+fp\hard\bits\gthr-default.h **** __gthread_key_delete (__gthread_key_t __key _GLIBCXX_UNUSED)
 230:c:\progra~2\gnuarm~1\102021~1.10\arm-none-eabi\include\c++\10.3.1\arm-none-eabi\thumb\v7e-m+fp\hard\bits\gthr-default.h **** {
  34              	 .loc 1 230 1
  35              	 .cfi_startproc
  36              	 
  37              	 
  38              	 
  39 0000 80B4     	 push {r7}
  40              	 .cfi_def_cfa_offset 4
  41              	 .cfi_offset 7,-4
  42 0002 83B0     	 sub sp,sp,#12
  43              	 .cfi_def_cfa_offset 16
  44 0004 00AF     	 add r7,sp,#0
  45              	 .cfi_def_cfa_register 7
  46 0006 7860     	 str r0,[r7,#4]
 231:c:\progra~2\gnuarm~1\102021~1.10\arm-none-eabi\include\c++\10.3.1\arm-none-eabi\thumb\v7e-m+fp\hard\bits\gthr-default.h ****   return 0;
  47              	 .loc 1 231 10
  48 0008 0023     	 movs r3,#0
 232:c:\progra~2\gnuarm~1\102021~1.10\arm-none-eabi\include\c++\10.3.1\arm-none-eabi\thumb\v7e-m+fp\hard\bits\gthr-default.h **** }
  49              	 .loc 1 232 1
  50 000a 1846     	 mov r0,r3
  51 000c 0C37     	 adds r7,r7,#12
  52              	 .cfi_def_cfa_offset 4
  53 000e BD46     	 mov sp,r7
ARM GAS   			page 6


  54              	 .cfi_def_cfa_register 13
  55              	 
  56 0010 5DF8047B 	 ldr r7,[sp],#4
  57              	 .cfi_restore 7
  58              	 .cfi_def_cfa_offset 0
  59 0014 7047     	 bx lr
  60              	 .cfi_endproc
  61              	.LFE602:
  62              	 .size _ZL20__gthread_key_deletei,.-_ZL20__gthread_key_deletei
  63              	 .section .rodata
  64              	 .align 2
  65              	.LC0:
  66 0000 44746F72 	 .ascii "DtorLock != NULL\000"
  66      4C6F636B 
  66      20213D20 
  66      4E554C4C 
  66      00
  67 0011 000000   	 .align 2
  68              	.LC1:
  69 0014 6370705F 	 .ascii "cpp_freertos::Tasklet::Tasklet()\000"
  69      66726565 
  69      72746F73 
  69      3A3A5461 
  69      736B6C65 
  70 0035 000000   	 .align 2
  71              	.LC2:
  72 0038 433A5C55 	 .ascii "C:\\Users\\niels\\Documents\\Elektrotechniek\\Jaar "
  72      73657273 
  72      5C6E6965 
  72      6C735C44 
  72      6F63756D 
  73 0066 325C4543 	 .ascii "2\\ECS\\ECSL\\software\\STM32\\STM32Basis\\HAL\\gem"
  73      535C4543 
  73      534C5C73 
  73      6F667477 
  73      6172655C 
  74 0092 65656E73 	 .ascii "eenschappelijk\\Third_Party\\freertos-addons-1.1.0\\"
  74      63686170 
  74      70656C69 
  74      6A6B5C54 
  74      68697264 
  75 00c3 632B2B5C 	 .ascii "c++\\Source\\ctasklet.cpp\000"
  75      536F7572 
  75      63655C63 
  75      7461736B 
  75      6C65742E 
  76              	 .section .text._ZN12cpp_freertos7TaskletC2Ev,"ax",%progbits
  77              	 .align 1
  78              	 .global _ZN12cpp_freertos7TaskletC2Ev
  79              	 .syntax unified
  80              	 .thumb
  81              	 .thumb_func
  82              	 .type _ZN12cpp_freertos7TaskletC2Ev,%function
  83              	_ZN12cpp_freertos7TaskletC2Ev:
  84              	.LFB979:
  85              	 .file 2 "C:\\Users\\niels\\Documents\\Elektrotechniek\\Jaar 2\\ECS\\ECSL\\software\\STM32\\STM32Basis\\HAL\\gemeenschappelijk\\Third_Party\\freertos-addons-1.1.0\\c++\\Source\\ctasklet.cpp"
   1:C:\Users\niels\Documents\Elektrotechniek\Jaar 2\ECS\ECSL\software\STM32\STM32Basis\HAL\gemeenschappelijk\Third_Party\freertos-addons-1.1.0\c++\Source\ctasklet.cpp **** /****************************************************************************
ARM GAS   			page 7


   2:C:\Users\niels\Documents\Elektrotechniek\Jaar 2\ECS\ECSL\software\STM32\STM32Basis\HAL\gemeenschappelijk\Third_Party\freertos-addons-1.1.0\c++\Source\ctasklet.cpp ****  *
   3:C:\Users\niels\Documents\Elektrotechniek\Jaar 2\ECS\ECSL\software\STM32\STM32Basis\HAL\gemeenschappelijk\Third_Party\freertos-addons-1.1.0\c++\Source\ctasklet.cpp ****  *  Copyright (c) 2016, Michael Becker (michael.f.becker@gmail.com)
   4:C:\Users\niels\Documents\Elektrotechniek\Jaar 2\ECS\ECSL\software\STM32\STM32Basis\HAL\gemeenschappelijk\Third_Party\freertos-addons-1.1.0\c++\Source\ctasklet.cpp ****  *
   5:C:\Users\niels\Documents\Elektrotechniek\Jaar 2\ECS\ECSL\software\STM32\STM32Basis\HAL\gemeenschappelijk\Third_Party\freertos-addons-1.1.0\c++\Source\ctasklet.cpp ****  *  This file is part of the FreeRTOS C++ Wrappers project.
   6:C:\Users\niels\Documents\Elektrotechniek\Jaar 2\ECS\ECSL\software\STM32\STM32Basis\HAL\gemeenschappelijk\Third_Party\freertos-addons-1.1.0\c++\Source\ctasklet.cpp ****  *
   7:C:\Users\niels\Documents\Elektrotechniek\Jaar 2\ECS\ECSL\software\STM32\STM32Basis\HAL\gemeenschappelijk\Third_Party\freertos-addons-1.1.0\c++\Source\ctasklet.cpp ****  *  The FreeRTOS C++ Wrappers project is free software: you can redistribute
   8:C:\Users\niels\Documents\Elektrotechniek\Jaar 2\ECS\ECSL\software\STM32\STM32Basis\HAL\gemeenschappelijk\Third_Party\freertos-addons-1.1.0\c++\Source\ctasklet.cpp ****  *  it and/or modify it under the terms of the GNU General Public License as
   9:C:\Users\niels\Documents\Elektrotechniek\Jaar 2\ECS\ECSL\software\STM32\STM32Basis\HAL\gemeenschappelijk\Third_Party\freertos-addons-1.1.0\c++\Source\ctasklet.cpp ****  *  published by the Free Software Foundation, either version 2
  10:C:\Users\niels\Documents\Elektrotechniek\Jaar 2\ECS\ECSL\software\STM32\STM32Basis\HAL\gemeenschappelijk\Third_Party\freertos-addons-1.1.0\c++\Source\ctasklet.cpp ****  *  of the License, or (at your option) any later version.
  11:C:\Users\niels\Documents\Elektrotechniek\Jaar 2\ECS\ECSL\software\STM32\STM32Basis\HAL\gemeenschappelijk\Third_Party\freertos-addons-1.1.0\c++\Source\ctasklet.cpp ****  *
  12:C:\Users\niels\Documents\Elektrotechniek\Jaar 2\ECS\ECSL\software\STM32\STM32Basis\HAL\gemeenschappelijk\Third_Party\freertos-addons-1.1.0\c++\Source\ctasklet.cpp ****  *  The FreeRTOS C++ Wrappers project is distributed in the hope that it will
  13:C:\Users\niels\Documents\Elektrotechniek\Jaar 2\ECS\ECSL\software\STM32\STM32Basis\HAL\gemeenschappelijk\Third_Party\freertos-addons-1.1.0\c++\Source\ctasklet.cpp ****  *  be useful, but WITHOUT ANY WARRANTY; without even the implied warranty of
  14:C:\Users\niels\Documents\Elektrotechniek\Jaar 2\ECS\ECSL\software\STM32\STM32Basis\HAL\gemeenschappelijk\Third_Party\freertos-addons-1.1.0\c++\Source\ctasklet.cpp ****  *  MERCHANTABILITY or FITNESS FOR A PARTICULAR PURPOSE.  See the
  15:C:\Users\niels\Documents\Elektrotechniek\Jaar 2\ECS\ECSL\software\STM32\STM32Basis\HAL\gemeenschappelijk\Third_Party\freertos-addons-1.1.0\c++\Source\ctasklet.cpp ****  *  GNU General Public License for more details.
  16:C:\Users\niels\Documents\Elektrotechniek\Jaar 2\ECS\ECSL\software\STM32\STM32Basis\HAL\gemeenschappelijk\Third_Party\freertos-addons-1.1.0\c++\Source\ctasklet.cpp ****  *
  17:C:\Users\niels\Documents\Elektrotechniek\Jaar 2\ECS\ECSL\software\STM32\STM32Basis\HAL\gemeenschappelijk\Third_Party\freertos-addons-1.1.0\c++\Source\ctasklet.cpp ****  *  You should have received a copy of the GNU General Public License
  18:C:\Users\niels\Documents\Elektrotechniek\Jaar 2\ECS\ECSL\software\STM32\STM32Basis\HAL\gemeenschappelijk\Third_Party\freertos-addons-1.1.0\c++\Source\ctasklet.cpp ****  *  along with the FreeRTOS C++ Wrappers project.
  19:C:\Users\niels\Documents\Elektrotechniek\Jaar 2\ECS\ECSL\software\STM32\STM32Basis\HAL\gemeenschappelijk\Third_Party\freertos-addons-1.1.0\c++\Source\ctasklet.cpp ****  *  If not, see <http://www.gnu.org/licenses/>.
  20:C:\Users\niels\Documents\Elektrotechniek\Jaar 2\ECS\ECSL\software\STM32\STM32Basis\HAL\gemeenschappelijk\Third_Party\freertos-addons-1.1.0\c++\Source\ctasklet.cpp ****  *
  21:C:\Users\niels\Documents\Elektrotechniek\Jaar 2\ECS\ECSL\software\STM32\STM32Basis\HAL\gemeenschappelijk\Third_Party\freertos-addons-1.1.0\c++\Source\ctasklet.cpp ****  ***************************************************************************/
  22:C:\Users\niels\Documents\Elektrotechniek\Jaar 2\ECS\ECSL\software\STM32\STM32Basis\HAL\gemeenschappelijk\Third_Party\freertos-addons-1.1.0\c++\Source\ctasklet.cpp **** #include <assert.h>
  23:C:\Users\niels\Documents\Elektrotechniek\Jaar 2\ECS\ECSL\software\STM32\STM32Basis\HAL\gemeenschappelijk\Third_Party\freertos-addons-1.1.0\c++\Source\ctasklet.cpp **** #include "tasklet.hpp"
  24:C:\Users\niels\Documents\Elektrotechniek\Jaar 2\ECS\ECSL\software\STM32\STM32Basis\HAL\gemeenschappelijk\Third_Party\freertos-addons-1.1.0\c++\Source\ctasklet.cpp **** 
  25:C:\Users\niels\Documents\Elektrotechniek\Jaar 2\ECS\ECSL\software\STM32\STM32Basis\HAL\gemeenschappelijk\Third_Party\freertos-addons-1.1.0\c++\Source\ctasklet.cpp **** 
  26:C:\Users\niels\Documents\Elektrotechniek\Jaar 2\ECS\ECSL\software\STM32\STM32Basis\HAL\gemeenschappelijk\Third_Party\freertos-addons-1.1.0\c++\Source\ctasklet.cpp **** using namespace cpp_freertos;
  27:C:\Users\niels\Documents\Elektrotechniek\Jaar 2\ECS\ECSL\software\STM32\STM32Basis\HAL\gemeenschappelijk\Third_Party\freertos-addons-1.1.0\c++\Source\ctasklet.cpp **** 
  28:C:\Users\niels\Documents\Elektrotechniek\Jaar 2\ECS\ECSL\software\STM32\STM32Basis\HAL\gemeenschappelijk\Third_Party\freertos-addons-1.1.0\c++\Source\ctasklet.cpp **** 
  29:C:\Users\niels\Documents\Elektrotechniek\Jaar 2\ECS\ECSL\software\STM32\STM32Basis\HAL\gemeenschappelijk\Third_Party\freertos-addons-1.1.0\c++\Source\ctasklet.cpp **** Tasklet::Tasklet()
  86              	 .loc 2 29 1
  87              	 .cfi_startproc
  88              	 
  89              	 
  90 0000 80B5     	 push {r7,lr}
  91              	 .cfi_def_cfa_offset 8
  92              	 .cfi_offset 7,-8
  93              	 .cfi_offset 14,-4
  94 0002 82B0     	 sub sp,sp,#8
  95              	 .cfi_def_cfa_offset 16
  96 0004 00AF     	 add r7,sp,#0
  97              	 .cfi_def_cfa_register 7
  98 0006 7860     	 str r0,[r7,#4]
  99              	.LBB2:
 100              	 .loc 2 29 18
 101 0008 104A     	 ldr r2,.L6
 102 000a 7B68     	 ldr r3,[r7,#4]
 103 000c 1A60     	 str r2,[r3]
  30:C:\Users\niels\Documents\Elektrotechniek\Jaar 2\ECS\ECSL\software\STM32\STM32Basis\HAL\gemeenschappelijk\Third_Party\freertos-addons-1.1.0\c++\Source\ctasklet.cpp **** {
  31:C:\Users\niels\Documents\Elektrotechniek\Jaar 2\ECS\ECSL\software\STM32\STM32Basis\HAL\gemeenschappelijk\Third_Party\freertos-addons-1.1.0\c++\Source\ctasklet.cpp ****     DtorLock = xSemaphoreCreateBinary();
 104              	 .loc 2 31 16
 105 000e 0322     	 movs r2,#3
 106 0010 0021     	 movs r1,#0
 107 0012 0120     	 movs r0,#1
 108 0014 FFF7FEFF 	 bl xQueueGenericCreate
 109 0018 0246     	 mov r2,r0
 110              	 .loc 2 31 14
 111 001a 7B68     	 ldr r3,[r7,#4]
 112 001c 5A60     	 str r2,[r3,#4]
ARM GAS   			page 8


  32:C:\Users\niels\Documents\Elektrotechniek\Jaar 2\ECS\ECSL\software\STM32\STM32Basis\HAL\gemeenschappelijk\Third_Party\freertos-addons-1.1.0\c++\Source\ctasklet.cpp **** 
  33:C:\Users\niels\Documents\Elektrotechniek\Jaar 2\ECS\ECSL\software\STM32\STM32Basis\HAL\gemeenschappelijk\Third_Party\freertos-addons-1.1.0\c++\Source\ctasklet.cpp ****     assert (DtorLock != NULL);
 113              	 .loc 2 33 5
 114 001e 7B68     	 ldr r3,[r7,#4]
 115 0020 5B68     	 ldr r3,[r3,#4]
 116 0022 002B     	 cmp r3,#0
 117 0024 05D1     	 bne .L4
 118              	 .loc 2 33 5 is_stmt 0 discriminator 1
 119 0026 0A4B     	 ldr r3,.L6+4
 120 0028 0A4A     	 ldr r2,.L6+8
 121 002a 2121     	 movs r1,#33
 122 002c 0A48     	 ldr r0,.L6+12
 123 002e FFF7FEFF 	 bl __assert_func
 124              	.L4:
  34:C:\Users\niels\Documents\Elektrotechniek\Jaar 2\ECS\ECSL\software\STM32\STM32Basis\HAL\gemeenschappelijk\Third_Party\freertos-addons-1.1.0\c++\Source\ctasklet.cpp **** 
  35:C:\Users\niels\Documents\Elektrotechniek\Jaar 2\ECS\ECSL\software\STM32\STM32Basis\HAL\gemeenschappelijk\Third_Party\freertos-addons-1.1.0\c++\Source\ctasklet.cpp ****     xSemaphoreGive(DtorLock);
 125              	 .loc 2 35 5 is_stmt 1
 126 0032 7B68     	 ldr r3,[r7,#4]
 127 0034 5868     	 ldr r0,[r3,#4]
 128 0036 0023     	 movs r3,#0
 129 0038 0022     	 movs r2,#0
 130 003a 0021     	 movs r1,#0
 131 003c FFF7FEFF 	 bl xQueueGenericSend
 132              	.LBE2:
  36:C:\Users\niels\Documents\Elektrotechniek\Jaar 2\ECS\ECSL\software\STM32\STM32Basis\HAL\gemeenschappelijk\Third_Party\freertos-addons-1.1.0\c++\Source\ctasklet.cpp **** }
 133              	 .loc 2 36 1
 134 0040 7B68     	 ldr r3,[r7,#4]
 135 0042 1846     	 mov r0,r3
 136 0044 0837     	 adds r7,r7,#8
 137              	 .cfi_def_cfa_offset 8
 138 0046 BD46     	 mov sp,r7
 139              	 .cfi_def_cfa_register 13
 140              	 
 141 0048 80BD     	 pop {r7,pc}
 142              	.L7:
 143 004a 00BF     	 .align 2
 144              	.L6:
 145 004c 08000000 	 .word _ZTVN12cpp_freertos7TaskletE+8
 146 0050 00000000 	 .word .LC0
 147 0054 14000000 	 .word .LC1
 148 0058 38000000 	 .word .LC2
 149              	 .cfi_endproc
 150              	.LFE979:
 151              	 .size _ZN12cpp_freertos7TaskletC2Ev,.-_ZN12cpp_freertos7TaskletC2Ev
 152              	 .global _ZN12cpp_freertos7TaskletC1Ev
 153              	 .thumb_set _ZN12cpp_freertos7TaskletC1Ev,_ZN12cpp_freertos7TaskletC2Ev
 154              	 .section .text._ZN12cpp_freertos7TaskletD2Ev,"ax",%progbits
 155              	 .align 1
 156              	 .global _ZN12cpp_freertos7TaskletD2Ev
 157              	 .syntax unified
 158              	 .thumb
 159              	 .thumb_func
 160              	 .type _ZN12cpp_freertos7TaskletD2Ev,%function
 161              	_ZN12cpp_freertos7TaskletD2Ev:
 162              	.LFB982:
  37:C:\Users\niels\Documents\Elektrotechniek\Jaar 2\ECS\ECSL\software\STM32\STM32Basis\HAL\gemeenschappelijk\Third_Party\freertos-addons-1.1.0\c++\Source\ctasklet.cpp **** 
  38:C:\Users\niels\Documents\Elektrotechniek\Jaar 2\ECS\ECSL\software\STM32\STM32Basis\HAL\gemeenschappelijk\Third_Party\freertos-addons-1.1.0\c++\Source\ctasklet.cpp **** 
ARM GAS   			page 9


  39:C:\Users\niels\Documents\Elektrotechniek\Jaar 2\ECS\ECSL\software\STM32\STM32Basis\HAL\gemeenschappelijk\Third_Party\freertos-addons-1.1.0\c++\Source\ctasklet.cpp **** Tasklet::~Tasklet()
 163              	 .loc 2 39 1
 164              	 .cfi_startproc
 165              	 
 166              	 
 167              	 
 168 0000 80B4     	 push {r7}
 169              	 .cfi_def_cfa_offset 4
 170              	 .cfi_offset 7,-4
 171 0002 83B0     	 sub sp,sp,#12
 172              	 .cfi_def_cfa_offset 16
 173 0004 00AF     	 add r7,sp,#0
 174              	 .cfi_def_cfa_register 7
 175 0006 7860     	 str r0,[r7,#4]
 176              	.LBB3:
 177              	 .loc 2 39 19
 178 0008 044A     	 ldr r2,.L10
 179 000a 7B68     	 ldr r3,[r7,#4]
 180 000c 1A60     	 str r2,[r3]
 181              	.LBE3:
  40:C:\Users\niels\Documents\Elektrotechniek\Jaar 2\ECS\ECSL\software\STM32\STM32Basis\HAL\gemeenschappelijk\Third_Party\freertos-addons-1.1.0\c++\Source\ctasklet.cpp **** {
  41:C:\Users\niels\Documents\Elektrotechniek\Jaar 2\ECS\ECSL\software\STM32\STM32Basis\HAL\gemeenschappelijk\Third_Party\freertos-addons-1.1.0\c++\Source\ctasklet.cpp **** }
 182              	 .loc 2 41 1
 183 000e 7B68     	 ldr r3,[r7,#4]
 184 0010 1846     	 mov r0,r3
 185 0012 0C37     	 adds r7,r7,#12
 186              	 .cfi_def_cfa_offset 4
 187 0014 BD46     	 mov sp,r7
 188              	 .cfi_def_cfa_register 13
 189              	 
 190 0016 5DF8047B 	 ldr r7,[sp],#4
 191              	 .cfi_restore 7
 192              	 .cfi_def_cfa_offset 0
 193 001a 7047     	 bx lr
 194              	.L11:
 195              	 .align 2
 196              	.L10:
 197 001c 08000000 	 .word _ZTVN12cpp_freertos7TaskletE+8
 198              	 .cfi_endproc
 199              	.LFE982:
 200              	 .size _ZN12cpp_freertos7TaskletD2Ev,.-_ZN12cpp_freertos7TaskletD2Ev
 201              	 .global _ZN12cpp_freertos7TaskletD1Ev
 202              	 .thumb_set _ZN12cpp_freertos7TaskletD1Ev,_ZN12cpp_freertos7TaskletD2Ev
 203              	 .section .text._ZN12cpp_freertos7TaskletD0Ev,"ax",%progbits
 204              	 .align 1
 205              	 .global _ZN12cpp_freertos7TaskletD0Ev
 206              	 .syntax unified
 207              	 .thumb
 208              	 .thumb_func
 209              	 .type _ZN12cpp_freertos7TaskletD0Ev,%function
 210              	_ZN12cpp_freertos7TaskletD0Ev:
 211              	.LFB984:
  39:C:\Users\niels\Documents\Elektrotechniek\Jaar 2\ECS\ECSL\software\STM32\STM32Basis\HAL\gemeenschappelijk\Third_Party\freertos-addons-1.1.0\c++\Source\ctasklet.cpp **** {
 212              	 .loc 2 39 1
 213              	 .cfi_startproc
 214              	 
 215              	 
ARM GAS   			page 10


 216 0000 80B5     	 push {r7,lr}
 217              	 .cfi_def_cfa_offset 8
 218              	 .cfi_offset 7,-8
 219              	 .cfi_offset 14,-4
 220 0002 82B0     	 sub sp,sp,#8
 221              	 .cfi_def_cfa_offset 16
 222 0004 00AF     	 add r7,sp,#0
 223              	 .cfi_def_cfa_register 7
 224 0006 7860     	 str r0,[r7,#4]
 225              	 .loc 2 41 1
 226 0008 7868     	 ldr r0,[r7,#4]
 227 000a FFF7FEFF 	 bl _ZN12cpp_freertos7TaskletD1Ev
 228 000e 7868     	 ldr r0,[r7,#4]
 229 0010 FFF7FEFF 	 bl _ZdlPv
 230 0014 7B68     	 ldr r3,[r7,#4]
 231 0016 1846     	 mov r0,r3
 232 0018 0837     	 adds r7,r7,#8
 233              	 .cfi_def_cfa_offset 8
 234 001a BD46     	 mov sp,r7
 235              	 .cfi_def_cfa_register 13
 236              	 
 237 001c 80BD     	 pop {r7,pc}
 238              	 .cfi_endproc
 239              	.LFE984:
 240              	 .size _ZN12cpp_freertos7TaskletD0Ev,.-_ZN12cpp_freertos7TaskletD0Ev
 241              	 .section .text._ZN12cpp_freertos7Tasklet18CheckForSafeDeleteEv,"ax",%progbits
 242              	 .align 1
 243              	 .global _ZN12cpp_freertos7Tasklet18CheckForSafeDeleteEv
 244              	 .syntax unified
 245              	 .thumb
 246              	 .thumb_func
 247              	 .type _ZN12cpp_freertos7Tasklet18CheckForSafeDeleteEv,%function
 248              	_ZN12cpp_freertos7Tasklet18CheckForSafeDeleteEv:
 249              	.LFB985:
  42:C:\Users\niels\Documents\Elektrotechniek\Jaar 2\ECS\ECSL\software\STM32\STM32Basis\HAL\gemeenschappelijk\Third_Party\freertos-addons-1.1.0\c++\Source\ctasklet.cpp **** 
  43:C:\Users\niels\Documents\Elektrotechniek\Jaar 2\ECS\ECSL\software\STM32\STM32Basis\HAL\gemeenschappelijk\Third_Party\freertos-addons-1.1.0\c++\Source\ctasklet.cpp **** 
  44:C:\Users\niels\Documents\Elektrotechniek\Jaar 2\ECS\ECSL\software\STM32\STM32Basis\HAL\gemeenschappelijk\Third_Party\freertos-addons-1.1.0\c++\Source\ctasklet.cpp **** void Tasklet::CheckForSafeDelete()
  45:C:\Users\niels\Documents\Elektrotechniek\Jaar 2\ECS\ECSL\software\STM32\STM32Basis\HAL\gemeenschappelijk\Third_Party\freertos-addons-1.1.0\c++\Source\ctasklet.cpp **** {
 250              	 .loc 2 45 1
 251              	 .cfi_startproc
 252              	 
 253              	 
 254 0000 80B5     	 push {r7,lr}
 255              	 .cfi_def_cfa_offset 8
 256              	 .cfi_offset 7,-8
 257              	 .cfi_offset 14,-4
 258 0002 82B0     	 sub sp,sp,#8
 259              	 .cfi_def_cfa_offset 16
 260 0004 00AF     	 add r7,sp,#0
 261              	 .cfi_def_cfa_register 7
 262 0006 7860     	 str r0,[r7,#4]
  46:C:\Users\niels\Documents\Elektrotechniek\Jaar 2\ECS\ECSL\software\STM32\STM32Basis\HAL\gemeenschappelijk\Third_Party\freertos-addons-1.1.0\c++\Source\ctasklet.cpp ****     xSemaphoreTake(DtorLock, portMAX_DELAY);
 263              	 .loc 2 46 5
 264 0008 7B68     	 ldr r3,[r7,#4]
 265 000a 5868     	 ldr r0,[r3,#4]
 266 000c 0023     	 movs r3,#0
 267 000e 4FF0FF32 	 mov r2,#-1
ARM GAS   			page 11


 268 0012 0021     	 movs r1,#0
 269 0014 FFF7FEFF 	 bl xQueueGenericReceive
  47:C:\Users\niels\Documents\Elektrotechniek\Jaar 2\ECS\ECSL\software\STM32\STM32Basis\HAL\gemeenschappelijk\Third_Party\freertos-addons-1.1.0\c++\Source\ctasklet.cpp ****     vSemaphoreDelete(DtorLock);
 270              	 .loc 2 47 5
 271 0018 7B68     	 ldr r3,[r7,#4]
 272 001a 5B68     	 ldr r3,[r3,#4]
 273 001c 1846     	 mov r0,r3
 274 001e FFF7FEFF 	 bl vQueueDelete
  48:C:\Users\niels\Documents\Elektrotechniek\Jaar 2\ECS\ECSL\software\STM32\STM32Basis\HAL\gemeenschappelijk\Third_Party\freertos-addons-1.1.0\c++\Source\ctasklet.cpp **** }
 275              	 .loc 2 48 1
 276 0022 00BF     	 nop
 277 0024 0837     	 adds r7,r7,#8
 278              	 .cfi_def_cfa_offset 8
 279 0026 BD46     	 mov sp,r7
 280              	 .cfi_def_cfa_register 13
 281              	 
 282 0028 80BD     	 pop {r7,pc}
 283              	 .cfi_endproc
 284              	.LFE985:
 285              	 .size _ZN12cpp_freertos7Tasklet18CheckForSafeDeleteEv,.-_ZN12cpp_freertos7Tasklet18CheckForSafeDeleteEv
 286              	 .section .text._ZN12cpp_freertos7Tasklet22TaskletAdapterFunctionEPvm,"ax",%progbits
 287              	 .align 1
 288              	 .global _ZN12cpp_freertos7Tasklet22TaskletAdapterFunctionEPvm
 289              	 .syntax unified
 290              	 .thumb
 291              	 .thumb_func
 292              	 .type _ZN12cpp_freertos7Tasklet22TaskletAdapterFunctionEPvm,%function
 293              	_ZN12cpp_freertos7Tasklet22TaskletAdapterFunctionEPvm:
 294              	.LFB986:
  49:C:\Users\niels\Documents\Elektrotechniek\Jaar 2\ECS\ECSL\software\STM32\STM32Basis\HAL\gemeenschappelijk\Third_Party\freertos-addons-1.1.0\c++\Source\ctasklet.cpp **** 
  50:C:\Users\niels\Documents\Elektrotechniek\Jaar 2\ECS\ECSL\software\STM32\STM32Basis\HAL\gemeenschappelijk\Third_Party\freertos-addons-1.1.0\c++\Source\ctasklet.cpp **** 
  51:C:\Users\niels\Documents\Elektrotechniek\Jaar 2\ECS\ECSL\software\STM32\STM32Basis\HAL\gemeenschappelijk\Third_Party\freertos-addons-1.1.0\c++\Source\ctasklet.cpp **** void Tasklet::TaskletAdapterFunction(void *reference, uint32_t parameter)
  52:C:\Users\niels\Documents\Elektrotechniek\Jaar 2\ECS\ECSL\software\STM32\STM32Basis\HAL\gemeenschappelijk\Third_Party\freertos-addons-1.1.0\c++\Source\ctasklet.cpp **** {
 295              	 .loc 2 52 1
 296              	 .cfi_startproc
 297              	 
 298              	 
 299 0000 80B5     	 push {r7,lr}
 300              	 .cfi_def_cfa_offset 8
 301              	 .cfi_offset 7,-8
 302              	 .cfi_offset 14,-4
 303 0002 84B0     	 sub sp,sp,#16
 304              	 .cfi_def_cfa_offset 24
 305 0004 00AF     	 add r7,sp,#0
 306              	 .cfi_def_cfa_register 7
 307 0006 7860     	 str r0,[r7,#4]
 308 0008 3960     	 str r1,[r7]
  53:C:\Users\niels\Documents\Elektrotechniek\Jaar 2\ECS\ECSL\software\STM32\STM32Basis\HAL\gemeenschappelijk\Third_Party\freertos-addons-1.1.0\c++\Source\ctasklet.cpp ****     Tasklet *tasklet = static_cast<Tasklet *>(reference);
 309              	 .loc 2 53 14
 310 000a 7B68     	 ldr r3,[r7,#4]
 311 000c FB60     	 str r3,[r7,#12]
  54:C:\Users\niels\Documents\Elektrotechniek\Jaar 2\ECS\ECSL\software\STM32\STM32Basis\HAL\gemeenschappelijk\Third_Party\freertos-addons-1.1.0\c++\Source\ctasklet.cpp ****     tasklet->Run(parameter);
 312              	 .loc 2 54 27
 313 000e FB68     	 ldr r3,[r7,#12]
 314 0010 1B68     	 ldr r3,[r3]
 315 0012 0833     	 adds r3,r3,#8
 316 0014 1B68     	 ldr r3,[r3]
ARM GAS   			page 12


 317              	 .loc 2 54 17
 318 0016 3968     	 ldr r1,[r7]
 319 0018 F868     	 ldr r0,[r7,#12]
 320 001a 9847     	 blx r3
 321              	.LVL0:
  55:C:\Users\niels\Documents\Elektrotechniek\Jaar 2\ECS\ECSL\software\STM32\STM32Basis\HAL\gemeenschappelijk\Third_Party\freertos-addons-1.1.0\c++\Source\ctasklet.cpp ****     xSemaphoreGive(tasklet->DtorLock);
 322              	 .loc 2 55 5
 323 001c FB68     	 ldr r3,[r7,#12]
 324 001e 5868     	 ldr r0,[r3,#4]
 325 0020 0023     	 movs r3,#0
 326 0022 0022     	 movs r2,#0
 327 0024 0021     	 movs r1,#0
 328 0026 FFF7FEFF 	 bl xQueueGenericSend
  56:C:\Users\niels\Documents\Elektrotechniek\Jaar 2\ECS\ECSL\software\STM32\STM32Basis\HAL\gemeenschappelijk\Third_Party\freertos-addons-1.1.0\c++\Source\ctasklet.cpp **** }
 329              	 .loc 2 56 1
 330 002a 00BF     	 nop
 331 002c 1037     	 adds r7,r7,#16
 332              	 .cfi_def_cfa_offset 8
 333 002e BD46     	 mov sp,r7
 334              	 .cfi_def_cfa_register 13
 335              	 
 336 0030 80BD     	 pop {r7,pc}
 337              	 .cfi_endproc
 338              	.LFE986:
 339              	 .size _ZN12cpp_freertos7Tasklet22TaskletAdapterFunctionEPvm,.-_ZN12cpp_freertos7Tasklet22TaskletAdapterFunctionEPvm
 340              	 .section .text._ZN12cpp_freertos7Tasklet8ScheduleEmm,"ax",%progbits
 341              	 .align 1
 342              	 .global _ZN12cpp_freertos7Tasklet8ScheduleEmm
 343              	 .syntax unified
 344              	 .thumb
 345              	 .thumb_func
 346              	 .type _ZN12cpp_freertos7Tasklet8ScheduleEmm,%function
 347              	_ZN12cpp_freertos7Tasklet8ScheduleEmm:
 348              	.LFB987:
  57:C:\Users\niels\Documents\Elektrotechniek\Jaar 2\ECS\ECSL\software\STM32\STM32Basis\HAL\gemeenschappelijk\Third_Party\freertos-addons-1.1.0\c++\Source\ctasklet.cpp **** 
  58:C:\Users\niels\Documents\Elektrotechniek\Jaar 2\ECS\ECSL\software\STM32\STM32Basis\HAL\gemeenschappelijk\Third_Party\freertos-addons-1.1.0\c++\Source\ctasklet.cpp **** 
  59:C:\Users\niels\Documents\Elektrotechniek\Jaar 2\ECS\ECSL\software\STM32\STM32Basis\HAL\gemeenschappelijk\Third_Party\freertos-addons-1.1.0\c++\Source\ctasklet.cpp **** bool Tasklet::Schedule( uint32_t parameter,
  60:C:\Users\niels\Documents\Elektrotechniek\Jaar 2\ECS\ECSL\software\STM32\STM32Basis\HAL\gemeenschappelijk\Third_Party\freertos-addons-1.1.0\c++\Source\ctasklet.cpp ****                         TickType_t CmdTimeout)
  61:C:\Users\niels\Documents\Elektrotechniek\Jaar 2\ECS\ECSL\software\STM32\STM32Basis\HAL\gemeenschappelijk\Third_Party\freertos-addons-1.1.0\c++\Source\ctasklet.cpp **** {
 349              	 .loc 2 61 1
 350              	 .cfi_startproc
 351              	 
 352              	 
 353 0000 80B5     	 push {r7,lr}
 354              	 .cfi_def_cfa_offset 8
 355              	 .cfi_offset 7,-8
 356              	 .cfi_offset 14,-4
 357 0002 86B0     	 sub sp,sp,#24
 358              	 .cfi_def_cfa_offset 32
 359 0004 00AF     	 add r7,sp,#0
 360              	 .cfi_def_cfa_register 7
 361 0006 F860     	 str r0,[r7,#12]
 362 0008 B960     	 str r1,[r7,#8]
 363 000a 7A60     	 str r2,[r7,#4]
  62:C:\Users\niels\Documents\Elektrotechniek\Jaar 2\ECS\ECSL\software\STM32\STM32Basis\HAL\gemeenschappelijk\Third_Party\freertos-addons-1.1.0\c++\Source\ctasklet.cpp ****     BaseType_t rc;
  63:C:\Users\niels\Documents\Elektrotechniek\Jaar 2\ECS\ECSL\software\STM32\STM32Basis\HAL\gemeenschappelijk\Third_Party\freertos-addons-1.1.0\c++\Source\ctasklet.cpp **** 
  64:C:\Users\niels\Documents\Elektrotechniek\Jaar 2\ECS\ECSL\software\STM32\STM32Basis\HAL\gemeenschappelijk\Third_Party\freertos-addons-1.1.0\c++\Source\ctasklet.cpp ****     xSemaphoreTake(DtorLock, portMAX_DELAY);
ARM GAS   			page 13


 364              	 .loc 2 64 5
 365 000c FB68     	 ldr r3,[r7,#12]
 366 000e 5868     	 ldr r0,[r3,#4]
 367 0010 0023     	 movs r3,#0
 368 0012 4FF0FF32 	 mov r2,#-1
 369 0016 0021     	 movs r1,#0
 370 0018 FFF7FEFF 	 bl xQueueGenericReceive
  65:C:\Users\niels\Documents\Elektrotechniek\Jaar 2\ECS\ECSL\software\STM32\STM32Basis\HAL\gemeenschappelijk\Third_Party\freertos-addons-1.1.0\c++\Source\ctasklet.cpp **** 
  66:C:\Users\niels\Documents\Elektrotechniek\Jaar 2\ECS\ECSL\software\STM32\STM32Basis\HAL\gemeenschappelijk\Third_Party\freertos-addons-1.1.0\c++\Source\ctasklet.cpp ****     rc = xTimerPendFunctionCall(TaskletAdapterFunction,
 371              	 .loc 2 66 32
 372 001c 7B68     	 ldr r3,[r7,#4]
 373 001e BA68     	 ldr r2,[r7,#8]
 374 0020 F968     	 ldr r1,[r7,#12]
 375 0022 0A48     	 ldr r0,.L19
 376 0024 FFF7FEFF 	 bl xTimerPendFunctionCall
 377 0028 7861     	 str r0,[r7,#20]
  67:C:\Users\niels\Documents\Elektrotechniek\Jaar 2\ECS\ECSL\software\STM32\STM32Basis\HAL\gemeenschappelijk\Third_Party\freertos-addons-1.1.0\c++\Source\ctasklet.cpp ****                                 this,
  68:C:\Users\niels\Documents\Elektrotechniek\Jaar 2\ECS\ECSL\software\STM32\STM32Basis\HAL\gemeenschappelijk\Third_Party\freertos-addons-1.1.0\c++\Source\ctasklet.cpp ****                                 parameter,
  69:C:\Users\niels\Documents\Elektrotechniek\Jaar 2\ECS\ECSL\software\STM32\STM32Basis\HAL\gemeenschappelijk\Third_Party\freertos-addons-1.1.0\c++\Source\ctasklet.cpp ****                                 CmdTimeout);
  70:C:\Users\niels\Documents\Elektrotechniek\Jaar 2\ECS\ECSL\software\STM32\STM32Basis\HAL\gemeenschappelijk\Third_Party\freertos-addons-1.1.0\c++\Source\ctasklet.cpp **** 
  71:C:\Users\niels\Documents\Elektrotechniek\Jaar 2\ECS\ECSL\software\STM32\STM32Basis\HAL\gemeenschappelijk\Third_Party\freertos-addons-1.1.0\c++\Source\ctasklet.cpp ****     if (rc == pdPASS) {
 378              	 .loc 2 71 5
 379 002a 7B69     	 ldr r3,[r7,#20]
 380 002c 012B     	 cmp r3,#1
 381 002e 01D1     	 bne .L17
  72:C:\Users\niels\Documents\Elektrotechniek\Jaar 2\ECS\ECSL\software\STM32\STM32Basis\HAL\gemeenschappelijk\Third_Party\freertos-addons-1.1.0\c++\Source\ctasklet.cpp ****         return true;
 382              	 .loc 2 72 16
 383 0030 0123     	 movs r3,#1
 384 0032 07E0     	 b .L18
 385              	.L17:
  73:C:\Users\niels\Documents\Elektrotechniek\Jaar 2\ECS\ECSL\software\STM32\STM32Basis\HAL\gemeenschappelijk\Third_Party\freertos-addons-1.1.0\c++\Source\ctasklet.cpp ****     }
  74:C:\Users\niels\Documents\Elektrotechniek\Jaar 2\ECS\ECSL\software\STM32\STM32Basis\HAL\gemeenschappelijk\Third_Party\freertos-addons-1.1.0\c++\Source\ctasklet.cpp ****     else {
  75:C:\Users\niels\Documents\Elektrotechniek\Jaar 2\ECS\ECSL\software\STM32\STM32Basis\HAL\gemeenschappelijk\Third_Party\freertos-addons-1.1.0\c++\Source\ctasklet.cpp ****         xSemaphoreGive(DtorLock);
 386              	 .loc 2 75 9
 387 0034 FB68     	 ldr r3,[r7,#12]
 388 0036 5868     	 ldr r0,[r3,#4]
 389 0038 0023     	 movs r3,#0
 390 003a 0022     	 movs r2,#0
 391 003c 0021     	 movs r1,#0
 392 003e FFF7FEFF 	 bl xQueueGenericSend
  76:C:\Users\niels\Documents\Elektrotechniek\Jaar 2\ECS\ECSL\software\STM32\STM32Basis\HAL\gemeenschappelijk\Third_Party\freertos-addons-1.1.0\c++\Source\ctasklet.cpp ****         return false;
 393              	 .loc 2 76 16
 394 0042 0023     	 movs r3,#0
 395              	.L18:
  77:C:\Users\niels\Documents\Elektrotechniek\Jaar 2\ECS\ECSL\software\STM32\STM32Basis\HAL\gemeenschappelijk\Third_Party\freertos-addons-1.1.0\c++\Source\ctasklet.cpp ****     }
  78:C:\Users\niels\Documents\Elektrotechniek\Jaar 2\ECS\ECSL\software\STM32\STM32Basis\HAL\gemeenschappelijk\Third_Party\freertos-addons-1.1.0\c++\Source\ctasklet.cpp **** }
 396              	 .loc 2 78 1
 397 0044 1846     	 mov r0,r3
 398 0046 1837     	 adds r7,r7,#24
 399              	 .cfi_def_cfa_offset 8
 400 0048 BD46     	 mov sp,r7
 401              	 .cfi_def_cfa_register 13
 402              	 
 403 004a 80BD     	 pop {r7,pc}
 404              	.L20:
 405              	 .align 2
 406              	.L19:
ARM GAS   			page 14


 407 004c 00000000 	 .word _ZN12cpp_freertos7Tasklet22TaskletAdapterFunctionEPvm
 408              	 .cfi_endproc
 409              	.LFE987:
 410              	 .size _ZN12cpp_freertos7Tasklet8ScheduleEmm,.-_ZN12cpp_freertos7Tasklet8ScheduleEmm
 411              	 .section .text._ZN12cpp_freertos7Tasklet15ScheduleFromISREmPl,"ax",%progbits
 412              	 .align 1
 413              	 .global _ZN12cpp_freertos7Tasklet15ScheduleFromISREmPl
 414              	 .syntax unified
 415              	 .thumb
 416              	 .thumb_func
 417              	 .type _ZN12cpp_freertos7Tasklet15ScheduleFromISREmPl,%function
 418              	_ZN12cpp_freertos7Tasklet15ScheduleFromISREmPl:
 419              	.LFB988:
  79:C:\Users\niels\Documents\Elektrotechniek\Jaar 2\ECS\ECSL\software\STM32\STM32Basis\HAL\gemeenschappelijk\Third_Party\freertos-addons-1.1.0\c++\Source\ctasklet.cpp **** 
  80:C:\Users\niels\Documents\Elektrotechniek\Jaar 2\ECS\ECSL\software\STM32\STM32Basis\HAL\gemeenschappelijk\Third_Party\freertos-addons-1.1.0\c++\Source\ctasklet.cpp **** 
  81:C:\Users\niels\Documents\Elektrotechniek\Jaar 2\ECS\ECSL\software\STM32\STM32Basis\HAL\gemeenschappelijk\Third_Party\freertos-addons-1.1.0\c++\Source\ctasklet.cpp **** bool Tasklet::ScheduleFromISR(  uint32_t parameter,
  82:C:\Users\niels\Documents\Elektrotechniek\Jaar 2\ECS\ECSL\software\STM32\STM32Basis\HAL\gemeenschappelijk\Third_Party\freertos-addons-1.1.0\c++\Source\ctasklet.cpp ****                                 BaseType_t *pxHigherPriorityTaskWoken)
  83:C:\Users\niels\Documents\Elektrotechniek\Jaar 2\ECS\ECSL\software\STM32\STM32Basis\HAL\gemeenschappelijk\Third_Party\freertos-addons-1.1.0\c++\Source\ctasklet.cpp **** {
 420              	 .loc 2 83 1
 421              	 .cfi_startproc
 422              	 
 423              	 
 424 0000 80B5     	 push {r7,lr}
 425              	 .cfi_def_cfa_offset 8
 426              	 .cfi_offset 7,-8
 427              	 .cfi_offset 14,-4
 428 0002 86B0     	 sub sp,sp,#24
 429              	 .cfi_def_cfa_offset 32
 430 0004 00AF     	 add r7,sp,#0
 431              	 .cfi_def_cfa_register 7
 432 0006 F860     	 str r0,[r7,#12]
 433 0008 B960     	 str r1,[r7,#8]
 434 000a 7A60     	 str r2,[r7,#4]
  84:C:\Users\niels\Documents\Elektrotechniek\Jaar 2\ECS\ECSL\software\STM32\STM32Basis\HAL\gemeenschappelijk\Third_Party\freertos-addons-1.1.0\c++\Source\ctasklet.cpp ****     BaseType_t rc;
  85:C:\Users\niels\Documents\Elektrotechniek\Jaar 2\ECS\ECSL\software\STM32\STM32Basis\HAL\gemeenschappelijk\Third_Party\freertos-addons-1.1.0\c++\Source\ctasklet.cpp **** 
  86:C:\Users\niels\Documents\Elektrotechniek\Jaar 2\ECS\ECSL\software\STM32\STM32Basis\HAL\gemeenschappelijk\Third_Party\freertos-addons-1.1.0\c++\Source\ctasklet.cpp ****     rc = xSemaphoreTakeFromISR(DtorLock, pxHigherPriorityTaskWoken);
 435              	 .loc 2 86 10
 436 000c FB68     	 ldr r3,[r7,#12]
 437 000e 5B68     	 ldr r3,[r3,#4]
 438 0010 7A68     	 ldr r2,[r7,#4]
 439 0012 0021     	 movs r1,#0
 440 0014 1846     	 mov r0,r3
 441 0016 FFF7FEFF 	 bl xQueueReceiveFromISR
 442 001a 7861     	 str r0,[r7,#20]
  87:C:\Users\niels\Documents\Elektrotechniek\Jaar 2\ECS\ECSL\software\STM32\STM32Basis\HAL\gemeenschappelijk\Third_Party\freertos-addons-1.1.0\c++\Source\ctasklet.cpp **** 
  88:C:\Users\niels\Documents\Elektrotechniek\Jaar 2\ECS\ECSL\software\STM32\STM32Basis\HAL\gemeenschappelijk\Third_Party\freertos-addons-1.1.0\c++\Source\ctasklet.cpp ****     if (rc != pdTRUE) {
 443              	 .loc 2 88 5
 444 001c 7B69     	 ldr r3,[r7,#20]
 445 001e 012B     	 cmp r3,#1
 446 0020 01D0     	 beq .L22
  89:C:\Users\niels\Documents\Elektrotechniek\Jaar 2\ECS\ECSL\software\STM32\STM32Basis\HAL\gemeenschappelijk\Third_Party\freertos-addons-1.1.0\c++\Source\ctasklet.cpp ****         return false;
 447              	 .loc 2 89 16
 448 0022 0023     	 movs r3,#0
 449 0024 13E0     	 b .L23
 450              	.L22:
  90:C:\Users\niels\Documents\Elektrotechniek\Jaar 2\ECS\ECSL\software\STM32\STM32Basis\HAL\gemeenschappelijk\Third_Party\freertos-addons-1.1.0\c++\Source\ctasklet.cpp ****     }
  91:C:\Users\niels\Documents\Elektrotechniek\Jaar 2\ECS\ECSL\software\STM32\STM32Basis\HAL\gemeenschappelijk\Third_Party\freertos-addons-1.1.0\c++\Source\ctasklet.cpp ****     
ARM GAS   			page 15


  92:C:\Users\niels\Documents\Elektrotechniek\Jaar 2\ECS\ECSL\software\STM32\STM32Basis\HAL\gemeenschappelijk\Third_Party\freertos-addons-1.1.0\c++\Source\ctasklet.cpp ****     rc = xTimerPendFunctionCallFromISR( TaskletAdapterFunction,
 451              	 .loc 2 92 39
 452 0026 7B68     	 ldr r3,[r7,#4]
 453 0028 BA68     	 ldr r2,[r7,#8]
 454 002a F968     	 ldr r1,[r7,#12]
 455 002c 0A48     	 ldr r0,.L25
 456 002e FFF7FEFF 	 bl xTimerPendFunctionCallFromISR
 457 0032 7861     	 str r0,[r7,#20]
  93:C:\Users\niels\Documents\Elektrotechniek\Jaar 2\ECS\ECSL\software\STM32\STM32Basis\HAL\gemeenschappelijk\Third_Party\freertos-addons-1.1.0\c++\Source\ctasklet.cpp ****                                         this,
  94:C:\Users\niels\Documents\Elektrotechniek\Jaar 2\ECS\ECSL\software\STM32\STM32Basis\HAL\gemeenschappelijk\Third_Party\freertos-addons-1.1.0\c++\Source\ctasklet.cpp ****                                         parameter,
  95:C:\Users\niels\Documents\Elektrotechniek\Jaar 2\ECS\ECSL\software\STM32\STM32Basis\HAL\gemeenschappelijk\Third_Party\freertos-addons-1.1.0\c++\Source\ctasklet.cpp ****                                         pxHigherPriorityTaskWoken);
  96:C:\Users\niels\Documents\Elektrotechniek\Jaar 2\ECS\ECSL\software\STM32\STM32Basis\HAL\gemeenschappelijk\Third_Party\freertos-addons-1.1.0\c++\Source\ctasklet.cpp **** 
  97:C:\Users\niels\Documents\Elektrotechniek\Jaar 2\ECS\ECSL\software\STM32\STM32Basis\HAL\gemeenschappelijk\Third_Party\freertos-addons-1.1.0\c++\Source\ctasklet.cpp ****     if (rc == pdPASS) {
 458              	 .loc 2 97 5
 459 0034 7B69     	 ldr r3,[r7,#20]
 460 0036 012B     	 cmp r3,#1
 461 0038 01D1     	 bne .L24
  98:C:\Users\niels\Documents\Elektrotechniek\Jaar 2\ECS\ECSL\software\STM32\STM32Basis\HAL\gemeenschappelijk\Third_Party\freertos-addons-1.1.0\c++\Source\ctasklet.cpp ****         return true;
 462              	 .loc 2 98 16
 463 003a 0123     	 movs r3,#1
 464 003c 07E0     	 b .L23
 465              	.L24:
  99:C:\Users\niels\Documents\Elektrotechniek\Jaar 2\ECS\ECSL\software\STM32\STM32Basis\HAL\gemeenschappelijk\Third_Party\freertos-addons-1.1.0\c++\Source\ctasklet.cpp ****     }
 100:C:\Users\niels\Documents\Elektrotechniek\Jaar 2\ECS\ECSL\software\STM32\STM32Basis\HAL\gemeenschappelijk\Third_Party\freertos-addons-1.1.0\c++\Source\ctasklet.cpp ****     else {
 101:C:\Users\niels\Documents\Elektrotechniek\Jaar 2\ECS\ECSL\software\STM32\STM32Basis\HAL\gemeenschappelijk\Third_Party\freertos-addons-1.1.0\c++\Source\ctasklet.cpp ****         xSemaphoreGive(DtorLock);
 466              	 .loc 2 101 9
 467 003e FB68     	 ldr r3,[r7,#12]
 468 0040 5868     	 ldr r0,[r3,#4]
 469 0042 0023     	 movs r3,#0
 470 0044 0022     	 movs r2,#0
 471 0046 0021     	 movs r1,#0
 472 0048 FFF7FEFF 	 bl xQueueGenericSend
 102:C:\Users\niels\Documents\Elektrotechniek\Jaar 2\ECS\ECSL\software\STM32\STM32Basis\HAL\gemeenschappelijk\Third_Party\freertos-addons-1.1.0\c++\Source\ctasklet.cpp ****         return false;
 473              	 .loc 2 102 16
 474 004c 0023     	 movs r3,#0
 475              	.L23:
 103:C:\Users\niels\Documents\Elektrotechniek\Jaar 2\ECS\ECSL\software\STM32\STM32Basis\HAL\gemeenschappelijk\Third_Party\freertos-addons-1.1.0\c++\Source\ctasklet.cpp ****     }
 104:C:\Users\niels\Documents\Elektrotechniek\Jaar 2\ECS\ECSL\software\STM32\STM32Basis\HAL\gemeenschappelijk\Third_Party\freertos-addons-1.1.0\c++\Source\ctasklet.cpp **** }
 476              	 .loc 2 104 1
 477 004e 1846     	 mov r0,r3
 478 0050 1837     	 adds r7,r7,#24
 479              	 .cfi_def_cfa_offset 8
 480 0052 BD46     	 mov sp,r7
 481              	 .cfi_def_cfa_register 13
 482              	 
 483 0054 80BD     	 pop {r7,pc}
 484              	.L26:
 485 0056 00BF     	 .align 2
 486              	.L25:
 487 0058 00000000 	 .word _ZN12cpp_freertos7Tasklet22TaskletAdapterFunctionEPvm
 488              	 .cfi_endproc
 489              	.LFE988:
 490              	 .size _ZN12cpp_freertos7Tasklet15ScheduleFromISREmPl,.-_ZN12cpp_freertos7Tasklet15ScheduleFromISREmPl
 491              	 .global _ZTVN12cpp_freertos7TaskletE
 492              	 .section .rodata._ZTVN12cpp_freertos7TaskletE,"a"
 493              	 .align 2
 494              	 .type _ZTVN12cpp_freertos7TaskletE,%object
ARM GAS   			page 16


 495              	 .size _ZTVN12cpp_freertos7TaskletE,20
 496              	_ZTVN12cpp_freertos7TaskletE:
 497 0000 00000000 	 .word 0
 498 0004 00000000 	 .word 0
 499 0008 00000000 	 .word 0
 500 000c 00000000 	 .word 0
 501 0010 00000000 	 .word __cxa_pure_virtual
 502              	 .text
 503              	.Letext0:
 504              	 .file 3 "c:\\progra~2\\gnuarm~1\\102021~1.10\\arm-none-eabi\\include\\c++\\10.3.1\\bits\\exception_ptr.h"
 505              	 .file 4 "c:\\progra~2\\gnuarm~1\\102021~1.10\\arm-none-eabi\\include\\c++\\10.3.1\\type_traits"
 506              	 .file 5 "c:\\progra~2\\gnuarm~1\\102021~1.10\\arm-none-eabi\\include\\c++\\10.3.1\\bits\\cpp_type_traits.h"
 507              	 .file 6 "c:\\progra~2\\gnuarm~1\\102021~1.10\\arm-none-eabi\\include\\c++\\10.3.1\\bits\\stl_pair.h"
 508              	 .file 7 "c:\\progra~2\\gnuarm~1\\102021~1.10\\arm-none-eabi\\include\\c++\\10.3.1\\debug\\debug.h"
 509              	 .file 8 "c:\\progra~2\\gnuarm~1\\102021~1.10\\arm-none-eabi\\include\\c++\\10.3.1\\cwchar"
 510              	 .file 9 "c:\\progra~2\\gnuarm~1\\102021~1.10\\arm-none-eabi\\include\\c++\\10.3.1\\cstdint"
 511              	 .file 10 "c:\\progra~2\\gnuarm~1\\102021~1.10\\arm-none-eabi\\include\\c++\\10.3.1\\clocale"
 512              	 .file 11 "c:\\progra~2\\gnuarm~1\\102021~1.10\\arm-none-eabi\\include\\c++\\10.3.1\\cstdlib"
 513              	 .file 12 "c:\\progra~2\\gnuarm~1\\102021~1.10\\arm-none-eabi\\include\\c++\\10.3.1\\cstdio"
 514              	 .file 13 "c:\\progra~2\\gnuarm~1\\102021~1.10\\arm-none-eabi\\include\\c++\\10.3.1\\arm-none-eabi\\thumb\\v7e-m+fp\\hard\\bits\\c++config.h"
 515              	 .file 14 "c:\\progra~2\\gnuarm~1\\102021~1.10\\arm-none-eabi\\include\\c++\\10.3.1\\bits\\predefined_ops.h"
 516              	 .file 15 "c:\\progra~2\\gnuarm~1\\102021~1.10\\lib\\gcc\\arm-none-eabi\\10.3.1\\include\\stddef.h"
 517              	 .file 16 "c:\\progra~2\\gnuarm~1\\102021~1.10\\arm-none-eabi\\include\\machine\\_default_types.h"
 518              	 .file 17 "c:\\progra~2\\gnuarm~1\\102021~1.10\\arm-none-eabi\\include\\sys\\_types.h"
 519              	 .file 18 "c:\\progra~2\\gnuarm~1\\102021~1.10\\arm-none-eabi\\include\\sys\\reent.h"
 520              	 .file 19 "c:\\progra~2\\gnuarm~1\\102021~1.10\\arm-none-eabi\\include\\sys\\lock.h"
 521              	 .file 20 "c:\\progra~2\\gnuarm~1\\102021~1.10\\lib\\gcc\\arm-none-eabi\\10.3.1\\include\\stdarg.h"
 522              	 .file 21 "c:\\progra~2\\gnuarm~1\\102021~1.10\\arm-none-eabi\\include\\wchar.h"
 523              	 .file 22 "c:\\progra~2\\gnuarm~1\\102021~1.10\\arm-none-eabi\\include\\sys\\_stdint.h"
 524              	 .file 23 "c:\\progra~2\\gnuarm~1\\102021~1.10\\arm-none-eabi\\include\\stdint.h"
 525              	 .file 24 "c:\\progra~2\\gnuarm~1\\102021~1.10\\arm-none-eabi\\include\\locale.h"
 526              	 .file 25 "c:\\progra~2\\gnuarm~1\\102021~1.10\\arm-none-eabi\\include\\stdlib.h"
 527              	 .file 26 "c:\\progra~2\\gnuarm~1\\102021~1.10\\arm-none-eabi\\include\\stdio.h"
 528              	 .file 27 "C:/Users/niels/DOCUME~1/ELEKTR~1/JAAR2~1/ECS/ECSL/software/STM32/STM32B~1/HAL/GEMEEN~1/THIRD_~1/FreeRTOS/Source/portable/GCC/ARM_CM4F/portmacro.h"
 529              	 .file 28 "C:/Users/niels/DOCUME~1/ELEKTR~1/JAAR2~1/ECS/ECSL/software/STM32/STM32B~1/HAL/GEMEEN~1/THIRD_~1/FreeRTOS/Source/include/queue.h"
 530              	 .file 29 "C:/Users/niels/DOCUME~1/ELEKTR~1/JAAR2~1/ECS/ECSL/software/STM32/STM32B~1/HAL/GEMEEN~1/THIRD_~1/FreeRTOS/Source/include/semphr.h"
 531              	 .file 30 "C:/Users/niels/DOCUME~1/ELEKTR~1/JAAR2~1/ECS/ECSL/software/STM32/STM32B~1/HAL/GEMEEN~1/THIRD_~1/FREERT~1.0/C__~1/Source/include/tasklet.hpp"
 532              	 .file 31 "<built-in>"