ARM GAS   			page 1


   1              	 .cpu cortex-m4
   2              	 .arch armv7e-m
   3              	 .fpu fpv4-sp-d16
   4              	 .eabi_attribute 27,1
   5              	 .eabi_attribute 28,1
   6              	 .eabi_attribute 20,1
   7              	 .eabi_attribute 21,1
   8              	 .eabi_attribute 23,3
   9              	 .eabi_attribute 24,1
  10              	 .eabi_attribute 25,1
  11              	 .eabi_attribute 26,1
  12              	 .eabi_attribute 30,6
  13              	 .eabi_attribute 34,0
  14              	 .eabi_attribute 18,4
  15              	 .file "ctimer.cpp"
  16              	 .text
  17              	.Ltext0:
  18              	 .cfi_sections .debug_frame
  19              	 .section .rodata._ZStL19piecewise_construct,"a"
  20              	 .align 2
  21              	 .type _ZStL19piecewise_construct,%object
  22              	 .size _ZStL19piecewise_construct,1
  23              	_ZStL19piecewise_construct:
  24 0000 00       	 .space 1
  25              	 .section .text._ZL20__gthread_key_deletei,"ax",%progbits
  26              	 .align 1
  27              	 .syntax unified
  28              	 .thumb
  29              	 .thumb_func
  30              	 .type _ZL20__gthread_key_deletei,%function
  31              	_ZL20__gthread_key_deletei:
  32              	.LFB602:
  33              	 .file 1 "c:\\progra~2\\gnuarm~1\\102021~1.10\\arm-none-eabi\\include\\c++\\10.3.1\\arm-none-eabi\\thumb\\v7e-m+fp\\hard\\bits\\gthr-default.h"
   1:c:\progra~2\gnuarm~1\102021~1.10\arm-none-eabi\include\c++\10.3.1\arm-none-eabi\thumb\v7e-m+fp\hard\bits\gthr-default.h **** /* Threads compatibility routines for libgcc2 and libobjc.  */
   2:c:\progra~2\gnuarm~1\102021~1.10\arm-none-eabi\include\c++\10.3.1\arm-none-eabi\thumb\v7e-m+fp\hard\bits\gthr-default.h **** /* Compile this one with gcc.  */
   3:c:\progra~2\gnuarm~1\102021~1.10\arm-none-eabi\include\c++\10.3.1\arm-none-eabi\thumb\v7e-m+fp\hard\bits\gthr-default.h **** /* Copyright (C) 1997-2020 Free Software Foundation, Inc.
   4:c:\progra~2\gnuarm~1\102021~1.10\arm-none-eabi\include\c++\10.3.1\arm-none-eabi\thumb\v7e-m+fp\hard\bits\gthr-default.h **** 
   5:c:\progra~2\gnuarm~1\102021~1.10\arm-none-eabi\include\c++\10.3.1\arm-none-eabi\thumb\v7e-m+fp\hard\bits\gthr-default.h **** This file is part of GCC.
   6:c:\progra~2\gnuarm~1\102021~1.10\arm-none-eabi\include\c++\10.3.1\arm-none-eabi\thumb\v7e-m+fp\hard\bits\gthr-default.h **** 
   7:c:\progra~2\gnuarm~1\102021~1.10\arm-none-eabi\include\c++\10.3.1\arm-none-eabi\thumb\v7e-m+fp\hard\bits\gthr-default.h **** GCC is free software; you can redistribute it and/or modify it under
   8:c:\progra~2\gnuarm~1\102021~1.10\arm-none-eabi\include\c++\10.3.1\arm-none-eabi\thumb\v7e-m+fp\hard\bits\gthr-default.h **** the terms of the GNU General Public License as published by the Free
   9:c:\progra~2\gnuarm~1\102021~1.10\arm-none-eabi\include\c++\10.3.1\arm-none-eabi\thumb\v7e-m+fp\hard\bits\gthr-default.h **** Software Foundation; either version 3, or (at your option) any later
  10:c:\progra~2\gnuarm~1\102021~1.10\arm-none-eabi\include\c++\10.3.1\arm-none-eabi\thumb\v7e-m+fp\hard\bits\gthr-default.h **** version.
  11:c:\progra~2\gnuarm~1\102021~1.10\arm-none-eabi\include\c++\10.3.1\arm-none-eabi\thumb\v7e-m+fp\hard\bits\gthr-default.h **** 
  12:c:\progra~2\gnuarm~1\102021~1.10\arm-none-eabi\include\c++\10.3.1\arm-none-eabi\thumb\v7e-m+fp\hard\bits\gthr-default.h **** GCC is distributed in the hope that it will be useful, but WITHOUT ANY
  13:c:\progra~2\gnuarm~1\102021~1.10\arm-none-eabi\include\c++\10.3.1\arm-none-eabi\thumb\v7e-m+fp\hard\bits\gthr-default.h **** WARRANTY; without even the implied warranty of MERCHANTABILITY or
  14:c:\progra~2\gnuarm~1\102021~1.10\arm-none-eabi\include\c++\10.3.1\arm-none-eabi\thumb\v7e-m+fp\hard\bits\gthr-default.h **** FITNESS FOR A PARTICULAR PURPOSE.  See the GNU General Public License
  15:c:\progra~2\gnuarm~1\102021~1.10\arm-none-eabi\include\c++\10.3.1\arm-none-eabi\thumb\v7e-m+fp\hard\bits\gthr-default.h **** for more details.
  16:c:\progra~2\gnuarm~1\102021~1.10\arm-none-eabi\include\c++\10.3.1\arm-none-eabi\thumb\v7e-m+fp\hard\bits\gthr-default.h **** 
  17:c:\progra~2\gnuarm~1\102021~1.10\arm-none-eabi\include\c++\10.3.1\arm-none-eabi\thumb\v7e-m+fp\hard\bits\gthr-default.h **** Under Section 7 of GPL version 3, you are granted additional
  18:c:\progra~2\gnuarm~1\102021~1.10\arm-none-eabi\include\c++\10.3.1\arm-none-eabi\thumb\v7e-m+fp\hard\bits\gthr-default.h **** permissions described in the GCC Runtime Library Exception, version
  19:c:\progra~2\gnuarm~1\102021~1.10\arm-none-eabi\include\c++\10.3.1\arm-none-eabi\thumb\v7e-m+fp\hard\bits\gthr-default.h **** 3.1, as published by the Free Software Foundation.
  20:c:\progra~2\gnuarm~1\102021~1.10\arm-none-eabi\include\c++\10.3.1\arm-none-eabi\thumb\v7e-m+fp\hard\bits\gthr-default.h **** 
  21:c:\progra~2\gnuarm~1\102021~1.10\arm-none-eabi\include\c++\10.3.1\arm-none-eabi\thumb\v7e-m+fp\hard\bits\gthr-default.h **** You should have received a copy of the GNU General Public License and
  22:c:\progra~2\gnuarm~1\102021~1.10\arm-none-eabi\include\c++\10.3.1\arm-none-eabi\thumb\v7e-m+fp\hard\bits\gthr-default.h **** a copy of the GCC Runtime Library Exception along with this program;
  23:c:\progra~2\gnuarm~1\102021~1.10\arm-none-eabi\include\c++\10.3.1\arm-none-eabi\thumb\v7e-m+fp\hard\bits\gthr-default.h **** see the files COPYING3 and COPYING.RUNTIME respectively.  If not, see
  24:c:\progra~2\gnuarm~1\102021~1.10\arm-none-eabi\include\c++\10.3.1\arm-none-eabi\thumb\v7e-m+fp\hard\bits\gthr-default.h **** <http://www.gnu.org/licenses/>.  */
ARM GAS   			page 2


  25:c:\progra~2\gnuarm~1\102021~1.10\arm-none-eabi\include\c++\10.3.1\arm-none-eabi\thumb\v7e-m+fp\hard\bits\gthr-default.h **** 
  26:c:\progra~2\gnuarm~1\102021~1.10\arm-none-eabi\include\c++\10.3.1\arm-none-eabi\thumb\v7e-m+fp\hard\bits\gthr-default.h **** #ifndef _GLIBCXX_GCC_GTHR_SINGLE_H
  27:c:\progra~2\gnuarm~1\102021~1.10\arm-none-eabi\include\c++\10.3.1\arm-none-eabi\thumb\v7e-m+fp\hard\bits\gthr-default.h **** #define _GLIBCXX_GCC_GTHR_SINGLE_H
  28:c:\progra~2\gnuarm~1\102021~1.10\arm-none-eabi\include\c++\10.3.1\arm-none-eabi\thumb\v7e-m+fp\hard\bits\gthr-default.h **** 
  29:c:\progra~2\gnuarm~1\102021~1.10\arm-none-eabi\include\c++\10.3.1\arm-none-eabi\thumb\v7e-m+fp\hard\bits\gthr-default.h **** /* Just provide compatibility for mutex handling.  */
  30:c:\progra~2\gnuarm~1\102021~1.10\arm-none-eabi\include\c++\10.3.1\arm-none-eabi\thumb\v7e-m+fp\hard\bits\gthr-default.h **** 
  31:c:\progra~2\gnuarm~1\102021~1.10\arm-none-eabi\include\c++\10.3.1\arm-none-eabi\thumb\v7e-m+fp\hard\bits\gthr-default.h **** typedef int __gthread_key_t;
  32:c:\progra~2\gnuarm~1\102021~1.10\arm-none-eabi\include\c++\10.3.1\arm-none-eabi\thumb\v7e-m+fp\hard\bits\gthr-default.h **** typedef int __gthread_once_t;
  33:c:\progra~2\gnuarm~1\102021~1.10\arm-none-eabi\include\c++\10.3.1\arm-none-eabi\thumb\v7e-m+fp\hard\bits\gthr-default.h **** typedef int __gthread_mutex_t;
  34:c:\progra~2\gnuarm~1\102021~1.10\arm-none-eabi\include\c++\10.3.1\arm-none-eabi\thumb\v7e-m+fp\hard\bits\gthr-default.h **** typedef int __gthread_recursive_mutex_t;
  35:c:\progra~2\gnuarm~1\102021~1.10\arm-none-eabi\include\c++\10.3.1\arm-none-eabi\thumb\v7e-m+fp\hard\bits\gthr-default.h **** 
  36:c:\progra~2\gnuarm~1\102021~1.10\arm-none-eabi\include\c++\10.3.1\arm-none-eabi\thumb\v7e-m+fp\hard\bits\gthr-default.h **** #define __GTHREAD_ONCE_INIT 0
  37:c:\progra~2\gnuarm~1\102021~1.10\arm-none-eabi\include\c++\10.3.1\arm-none-eabi\thumb\v7e-m+fp\hard\bits\gthr-default.h **** #define __GTHREAD_MUTEX_INIT 0
  38:c:\progra~2\gnuarm~1\102021~1.10\arm-none-eabi\include\c++\10.3.1\arm-none-eabi\thumb\v7e-m+fp\hard\bits\gthr-default.h **** #define __GTHREAD_MUTEX_INIT_FUNCTION(mx) do {} while (0)
  39:c:\progra~2\gnuarm~1\102021~1.10\arm-none-eabi\include\c++\10.3.1\arm-none-eabi\thumb\v7e-m+fp\hard\bits\gthr-default.h **** #define __GTHREAD_RECURSIVE_MUTEX_INIT 0
  40:c:\progra~2\gnuarm~1\102021~1.10\arm-none-eabi\include\c++\10.3.1\arm-none-eabi\thumb\v7e-m+fp\hard\bits\gthr-default.h **** 
  41:c:\progra~2\gnuarm~1\102021~1.10\arm-none-eabi\include\c++\10.3.1\arm-none-eabi\thumb\v7e-m+fp\hard\bits\gthr-default.h **** #define _GLIBCXX_UNUSED __attribute__((__unused__))
  42:c:\progra~2\gnuarm~1\102021~1.10\arm-none-eabi\include\c++\10.3.1\arm-none-eabi\thumb\v7e-m+fp\hard\bits\gthr-default.h **** 
  43:c:\progra~2\gnuarm~1\102021~1.10\arm-none-eabi\include\c++\10.3.1\arm-none-eabi\thumb\v7e-m+fp\hard\bits\gthr-default.h **** #ifdef _LIBOBJC
  44:c:\progra~2\gnuarm~1\102021~1.10\arm-none-eabi\include\c++\10.3.1\arm-none-eabi\thumb\v7e-m+fp\hard\bits\gthr-default.h **** 
  45:c:\progra~2\gnuarm~1\102021~1.10\arm-none-eabi\include\c++\10.3.1\arm-none-eabi\thumb\v7e-m+fp\hard\bits\gthr-default.h **** /* Thread local storage for a single thread */
  46:c:\progra~2\gnuarm~1\102021~1.10\arm-none-eabi\include\c++\10.3.1\arm-none-eabi\thumb\v7e-m+fp\hard\bits\gthr-default.h **** static void *thread_local_storage = NULL;
  47:c:\progra~2\gnuarm~1\102021~1.10\arm-none-eabi\include\c++\10.3.1\arm-none-eabi\thumb\v7e-m+fp\hard\bits\gthr-default.h **** 
  48:c:\progra~2\gnuarm~1\102021~1.10\arm-none-eabi\include\c++\10.3.1\arm-none-eabi\thumb\v7e-m+fp\hard\bits\gthr-default.h **** /* Backend initialization functions */
  49:c:\progra~2\gnuarm~1\102021~1.10\arm-none-eabi\include\c++\10.3.1\arm-none-eabi\thumb\v7e-m+fp\hard\bits\gthr-default.h **** 
  50:c:\progra~2\gnuarm~1\102021~1.10\arm-none-eabi\include\c++\10.3.1\arm-none-eabi\thumb\v7e-m+fp\hard\bits\gthr-default.h **** /* Initialize the threads subsystem.  */
  51:c:\progra~2\gnuarm~1\102021~1.10\arm-none-eabi\include\c++\10.3.1\arm-none-eabi\thumb\v7e-m+fp\hard\bits\gthr-default.h **** static inline int
  52:c:\progra~2\gnuarm~1\102021~1.10\arm-none-eabi\include\c++\10.3.1\arm-none-eabi\thumb\v7e-m+fp\hard\bits\gthr-default.h **** __gthread_objc_init_thread_system (void)
  53:c:\progra~2\gnuarm~1\102021~1.10\arm-none-eabi\include\c++\10.3.1\arm-none-eabi\thumb\v7e-m+fp\hard\bits\gthr-default.h **** {
  54:c:\progra~2\gnuarm~1\102021~1.10\arm-none-eabi\include\c++\10.3.1\arm-none-eabi\thumb\v7e-m+fp\hard\bits\gthr-default.h ****   /* No thread support available */
  55:c:\progra~2\gnuarm~1\102021~1.10\arm-none-eabi\include\c++\10.3.1\arm-none-eabi\thumb\v7e-m+fp\hard\bits\gthr-default.h ****   return -1;
  56:c:\progra~2\gnuarm~1\102021~1.10\arm-none-eabi\include\c++\10.3.1\arm-none-eabi\thumb\v7e-m+fp\hard\bits\gthr-default.h **** }
  57:c:\progra~2\gnuarm~1\102021~1.10\arm-none-eabi\include\c++\10.3.1\arm-none-eabi\thumb\v7e-m+fp\hard\bits\gthr-default.h **** 
  58:c:\progra~2\gnuarm~1\102021~1.10\arm-none-eabi\include\c++\10.3.1\arm-none-eabi\thumb\v7e-m+fp\hard\bits\gthr-default.h **** /* Close the threads subsystem.  */
  59:c:\progra~2\gnuarm~1\102021~1.10\arm-none-eabi\include\c++\10.3.1\arm-none-eabi\thumb\v7e-m+fp\hard\bits\gthr-default.h **** static inline int
  60:c:\progra~2\gnuarm~1\102021~1.10\arm-none-eabi\include\c++\10.3.1\arm-none-eabi\thumb\v7e-m+fp\hard\bits\gthr-default.h **** __gthread_objc_close_thread_system (void)
  61:c:\progra~2\gnuarm~1\102021~1.10\arm-none-eabi\include\c++\10.3.1\arm-none-eabi\thumb\v7e-m+fp\hard\bits\gthr-default.h **** {
  62:c:\progra~2\gnuarm~1\102021~1.10\arm-none-eabi\include\c++\10.3.1\arm-none-eabi\thumb\v7e-m+fp\hard\bits\gthr-default.h ****   /* No thread support available */
  63:c:\progra~2\gnuarm~1\102021~1.10\arm-none-eabi\include\c++\10.3.1\arm-none-eabi\thumb\v7e-m+fp\hard\bits\gthr-default.h ****   return -1;
  64:c:\progra~2\gnuarm~1\102021~1.10\arm-none-eabi\include\c++\10.3.1\arm-none-eabi\thumb\v7e-m+fp\hard\bits\gthr-default.h **** }
  65:c:\progra~2\gnuarm~1\102021~1.10\arm-none-eabi\include\c++\10.3.1\arm-none-eabi\thumb\v7e-m+fp\hard\bits\gthr-default.h **** 
  66:c:\progra~2\gnuarm~1\102021~1.10\arm-none-eabi\include\c++\10.3.1\arm-none-eabi\thumb\v7e-m+fp\hard\bits\gthr-default.h **** /* Backend thread functions */
  67:c:\progra~2\gnuarm~1\102021~1.10\arm-none-eabi\include\c++\10.3.1\arm-none-eabi\thumb\v7e-m+fp\hard\bits\gthr-default.h **** 
  68:c:\progra~2\gnuarm~1\102021~1.10\arm-none-eabi\include\c++\10.3.1\arm-none-eabi\thumb\v7e-m+fp\hard\bits\gthr-default.h **** /* Create a new thread of execution.  */
  69:c:\progra~2\gnuarm~1\102021~1.10\arm-none-eabi\include\c++\10.3.1\arm-none-eabi\thumb\v7e-m+fp\hard\bits\gthr-default.h **** static inline objc_thread_t
  70:c:\progra~2\gnuarm~1\102021~1.10\arm-none-eabi\include\c++\10.3.1\arm-none-eabi\thumb\v7e-m+fp\hard\bits\gthr-default.h **** __gthread_objc_thread_detach (void (* func)(void *), void * arg _GLIBCXX_UNUSED)
  71:c:\progra~2\gnuarm~1\102021~1.10\arm-none-eabi\include\c++\10.3.1\arm-none-eabi\thumb\v7e-m+fp\hard\bits\gthr-default.h **** {
  72:c:\progra~2\gnuarm~1\102021~1.10\arm-none-eabi\include\c++\10.3.1\arm-none-eabi\thumb\v7e-m+fp\hard\bits\gthr-default.h ****   /* No thread support available */
  73:c:\progra~2\gnuarm~1\102021~1.10\arm-none-eabi\include\c++\10.3.1\arm-none-eabi\thumb\v7e-m+fp\hard\bits\gthr-default.h ****   return NULL;
  74:c:\progra~2\gnuarm~1\102021~1.10\arm-none-eabi\include\c++\10.3.1\arm-none-eabi\thumb\v7e-m+fp\hard\bits\gthr-default.h **** }
  75:c:\progra~2\gnuarm~1\102021~1.10\arm-none-eabi\include\c++\10.3.1\arm-none-eabi\thumb\v7e-m+fp\hard\bits\gthr-default.h **** 
  76:c:\progra~2\gnuarm~1\102021~1.10\arm-none-eabi\include\c++\10.3.1\arm-none-eabi\thumb\v7e-m+fp\hard\bits\gthr-default.h **** /* Set the current thread's priority.  */
  77:c:\progra~2\gnuarm~1\102021~1.10\arm-none-eabi\include\c++\10.3.1\arm-none-eabi\thumb\v7e-m+fp\hard\bits\gthr-default.h **** static inline int
  78:c:\progra~2\gnuarm~1\102021~1.10\arm-none-eabi\include\c++\10.3.1\arm-none-eabi\thumb\v7e-m+fp\hard\bits\gthr-default.h **** __gthread_objc_thread_set_priority (int priority _GLIBCXX_UNUSED)
  79:c:\progra~2\gnuarm~1\102021~1.10\arm-none-eabi\include\c++\10.3.1\arm-none-eabi\thumb\v7e-m+fp\hard\bits\gthr-default.h **** {
  80:c:\progra~2\gnuarm~1\102021~1.10\arm-none-eabi\include\c++\10.3.1\arm-none-eabi\thumb\v7e-m+fp\hard\bits\gthr-default.h ****   /* No thread support available */
  81:c:\progra~2\gnuarm~1\102021~1.10\arm-none-eabi\include\c++\10.3.1\arm-none-eabi\thumb\v7e-m+fp\hard\bits\gthr-default.h ****   return -1;
ARM GAS   			page 3


  82:c:\progra~2\gnuarm~1\102021~1.10\arm-none-eabi\include\c++\10.3.1\arm-none-eabi\thumb\v7e-m+fp\hard\bits\gthr-default.h **** }
  83:c:\progra~2\gnuarm~1\102021~1.10\arm-none-eabi\include\c++\10.3.1\arm-none-eabi\thumb\v7e-m+fp\hard\bits\gthr-default.h **** 
  84:c:\progra~2\gnuarm~1\102021~1.10\arm-none-eabi\include\c++\10.3.1\arm-none-eabi\thumb\v7e-m+fp\hard\bits\gthr-default.h **** /* Return the current thread's priority.  */
  85:c:\progra~2\gnuarm~1\102021~1.10\arm-none-eabi\include\c++\10.3.1\arm-none-eabi\thumb\v7e-m+fp\hard\bits\gthr-default.h **** static inline int
  86:c:\progra~2\gnuarm~1\102021~1.10\arm-none-eabi\include\c++\10.3.1\arm-none-eabi\thumb\v7e-m+fp\hard\bits\gthr-default.h **** __gthread_objc_thread_get_priority (void)
  87:c:\progra~2\gnuarm~1\102021~1.10\arm-none-eabi\include\c++\10.3.1\arm-none-eabi\thumb\v7e-m+fp\hard\bits\gthr-default.h **** {
  88:c:\progra~2\gnuarm~1\102021~1.10\arm-none-eabi\include\c++\10.3.1\arm-none-eabi\thumb\v7e-m+fp\hard\bits\gthr-default.h ****   return OBJC_THREAD_INTERACTIVE_PRIORITY;
  89:c:\progra~2\gnuarm~1\102021~1.10\arm-none-eabi\include\c++\10.3.1\arm-none-eabi\thumb\v7e-m+fp\hard\bits\gthr-default.h **** }
  90:c:\progra~2\gnuarm~1\102021~1.10\arm-none-eabi\include\c++\10.3.1\arm-none-eabi\thumb\v7e-m+fp\hard\bits\gthr-default.h **** 
  91:c:\progra~2\gnuarm~1\102021~1.10\arm-none-eabi\include\c++\10.3.1\arm-none-eabi\thumb\v7e-m+fp\hard\bits\gthr-default.h **** /* Yield our process time to another thread.  */
  92:c:\progra~2\gnuarm~1\102021~1.10\arm-none-eabi\include\c++\10.3.1\arm-none-eabi\thumb\v7e-m+fp\hard\bits\gthr-default.h **** static inline void
  93:c:\progra~2\gnuarm~1\102021~1.10\arm-none-eabi\include\c++\10.3.1\arm-none-eabi\thumb\v7e-m+fp\hard\bits\gthr-default.h **** __gthread_objc_thread_yield (void)
  94:c:\progra~2\gnuarm~1\102021~1.10\arm-none-eabi\include\c++\10.3.1\arm-none-eabi\thumb\v7e-m+fp\hard\bits\gthr-default.h **** {
  95:c:\progra~2\gnuarm~1\102021~1.10\arm-none-eabi\include\c++\10.3.1\arm-none-eabi\thumb\v7e-m+fp\hard\bits\gthr-default.h ****   return;
  96:c:\progra~2\gnuarm~1\102021~1.10\arm-none-eabi\include\c++\10.3.1\arm-none-eabi\thumb\v7e-m+fp\hard\bits\gthr-default.h **** }
  97:c:\progra~2\gnuarm~1\102021~1.10\arm-none-eabi\include\c++\10.3.1\arm-none-eabi\thumb\v7e-m+fp\hard\bits\gthr-default.h **** 
  98:c:\progra~2\gnuarm~1\102021~1.10\arm-none-eabi\include\c++\10.3.1\arm-none-eabi\thumb\v7e-m+fp\hard\bits\gthr-default.h **** /* Terminate the current thread.  */
  99:c:\progra~2\gnuarm~1\102021~1.10\arm-none-eabi\include\c++\10.3.1\arm-none-eabi\thumb\v7e-m+fp\hard\bits\gthr-default.h **** static inline int
 100:c:\progra~2\gnuarm~1\102021~1.10\arm-none-eabi\include\c++\10.3.1\arm-none-eabi\thumb\v7e-m+fp\hard\bits\gthr-default.h **** __gthread_objc_thread_exit (void)
 101:c:\progra~2\gnuarm~1\102021~1.10\arm-none-eabi\include\c++\10.3.1\arm-none-eabi\thumb\v7e-m+fp\hard\bits\gthr-default.h **** {
 102:c:\progra~2\gnuarm~1\102021~1.10\arm-none-eabi\include\c++\10.3.1\arm-none-eabi\thumb\v7e-m+fp\hard\bits\gthr-default.h ****   /* No thread support available */
 103:c:\progra~2\gnuarm~1\102021~1.10\arm-none-eabi\include\c++\10.3.1\arm-none-eabi\thumb\v7e-m+fp\hard\bits\gthr-default.h ****   /* Should we really exit the program */
 104:c:\progra~2\gnuarm~1\102021~1.10\arm-none-eabi\include\c++\10.3.1\arm-none-eabi\thumb\v7e-m+fp\hard\bits\gthr-default.h ****   /* exit (&__objc_thread_exit_status); */
 105:c:\progra~2\gnuarm~1\102021~1.10\arm-none-eabi\include\c++\10.3.1\arm-none-eabi\thumb\v7e-m+fp\hard\bits\gthr-default.h ****   return -1;
 106:c:\progra~2\gnuarm~1\102021~1.10\arm-none-eabi\include\c++\10.3.1\arm-none-eabi\thumb\v7e-m+fp\hard\bits\gthr-default.h **** }
 107:c:\progra~2\gnuarm~1\102021~1.10\arm-none-eabi\include\c++\10.3.1\arm-none-eabi\thumb\v7e-m+fp\hard\bits\gthr-default.h **** 
 108:c:\progra~2\gnuarm~1\102021~1.10\arm-none-eabi\include\c++\10.3.1\arm-none-eabi\thumb\v7e-m+fp\hard\bits\gthr-default.h **** /* Returns an integer value which uniquely describes a thread.  */
 109:c:\progra~2\gnuarm~1\102021~1.10\arm-none-eabi\include\c++\10.3.1\arm-none-eabi\thumb\v7e-m+fp\hard\bits\gthr-default.h **** static inline objc_thread_t
 110:c:\progra~2\gnuarm~1\102021~1.10\arm-none-eabi\include\c++\10.3.1\arm-none-eabi\thumb\v7e-m+fp\hard\bits\gthr-default.h **** __gthread_objc_thread_id (void)
 111:c:\progra~2\gnuarm~1\102021~1.10\arm-none-eabi\include\c++\10.3.1\arm-none-eabi\thumb\v7e-m+fp\hard\bits\gthr-default.h **** {
 112:c:\progra~2\gnuarm~1\102021~1.10\arm-none-eabi\include\c++\10.3.1\arm-none-eabi\thumb\v7e-m+fp\hard\bits\gthr-default.h ****   /* No thread support, use 1.  */
 113:c:\progra~2\gnuarm~1\102021~1.10\arm-none-eabi\include\c++\10.3.1\arm-none-eabi\thumb\v7e-m+fp\hard\bits\gthr-default.h ****   return (objc_thread_t) 1;
 114:c:\progra~2\gnuarm~1\102021~1.10\arm-none-eabi\include\c++\10.3.1\arm-none-eabi\thumb\v7e-m+fp\hard\bits\gthr-default.h **** }
 115:c:\progra~2\gnuarm~1\102021~1.10\arm-none-eabi\include\c++\10.3.1\arm-none-eabi\thumb\v7e-m+fp\hard\bits\gthr-default.h **** 
 116:c:\progra~2\gnuarm~1\102021~1.10\arm-none-eabi\include\c++\10.3.1\arm-none-eabi\thumb\v7e-m+fp\hard\bits\gthr-default.h **** /* Sets the thread's local storage pointer.  */
 117:c:\progra~2\gnuarm~1\102021~1.10\arm-none-eabi\include\c++\10.3.1\arm-none-eabi\thumb\v7e-m+fp\hard\bits\gthr-default.h **** static inline int
 118:c:\progra~2\gnuarm~1\102021~1.10\arm-none-eabi\include\c++\10.3.1\arm-none-eabi\thumb\v7e-m+fp\hard\bits\gthr-default.h **** __gthread_objc_thread_set_data (void *value)
 119:c:\progra~2\gnuarm~1\102021~1.10\arm-none-eabi\include\c++\10.3.1\arm-none-eabi\thumb\v7e-m+fp\hard\bits\gthr-default.h **** {
 120:c:\progra~2\gnuarm~1\102021~1.10\arm-none-eabi\include\c++\10.3.1\arm-none-eabi\thumb\v7e-m+fp\hard\bits\gthr-default.h ****   thread_local_storage = value;
 121:c:\progra~2\gnuarm~1\102021~1.10\arm-none-eabi\include\c++\10.3.1\arm-none-eabi\thumb\v7e-m+fp\hard\bits\gthr-default.h ****   return 0;
 122:c:\progra~2\gnuarm~1\102021~1.10\arm-none-eabi\include\c++\10.3.1\arm-none-eabi\thumb\v7e-m+fp\hard\bits\gthr-default.h **** }
 123:c:\progra~2\gnuarm~1\102021~1.10\arm-none-eabi\include\c++\10.3.1\arm-none-eabi\thumb\v7e-m+fp\hard\bits\gthr-default.h **** 
 124:c:\progra~2\gnuarm~1\102021~1.10\arm-none-eabi\include\c++\10.3.1\arm-none-eabi\thumb\v7e-m+fp\hard\bits\gthr-default.h **** /* Returns the thread's local storage pointer.  */
 125:c:\progra~2\gnuarm~1\102021~1.10\arm-none-eabi\include\c++\10.3.1\arm-none-eabi\thumb\v7e-m+fp\hard\bits\gthr-default.h **** static inline void *
 126:c:\progra~2\gnuarm~1\102021~1.10\arm-none-eabi\include\c++\10.3.1\arm-none-eabi\thumb\v7e-m+fp\hard\bits\gthr-default.h **** __gthread_objc_thread_get_data (void)
 127:c:\progra~2\gnuarm~1\102021~1.10\arm-none-eabi\include\c++\10.3.1\arm-none-eabi\thumb\v7e-m+fp\hard\bits\gthr-default.h **** {
 128:c:\progra~2\gnuarm~1\102021~1.10\arm-none-eabi\include\c++\10.3.1\arm-none-eabi\thumb\v7e-m+fp\hard\bits\gthr-default.h ****   return thread_local_storage;
 129:c:\progra~2\gnuarm~1\102021~1.10\arm-none-eabi\include\c++\10.3.1\arm-none-eabi\thumb\v7e-m+fp\hard\bits\gthr-default.h **** }
 130:c:\progra~2\gnuarm~1\102021~1.10\arm-none-eabi\include\c++\10.3.1\arm-none-eabi\thumb\v7e-m+fp\hard\bits\gthr-default.h **** 
 131:c:\progra~2\gnuarm~1\102021~1.10\arm-none-eabi\include\c++\10.3.1\arm-none-eabi\thumb\v7e-m+fp\hard\bits\gthr-default.h **** /* Backend mutex functions */
 132:c:\progra~2\gnuarm~1\102021~1.10\arm-none-eabi\include\c++\10.3.1\arm-none-eabi\thumb\v7e-m+fp\hard\bits\gthr-default.h **** 
 133:c:\progra~2\gnuarm~1\102021~1.10\arm-none-eabi\include\c++\10.3.1\arm-none-eabi\thumb\v7e-m+fp\hard\bits\gthr-default.h **** /* Allocate a mutex.  */
 134:c:\progra~2\gnuarm~1\102021~1.10\arm-none-eabi\include\c++\10.3.1\arm-none-eabi\thumb\v7e-m+fp\hard\bits\gthr-default.h **** static inline int
 135:c:\progra~2\gnuarm~1\102021~1.10\arm-none-eabi\include\c++\10.3.1\arm-none-eabi\thumb\v7e-m+fp\hard\bits\gthr-default.h **** __gthread_objc_mutex_allocate (objc_mutex_t mutex _GLIBCXX_UNUSED)
 136:c:\progra~2\gnuarm~1\102021~1.10\arm-none-eabi\include\c++\10.3.1\arm-none-eabi\thumb\v7e-m+fp\hard\bits\gthr-default.h **** {
 137:c:\progra~2\gnuarm~1\102021~1.10\arm-none-eabi\include\c++\10.3.1\arm-none-eabi\thumb\v7e-m+fp\hard\bits\gthr-default.h ****   return 0;
 138:c:\progra~2\gnuarm~1\102021~1.10\arm-none-eabi\include\c++\10.3.1\arm-none-eabi\thumb\v7e-m+fp\hard\bits\gthr-default.h **** }
ARM GAS   			page 4


 139:c:\progra~2\gnuarm~1\102021~1.10\arm-none-eabi\include\c++\10.3.1\arm-none-eabi\thumb\v7e-m+fp\hard\bits\gthr-default.h **** 
 140:c:\progra~2\gnuarm~1\102021~1.10\arm-none-eabi\include\c++\10.3.1\arm-none-eabi\thumb\v7e-m+fp\hard\bits\gthr-default.h **** /* Deallocate a mutex.  */
 141:c:\progra~2\gnuarm~1\102021~1.10\arm-none-eabi\include\c++\10.3.1\arm-none-eabi\thumb\v7e-m+fp\hard\bits\gthr-default.h **** static inline int
 142:c:\progra~2\gnuarm~1\102021~1.10\arm-none-eabi\include\c++\10.3.1\arm-none-eabi\thumb\v7e-m+fp\hard\bits\gthr-default.h **** __gthread_objc_mutex_deallocate (objc_mutex_t mutex _GLIBCXX_UNUSED)
 143:c:\progra~2\gnuarm~1\102021~1.10\arm-none-eabi\include\c++\10.3.1\arm-none-eabi\thumb\v7e-m+fp\hard\bits\gthr-default.h **** {
 144:c:\progra~2\gnuarm~1\102021~1.10\arm-none-eabi\include\c++\10.3.1\arm-none-eabi\thumb\v7e-m+fp\hard\bits\gthr-default.h ****   return 0;
 145:c:\progra~2\gnuarm~1\102021~1.10\arm-none-eabi\include\c++\10.3.1\arm-none-eabi\thumb\v7e-m+fp\hard\bits\gthr-default.h **** }
 146:c:\progra~2\gnuarm~1\102021~1.10\arm-none-eabi\include\c++\10.3.1\arm-none-eabi\thumb\v7e-m+fp\hard\bits\gthr-default.h **** 
 147:c:\progra~2\gnuarm~1\102021~1.10\arm-none-eabi\include\c++\10.3.1\arm-none-eabi\thumb\v7e-m+fp\hard\bits\gthr-default.h **** /* Grab a lock on a mutex.  */
 148:c:\progra~2\gnuarm~1\102021~1.10\arm-none-eabi\include\c++\10.3.1\arm-none-eabi\thumb\v7e-m+fp\hard\bits\gthr-default.h **** static inline int
 149:c:\progra~2\gnuarm~1\102021~1.10\arm-none-eabi\include\c++\10.3.1\arm-none-eabi\thumb\v7e-m+fp\hard\bits\gthr-default.h **** __gthread_objc_mutex_lock (objc_mutex_t mutex _GLIBCXX_UNUSED)
 150:c:\progra~2\gnuarm~1\102021~1.10\arm-none-eabi\include\c++\10.3.1\arm-none-eabi\thumb\v7e-m+fp\hard\bits\gthr-default.h **** {
 151:c:\progra~2\gnuarm~1\102021~1.10\arm-none-eabi\include\c++\10.3.1\arm-none-eabi\thumb\v7e-m+fp\hard\bits\gthr-default.h ****   /* There can only be one thread, so we always get the lock */
 152:c:\progra~2\gnuarm~1\102021~1.10\arm-none-eabi\include\c++\10.3.1\arm-none-eabi\thumb\v7e-m+fp\hard\bits\gthr-default.h ****   return 0;
 153:c:\progra~2\gnuarm~1\102021~1.10\arm-none-eabi\include\c++\10.3.1\arm-none-eabi\thumb\v7e-m+fp\hard\bits\gthr-default.h **** }
 154:c:\progra~2\gnuarm~1\102021~1.10\arm-none-eabi\include\c++\10.3.1\arm-none-eabi\thumb\v7e-m+fp\hard\bits\gthr-default.h **** 
 155:c:\progra~2\gnuarm~1\102021~1.10\arm-none-eabi\include\c++\10.3.1\arm-none-eabi\thumb\v7e-m+fp\hard\bits\gthr-default.h **** /* Try to grab a lock on a mutex.  */
 156:c:\progra~2\gnuarm~1\102021~1.10\arm-none-eabi\include\c++\10.3.1\arm-none-eabi\thumb\v7e-m+fp\hard\bits\gthr-default.h **** static inline int
 157:c:\progra~2\gnuarm~1\102021~1.10\arm-none-eabi\include\c++\10.3.1\arm-none-eabi\thumb\v7e-m+fp\hard\bits\gthr-default.h **** __gthread_objc_mutex_trylock (objc_mutex_t mutex _GLIBCXX_UNUSED)
 158:c:\progra~2\gnuarm~1\102021~1.10\arm-none-eabi\include\c++\10.3.1\arm-none-eabi\thumb\v7e-m+fp\hard\bits\gthr-default.h **** {
 159:c:\progra~2\gnuarm~1\102021~1.10\arm-none-eabi\include\c++\10.3.1\arm-none-eabi\thumb\v7e-m+fp\hard\bits\gthr-default.h ****   /* There can only be one thread, so we always get the lock */
 160:c:\progra~2\gnuarm~1\102021~1.10\arm-none-eabi\include\c++\10.3.1\arm-none-eabi\thumb\v7e-m+fp\hard\bits\gthr-default.h ****   return 0;
 161:c:\progra~2\gnuarm~1\102021~1.10\arm-none-eabi\include\c++\10.3.1\arm-none-eabi\thumb\v7e-m+fp\hard\bits\gthr-default.h **** }
 162:c:\progra~2\gnuarm~1\102021~1.10\arm-none-eabi\include\c++\10.3.1\arm-none-eabi\thumb\v7e-m+fp\hard\bits\gthr-default.h **** 
 163:c:\progra~2\gnuarm~1\102021~1.10\arm-none-eabi\include\c++\10.3.1\arm-none-eabi\thumb\v7e-m+fp\hard\bits\gthr-default.h **** /* Unlock the mutex */
 164:c:\progra~2\gnuarm~1\102021~1.10\arm-none-eabi\include\c++\10.3.1\arm-none-eabi\thumb\v7e-m+fp\hard\bits\gthr-default.h **** static inline int
 165:c:\progra~2\gnuarm~1\102021~1.10\arm-none-eabi\include\c++\10.3.1\arm-none-eabi\thumb\v7e-m+fp\hard\bits\gthr-default.h **** __gthread_objc_mutex_unlock (objc_mutex_t mutex _GLIBCXX_UNUSED)
 166:c:\progra~2\gnuarm~1\102021~1.10\arm-none-eabi\include\c++\10.3.1\arm-none-eabi\thumb\v7e-m+fp\hard\bits\gthr-default.h **** {
 167:c:\progra~2\gnuarm~1\102021~1.10\arm-none-eabi\include\c++\10.3.1\arm-none-eabi\thumb\v7e-m+fp\hard\bits\gthr-default.h ****   return 0;
 168:c:\progra~2\gnuarm~1\102021~1.10\arm-none-eabi\include\c++\10.3.1\arm-none-eabi\thumb\v7e-m+fp\hard\bits\gthr-default.h **** }
 169:c:\progra~2\gnuarm~1\102021~1.10\arm-none-eabi\include\c++\10.3.1\arm-none-eabi\thumb\v7e-m+fp\hard\bits\gthr-default.h **** 
 170:c:\progra~2\gnuarm~1\102021~1.10\arm-none-eabi\include\c++\10.3.1\arm-none-eabi\thumb\v7e-m+fp\hard\bits\gthr-default.h **** /* Backend condition mutex functions */
 171:c:\progra~2\gnuarm~1\102021~1.10\arm-none-eabi\include\c++\10.3.1\arm-none-eabi\thumb\v7e-m+fp\hard\bits\gthr-default.h **** 
 172:c:\progra~2\gnuarm~1\102021~1.10\arm-none-eabi\include\c++\10.3.1\arm-none-eabi\thumb\v7e-m+fp\hard\bits\gthr-default.h **** /* Allocate a condition.  */
 173:c:\progra~2\gnuarm~1\102021~1.10\arm-none-eabi\include\c++\10.3.1\arm-none-eabi\thumb\v7e-m+fp\hard\bits\gthr-default.h **** static inline int
 174:c:\progra~2\gnuarm~1\102021~1.10\arm-none-eabi\include\c++\10.3.1\arm-none-eabi\thumb\v7e-m+fp\hard\bits\gthr-default.h **** __gthread_objc_condition_allocate (objc_condition_t condition _GLIBCXX_UNUSED)
 175:c:\progra~2\gnuarm~1\102021~1.10\arm-none-eabi\include\c++\10.3.1\arm-none-eabi\thumb\v7e-m+fp\hard\bits\gthr-default.h **** {
 176:c:\progra~2\gnuarm~1\102021~1.10\arm-none-eabi\include\c++\10.3.1\arm-none-eabi\thumb\v7e-m+fp\hard\bits\gthr-default.h ****   return 0;
 177:c:\progra~2\gnuarm~1\102021~1.10\arm-none-eabi\include\c++\10.3.1\arm-none-eabi\thumb\v7e-m+fp\hard\bits\gthr-default.h **** }
 178:c:\progra~2\gnuarm~1\102021~1.10\arm-none-eabi\include\c++\10.3.1\arm-none-eabi\thumb\v7e-m+fp\hard\bits\gthr-default.h **** 
 179:c:\progra~2\gnuarm~1\102021~1.10\arm-none-eabi\include\c++\10.3.1\arm-none-eabi\thumb\v7e-m+fp\hard\bits\gthr-default.h **** /* Deallocate a condition.  */
 180:c:\progra~2\gnuarm~1\102021~1.10\arm-none-eabi\include\c++\10.3.1\arm-none-eabi\thumb\v7e-m+fp\hard\bits\gthr-default.h **** static inline int
 181:c:\progra~2\gnuarm~1\102021~1.10\arm-none-eabi\include\c++\10.3.1\arm-none-eabi\thumb\v7e-m+fp\hard\bits\gthr-default.h **** __gthread_objc_condition_deallocate (objc_condition_t condition _GLIBCXX_UNUSED)
 182:c:\progra~2\gnuarm~1\102021~1.10\arm-none-eabi\include\c++\10.3.1\arm-none-eabi\thumb\v7e-m+fp\hard\bits\gthr-default.h **** {
 183:c:\progra~2\gnuarm~1\102021~1.10\arm-none-eabi\include\c++\10.3.1\arm-none-eabi\thumb\v7e-m+fp\hard\bits\gthr-default.h ****   return 0;
 184:c:\progra~2\gnuarm~1\102021~1.10\arm-none-eabi\include\c++\10.3.1\arm-none-eabi\thumb\v7e-m+fp\hard\bits\gthr-default.h **** }
 185:c:\progra~2\gnuarm~1\102021~1.10\arm-none-eabi\include\c++\10.3.1\arm-none-eabi\thumb\v7e-m+fp\hard\bits\gthr-default.h **** 
 186:c:\progra~2\gnuarm~1\102021~1.10\arm-none-eabi\include\c++\10.3.1\arm-none-eabi\thumb\v7e-m+fp\hard\bits\gthr-default.h **** /* Wait on the condition */
 187:c:\progra~2\gnuarm~1\102021~1.10\arm-none-eabi\include\c++\10.3.1\arm-none-eabi\thumb\v7e-m+fp\hard\bits\gthr-default.h **** static inline int
 188:c:\progra~2\gnuarm~1\102021~1.10\arm-none-eabi\include\c++\10.3.1\arm-none-eabi\thumb\v7e-m+fp\hard\bits\gthr-default.h **** __gthread_objc_condition_wait (objc_condition_t condition _GLIBCXX_UNUSED,
 189:c:\progra~2\gnuarm~1\102021~1.10\arm-none-eabi\include\c++\10.3.1\arm-none-eabi\thumb\v7e-m+fp\hard\bits\gthr-default.h **** 			       objc_mutex_t mutex _GLIBCXX_UNUSED)
 190:c:\progra~2\gnuarm~1\102021~1.10\arm-none-eabi\include\c++\10.3.1\arm-none-eabi\thumb\v7e-m+fp\hard\bits\gthr-default.h **** {
 191:c:\progra~2\gnuarm~1\102021~1.10\arm-none-eabi\include\c++\10.3.1\arm-none-eabi\thumb\v7e-m+fp\hard\bits\gthr-default.h ****   return 0;
 192:c:\progra~2\gnuarm~1\102021~1.10\arm-none-eabi\include\c++\10.3.1\arm-none-eabi\thumb\v7e-m+fp\hard\bits\gthr-default.h **** }
 193:c:\progra~2\gnuarm~1\102021~1.10\arm-none-eabi\include\c++\10.3.1\arm-none-eabi\thumb\v7e-m+fp\hard\bits\gthr-default.h **** 
 194:c:\progra~2\gnuarm~1\102021~1.10\arm-none-eabi\include\c++\10.3.1\arm-none-eabi\thumb\v7e-m+fp\hard\bits\gthr-default.h **** /* Wake up all threads waiting on this condition.  */
 195:c:\progra~2\gnuarm~1\102021~1.10\arm-none-eabi\include\c++\10.3.1\arm-none-eabi\thumb\v7e-m+fp\hard\bits\gthr-default.h **** static inline int
ARM GAS   			page 5


 196:c:\progra~2\gnuarm~1\102021~1.10\arm-none-eabi\include\c++\10.3.1\arm-none-eabi\thumb\v7e-m+fp\hard\bits\gthr-default.h **** __gthread_objc_condition_broadcast (objc_condition_t condition _GLIBCXX_UNUSED)
 197:c:\progra~2\gnuarm~1\102021~1.10\arm-none-eabi\include\c++\10.3.1\arm-none-eabi\thumb\v7e-m+fp\hard\bits\gthr-default.h **** {
 198:c:\progra~2\gnuarm~1\102021~1.10\arm-none-eabi\include\c++\10.3.1\arm-none-eabi\thumb\v7e-m+fp\hard\bits\gthr-default.h ****   return 0;
 199:c:\progra~2\gnuarm~1\102021~1.10\arm-none-eabi\include\c++\10.3.1\arm-none-eabi\thumb\v7e-m+fp\hard\bits\gthr-default.h **** }
 200:c:\progra~2\gnuarm~1\102021~1.10\arm-none-eabi\include\c++\10.3.1\arm-none-eabi\thumb\v7e-m+fp\hard\bits\gthr-default.h **** 
 201:c:\progra~2\gnuarm~1\102021~1.10\arm-none-eabi\include\c++\10.3.1\arm-none-eabi\thumb\v7e-m+fp\hard\bits\gthr-default.h **** /* Wake up one thread waiting on this condition.  */
 202:c:\progra~2\gnuarm~1\102021~1.10\arm-none-eabi\include\c++\10.3.1\arm-none-eabi\thumb\v7e-m+fp\hard\bits\gthr-default.h **** static inline int
 203:c:\progra~2\gnuarm~1\102021~1.10\arm-none-eabi\include\c++\10.3.1\arm-none-eabi\thumb\v7e-m+fp\hard\bits\gthr-default.h **** __gthread_objc_condition_signal (objc_condition_t condition _GLIBCXX_UNUSED)
 204:c:\progra~2\gnuarm~1\102021~1.10\arm-none-eabi\include\c++\10.3.1\arm-none-eabi\thumb\v7e-m+fp\hard\bits\gthr-default.h **** {
 205:c:\progra~2\gnuarm~1\102021~1.10\arm-none-eabi\include\c++\10.3.1\arm-none-eabi\thumb\v7e-m+fp\hard\bits\gthr-default.h ****   return 0;
 206:c:\progra~2\gnuarm~1\102021~1.10\arm-none-eabi\include\c++\10.3.1\arm-none-eabi\thumb\v7e-m+fp\hard\bits\gthr-default.h **** }
 207:c:\progra~2\gnuarm~1\102021~1.10\arm-none-eabi\include\c++\10.3.1\arm-none-eabi\thumb\v7e-m+fp\hard\bits\gthr-default.h **** 
 208:c:\progra~2\gnuarm~1\102021~1.10\arm-none-eabi\include\c++\10.3.1\arm-none-eabi\thumb\v7e-m+fp\hard\bits\gthr-default.h **** #else /* _LIBOBJC */
 209:c:\progra~2\gnuarm~1\102021~1.10\arm-none-eabi\include\c++\10.3.1\arm-none-eabi\thumb\v7e-m+fp\hard\bits\gthr-default.h **** 
 210:c:\progra~2\gnuarm~1\102021~1.10\arm-none-eabi\include\c++\10.3.1\arm-none-eabi\thumb\v7e-m+fp\hard\bits\gthr-default.h **** static inline int
 211:c:\progra~2\gnuarm~1\102021~1.10\arm-none-eabi\include\c++\10.3.1\arm-none-eabi\thumb\v7e-m+fp\hard\bits\gthr-default.h **** __gthread_active_p (void)
 212:c:\progra~2\gnuarm~1\102021~1.10\arm-none-eabi\include\c++\10.3.1\arm-none-eabi\thumb\v7e-m+fp\hard\bits\gthr-default.h **** {
 213:c:\progra~2\gnuarm~1\102021~1.10\arm-none-eabi\include\c++\10.3.1\arm-none-eabi\thumb\v7e-m+fp\hard\bits\gthr-default.h ****   return 0;
 214:c:\progra~2\gnuarm~1\102021~1.10\arm-none-eabi\include\c++\10.3.1\arm-none-eabi\thumb\v7e-m+fp\hard\bits\gthr-default.h **** }
 215:c:\progra~2\gnuarm~1\102021~1.10\arm-none-eabi\include\c++\10.3.1\arm-none-eabi\thumb\v7e-m+fp\hard\bits\gthr-default.h **** 
 216:c:\progra~2\gnuarm~1\102021~1.10\arm-none-eabi\include\c++\10.3.1\arm-none-eabi\thumb\v7e-m+fp\hard\bits\gthr-default.h **** static inline int
 217:c:\progra~2\gnuarm~1\102021~1.10\arm-none-eabi\include\c++\10.3.1\arm-none-eabi\thumb\v7e-m+fp\hard\bits\gthr-default.h **** __gthread_once (__gthread_once_t *__once _GLIBCXX_UNUSED, void (*__func) (void) _GLIBCXX_UNUSED)
 218:c:\progra~2\gnuarm~1\102021~1.10\arm-none-eabi\include\c++\10.3.1\arm-none-eabi\thumb\v7e-m+fp\hard\bits\gthr-default.h **** {
 219:c:\progra~2\gnuarm~1\102021~1.10\arm-none-eabi\include\c++\10.3.1\arm-none-eabi\thumb\v7e-m+fp\hard\bits\gthr-default.h ****   return 0;
 220:c:\progra~2\gnuarm~1\102021~1.10\arm-none-eabi\include\c++\10.3.1\arm-none-eabi\thumb\v7e-m+fp\hard\bits\gthr-default.h **** }
 221:c:\progra~2\gnuarm~1\102021~1.10\arm-none-eabi\include\c++\10.3.1\arm-none-eabi\thumb\v7e-m+fp\hard\bits\gthr-default.h **** 
 222:c:\progra~2\gnuarm~1\102021~1.10\arm-none-eabi\include\c++\10.3.1\arm-none-eabi\thumb\v7e-m+fp\hard\bits\gthr-default.h **** static inline int _GLIBCXX_UNUSED
 223:c:\progra~2\gnuarm~1\102021~1.10\arm-none-eabi\include\c++\10.3.1\arm-none-eabi\thumb\v7e-m+fp\hard\bits\gthr-default.h **** __gthread_key_create (__gthread_key_t *__key _GLIBCXX_UNUSED, void (*__func) (void *) _GLIBCXX_UNUS
 224:c:\progra~2\gnuarm~1\102021~1.10\arm-none-eabi\include\c++\10.3.1\arm-none-eabi\thumb\v7e-m+fp\hard\bits\gthr-default.h **** {
 225:c:\progra~2\gnuarm~1\102021~1.10\arm-none-eabi\include\c++\10.3.1\arm-none-eabi\thumb\v7e-m+fp\hard\bits\gthr-default.h ****   return 0;
 226:c:\progra~2\gnuarm~1\102021~1.10\arm-none-eabi\include\c++\10.3.1\arm-none-eabi\thumb\v7e-m+fp\hard\bits\gthr-default.h **** }
 227:c:\progra~2\gnuarm~1\102021~1.10\arm-none-eabi\include\c++\10.3.1\arm-none-eabi\thumb\v7e-m+fp\hard\bits\gthr-default.h **** 
 228:c:\progra~2\gnuarm~1\102021~1.10\arm-none-eabi\include\c++\10.3.1\arm-none-eabi\thumb\v7e-m+fp\hard\bits\gthr-default.h **** static int _GLIBCXX_UNUSED
 229:c:\progra~2\gnuarm~1\102021~1.10\arm-none-eabi\include\c++\10.3.1\arm-none-eabi\thumb\v7e-m+fp\hard\bits\gthr-default.h **** __gthread_key_delete (__gthread_key_t __key _GLIBCXX_UNUSED)
 230:c:\progra~2\gnuarm~1\102021~1.10\arm-none-eabi\include\c++\10.3.1\arm-none-eabi\thumb\v7e-m+fp\hard\bits\gthr-default.h **** {
  34              	 .loc 1 230 1
  35              	 .cfi_startproc
  36              	 
  37              	 
  38              	 
  39 0000 80B4     	 push {r7}
  40              	 .cfi_def_cfa_offset 4
  41              	 .cfi_offset 7,-4
  42 0002 83B0     	 sub sp,sp,#12
  43              	 .cfi_def_cfa_offset 16
  44 0004 00AF     	 add r7,sp,#0
  45              	 .cfi_def_cfa_register 7
  46 0006 7860     	 str r0,[r7,#4]
 231:c:\progra~2\gnuarm~1\102021~1.10\arm-none-eabi\include\c++\10.3.1\arm-none-eabi\thumb\v7e-m+fp\hard\bits\gthr-default.h ****   return 0;
  47              	 .loc 1 231 10
  48 0008 0023     	 movs r3,#0
 232:c:\progra~2\gnuarm~1\102021~1.10\arm-none-eabi\include\c++\10.3.1\arm-none-eabi\thumb\v7e-m+fp\hard\bits\gthr-default.h **** }
  49              	 .loc 1 232 1
  50 000a 1846     	 mov r0,r3
  51 000c 0C37     	 adds r7,r7,#12
  52              	 .cfi_def_cfa_offset 4
  53 000e BD46     	 mov sp,r7
ARM GAS   			page 6


  54              	 .cfi_def_cfa_register 13
  55              	 
  56 0010 5DF8047B 	 ldr r7,[sp],#4
  57              	 .cfi_restore 7
  58              	 .cfi_def_cfa_offset 0
  59 0014 7047     	 bx lr
  60              	 .cfi_endproc
  61              	.LFE602:
  62              	 .size _ZL20__gthread_key_deletei,.-_ZL20__gthread_key_deletei
  63              	 .section .rodata
  64              	 .align 2
  65              	.LC0:
  66 0000 68616E64 	 .ascii "handle != NULL\000"
  66      6C652021 
  66      3D204E55 
  66      4C4C00
  67 000f 00       	 .align 2
  68              	.LC1:
  69 0010 6370705F 	 .ascii "cpp_freertos::Timer::Timer(const char*, TickType_t,"
  69      66726565 
  69      72746F73 
  69      3A3A5469 
  69      6D65723A 
  70 0043 20626F6F 	 .ascii " bool)\000"
  70      6C2900
  71 004a 0000     	 .align 2
  72              	.LC2:
  73 004c 433A5C55 	 .ascii "C:\\Users\\niels\\Documents\\Elektrotechniek\\Jaar "
  73      73657273 
  73      5C6E6965 
  73      6C735C44 
  73      6F63756D 
  74 007a 325C4543 	 .ascii "2\\ECS\\ECSL\\software\\STM32\\STM32Basis\\HAL\\gem"
  74      535C4543 
  74      534C5C73 
  74      6F667477 
  74      6172655C 
  75 00a6 65656E73 	 .ascii "eenschappelijk\\Third_Party\\freertos-addons-1.1.0\\"
  75      63686170 
  75      70656C69 
  75      6A6B5C54 
  75      68697264 
  76 00d7 632B2B5C 	 .ascii "c++\\Source\\ctimer.cpp\000"
  76      536F7572 
  76      63655C63 
  76      74696D65 
  76      722E6370 
  77              	 .section .text._ZN12cpp_freertos5TimerC2EPKcmb,"ax",%progbits
  78              	 .align 1
  79              	 .global _ZN12cpp_freertos5TimerC2EPKcmb
  80              	 .syntax unified
  81              	 .thumb
  82              	 .thumb_func
  83              	 .type _ZN12cpp_freertos5TimerC2EPKcmb,%function
  84              	_ZN12cpp_freertos5TimerC2EPKcmb:
  85              	.LFB976:
  86              	 .file 2 "C:\\Users\\niels\\Documents\\Elektrotechniek\\Jaar 2\\ECS\\ECSL\\software\\STM32\\STM32Basis\\HAL\\gemeenschappelijk\\Third_Party\\freertos-addons-1.1.0\\c++\\Source\\ctimer.cpp"
ARM GAS   			page 7


   1:C:\Users\niels\Documents\Elektrotechniek\Jaar 2\ECS\ECSL\software\STM32\STM32Basis\HAL\gemeenschappelijk\Third_Party\freertos-addons-1.1.0\c++\Source\ctimer.cpp **** /****************************************************************************
   2:C:\Users\niels\Documents\Elektrotechniek\Jaar 2\ECS\ECSL\software\STM32\STM32Basis\HAL\gemeenschappelijk\Third_Party\freertos-addons-1.1.0\c++\Source\ctimer.cpp ****  *
   3:C:\Users\niels\Documents\Elektrotechniek\Jaar 2\ECS\ECSL\software\STM32\STM32Basis\HAL\gemeenschappelijk\Third_Party\freertos-addons-1.1.0\c++\Source\ctimer.cpp ****  *  Copyright (c) 2016, Michael Becker (michael.f.becker@gmail.com)
   4:C:\Users\niels\Documents\Elektrotechniek\Jaar 2\ECS\ECSL\software\STM32\STM32Basis\HAL\gemeenschappelijk\Third_Party\freertos-addons-1.1.0\c++\Source\ctimer.cpp ****  *
   5:C:\Users\niels\Documents\Elektrotechniek\Jaar 2\ECS\ECSL\software\STM32\STM32Basis\HAL\gemeenschappelijk\Third_Party\freertos-addons-1.1.0\c++\Source\ctimer.cpp ****  *  This file is part of the FreeRTOS C++ Wrappers project.
   6:C:\Users\niels\Documents\Elektrotechniek\Jaar 2\ECS\ECSL\software\STM32\STM32Basis\HAL\gemeenschappelijk\Third_Party\freertos-addons-1.1.0\c++\Source\ctimer.cpp ****  *
   7:C:\Users\niels\Documents\Elektrotechniek\Jaar 2\ECS\ECSL\software\STM32\STM32Basis\HAL\gemeenschappelijk\Third_Party\freertos-addons-1.1.0\c++\Source\ctimer.cpp ****  *  The FreeRTOS C++ Wrappers project is free software: you can redistribute
   8:C:\Users\niels\Documents\Elektrotechniek\Jaar 2\ECS\ECSL\software\STM32\STM32Basis\HAL\gemeenschappelijk\Third_Party\freertos-addons-1.1.0\c++\Source\ctimer.cpp ****  *  it and/or modify it under the terms of the GNU General Public License as
   9:C:\Users\niels\Documents\Elektrotechniek\Jaar 2\ECS\ECSL\software\STM32\STM32Basis\HAL\gemeenschappelijk\Third_Party\freertos-addons-1.1.0\c++\Source\ctimer.cpp ****  *  published by the Free Software Foundation, either version 2
  10:C:\Users\niels\Documents\Elektrotechniek\Jaar 2\ECS\ECSL\software\STM32\STM32Basis\HAL\gemeenschappelijk\Third_Party\freertos-addons-1.1.0\c++\Source\ctimer.cpp ****  *  of the License, or (at your option) any later version.
  11:C:\Users\niels\Documents\Elektrotechniek\Jaar 2\ECS\ECSL\software\STM32\STM32Basis\HAL\gemeenschappelijk\Third_Party\freertos-addons-1.1.0\c++\Source\ctimer.cpp ****  *
  12:C:\Users\niels\Documents\Elektrotechniek\Jaar 2\ECS\ECSL\software\STM32\STM32Basis\HAL\gemeenschappelijk\Third_Party\freertos-addons-1.1.0\c++\Source\ctimer.cpp ****  *  The FreeRTOS C++ Wrappers project is distributed in the hope that it will
  13:C:\Users\niels\Documents\Elektrotechniek\Jaar 2\ECS\ECSL\software\STM32\STM32Basis\HAL\gemeenschappelijk\Third_Party\freertos-addons-1.1.0\c++\Source\ctimer.cpp ****  *  be useful, but WITHOUT ANY WARRANTY; without even the implied warranty of
  14:C:\Users\niels\Documents\Elektrotechniek\Jaar 2\ECS\ECSL\software\STM32\STM32Basis\HAL\gemeenschappelijk\Third_Party\freertos-addons-1.1.0\c++\Source\ctimer.cpp ****  *  MERCHANTABILITY or FITNESS FOR A PARTICULAR PURPOSE.  See the
  15:C:\Users\niels\Documents\Elektrotechniek\Jaar 2\ECS\ECSL\software\STM32\STM32Basis\HAL\gemeenschappelijk\Third_Party\freertos-addons-1.1.0\c++\Source\ctimer.cpp ****  *  GNU General Public License for more details.
  16:C:\Users\niels\Documents\Elektrotechniek\Jaar 2\ECS\ECSL\software\STM32\STM32Basis\HAL\gemeenschappelijk\Third_Party\freertos-addons-1.1.0\c++\Source\ctimer.cpp ****  *
  17:C:\Users\niels\Documents\Elektrotechniek\Jaar 2\ECS\ECSL\software\STM32\STM32Basis\HAL\gemeenschappelijk\Third_Party\freertos-addons-1.1.0\c++\Source\ctimer.cpp ****  *  You should have received a copy of the GNU General Public License
  18:C:\Users\niels\Documents\Elektrotechniek\Jaar 2\ECS\ECSL\software\STM32\STM32Basis\HAL\gemeenschappelijk\Third_Party\freertos-addons-1.1.0\c++\Source\ctimer.cpp ****  *  along with the FreeRTOS C++ Wrappers project.
  19:C:\Users\niels\Documents\Elektrotechniek\Jaar 2\ECS\ECSL\software\STM32\STM32Basis\HAL\gemeenschappelijk\Third_Party\freertos-addons-1.1.0\c++\Source\ctimer.cpp ****  *  If not, see <http://www.gnu.org/licenses/>.
  20:C:\Users\niels\Documents\Elektrotechniek\Jaar 2\ECS\ECSL\software\STM32\STM32Basis\HAL\gemeenschappelijk\Third_Party\freertos-addons-1.1.0\c++\Source\ctimer.cpp ****  *
  21:C:\Users\niels\Documents\Elektrotechniek\Jaar 2\ECS\ECSL\software\STM32\STM32Basis\HAL\gemeenschappelijk\Third_Party\freertos-addons-1.1.0\c++\Source\ctimer.cpp ****  ***************************************************************************/
  22:C:\Users\niels\Documents\Elektrotechniek\Jaar 2\ECS\ECSL\software\STM32\STM32Basis\HAL\gemeenschappelijk\Third_Party\freertos-addons-1.1.0\c++\Source\ctimer.cpp **** #include <assert.h>
  23:C:\Users\niels\Documents\Elektrotechniek\Jaar 2\ECS\ECSL\software\STM32\STM32Basis\HAL\gemeenschappelijk\Third_Party\freertos-addons-1.1.0\c++\Source\ctimer.cpp **** #include "timer.hpp"
  24:C:\Users\niels\Documents\Elektrotechniek\Jaar 2\ECS\ECSL\software\STM32\STM32Basis\HAL\gemeenschappelijk\Third_Party\freertos-addons-1.1.0\c++\Source\ctimer.cpp **** 
  25:C:\Users\niels\Documents\Elektrotechniek\Jaar 2\ECS\ECSL\software\STM32\STM32Basis\HAL\gemeenschappelijk\Third_Party\freertos-addons-1.1.0\c++\Source\ctimer.cpp **** 
  26:C:\Users\niels\Documents\Elektrotechniek\Jaar 2\ECS\ECSL\software\STM32\STM32Basis\HAL\gemeenschappelijk\Third_Party\freertos-addons-1.1.0\c++\Source\ctimer.cpp **** using namespace cpp_freertos;
  27:C:\Users\niels\Documents\Elektrotechniek\Jaar 2\ECS\ECSL\software\STM32\STM32Basis\HAL\gemeenschappelijk\Third_Party\freertos-addons-1.1.0\c++\Source\ctimer.cpp **** 
  28:C:\Users\niels\Documents\Elektrotechniek\Jaar 2\ECS\ECSL\software\STM32\STM32Basis\HAL\gemeenschappelijk\Third_Party\freertos-addons-1.1.0\c++\Source\ctimer.cpp **** 
  29:C:\Users\niels\Documents\Elektrotechniek\Jaar 2\ECS\ECSL\software\STM32\STM32Basis\HAL\gemeenschappelijk\Third_Party\freertos-addons-1.1.0\c++\Source\ctimer.cpp **** Timer::Timer(   const char * const TimerName,
  87              	 .loc 2 29 1
  88              	 .cfi_startproc
  89              	 
  90              	 
  91 0000 80B5     	 push {r7,lr}
  92              	 .cfi_def_cfa_offset 8
  93              	 .cfi_offset 7,-8
  94              	 .cfi_offset 14,-4
  95 0002 86B0     	 sub sp,sp,#24
  96              	 .cfi_def_cfa_offset 32
  97 0004 02AF     	 add r7,sp,#8
  98              	 .cfi_def_cfa 7,24
  99 0006 F860     	 str r0,[r7,#12]
 100 0008 B960     	 str r1,[r7,#8]
 101 000a 7A60     	 str r2,[r7,#4]
 102 000c FB70     	 strb r3,[r7,#3]
 103              	.LBB2:
  30:C:\Users\niels\Documents\Elektrotechniek\Jaar 2\ECS\ECSL\software\STM32\STM32Basis\HAL\gemeenschappelijk\Third_Party\freertos-addons-1.1.0\c++\Source\ctimer.cpp ****                 TickType_t PeriodInTicks,
  31:C:\Users\niels\Documents\Elektrotechniek\Jaar 2\ECS\ECSL\software\STM32\STM32Basis\HAL\gemeenschappelijk\Third_Party\freertos-addons-1.1.0\c++\Source\ctimer.cpp ****                 bool Periodic
  32:C:\Users\niels\Documents\Elektrotechniek\Jaar 2\ECS\ECSL\software\STM32\STM32Basis\HAL\gemeenschappelijk\Third_Party\freertos-addons-1.1.0\c++\Source\ctimer.cpp ****                 )
 104              	 .loc 2 32 17
 105 000e 114A     	 ldr r2,.L8
 106 0010 FB68     	 ldr r3,[r7,#12]
 107 0012 1A60     	 str r2,[r3]
  33:C:\Users\niels\Documents\Elektrotechniek\Jaar 2\ECS\ECSL\software\STM32\STM32Basis\HAL\gemeenschappelijk\Third_Party\freertos-addons-1.1.0\c++\Source\ctimer.cpp **** {
  34:C:\Users\niels\Documents\Elektrotechniek\Jaar 2\ECS\ECSL\software\STM32\STM32Basis\HAL\gemeenschappelijk\Third_Party\freertos-addons-1.1.0\c++\Source\ctimer.cpp ****     handle = xTimerCreate(  TimerName,
 108              	 .loc 2 34 26
 109 0014 FB78     	 ldrb r3,[r7,#3]
ARM GAS   			page 8


 110 0016 002B     	 cmp r3,#0
 111 0018 01D0     	 beq .L4
 112              	 .loc 2 34 26 is_stmt 0 discriminator 1
 113 001a 0122     	 movs r2,#1
 114 001c 00E0     	 b .L5
 115              	.L4:
 116              	 .loc 2 34 26 discriminator 2
 117 001e 0022     	 movs r2,#0
 118              	.L5:
 119              	 .loc 2 34 26 discriminator 4
 120 0020 0D4B     	 ldr r3,.L8+4
 121 0022 0093     	 str r3,[sp]
 122 0024 FB68     	 ldr r3,[r7,#12]
 123 0026 7968     	 ldr r1,[r7,#4]
 124 0028 B868     	 ldr r0,[r7,#8]
 125 002a FFF7FEFF 	 bl xTimerCreate
 126 002e 0246     	 mov r2,r0
 127              	 .loc 2 34 12 is_stmt 1 discriminator 4
 128 0030 FB68     	 ldr r3,[r7,#12]
 129 0032 5A60     	 str r2,[r3,#4]
  35:C:\Users\niels\Documents\Elektrotechniek\Jaar 2\ECS\ECSL\software\STM32\STM32Basis\HAL\gemeenschappelijk\Third_Party\freertos-addons-1.1.0\c++\Source\ctimer.cpp ****                             PeriodInTicks,
  36:C:\Users\niels\Documents\Elektrotechniek\Jaar 2\ECS\ECSL\software\STM32\STM32Basis\HAL\gemeenschappelijk\Third_Party\freertos-addons-1.1.0\c++\Source\ctimer.cpp ****                             Periodic ? pdTRUE : pdFALSE,
  37:C:\Users\niels\Documents\Elektrotechniek\Jaar 2\ECS\ECSL\software\STM32\STM32Basis\HAL\gemeenschappelijk\Third_Party\freertos-addons-1.1.0\c++\Source\ctimer.cpp ****                             this,
  38:C:\Users\niels\Documents\Elektrotechniek\Jaar 2\ECS\ECSL\software\STM32\STM32Basis\HAL\gemeenschappelijk\Third_Party\freertos-addons-1.1.0\c++\Source\ctimer.cpp ****                             TimerCallbackFunctionAdapter);
  39:C:\Users\niels\Documents\Elektrotechniek\Jaar 2\ECS\ECSL\software\STM32\STM32Basis\HAL\gemeenschappelijk\Third_Party\freertos-addons-1.1.0\c++\Source\ctimer.cpp **** 
  40:C:\Users\niels\Documents\Elektrotechniek\Jaar 2\ECS\ECSL\software\STM32\STM32Basis\HAL\gemeenschappelijk\Third_Party\freertos-addons-1.1.0\c++\Source\ctimer.cpp ****     assert(handle != NULL);
 130              	 .loc 2 40 5 discriminator 4
 131 0034 FB68     	 ldr r3,[r7,#12]
 132 0036 5B68     	 ldr r3,[r3,#4]
 133 0038 002B     	 cmp r3,#0
 134 003a 05D1     	 bne .L6
 135              	 .loc 2 40 5 is_stmt 0 discriminator 1
 136 003c 074B     	 ldr r3,.L8+8
 137 003e 084A     	 ldr r2,.L8+12
 138 0040 2821     	 movs r1,#40
 139 0042 0848     	 ldr r0,.L8+16
 140 0044 FFF7FEFF 	 bl __assert_func
 141              	.L6:
 142              	.LBE2:
  41:C:\Users\niels\Documents\Elektrotechniek\Jaar 2\ECS\ECSL\software\STM32\STM32Basis\HAL\gemeenschappelijk\Third_Party\freertos-addons-1.1.0\c++\Source\ctimer.cpp **** }
 143              	 .loc 2 41 1 is_stmt 1
 144 0048 FB68     	 ldr r3,[r7,#12]
 145 004a 1846     	 mov r0,r3
 146 004c 1037     	 adds r7,r7,#16
 147              	 .cfi_def_cfa_offset 8
 148 004e BD46     	 mov sp,r7
 149              	 .cfi_def_cfa_register 13
 150              	 
 151 0050 80BD     	 pop {r7,pc}
 152              	.L9:
 153 0052 00BF     	 .align 2
 154              	.L8:
 155 0054 08000000 	 .word _ZTVN12cpp_freertos5TimerE+8
 156 0058 00000000 	 .word _ZN12cpp_freertos5Timer28TimerCallbackFunctionAdapterEPv
 157 005c 00000000 	 .word .LC0
 158 0060 10000000 	 .word .LC1
 159 0064 4C000000 	 .word .LC2
ARM GAS   			page 9


 160              	 .cfi_endproc
 161              	.LFE976:
 162              	 .size _ZN12cpp_freertos5TimerC2EPKcmb,.-_ZN12cpp_freertos5TimerC2EPKcmb
 163              	 .global _ZN12cpp_freertos5TimerC1EPKcmb
 164              	 .thumb_set _ZN12cpp_freertos5TimerC1EPKcmb,_ZN12cpp_freertos5TimerC2EPKcmb
 165              	 .section .rodata
 166 00ed 000000   	 .align 2
 167              	.LC3:
 168 00f0 44656661 	 .ascii "Default\000"
 168      756C7400 
 169              	 .align 2
 170              	.LC4:
 171 00f8 6370705F 	 .ascii "cpp_freertos::Timer::Timer(TickType_t, bool)\000"
 171      66726565 
 171      72746F73 
 171      3A3A5469 
 171      6D65723A 
 172              	 .section .text._ZN12cpp_freertos5TimerC2Emb,"ax",%progbits
 173              	 .align 1
 174              	 .global _ZN12cpp_freertos5TimerC2Emb
 175              	 .syntax unified
 176              	 .thumb
 177              	 .thumb_func
 178              	 .type _ZN12cpp_freertos5TimerC2Emb,%function
 179              	_ZN12cpp_freertos5TimerC2Emb:
 180              	.LFB979:
  42:C:\Users\niels\Documents\Elektrotechniek\Jaar 2\ECS\ECSL\software\STM32\STM32Basis\HAL\gemeenschappelijk\Third_Party\freertos-addons-1.1.0\c++\Source\ctimer.cpp **** 
  43:C:\Users\niels\Documents\Elektrotechniek\Jaar 2\ECS\ECSL\software\STM32\STM32Basis\HAL\gemeenschappelijk\Third_Party\freertos-addons-1.1.0\c++\Source\ctimer.cpp **** 
  44:C:\Users\niels\Documents\Elektrotechniek\Jaar 2\ECS\ECSL\software\STM32\STM32Basis\HAL\gemeenschappelijk\Third_Party\freertos-addons-1.1.0\c++\Source\ctimer.cpp **** Timer::Timer(   TickType_t PeriodInTicks,
 181              	 .loc 2 44 1
 182              	 .cfi_startproc
 183              	 
 184              	 
 185 0000 80B5     	 push {r7,lr}
 186              	 .cfi_def_cfa_offset 8
 187              	 .cfi_offset 7,-8
 188              	 .cfi_offset 14,-4
 189 0002 86B0     	 sub sp,sp,#24
 190              	 .cfi_def_cfa_offset 32
 191 0004 02AF     	 add r7,sp,#8
 192              	 .cfi_def_cfa 7,24
 193 0006 F860     	 str r0,[r7,#12]
 194 0008 B960     	 str r1,[r7,#8]
 195 000a 1346     	 mov r3,r2
 196 000c FB71     	 strb r3,[r7,#7]
 197              	.LBB3:
  45:C:\Users\niels\Documents\Elektrotechniek\Jaar 2\ECS\ECSL\software\STM32\STM32Basis\HAL\gemeenschappelijk\Third_Party\freertos-addons-1.1.0\c++\Source\ctimer.cpp ****                 bool Periodic
  46:C:\Users\niels\Documents\Elektrotechniek\Jaar 2\ECS\ECSL\software\STM32\STM32Basis\HAL\gemeenschappelijk\Third_Party\freertos-addons-1.1.0\c++\Source\ctimer.cpp ****                 )
 198              	 .loc 2 46 17
 199 000e 114A     	 ldr r2,.L15
 200 0010 FB68     	 ldr r3,[r7,#12]
 201 0012 1A60     	 str r2,[r3]
  47:C:\Users\niels\Documents\Elektrotechniek\Jaar 2\ECS\ECSL\software\STM32\STM32Basis\HAL\gemeenschappelijk\Third_Party\freertos-addons-1.1.0\c++\Source\ctimer.cpp **** {
  48:C:\Users\niels\Documents\Elektrotechniek\Jaar 2\ECS\ECSL\software\STM32\STM32Basis\HAL\gemeenschappelijk\Third_Party\freertos-addons-1.1.0\c++\Source\ctimer.cpp ****     handle = xTimerCreate(  "Default",
 202              	 .loc 2 48 26
 203 0014 FB79     	 ldrb r3,[r7,#7]
 204 0016 002B     	 cmp r3,#0
ARM GAS   			page 10


 205 0018 01D0     	 beq .L11
 206              	 .loc 2 48 26 is_stmt 0 discriminator 1
 207 001a 0122     	 movs r2,#1
 208 001c 00E0     	 b .L12
 209              	.L11:
 210              	 .loc 2 48 26 discriminator 2
 211 001e 0022     	 movs r2,#0
 212              	.L12:
 213              	 .loc 2 48 26 discriminator 4
 214 0020 0D4B     	 ldr r3,.L15+4
 215 0022 0093     	 str r3,[sp]
 216 0024 FB68     	 ldr r3,[r7,#12]
 217 0026 B968     	 ldr r1,[r7,#8]
 218 0028 0C48     	 ldr r0,.L15+8
 219 002a FFF7FEFF 	 bl xTimerCreate
 220 002e 0246     	 mov r2,r0
 221              	 .loc 2 48 12 is_stmt 1 discriminator 4
 222 0030 FB68     	 ldr r3,[r7,#12]
 223 0032 5A60     	 str r2,[r3,#4]
  49:C:\Users\niels\Documents\Elektrotechniek\Jaar 2\ECS\ECSL\software\STM32\STM32Basis\HAL\gemeenschappelijk\Third_Party\freertos-addons-1.1.0\c++\Source\ctimer.cpp ****                             PeriodInTicks,
  50:C:\Users\niels\Documents\Elektrotechniek\Jaar 2\ECS\ECSL\software\STM32\STM32Basis\HAL\gemeenschappelijk\Third_Party\freertos-addons-1.1.0\c++\Source\ctimer.cpp ****                             Periodic ? pdTRUE : pdFALSE,
  51:C:\Users\niels\Documents\Elektrotechniek\Jaar 2\ECS\ECSL\software\STM32\STM32Basis\HAL\gemeenschappelijk\Third_Party\freertos-addons-1.1.0\c++\Source\ctimer.cpp ****                             this,
  52:C:\Users\niels\Documents\Elektrotechniek\Jaar 2\ECS\ECSL\software\STM32\STM32Basis\HAL\gemeenschappelijk\Third_Party\freertos-addons-1.1.0\c++\Source\ctimer.cpp ****                             TimerCallbackFunctionAdapter);
  53:C:\Users\niels\Documents\Elektrotechniek\Jaar 2\ECS\ECSL\software\STM32\STM32Basis\HAL\gemeenschappelijk\Third_Party\freertos-addons-1.1.0\c++\Source\ctimer.cpp **** 
  54:C:\Users\niels\Documents\Elektrotechniek\Jaar 2\ECS\ECSL\software\STM32\STM32Basis\HAL\gemeenschappelijk\Third_Party\freertos-addons-1.1.0\c++\Source\ctimer.cpp ****     assert(handle != NULL);
 224              	 .loc 2 54 5 discriminator 4
 225 0034 FB68     	 ldr r3,[r7,#12]
 226 0036 5B68     	 ldr r3,[r3,#4]
 227 0038 002B     	 cmp r3,#0
 228 003a 05D1     	 bne .L13
 229              	 .loc 2 54 5 is_stmt 0 discriminator 1
 230 003c 084B     	 ldr r3,.L15+12
 231 003e 094A     	 ldr r2,.L15+16
 232 0040 3621     	 movs r1,#54
 233 0042 0948     	 ldr r0,.L15+20
 234 0044 FFF7FEFF 	 bl __assert_func
 235              	.L13:
 236              	.LBE3:
  55:C:\Users\niels\Documents\Elektrotechniek\Jaar 2\ECS\ECSL\software\STM32\STM32Basis\HAL\gemeenschappelijk\Third_Party\freertos-addons-1.1.0\c++\Source\ctimer.cpp **** }
 237              	 .loc 2 55 1 is_stmt 1
 238 0048 FB68     	 ldr r3,[r7,#12]
 239 004a 1846     	 mov r0,r3
 240 004c 1037     	 adds r7,r7,#16
 241              	 .cfi_def_cfa_offset 8
 242 004e BD46     	 mov sp,r7
 243              	 .cfi_def_cfa_register 13
 244              	 
 245 0050 80BD     	 pop {r7,pc}
 246              	.L16:
 247 0052 00BF     	 .align 2
 248              	.L15:
 249 0054 08000000 	 .word _ZTVN12cpp_freertos5TimerE+8
 250 0058 00000000 	 .word _ZN12cpp_freertos5Timer28TimerCallbackFunctionAdapterEPv
 251 005c F0000000 	 .word .LC3
 252 0060 00000000 	 .word .LC0
 253 0064 F8000000 	 .word .LC4
 254 0068 4C000000 	 .word .LC2
ARM GAS   			page 11


 255              	 .cfi_endproc
 256              	.LFE979:
 257              	 .size _ZN12cpp_freertos5TimerC2Emb,.-_ZN12cpp_freertos5TimerC2Emb
 258              	 .global _ZN12cpp_freertos5TimerC1Emb
 259              	 .thumb_set _ZN12cpp_freertos5TimerC1Emb,_ZN12cpp_freertos5TimerC2Emb
 260              	 .section .text._ZN12cpp_freertos5TimerD2Ev,"ax",%progbits
 261              	 .align 1
 262              	 .global _ZN12cpp_freertos5TimerD2Ev
 263              	 .syntax unified
 264              	 .thumb
 265              	 .thumb_func
 266              	 .type _ZN12cpp_freertos5TimerD2Ev,%function
 267              	_ZN12cpp_freertos5TimerD2Ev:
 268              	.LFB982:
  56:C:\Users\niels\Documents\Elektrotechniek\Jaar 2\ECS\ECSL\software\STM32\STM32Basis\HAL\gemeenschappelijk\Third_Party\freertos-addons-1.1.0\c++\Source\ctimer.cpp **** 
  57:C:\Users\niels\Documents\Elektrotechniek\Jaar 2\ECS\ECSL\software\STM32\STM32Basis\HAL\gemeenschappelijk\Third_Party\freertos-addons-1.1.0\c++\Source\ctimer.cpp **** 
  58:C:\Users\niels\Documents\Elektrotechniek\Jaar 2\ECS\ECSL\software\STM32\STM32Basis\HAL\gemeenschappelijk\Third_Party\freertos-addons-1.1.0\c++\Source\ctimer.cpp **** Timer::~Timer()
 269              	 .loc 2 58 1
 270              	 .cfi_startproc
 271              	 
 272              	 
 273 0000 80B5     	 push {r7,lr}
 274              	 .cfi_def_cfa_offset 8
 275              	 .cfi_offset 7,-8
 276              	 .cfi_offset 14,-4
 277 0002 84B0     	 sub sp,sp,#16
 278              	 .cfi_def_cfa_offset 24
 279 0004 02AF     	 add r7,sp,#8
 280              	 .cfi_def_cfa 7,16
 281 0006 7860     	 str r0,[r7,#4]
 282              	.LBB4:
 283              	 .loc 2 58 15
 284 0008 084A     	 ldr r2,.L19
 285 000a 7B68     	 ldr r3,[r7,#4]
 286 000c 1A60     	 str r2,[r3]
  59:C:\Users\niels\Documents\Elektrotechniek\Jaar 2\ECS\ECSL\software\STM32\STM32Basis\HAL\gemeenschappelijk\Third_Party\freertos-addons-1.1.0\c++\Source\ctimer.cpp **** {
  60:C:\Users\niels\Documents\Elektrotechniek\Jaar 2\ECS\ECSL\software\STM32\STM32Basis\HAL\gemeenschappelijk\Third_Party\freertos-addons-1.1.0\c++\Source\ctimer.cpp ****     xTimerDelete(handle, portMAX_DELAY);
 287              	 .loc 2 60 5
 288 000e 7B68     	 ldr r3,[r7,#4]
 289 0010 5868     	 ldr r0,[r3,#4]
 290 0012 4FF0FF33 	 mov r3,#-1
 291 0016 0093     	 str r3,[sp]
 292 0018 0023     	 movs r3,#0
 293 001a 0022     	 movs r2,#0
 294 001c 0521     	 movs r1,#5
 295 001e FFF7FEFF 	 bl xTimerGenericCommand
 296              	.LBE4:
  61:C:\Users\niels\Documents\Elektrotechniek\Jaar 2\ECS\ECSL\software\STM32\STM32Basis\HAL\gemeenschappelijk\Third_Party\freertos-addons-1.1.0\c++\Source\ctimer.cpp **** }
 297              	 .loc 2 61 1
 298 0022 7B68     	 ldr r3,[r7,#4]
 299 0024 1846     	 mov r0,r3
 300 0026 0837     	 adds r7,r7,#8
 301              	 .cfi_def_cfa_offset 8
 302 0028 BD46     	 mov sp,r7
 303              	 .cfi_def_cfa_register 13
 304              	 
 305 002a 80BD     	 pop {r7,pc}
ARM GAS   			page 12


 306              	.L20:
 307              	 .align 2
 308              	.L19:
 309 002c 08000000 	 .word _ZTVN12cpp_freertos5TimerE+8
 310              	 .cfi_endproc
 311              	.LFE982:
 312              	 .size _ZN12cpp_freertos5TimerD2Ev,.-_ZN12cpp_freertos5TimerD2Ev
 313              	 .global _ZN12cpp_freertos5TimerD1Ev
 314              	 .thumb_set _ZN12cpp_freertos5TimerD1Ev,_ZN12cpp_freertos5TimerD2Ev
 315              	 .section .text._ZN12cpp_freertos5TimerD0Ev,"ax",%progbits
 316              	 .align 1
 317              	 .global _ZN12cpp_freertos5TimerD0Ev
 318              	 .syntax unified
 319              	 .thumb
 320              	 .thumb_func
 321              	 .type _ZN12cpp_freertos5TimerD0Ev,%function
 322              	_ZN12cpp_freertos5TimerD0Ev:
 323              	.LFB984:
  58:C:\Users\niels\Documents\Elektrotechniek\Jaar 2\ECS\ECSL\software\STM32\STM32Basis\HAL\gemeenschappelijk\Third_Party\freertos-addons-1.1.0\c++\Source\ctimer.cpp **** {
 324              	 .loc 2 58 1
 325              	 .cfi_startproc
 326              	 
 327              	 
 328 0000 80B5     	 push {r7,lr}
 329              	 .cfi_def_cfa_offset 8
 330              	 .cfi_offset 7,-8
 331              	 .cfi_offset 14,-4
 332 0002 82B0     	 sub sp,sp,#8
 333              	 .cfi_def_cfa_offset 16
 334 0004 00AF     	 add r7,sp,#0
 335              	 .cfi_def_cfa_register 7
 336 0006 7860     	 str r0,[r7,#4]
 337              	 .loc 2 61 1
 338 0008 7868     	 ldr r0,[r7,#4]
 339 000a FFF7FEFF 	 bl _ZN12cpp_freertos5TimerD1Ev
 340 000e 7868     	 ldr r0,[r7,#4]
 341 0010 FFF7FEFF 	 bl _ZdlPv
 342 0014 7B68     	 ldr r3,[r7,#4]
 343 0016 1846     	 mov r0,r3
 344 0018 0837     	 adds r7,r7,#8
 345              	 .cfi_def_cfa_offset 8
 346 001a BD46     	 mov sp,r7
 347              	 .cfi_def_cfa_register 13
 348              	 
 349 001c 80BD     	 pop {r7,pc}
 350              	 .cfi_endproc
 351              	.LFE984:
 352              	 .size _ZN12cpp_freertos5TimerD0Ev,.-_ZN12cpp_freertos5TimerD0Ev
 353              	 .section .text._ZN12cpp_freertos5Timer8IsActiveEv,"ax",%progbits
 354              	 .align 1
 355              	 .global _ZN12cpp_freertos5Timer8IsActiveEv
 356              	 .syntax unified
 357              	 .thumb
 358              	 .thumb_func
 359              	 .type _ZN12cpp_freertos5Timer8IsActiveEv,%function
 360              	_ZN12cpp_freertos5Timer8IsActiveEv:
 361              	.LFB985:
ARM GAS   			page 13


  62:C:\Users\niels\Documents\Elektrotechniek\Jaar 2\ECS\ECSL\software\STM32\STM32Basis\HAL\gemeenschappelijk\Third_Party\freertos-addons-1.1.0\c++\Source\ctimer.cpp **** 
  63:C:\Users\niels\Documents\Elektrotechniek\Jaar 2\ECS\ECSL\software\STM32\STM32Basis\HAL\gemeenschappelijk\Third_Party\freertos-addons-1.1.0\c++\Source\ctimer.cpp **** 
  64:C:\Users\niels\Documents\Elektrotechniek\Jaar 2\ECS\ECSL\software\STM32\STM32Basis\HAL\gemeenschappelijk\Third_Party\freertos-addons-1.1.0\c++\Source\ctimer.cpp **** bool Timer::IsActive()
  65:C:\Users\niels\Documents\Elektrotechniek\Jaar 2\ECS\ECSL\software\STM32\STM32Basis\HAL\gemeenschappelijk\Third_Party\freertos-addons-1.1.0\c++\Source\ctimer.cpp **** {
 362              	 .loc 2 65 1
 363              	 .cfi_startproc
 364              	 
 365              	 
 366 0000 80B5     	 push {r7,lr}
 367              	 .cfi_def_cfa_offset 8
 368              	 .cfi_offset 7,-8
 369              	 .cfi_offset 14,-4
 370 0002 82B0     	 sub sp,sp,#8
 371              	 .cfi_def_cfa_offset 16
 372 0004 00AF     	 add r7,sp,#0
 373              	 .cfi_def_cfa_register 7
 374 0006 7860     	 str r0,[r7,#4]
  66:C:\Users\niels\Documents\Elektrotechniek\Jaar 2\ECS\ECSL\software\STM32\STM32Basis\HAL\gemeenschappelijk\Third_Party\freertos-addons-1.1.0\c++\Source\ctimer.cpp ****     return xTimerIsTimerActive(handle) == pdFALSE ? false : true;
 375              	 .loc 2 66 31
 376 0008 7B68     	 ldr r3,[r7,#4]
 377 000a 5B68     	 ldr r3,[r3,#4]
 378 000c 1846     	 mov r0,r3
 379 000e FFF7FEFF 	 bl xTimerIsTimerActive
 380 0012 0346     	 mov r3,r0
 381              	 .loc 2 66 61
 382 0014 002B     	 cmp r3,#0
 383 0016 14BF     	 ite ne
 384 0018 0123     	 movne r3,#1
 385 001a 0023     	 moveq r3,#0
 386 001c DBB2     	 uxtb r3,r3
  67:C:\Users\niels\Documents\Elektrotechniek\Jaar 2\ECS\ECSL\software\STM32\STM32Basis\HAL\gemeenschappelijk\Third_Party\freertos-addons-1.1.0\c++\Source\ctimer.cpp **** }
 387              	 .loc 2 67 1
 388 001e 1846     	 mov r0,r3
 389 0020 0837     	 adds r7,r7,#8
 390              	 .cfi_def_cfa_offset 8
 391 0022 BD46     	 mov sp,r7
 392              	 .cfi_def_cfa_register 13
 393              	 
 394 0024 80BD     	 pop {r7,pc}
 395              	 .cfi_endproc
 396              	.LFE985:
 397              	 .size _ZN12cpp_freertos5Timer8IsActiveEv,.-_ZN12cpp_freertos5Timer8IsActiveEv
 398              	 .section .text._ZN12cpp_freertos5Timer5StartEm,"ax",%progbits
 399              	 .align 1
 400              	 .global _ZN12cpp_freertos5Timer5StartEm
 401              	 .syntax unified
 402              	 .thumb
 403              	 .thumb_func
 404              	 .type _ZN12cpp_freertos5Timer5StartEm,%function
 405              	_ZN12cpp_freertos5Timer5StartEm:
 406              	.LFB986:
  68:C:\Users\niels\Documents\Elektrotechniek\Jaar 2\ECS\ECSL\software\STM32\STM32Basis\HAL\gemeenschappelijk\Third_Party\freertos-addons-1.1.0\c++\Source\ctimer.cpp **** 
  69:C:\Users\niels\Documents\Elektrotechniek\Jaar 2\ECS\ECSL\software\STM32\STM32Basis\HAL\gemeenschappelijk\Third_Party\freertos-addons-1.1.0\c++\Source\ctimer.cpp **** 
  70:C:\Users\niels\Documents\Elektrotechniek\Jaar 2\ECS\ECSL\software\STM32\STM32Basis\HAL\gemeenschappelijk\Third_Party\freertos-addons-1.1.0\c++\Source\ctimer.cpp **** bool Timer::Start(TickType_t CmdTimeout)
  71:C:\Users\niels\Documents\Elektrotechniek\Jaar 2\ECS\ECSL\software\STM32\STM32Basis\HAL\gemeenschappelijk\Third_Party\freertos-addons-1.1.0\c++\Source\ctimer.cpp **** {
 407              	 .loc 2 71 1
 408              	 .cfi_startproc
ARM GAS   			page 14


 409              	 
 410              	 
 411 0000 90B5     	 push {r4,r7,lr}
 412              	 .cfi_def_cfa_offset 12
 413              	 .cfi_offset 4,-12
 414              	 .cfi_offset 7,-8
 415              	 .cfi_offset 14,-4
 416 0002 85B0     	 sub sp,sp,#20
 417              	 .cfi_def_cfa_offset 32
 418 0004 02AF     	 add r7,sp,#8
 419              	 .cfi_def_cfa 7,24
 420 0006 7860     	 str r0,[r7,#4]
 421 0008 3960     	 str r1,[r7]
  72:C:\Users\niels\Documents\Elektrotechniek\Jaar 2\ECS\ECSL\software\STM32\STM32Basis\HAL\gemeenschappelijk\Third_Party\freertos-addons-1.1.0\c++\Source\ctimer.cpp ****     return xTimerStart(handle, CmdTimeout) == pdFALSE ? false : true;
 422              	 .loc 2 72 12
 423 000a 7B68     	 ldr r3,[r7,#4]
 424 000c 5C68     	 ldr r4,[r3,#4]
 425 000e FFF7FEFF 	 bl xTaskGetTickCount
 426 0012 0246     	 mov r2,r0
 427 0014 3B68     	 ldr r3,[r7]
 428 0016 0093     	 str r3,[sp]
 429 0018 0023     	 movs r3,#0
 430 001a 0121     	 movs r1,#1
 431 001c 2046     	 mov r0,r4
 432 001e FFF7FEFF 	 bl xTimerGenericCommand
 433 0022 0346     	 mov r3,r0
 434              	 .loc 2 72 65
 435 0024 002B     	 cmp r3,#0
 436 0026 14BF     	 ite ne
 437 0028 0123     	 movne r3,#1
 438 002a 0023     	 moveq r3,#0
 439 002c DBB2     	 uxtb r3,r3
  73:C:\Users\niels\Documents\Elektrotechniek\Jaar 2\ECS\ECSL\software\STM32\STM32Basis\HAL\gemeenschappelijk\Third_Party\freertos-addons-1.1.0\c++\Source\ctimer.cpp **** }
 440              	 .loc 2 73 1
 441 002e 1846     	 mov r0,r3
 442 0030 0C37     	 adds r7,r7,#12
 443              	 .cfi_def_cfa_offset 12
 444 0032 BD46     	 mov sp,r7
 445              	 .cfi_def_cfa_register 13
 446              	 
 447 0034 90BD     	 pop {r4,r7,pc}
 448              	 .cfi_endproc
 449              	.LFE986:
 450              	 .size _ZN12cpp_freertos5Timer5StartEm,.-_ZN12cpp_freertos5Timer5StartEm
 451              	 .section .text._ZN12cpp_freertos5Timer12StartFromISREPl,"ax",%progbits
 452              	 .align 1
 453              	 .global _ZN12cpp_freertos5Timer12StartFromISREPl
 454              	 .syntax unified
 455              	 .thumb
 456              	 .thumb_func
 457              	 .type _ZN12cpp_freertos5Timer12StartFromISREPl,%function
 458              	_ZN12cpp_freertos5Timer12StartFromISREPl:
 459              	.LFB987:
  74:C:\Users\niels\Documents\Elektrotechniek\Jaar 2\ECS\ECSL\software\STM32\STM32Basis\HAL\gemeenschappelijk\Third_Party\freertos-addons-1.1.0\c++\Source\ctimer.cpp **** 
  75:C:\Users\niels\Documents\Elektrotechniek\Jaar 2\ECS\ECSL\software\STM32\STM32Basis\HAL\gemeenschappelijk\Third_Party\freertos-addons-1.1.0\c++\Source\ctimer.cpp **** 
  76:C:\Users\niels\Documents\Elektrotechniek\Jaar 2\ECS\ECSL\software\STM32\STM32Basis\HAL\gemeenschappelijk\Third_Party\freertos-addons-1.1.0\c++\Source\ctimer.cpp **** bool Timer::StartFromISR(BaseType_t *pxHigherPriorityTaskWoken)
  77:C:\Users\niels\Documents\Elektrotechniek\Jaar 2\ECS\ECSL\software\STM32\STM32Basis\HAL\gemeenschappelijk\Third_Party\freertos-addons-1.1.0\c++\Source\ctimer.cpp **** {
ARM GAS   			page 15


 460              	 .loc 2 77 1
 461              	 .cfi_startproc
 462              	 
 463              	 
 464 0000 90B5     	 push {r4,r7,lr}
 465              	 .cfi_def_cfa_offset 12
 466              	 .cfi_offset 4,-12
 467              	 .cfi_offset 7,-8
 468              	 .cfi_offset 14,-4
 469 0002 85B0     	 sub sp,sp,#20
 470              	 .cfi_def_cfa_offset 32
 471 0004 02AF     	 add r7,sp,#8
 472              	 .cfi_def_cfa 7,24
 473 0006 7860     	 str r0,[r7,#4]
 474 0008 3960     	 str r1,[r7]
  78:C:\Users\niels\Documents\Elektrotechniek\Jaar 2\ECS\ECSL\software\STM32\STM32Basis\HAL\gemeenschappelijk\Third_Party\freertos-addons-1.1.0\c++\Source\ctimer.cpp ****     return xTimerStartFromISR(handle, pxHigherPriorityTaskWoken) == pdFALSE
 475              	 .loc 2 78 12
 476 000a 7B68     	 ldr r3,[r7,#4]
 477 000c 5C68     	 ldr r4,[r3,#4]
 478 000e FFF7FEFF 	 bl xTaskGetTickCountFromISR
 479 0012 0246     	 mov r2,r0
 480 0014 0023     	 movs r3,#0
 481 0016 0093     	 str r3,[sp]
 482 0018 3B68     	 ldr r3,[r7]
 483 001a 0621     	 movs r1,#6
 484 001c 2046     	 mov r0,r4
 485 001e FFF7FEFF 	 bl xTimerGenericCommand
 486 0022 0346     	 mov r3,r0
  79:C:\Users\niels\Documents\Elektrotechniek\Jaar 2\ECS\ECSL\software\STM32\STM32Basis\HAL\gemeenschappelijk\Third_Party\freertos-addons-1.1.0\c++\Source\ctimer.cpp ****             ? false : true;
 487              	 .loc 2 79 23
 488 0024 002B     	 cmp r3,#0
 489 0026 14BF     	 ite ne
 490 0028 0123     	 movne r3,#1
 491 002a 0023     	 moveq r3,#0
 492 002c DBB2     	 uxtb r3,r3
  80:C:\Users\niels\Documents\Elektrotechniek\Jaar 2\ECS\ECSL\software\STM32\STM32Basis\HAL\gemeenschappelijk\Third_Party\freertos-addons-1.1.0\c++\Source\ctimer.cpp **** }
 493              	 .loc 2 80 1
 494 002e 1846     	 mov r0,r3
 495 0030 0C37     	 adds r7,r7,#12
 496              	 .cfi_def_cfa_offset 12
 497 0032 BD46     	 mov sp,r7
 498              	 .cfi_def_cfa_register 13
 499              	 
 500 0034 90BD     	 pop {r4,r7,pc}
 501              	 .cfi_endproc
 502              	.LFE987:
 503              	 .size _ZN12cpp_freertos5Timer12StartFromISREPl,.-_ZN12cpp_freertos5Timer12StartFromISREPl
 504              	 .section .text._ZN12cpp_freertos5Timer4StopEm,"ax",%progbits
 505              	 .align 1
 506              	 .global _ZN12cpp_freertos5Timer4StopEm
 507              	 .syntax unified
 508              	 .thumb
 509              	 .thumb_func
 510              	 .type _ZN12cpp_freertos5Timer4StopEm,%function
 511              	_ZN12cpp_freertos5Timer4StopEm:
 512              	.LFB988:
  81:C:\Users\niels\Documents\Elektrotechniek\Jaar 2\ECS\ECSL\software\STM32\STM32Basis\HAL\gemeenschappelijk\Third_Party\freertos-addons-1.1.0\c++\Source\ctimer.cpp **** 
ARM GAS   			page 16


  82:C:\Users\niels\Documents\Elektrotechniek\Jaar 2\ECS\ECSL\software\STM32\STM32Basis\HAL\gemeenschappelijk\Third_Party\freertos-addons-1.1.0\c++\Source\ctimer.cpp **** 
  83:C:\Users\niels\Documents\Elektrotechniek\Jaar 2\ECS\ECSL\software\STM32\STM32Basis\HAL\gemeenschappelijk\Third_Party\freertos-addons-1.1.0\c++\Source\ctimer.cpp **** bool Timer::Stop(TickType_t CmdTimeout)
  84:C:\Users\niels\Documents\Elektrotechniek\Jaar 2\ECS\ECSL\software\STM32\STM32Basis\HAL\gemeenschappelijk\Third_Party\freertos-addons-1.1.0\c++\Source\ctimer.cpp **** {
 513              	 .loc 2 84 1
 514              	 .cfi_startproc
 515              	 
 516              	 
 517 0000 80B5     	 push {r7,lr}
 518              	 .cfi_def_cfa_offset 8
 519              	 .cfi_offset 7,-8
 520              	 .cfi_offset 14,-4
 521 0002 84B0     	 sub sp,sp,#16
 522              	 .cfi_def_cfa_offset 24
 523 0004 02AF     	 add r7,sp,#8
 524              	 .cfi_def_cfa 7,16
 525 0006 7860     	 str r0,[r7,#4]
 526 0008 3960     	 str r1,[r7]
  85:C:\Users\niels\Documents\Elektrotechniek\Jaar 2\ECS\ECSL\software\STM32\STM32Basis\HAL\gemeenschappelijk\Third_Party\freertos-addons-1.1.0\c++\Source\ctimer.cpp ****     return xTimerStop(handle, CmdTimeout) == pdFALSE ? false : true;
 527              	 .loc 2 85 12
 528 000a 7B68     	 ldr r3,[r7,#4]
 529 000c 5868     	 ldr r0,[r3,#4]
 530 000e 3B68     	 ldr r3,[r7]
 531 0010 0093     	 str r3,[sp]
 532 0012 0023     	 movs r3,#0
 533 0014 0022     	 movs r2,#0
 534 0016 0321     	 movs r1,#3
 535 0018 FFF7FEFF 	 bl xTimerGenericCommand
 536 001c 0346     	 mov r3,r0
 537              	 .loc 2 85 64
 538 001e 002B     	 cmp r3,#0
 539 0020 14BF     	 ite ne
 540 0022 0123     	 movne r3,#1
 541 0024 0023     	 moveq r3,#0
 542 0026 DBB2     	 uxtb r3,r3
  86:C:\Users\niels\Documents\Elektrotechniek\Jaar 2\ECS\ECSL\software\STM32\STM32Basis\HAL\gemeenschappelijk\Third_Party\freertos-addons-1.1.0\c++\Source\ctimer.cpp **** }
 543              	 .loc 2 86 1
 544 0028 1846     	 mov r0,r3
 545 002a 0837     	 adds r7,r7,#8
 546              	 .cfi_def_cfa_offset 8
 547 002c BD46     	 mov sp,r7
 548              	 .cfi_def_cfa_register 13
 549              	 
 550 002e 80BD     	 pop {r7,pc}
 551              	 .cfi_endproc
 552              	.LFE988:
 553              	 .size _ZN12cpp_freertos5Timer4StopEm,.-_ZN12cpp_freertos5Timer4StopEm
 554              	 .section .text._ZN12cpp_freertos5Timer11StopFromISREPl,"ax",%progbits
 555              	 .align 1
 556              	 .global _ZN12cpp_freertos5Timer11StopFromISREPl
 557              	 .syntax unified
 558              	 .thumb
 559              	 .thumb_func
 560              	 .type _ZN12cpp_freertos5Timer11StopFromISREPl,%function
 561              	_ZN12cpp_freertos5Timer11StopFromISREPl:
 562              	.LFB989:
  87:C:\Users\niels\Documents\Elektrotechniek\Jaar 2\ECS\ECSL\software\STM32\STM32Basis\HAL\gemeenschappelijk\Third_Party\freertos-addons-1.1.0\c++\Source\ctimer.cpp **** 
  88:C:\Users\niels\Documents\Elektrotechniek\Jaar 2\ECS\ECSL\software\STM32\STM32Basis\HAL\gemeenschappelijk\Third_Party\freertos-addons-1.1.0\c++\Source\ctimer.cpp **** 
ARM GAS   			page 17


  89:C:\Users\niels\Documents\Elektrotechniek\Jaar 2\ECS\ECSL\software\STM32\STM32Basis\HAL\gemeenschappelijk\Third_Party\freertos-addons-1.1.0\c++\Source\ctimer.cpp **** bool Timer::StopFromISR(BaseType_t *pxHigherPriorityTaskWoken)
  90:C:\Users\niels\Documents\Elektrotechniek\Jaar 2\ECS\ECSL\software\STM32\STM32Basis\HAL\gemeenschappelijk\Third_Party\freertos-addons-1.1.0\c++\Source\ctimer.cpp **** {
 563              	 .loc 2 90 1
 564              	 .cfi_startproc
 565              	 
 566              	 
 567 0000 80B5     	 push {r7,lr}
 568              	 .cfi_def_cfa_offset 8
 569              	 .cfi_offset 7,-8
 570              	 .cfi_offset 14,-4
 571 0002 84B0     	 sub sp,sp,#16
 572              	 .cfi_def_cfa_offset 24
 573 0004 02AF     	 add r7,sp,#8
 574              	 .cfi_def_cfa 7,16
 575 0006 7860     	 str r0,[r7,#4]
 576 0008 3960     	 str r1,[r7]
  91:C:\Users\niels\Documents\Elektrotechniek\Jaar 2\ECS\ECSL\software\STM32\STM32Basis\HAL\gemeenschappelijk\Third_Party\freertos-addons-1.1.0\c++\Source\ctimer.cpp ****     return xTimerStopFromISR(handle, pxHigherPriorityTaskWoken) == pdFALSE
 577              	 .loc 2 91 12
 578 000a 7B68     	 ldr r3,[r7,#4]
 579 000c 5868     	 ldr r0,[r3,#4]
 580 000e 0023     	 movs r3,#0
 581 0010 0093     	 str r3,[sp]
 582 0012 3B68     	 ldr r3,[r7]
 583 0014 0022     	 movs r2,#0
 584 0016 0821     	 movs r1,#8
 585 0018 FFF7FEFF 	 bl xTimerGenericCommand
 586 001c 0346     	 mov r3,r0
  92:C:\Users\niels\Documents\Elektrotechniek\Jaar 2\ECS\ECSL\software\STM32\STM32Basis\HAL\gemeenschappelijk\Third_Party\freertos-addons-1.1.0\c++\Source\ctimer.cpp ****             ? false : true;
 587              	 .loc 2 92 23
 588 001e 002B     	 cmp r3,#0
 589 0020 14BF     	 ite ne
 590 0022 0123     	 movne r3,#1
 591 0024 0023     	 moveq r3,#0
 592 0026 DBB2     	 uxtb r3,r3
  93:C:\Users\niels\Documents\Elektrotechniek\Jaar 2\ECS\ECSL\software\STM32\STM32Basis\HAL\gemeenschappelijk\Third_Party\freertos-addons-1.1.0\c++\Source\ctimer.cpp **** }
 593              	 .loc 2 93 1
 594 0028 1846     	 mov r0,r3
 595 002a 0837     	 adds r7,r7,#8
 596              	 .cfi_def_cfa_offset 8
 597 002c BD46     	 mov sp,r7
 598              	 .cfi_def_cfa_register 13
 599              	 
 600 002e 80BD     	 pop {r7,pc}
 601              	 .cfi_endproc
 602              	.LFE989:
 603              	 .size _ZN12cpp_freertos5Timer11StopFromISREPl,.-_ZN12cpp_freertos5Timer11StopFromISREPl
 604              	 .section .text._ZN12cpp_freertos5Timer5ResetEm,"ax",%progbits
 605              	 .align 1
 606              	 .global _ZN12cpp_freertos5Timer5ResetEm
 607              	 .syntax unified
 608              	 .thumb
 609              	 .thumb_func
 610              	 .type _ZN12cpp_freertos5Timer5ResetEm,%function
 611              	_ZN12cpp_freertos5Timer5ResetEm:
 612              	.LFB990:
  94:C:\Users\niels\Documents\Elektrotechniek\Jaar 2\ECS\ECSL\software\STM32\STM32Basis\HAL\gemeenschappelijk\Third_Party\freertos-addons-1.1.0\c++\Source\ctimer.cpp **** 
  95:C:\Users\niels\Documents\Elektrotechniek\Jaar 2\ECS\ECSL\software\STM32\STM32Basis\HAL\gemeenschappelijk\Third_Party\freertos-addons-1.1.0\c++\Source\ctimer.cpp **** 
ARM GAS   			page 18


  96:C:\Users\niels\Documents\Elektrotechniek\Jaar 2\ECS\ECSL\software\STM32\STM32Basis\HAL\gemeenschappelijk\Third_Party\freertos-addons-1.1.0\c++\Source\ctimer.cpp **** bool Timer::Reset(TickType_t CmdTimeout)
  97:C:\Users\niels\Documents\Elektrotechniek\Jaar 2\ECS\ECSL\software\STM32\STM32Basis\HAL\gemeenschappelijk\Third_Party\freertos-addons-1.1.0\c++\Source\ctimer.cpp **** {
 613              	 .loc 2 97 1
 614              	 .cfi_startproc
 615              	 
 616              	 
 617 0000 90B5     	 push {r4,r7,lr}
 618              	 .cfi_def_cfa_offset 12
 619              	 .cfi_offset 4,-12
 620              	 .cfi_offset 7,-8
 621              	 .cfi_offset 14,-4
 622 0002 85B0     	 sub sp,sp,#20
 623              	 .cfi_def_cfa_offset 32
 624 0004 02AF     	 add r7,sp,#8
 625              	 .cfi_def_cfa 7,24
 626 0006 7860     	 str r0,[r7,#4]
 627 0008 3960     	 str r1,[r7]
  98:C:\Users\niels\Documents\Elektrotechniek\Jaar 2\ECS\ECSL\software\STM32\STM32Basis\HAL\gemeenschappelijk\Third_Party\freertos-addons-1.1.0\c++\Source\ctimer.cpp ****     return xTimerReset(handle, CmdTimeout) == pdFALSE ? false : true;
 628              	 .loc 2 98 12
 629 000a 7B68     	 ldr r3,[r7,#4]
 630 000c 5C68     	 ldr r4,[r3,#4]
 631 000e FFF7FEFF 	 bl xTaskGetTickCount
 632 0012 0246     	 mov r2,r0
 633 0014 3B68     	 ldr r3,[r7]
 634 0016 0093     	 str r3,[sp]
 635 0018 0023     	 movs r3,#0
 636 001a 0221     	 movs r1,#2
 637 001c 2046     	 mov r0,r4
 638 001e FFF7FEFF 	 bl xTimerGenericCommand
 639 0022 0346     	 mov r3,r0
 640              	 .loc 2 98 65
 641 0024 002B     	 cmp r3,#0
 642 0026 14BF     	 ite ne
 643 0028 0123     	 movne r3,#1
 644 002a 0023     	 moveq r3,#0
 645 002c DBB2     	 uxtb r3,r3
  99:C:\Users\niels\Documents\Elektrotechniek\Jaar 2\ECS\ECSL\software\STM32\STM32Basis\HAL\gemeenschappelijk\Third_Party\freertos-addons-1.1.0\c++\Source\ctimer.cpp **** }
 646              	 .loc 2 99 1
 647 002e 1846     	 mov r0,r3
 648 0030 0C37     	 adds r7,r7,#12
 649              	 .cfi_def_cfa_offset 12
 650 0032 BD46     	 mov sp,r7
 651              	 .cfi_def_cfa_register 13
 652              	 
 653 0034 90BD     	 pop {r4,r7,pc}
 654              	 .cfi_endproc
 655              	.LFE990:
 656              	 .size _ZN12cpp_freertos5Timer5ResetEm,.-_ZN12cpp_freertos5Timer5ResetEm
 657              	 .section .text._ZN12cpp_freertos5Timer12ResetFromISREPl,"ax",%progbits
 658              	 .align 1
 659              	 .global _ZN12cpp_freertos5Timer12ResetFromISREPl
 660              	 .syntax unified
 661              	 .thumb
 662              	 .thumb_func
 663              	 .type _ZN12cpp_freertos5Timer12ResetFromISREPl,%function
 664              	_ZN12cpp_freertos5Timer12ResetFromISREPl:
 665              	.LFB991:
ARM GAS   			page 19


 100:C:\Users\niels\Documents\Elektrotechniek\Jaar 2\ECS\ECSL\software\STM32\STM32Basis\HAL\gemeenschappelijk\Third_Party\freertos-addons-1.1.0\c++\Source\ctimer.cpp **** 
 101:C:\Users\niels\Documents\Elektrotechniek\Jaar 2\ECS\ECSL\software\STM32\STM32Basis\HAL\gemeenschappelijk\Third_Party\freertos-addons-1.1.0\c++\Source\ctimer.cpp **** 
 102:C:\Users\niels\Documents\Elektrotechniek\Jaar 2\ECS\ECSL\software\STM32\STM32Basis\HAL\gemeenschappelijk\Third_Party\freertos-addons-1.1.0\c++\Source\ctimer.cpp **** bool Timer::ResetFromISR(BaseType_t *pxHigherPriorityTaskWoken)
 103:C:\Users\niels\Documents\Elektrotechniek\Jaar 2\ECS\ECSL\software\STM32\STM32Basis\HAL\gemeenschappelijk\Third_Party\freertos-addons-1.1.0\c++\Source\ctimer.cpp **** {
 666              	 .loc 2 103 1
 667              	 .cfi_startproc
 668              	 
 669              	 
 670 0000 90B5     	 push {r4,r7,lr}
 671              	 .cfi_def_cfa_offset 12
 672              	 .cfi_offset 4,-12
 673              	 .cfi_offset 7,-8
 674              	 .cfi_offset 14,-4
 675 0002 85B0     	 sub sp,sp,#20
 676              	 .cfi_def_cfa_offset 32
 677 0004 02AF     	 add r7,sp,#8
 678              	 .cfi_def_cfa 7,24
 679 0006 7860     	 str r0,[r7,#4]
 680 0008 3960     	 str r1,[r7]
 104:C:\Users\niels\Documents\Elektrotechniek\Jaar 2\ECS\ECSL\software\STM32\STM32Basis\HAL\gemeenschappelijk\Third_Party\freertos-addons-1.1.0\c++\Source\ctimer.cpp ****     return xTimerResetFromISR(handle, pxHigherPriorityTaskWoken) == pdFALSE
 681              	 .loc 2 104 12
 682 000a 7B68     	 ldr r3,[r7,#4]
 683 000c 5C68     	 ldr r4,[r3,#4]
 684 000e FFF7FEFF 	 bl xTaskGetTickCountFromISR
 685 0012 0246     	 mov r2,r0
 686 0014 0023     	 movs r3,#0
 687 0016 0093     	 str r3,[sp]
 688 0018 3B68     	 ldr r3,[r7]
 689 001a 0721     	 movs r1,#7
 690 001c 2046     	 mov r0,r4
 691 001e FFF7FEFF 	 bl xTimerGenericCommand
 692 0022 0346     	 mov r3,r0
 105:C:\Users\niels\Documents\Elektrotechniek\Jaar 2\ECS\ECSL\software\STM32\STM32Basis\HAL\gemeenschappelijk\Third_Party\freertos-addons-1.1.0\c++\Source\ctimer.cpp ****             ? false : true;
 693              	 .loc 2 105 23
 694 0024 002B     	 cmp r3,#0
 695 0026 14BF     	 ite ne
 696 0028 0123     	 movne r3,#1
 697 002a 0023     	 moveq r3,#0
 698 002c DBB2     	 uxtb r3,r3
 106:C:\Users\niels\Documents\Elektrotechniek\Jaar 2\ECS\ECSL\software\STM32\STM32Basis\HAL\gemeenschappelijk\Third_Party\freertos-addons-1.1.0\c++\Source\ctimer.cpp **** }
 699              	 .loc 2 106 1
 700 002e 1846     	 mov r0,r3
 701 0030 0C37     	 adds r7,r7,#12
 702              	 .cfi_def_cfa_offset 12
 703 0032 BD46     	 mov sp,r7
 704              	 .cfi_def_cfa_register 13
 705              	 
 706 0034 90BD     	 pop {r4,r7,pc}
 707              	 .cfi_endproc
 708              	.LFE991:
 709              	 .size _ZN12cpp_freertos5Timer12ResetFromISREPl,.-_ZN12cpp_freertos5Timer12ResetFromISREPl
 710              	 .section .text._ZN12cpp_freertos5Timer9SetPeriodEmm,"ax",%progbits
 711              	 .align 1
 712              	 .global _ZN12cpp_freertos5Timer9SetPeriodEmm
 713              	 .syntax unified
 714              	 .thumb
 715              	 .thumb_func
ARM GAS   			page 20


 716              	 .type _ZN12cpp_freertos5Timer9SetPeriodEmm,%function
 717              	_ZN12cpp_freertos5Timer9SetPeriodEmm:
 718              	.LFB992:
 107:C:\Users\niels\Documents\Elektrotechniek\Jaar 2\ECS\ECSL\software\STM32\STM32Basis\HAL\gemeenschappelijk\Third_Party\freertos-addons-1.1.0\c++\Source\ctimer.cpp **** 
 108:C:\Users\niels\Documents\Elektrotechniek\Jaar 2\ECS\ECSL\software\STM32\STM32Basis\HAL\gemeenschappelijk\Third_Party\freertos-addons-1.1.0\c++\Source\ctimer.cpp **** 
 109:C:\Users\niels\Documents\Elektrotechniek\Jaar 2\ECS\ECSL\software\STM32\STM32Basis\HAL\gemeenschappelijk\Third_Party\freertos-addons-1.1.0\c++\Source\ctimer.cpp **** bool Timer::SetPeriod(  TickType_t NewPeriod,
 110:C:\Users\niels\Documents\Elektrotechniek\Jaar 2\ECS\ECSL\software\STM32\STM32Basis\HAL\gemeenschappelijk\Third_Party\freertos-addons-1.1.0\c++\Source\ctimer.cpp ****                         TickType_t CmdTimeout)
 111:C:\Users\niels\Documents\Elektrotechniek\Jaar 2\ECS\ECSL\software\STM32\STM32Basis\HAL\gemeenschappelijk\Third_Party\freertos-addons-1.1.0\c++\Source\ctimer.cpp **** {
 719              	 .loc 2 111 1
 720              	 .cfi_startproc
 721              	 
 722              	 
 723 0000 80B5     	 push {r7,lr}
 724              	 .cfi_def_cfa_offset 8
 725              	 .cfi_offset 7,-8
 726              	 .cfi_offset 14,-4
 727 0002 86B0     	 sub sp,sp,#24
 728              	 .cfi_def_cfa_offset 32
 729 0004 02AF     	 add r7,sp,#8
 730              	 .cfi_def_cfa 7,24
 731 0006 F860     	 str r0,[r7,#12]
 732 0008 B960     	 str r1,[r7,#8]
 733 000a 7A60     	 str r2,[r7,#4]
 112:C:\Users\niels\Documents\Elektrotechniek\Jaar 2\ECS\ECSL\software\STM32\STM32Basis\HAL\gemeenschappelijk\Third_Party\freertos-addons-1.1.0\c++\Source\ctimer.cpp ****     return xTimerChangePeriod(handle, NewPeriod, CmdTimeout) == pdFALSE
 734              	 .loc 2 112 12
 735 000c FB68     	 ldr r3,[r7,#12]
 736 000e 5868     	 ldr r0,[r3,#4]
 737 0010 7B68     	 ldr r3,[r7,#4]
 738 0012 0093     	 str r3,[sp]
 739 0014 0023     	 movs r3,#0
 740 0016 BA68     	 ldr r2,[r7,#8]
 741 0018 0421     	 movs r1,#4
 742 001a FFF7FEFF 	 bl xTimerGenericCommand
 743 001e 0346     	 mov r3,r0
 113:C:\Users\niels\Documents\Elektrotechniek\Jaar 2\ECS\ECSL\software\STM32\STM32Basis\HAL\gemeenschappelijk\Third_Party\freertos-addons-1.1.0\c++\Source\ctimer.cpp ****             ? false : true;
 744              	 .loc 2 113 23
 745 0020 002B     	 cmp r3,#0
 746 0022 14BF     	 ite ne
 747 0024 0123     	 movne r3,#1
 748 0026 0023     	 moveq r3,#0
 749 0028 DBB2     	 uxtb r3,r3
 114:C:\Users\niels\Documents\Elektrotechniek\Jaar 2\ECS\ECSL\software\STM32\STM32Basis\HAL\gemeenschappelijk\Third_Party\freertos-addons-1.1.0\c++\Source\ctimer.cpp **** }
 750              	 .loc 2 114 1
 751 002a 1846     	 mov r0,r3
 752 002c 1037     	 adds r7,r7,#16
 753              	 .cfi_def_cfa_offset 8
 754 002e BD46     	 mov sp,r7
 755              	 .cfi_def_cfa_register 13
 756              	 
 757 0030 80BD     	 pop {r7,pc}
 758              	 .cfi_endproc
 759              	.LFE992:
 760              	 .size _ZN12cpp_freertos5Timer9SetPeriodEmm,.-_ZN12cpp_freertos5Timer9SetPeriodEmm
 761              	 .section .text._ZN12cpp_freertos5Timer16SetPeriodFromISREmPl,"ax",%progbits
 762              	 .align 1
 763              	 .global _ZN12cpp_freertos5Timer16SetPeriodFromISREmPl
 764              	 .syntax unified
ARM GAS   			page 21


 765              	 .thumb
 766              	 .thumb_func
 767              	 .type _ZN12cpp_freertos5Timer16SetPeriodFromISREmPl,%function
 768              	_ZN12cpp_freertos5Timer16SetPeriodFromISREmPl:
 769              	.LFB993:
 115:C:\Users\niels\Documents\Elektrotechniek\Jaar 2\ECS\ECSL\software\STM32\STM32Basis\HAL\gemeenschappelijk\Third_Party\freertos-addons-1.1.0\c++\Source\ctimer.cpp **** 
 116:C:\Users\niels\Documents\Elektrotechniek\Jaar 2\ECS\ECSL\software\STM32\STM32Basis\HAL\gemeenschappelijk\Third_Party\freertos-addons-1.1.0\c++\Source\ctimer.cpp **** 
 117:C:\Users\niels\Documents\Elektrotechniek\Jaar 2\ECS\ECSL\software\STM32\STM32Basis\HAL\gemeenschappelijk\Third_Party\freertos-addons-1.1.0\c++\Source\ctimer.cpp **** bool Timer::SetPeriodFromISR(   TickType_t NewPeriod,
 118:C:\Users\niels\Documents\Elektrotechniek\Jaar 2\ECS\ECSL\software\STM32\STM32Basis\HAL\gemeenschappelijk\Third_Party\freertos-addons-1.1.0\c++\Source\ctimer.cpp ****                                 BaseType_t *pxHigherPriorityTaskWoken)
 119:C:\Users\niels\Documents\Elektrotechniek\Jaar 2\ECS\ECSL\software\STM32\STM32Basis\HAL\gemeenschappelijk\Third_Party\freertos-addons-1.1.0\c++\Source\ctimer.cpp **** {
 770              	 .loc 2 119 1
 771              	 .cfi_startproc
 772              	 
 773              	 
 774 0000 80B5     	 push {r7,lr}
 775              	 .cfi_def_cfa_offset 8
 776              	 .cfi_offset 7,-8
 777              	 .cfi_offset 14,-4
 778 0002 86B0     	 sub sp,sp,#24
 779              	 .cfi_def_cfa_offset 32
 780 0004 02AF     	 add r7,sp,#8
 781              	 .cfi_def_cfa 7,24
 782 0006 F860     	 str r0,[r7,#12]
 783 0008 B960     	 str r1,[r7,#8]
 784 000a 7A60     	 str r2,[r7,#4]
 120:C:\Users\niels\Documents\Elektrotechniek\Jaar 2\ECS\ECSL\software\STM32\STM32Basis\HAL\gemeenschappelijk\Third_Party\freertos-addons-1.1.0\c++\Source\ctimer.cpp ****     return xTimerChangePeriodFromISR(   handle, NewPeriod,
 785              	 .loc 2 120 12
 786 000c FB68     	 ldr r3,[r7,#12]
 787 000e 5868     	 ldr r0,[r3,#4]
 788 0010 0023     	 movs r3,#0
 789 0012 0093     	 str r3,[sp]
 790 0014 7B68     	 ldr r3,[r7,#4]
 791 0016 BA68     	 ldr r2,[r7,#8]
 792 0018 0921     	 movs r1,#9
 793 001a FFF7FEFF 	 bl xTimerGenericCommand
 794 001e 0346     	 mov r3,r0
 121:C:\Users\niels\Documents\Elektrotechniek\Jaar 2\ECS\ECSL\software\STM32\STM32Basis\HAL\gemeenschappelijk\Third_Party\freertos-addons-1.1.0\c++\Source\ctimer.cpp ****                                         pxHigherPriorityTaskWoken) == pdFALSE
 122:C:\Users\niels\Documents\Elektrotechniek\Jaar 2\ECS\ECSL\software\STM32\STM32Basis\HAL\gemeenschappelijk\Third_Party\freertos-addons-1.1.0\c++\Source\ctimer.cpp ****             ? false : true;
 795              	 .loc 2 122 23
 796 0020 002B     	 cmp r3,#0
 797 0022 14BF     	 ite ne
 798 0024 0123     	 movne r3,#1
 799 0026 0023     	 moveq r3,#0
 800 0028 DBB2     	 uxtb r3,r3
 123:C:\Users\niels\Documents\Elektrotechniek\Jaar 2\ECS\ECSL\software\STM32\STM32Basis\HAL\gemeenschappelijk\Third_Party\freertos-addons-1.1.0\c++\Source\ctimer.cpp **** }
 801              	 .loc 2 123 1
 802 002a 1846     	 mov r0,r3
 803 002c 1037     	 adds r7,r7,#16
 804              	 .cfi_def_cfa_offset 8
 805 002e BD46     	 mov sp,r7
 806              	 .cfi_def_cfa_register 13
 807              	 
 808 0030 80BD     	 pop {r7,pc}
 809              	 .cfi_endproc
 810              	.LFE993:
 811              	 .size _ZN12cpp_freertos5Timer16SetPeriodFromISREmPl,.-_ZN12cpp_freertos5Timer16SetPeriodFromISREmPl
 812              	 .section .text._ZN12cpp_freertos5Timer28TimerCallbackFunctionAdapterEPv,"ax",%progbits
ARM GAS   			page 22


 813              	 .align 1
 814              	 .global _ZN12cpp_freertos5Timer28TimerCallbackFunctionAdapterEPv
 815              	 .syntax unified
 816              	 .thumb
 817              	 .thumb_func
 818              	 .type _ZN12cpp_freertos5Timer28TimerCallbackFunctionAdapterEPv,%function
 819              	_ZN12cpp_freertos5Timer28TimerCallbackFunctionAdapterEPv:
 820              	.LFB994:
 124:C:\Users\niels\Documents\Elektrotechniek\Jaar 2\ECS\ECSL\software\STM32\STM32Basis\HAL\gemeenschappelijk\Third_Party\freertos-addons-1.1.0\c++\Source\ctimer.cpp **** 
 125:C:\Users\niels\Documents\Elektrotechniek\Jaar 2\ECS\ECSL\software\STM32\STM32Basis\HAL\gemeenschappelijk\Third_Party\freertos-addons-1.1.0\c++\Source\ctimer.cpp **** 
 126:C:\Users\niels\Documents\Elektrotechniek\Jaar 2\ECS\ECSL\software\STM32\STM32Basis\HAL\gemeenschappelijk\Third_Party\freertos-addons-1.1.0\c++\Source\ctimer.cpp **** #if (INCLUDE_xTimerGetTimerDaemonTaskHandle == 1)
 127:C:\Users\niels\Documents\Elektrotechniek\Jaar 2\ECS\ECSL\software\STM32\STM32Basis\HAL\gemeenschappelijk\Third_Party\freertos-addons-1.1.0\c++\Source\ctimer.cpp **** 
 128:C:\Users\niels\Documents\Elektrotechniek\Jaar 2\ECS\ECSL\software\STM32\STM32Basis\HAL\gemeenschappelijk\Third_Party\freertos-addons-1.1.0\c++\Source\ctimer.cpp **** TaskHandle_t Timer::GetTimerDaemonHandle()
 129:C:\Users\niels\Documents\Elektrotechniek\Jaar 2\ECS\ECSL\software\STM32\STM32Basis\HAL\gemeenschappelijk\Third_Party\freertos-addons-1.1.0\c++\Source\ctimer.cpp **** {
 130:C:\Users\niels\Documents\Elektrotechniek\Jaar 2\ECS\ECSL\software\STM32\STM32Basis\HAL\gemeenschappelijk\Third_Party\freertos-addons-1.1.0\c++\Source\ctimer.cpp ****     return xTimerGetTimerDaemonTaskHandle();
 131:C:\Users\niels\Documents\Elektrotechniek\Jaar 2\ECS\ECSL\software\STM32\STM32Basis\HAL\gemeenschappelijk\Third_Party\freertos-addons-1.1.0\c++\Source\ctimer.cpp **** }
 132:C:\Users\niels\Documents\Elektrotechniek\Jaar 2\ECS\ECSL\software\STM32\STM32Basis\HAL\gemeenschappelijk\Third_Party\freertos-addons-1.1.0\c++\Source\ctimer.cpp **** 
 133:C:\Users\niels\Documents\Elektrotechniek\Jaar 2\ECS\ECSL\software\STM32\STM32Basis\HAL\gemeenschappelijk\Third_Party\freertos-addons-1.1.0\c++\Source\ctimer.cpp **** #endif
 134:C:\Users\niels\Documents\Elektrotechniek\Jaar 2\ECS\ECSL\software\STM32\STM32Basis\HAL\gemeenschappelijk\Third_Party\freertos-addons-1.1.0\c++\Source\ctimer.cpp **** 
 135:C:\Users\niels\Documents\Elektrotechniek\Jaar 2\ECS\ECSL\software\STM32\STM32Basis\HAL\gemeenschappelijk\Third_Party\freertos-addons-1.1.0\c++\Source\ctimer.cpp **** 
 136:C:\Users\niels\Documents\Elektrotechniek\Jaar 2\ECS\ECSL\software\STM32\STM32Basis\HAL\gemeenschappelijk\Third_Party\freertos-addons-1.1.0\c++\Source\ctimer.cpp **** void Timer::TimerCallbackFunctionAdapter(TimerHandle_t xTimer)
 137:C:\Users\niels\Documents\Elektrotechniek\Jaar 2\ECS\ECSL\software\STM32\STM32Basis\HAL\gemeenschappelijk\Third_Party\freertos-addons-1.1.0\c++\Source\ctimer.cpp **** {
 821              	 .loc 2 137 1
 822              	 .cfi_startproc
 823              	 
 824              	 
 825 0000 80B5     	 push {r7,lr}
 826              	 .cfi_def_cfa_offset 8
 827              	 .cfi_offset 7,-8
 828              	 .cfi_offset 14,-4
 829 0002 84B0     	 sub sp,sp,#16
 830              	 .cfi_def_cfa_offset 24
 831 0004 00AF     	 add r7,sp,#0
 832              	 .cfi_def_cfa_register 7
 833 0006 7860     	 str r0,[r7,#4]
 138:C:\Users\niels\Documents\Elektrotechniek\Jaar 2\ECS\ECSL\software\STM32\STM32Basis\HAL\gemeenschappelijk\Third_Party\freertos-addons-1.1.0\c++\Source\ctimer.cpp ****     Timer *timer = static_cast<Timer *>(pvTimerGetTimerID(xTimer));
 834              	 .loc 2 138 58
 835 0008 7868     	 ldr r0,[r7,#4]
 836 000a FFF7FEFF 	 bl pvTimerGetTimerID
 837 000e F860     	 str r0,[r7,#12]
 139:C:\Users\niels\Documents\Elektrotechniek\Jaar 2\ECS\ECSL\software\STM32\STM32Basis\HAL\gemeenschappelijk\Third_Party\freertos-addons-1.1.0\c++\Source\ctimer.cpp ****     timer->Run();
 838              	 .loc 2 139 16
 839 0010 FB68     	 ldr r3,[r7,#12]
 840 0012 1B68     	 ldr r3,[r3]
 841 0014 0833     	 adds r3,r3,#8
 842 0016 1B68     	 ldr r3,[r3]
 843              	 .loc 2 139 15
 844 0018 F868     	 ldr r0,[r7,#12]
 845 001a 9847     	 blx r3
 846              	.LVL0:
 140:C:\Users\niels\Documents\Elektrotechniek\Jaar 2\ECS\ECSL\software\STM32\STM32Basis\HAL\gemeenschappelijk\Third_Party\freertos-addons-1.1.0\c++\Source\ctimer.cpp **** }
 847              	 .loc 2 140 1
 848 001c 00BF     	 nop
 849 001e 1037     	 adds r7,r7,#16
 850              	 .cfi_def_cfa_offset 8
 851 0020 BD46     	 mov sp,r7
 852              	 .cfi_def_cfa_register 13
ARM GAS   			page 23


 853              	 
 854 0022 80BD     	 pop {r7,pc}
 855              	 .cfi_endproc
 856              	.LFE994:
 857              	 .size _ZN12cpp_freertos5Timer28TimerCallbackFunctionAdapterEPv,.-_ZN12cpp_freertos5Timer28TimerCallbackFunctionAdapterEPv
 858              	 .global _ZTVN12cpp_freertos5TimerE
 859              	 .section .rodata._ZTVN12cpp_freertos5TimerE,"a"
 860              	 .align 2
 861              	 .type _ZTVN12cpp_freertos5TimerE,%object
 862              	 .size _ZTVN12cpp_freertos5TimerE,20
 863              	_ZTVN12cpp_freertos5TimerE:
 864 0000 00000000 	 .word 0
 865 0004 00000000 	 .word 0
 866 0008 00000000 	 .word 0
 867 000c 00000000 	 .word 0
 868 0010 00000000 	 .word __cxa_pure_virtual
 869              	 .text
 870              	.Letext0:
 871              	 .file 3 "c:\\progra~2\\gnuarm~1\\102021~1.10\\arm-none-eabi\\include\\c++\\10.3.1\\bits\\exception_ptr.h"
 872              	 .file 4 "c:\\progra~2\\gnuarm~1\\102021~1.10\\arm-none-eabi\\include\\c++\\10.3.1\\type_traits"
 873              	 .file 5 "c:\\progra~2\\gnuarm~1\\102021~1.10\\arm-none-eabi\\include\\c++\\10.3.1\\bits\\cpp_type_traits.h"
 874              	 .file 6 "c:\\progra~2\\gnuarm~1\\102021~1.10\\arm-none-eabi\\include\\c++\\10.3.1\\bits\\stl_pair.h"
 875              	 .file 7 "c:\\progra~2\\gnuarm~1\\102021~1.10\\arm-none-eabi\\include\\c++\\10.3.1\\debug\\debug.h"
 876              	 .file 8 "c:\\progra~2\\gnuarm~1\\102021~1.10\\arm-none-eabi\\include\\c++\\10.3.1\\cwchar"
 877              	 .file 9 "c:\\progra~2\\gnuarm~1\\102021~1.10\\arm-none-eabi\\include\\c++\\10.3.1\\cstdint"
 878              	 .file 10 "c:\\progra~2\\gnuarm~1\\102021~1.10\\arm-none-eabi\\include\\c++\\10.3.1\\clocale"
 879              	 .file 11 "c:\\progra~2\\gnuarm~1\\102021~1.10\\arm-none-eabi\\include\\c++\\10.3.1\\cstdlib"
 880              	 .file 12 "c:\\progra~2\\gnuarm~1\\102021~1.10\\arm-none-eabi\\include\\c++\\10.3.1\\cstdio"
 881              	 .file 13 "c:\\progra~2\\gnuarm~1\\102021~1.10\\arm-none-eabi\\include\\c++\\10.3.1\\arm-none-eabi\\thumb\\v7e-m+fp\\hard\\bits\\c++config.h"
 882              	 .file 14 "c:\\progra~2\\gnuarm~1\\102021~1.10\\arm-none-eabi\\include\\c++\\10.3.1\\bits\\predefined_ops.h"
 883              	 .file 15 "c:\\progra~2\\gnuarm~1\\102021~1.10\\lib\\gcc\\arm-none-eabi\\10.3.1\\include\\stddef.h"
 884              	 .file 16 "c:\\progra~2\\gnuarm~1\\102021~1.10\\arm-none-eabi\\include\\machine\\_default_types.h"
 885              	 .file 17 "c:\\progra~2\\gnuarm~1\\102021~1.10\\arm-none-eabi\\include\\sys\\_types.h"
 886              	 .file 18 "c:\\progra~2\\gnuarm~1\\102021~1.10\\arm-none-eabi\\include\\sys\\reent.h"
 887              	 .file 19 "c:\\progra~2\\gnuarm~1\\102021~1.10\\arm-none-eabi\\include\\sys\\lock.h"
 888              	 .file 20 "c:\\progra~2\\gnuarm~1\\102021~1.10\\lib\\gcc\\arm-none-eabi\\10.3.1\\include\\stdarg.h"
 889              	 .file 21 "c:\\progra~2\\gnuarm~1\\102021~1.10\\arm-none-eabi\\include\\wchar.h"
 890              	 .file 22 "c:\\progra~2\\gnuarm~1\\102021~1.10\\arm-none-eabi\\include\\sys\\_stdint.h"
 891              	 .file 23 "c:\\progra~2\\gnuarm~1\\102021~1.10\\arm-none-eabi\\include\\stdint.h"
 892              	 .file 24 "c:\\progra~2\\gnuarm~1\\102021~1.10\\arm-none-eabi\\include\\locale.h"
 893              	 .file 25 "c:\\progra~2\\gnuarm~1\\102021~1.10\\arm-none-eabi\\include\\stdlib.h"
 894              	 .file 26 "c:\\progra~2\\gnuarm~1\\102021~1.10\\arm-none-eabi\\include\\stdio.h"
 895              	 .file 27 "C:/Users/niels/DOCUME~1/ELEKTR~1/JAAR2~1/ECS/ECSL/software/STM32/STM32B~1/HAL/GEMEEN~1/THIRD_~1/FreeRTOS/Source/portable/GCC/ARM_CM4F/portmacro.h"
 896              	 .file 28 "C:/Users/niels/DOCUME~1/ELEKTR~1/JAAR2~1/ECS/ECSL/software/STM32/STM32B~1/HAL/GEMEEN~1/THIRD_~1/FreeRTOS/Source/include/timers.h"
 897              	 .file 29 "C:/Users/niels/DOCUME~1/ELEKTR~1/JAAR2~1/ECS/ECSL/software/STM32/STM32B~1/HAL/GEMEEN~1/THIRD_~1/FREERT~1.0/C__~1/Source/include/timer.hpp"
 898              	 .file 30 "<built-in>"