ARM GAS   			page 1


   1              	 .cpu cortex-m4
   2              	 .arch armv7e-m
   3              	 .fpu fpv4-sp-d16
   4              	 .eabi_attribute 27,1
   5              	 .eabi_attribute 28,1
   6              	 .eabi_attribute 20,1
   7              	 .eabi_attribute 21,1
   8              	 .eabi_attribute 23,3
   9              	 .eabi_attribute 24,1
  10              	 .eabi_attribute 25,1
  11              	 .eabi_attribute 26,1
  12              	 .eabi_attribute 30,6
  13              	 .eabi_attribute 34,0
  14              	 .eabi_attribute 18,4
  15              	 .file "list.c"
  16              	 .text
  17              	.Ltext0:
  18              	 .cfi_sections .debug_frame
  19              	 .section .text.vListInitialise,"ax",%progbits
  20              	 .align 1
  21              	 .global vListInitialise
  22              	 .syntax unified
  23              	 .thumb
  24              	 .thumb_func
  25              	 .type vListInitialise,%function
  26              	vListInitialise:
  27              	 .fnstart
  28              	.LFB11:
  29              	 .file 1 "C:\\Users\\niels\\Documents\\Elektrotechniek\\Jaar 2\\ECS\\ECSL\\software\\STM32\\STM32Basis\\HAL\\gemeenschappelijk\\Third_Party\\FreeRTOS\\Source\\list.c"
   1:C:\Users\niels\Documents\Elektrotechniek\Jaar 2\ECS\ECSL\software\STM32\STM32Basis\HAL\gemeenschappelijk\Third_Party\FreeRTOS\Source\list.c **** /*
   2:C:\Users\niels\Documents\Elektrotechniek\Jaar 2\ECS\ECSL\software\STM32\STM32Basis\HAL\gemeenschappelijk\Third_Party\FreeRTOS\Source\list.c ****     FreeRTOS V8.2.3 - Copyright (C) 2015 Real Time Engineers Ltd.
   3:C:\Users\niels\Documents\Elektrotechniek\Jaar 2\ECS\ECSL\software\STM32\STM32Basis\HAL\gemeenschappelijk\Third_Party\FreeRTOS\Source\list.c ****     All rights reserved
   4:C:\Users\niels\Documents\Elektrotechniek\Jaar 2\ECS\ECSL\software\STM32\STM32Basis\HAL\gemeenschappelijk\Third_Party\FreeRTOS\Source\list.c **** 
   5:C:\Users\niels\Documents\Elektrotechniek\Jaar 2\ECS\ECSL\software\STM32\STM32Basis\HAL\gemeenschappelijk\Third_Party\FreeRTOS\Source\list.c ****     VISIT http://www.FreeRTOS.org TO ENSURE YOU ARE USING THE LATEST VERSION.
   6:C:\Users\niels\Documents\Elektrotechniek\Jaar 2\ECS\ECSL\software\STM32\STM32Basis\HAL\gemeenschappelijk\Third_Party\FreeRTOS\Source\list.c **** 
   7:C:\Users\niels\Documents\Elektrotechniek\Jaar 2\ECS\ECSL\software\STM32\STM32Basis\HAL\gemeenschappelijk\Third_Party\FreeRTOS\Source\list.c ****     This file is part of the FreeRTOS distribution.
   8:C:\Users\niels\Documents\Elektrotechniek\Jaar 2\ECS\ECSL\software\STM32\STM32Basis\HAL\gemeenschappelijk\Third_Party\FreeRTOS\Source\list.c **** 
   9:C:\Users\niels\Documents\Elektrotechniek\Jaar 2\ECS\ECSL\software\STM32\STM32Basis\HAL\gemeenschappelijk\Third_Party\FreeRTOS\Source\list.c ****     FreeRTOS is free software; you can redistribute it and/or modify it under
  10:C:\Users\niels\Documents\Elektrotechniek\Jaar 2\ECS\ECSL\software\STM32\STM32Basis\HAL\gemeenschappelijk\Third_Party\FreeRTOS\Source\list.c ****     the terms of the GNU General Public License (version 2) as published by the
  11:C:\Users\niels\Documents\Elektrotechniek\Jaar 2\ECS\ECSL\software\STM32\STM32Basis\HAL\gemeenschappelijk\Third_Party\FreeRTOS\Source\list.c ****     Free Software Foundation >>>> AND MODIFIED BY <<<< the FreeRTOS exception.
  12:C:\Users\niels\Documents\Elektrotechniek\Jaar 2\ECS\ECSL\software\STM32\STM32Basis\HAL\gemeenschappelijk\Third_Party\FreeRTOS\Source\list.c **** 
  13:C:\Users\niels\Documents\Elektrotechniek\Jaar 2\ECS\ECSL\software\STM32\STM32Basis\HAL\gemeenschappelijk\Third_Party\FreeRTOS\Source\list.c ****     ***************************************************************************
  14:C:\Users\niels\Documents\Elektrotechniek\Jaar 2\ECS\ECSL\software\STM32\STM32Basis\HAL\gemeenschappelijk\Third_Party\FreeRTOS\Source\list.c ****     >>!   NOTE: The modification to the GPL is included to allow you to     !<<
  15:C:\Users\niels\Documents\Elektrotechniek\Jaar 2\ECS\ECSL\software\STM32\STM32Basis\HAL\gemeenschappelijk\Third_Party\FreeRTOS\Source\list.c ****     >>!   distribute a combined work that includes FreeRTOS without being   !<<
  16:C:\Users\niels\Documents\Elektrotechniek\Jaar 2\ECS\ECSL\software\STM32\STM32Basis\HAL\gemeenschappelijk\Third_Party\FreeRTOS\Source\list.c ****     >>!   obliged to provide the source code for proprietary components     !<<
  17:C:\Users\niels\Documents\Elektrotechniek\Jaar 2\ECS\ECSL\software\STM32\STM32Basis\HAL\gemeenschappelijk\Third_Party\FreeRTOS\Source\list.c ****     >>!   outside of the FreeRTOS kernel.                                   !<<
  18:C:\Users\niels\Documents\Elektrotechniek\Jaar 2\ECS\ECSL\software\STM32\STM32Basis\HAL\gemeenschappelijk\Third_Party\FreeRTOS\Source\list.c ****     ***************************************************************************
  19:C:\Users\niels\Documents\Elektrotechniek\Jaar 2\ECS\ECSL\software\STM32\STM32Basis\HAL\gemeenschappelijk\Third_Party\FreeRTOS\Source\list.c **** 
  20:C:\Users\niels\Documents\Elektrotechniek\Jaar 2\ECS\ECSL\software\STM32\STM32Basis\HAL\gemeenschappelijk\Third_Party\FreeRTOS\Source\list.c ****     FreeRTOS is distributed in the hope that it will be useful, but WITHOUT ANY
  21:C:\Users\niels\Documents\Elektrotechniek\Jaar 2\ECS\ECSL\software\STM32\STM32Basis\HAL\gemeenschappelijk\Third_Party\FreeRTOS\Source\list.c ****     WARRANTY; without even the implied warranty of MERCHANTABILITY or FITNESS
  22:C:\Users\niels\Documents\Elektrotechniek\Jaar 2\ECS\ECSL\software\STM32\STM32Basis\HAL\gemeenschappelijk\Third_Party\FreeRTOS\Source\list.c ****     FOR A PARTICULAR PURPOSE.  Full license text is available on the following
  23:C:\Users\niels\Documents\Elektrotechniek\Jaar 2\ECS\ECSL\software\STM32\STM32Basis\HAL\gemeenschappelijk\Third_Party\FreeRTOS\Source\list.c ****     link: http://www.freertos.org/a00114.html
  24:C:\Users\niels\Documents\Elektrotechniek\Jaar 2\ECS\ECSL\software\STM32\STM32Basis\HAL\gemeenschappelijk\Third_Party\FreeRTOS\Source\list.c **** 
  25:C:\Users\niels\Documents\Elektrotechniek\Jaar 2\ECS\ECSL\software\STM32\STM32Basis\HAL\gemeenschappelijk\Third_Party\FreeRTOS\Source\list.c ****     ***************************************************************************
  26:C:\Users\niels\Documents\Elektrotechniek\Jaar 2\ECS\ECSL\software\STM32\STM32Basis\HAL\gemeenschappelijk\Third_Party\FreeRTOS\Source\list.c ****      *                                                                       *
  27:C:\Users\niels\Documents\Elektrotechniek\Jaar 2\ECS\ECSL\software\STM32\STM32Basis\HAL\gemeenschappelijk\Third_Party\FreeRTOS\Source\list.c ****      *    FreeRTOS provides completely free yet professionally developed,    *
  28:C:\Users\niels\Documents\Elektrotechniek\Jaar 2\ECS\ECSL\software\STM32\STM32Basis\HAL\gemeenschappelijk\Third_Party\FreeRTOS\Source\list.c ****      *    robust, strictly quality controlled, supported, and cross          *
ARM GAS   			page 2


  29:C:\Users\niels\Documents\Elektrotechniek\Jaar 2\ECS\ECSL\software\STM32\STM32Basis\HAL\gemeenschappelijk\Third_Party\FreeRTOS\Source\list.c ****      *    platform software that is more than just the market leader, it     *
  30:C:\Users\niels\Documents\Elektrotechniek\Jaar 2\ECS\ECSL\software\STM32\STM32Basis\HAL\gemeenschappelijk\Third_Party\FreeRTOS\Source\list.c ****      *    is the industry's de facto standard.                               *
  31:C:\Users\niels\Documents\Elektrotechniek\Jaar 2\ECS\ECSL\software\STM32\STM32Basis\HAL\gemeenschappelijk\Third_Party\FreeRTOS\Source\list.c ****      *                                                                       *
  32:C:\Users\niels\Documents\Elektrotechniek\Jaar 2\ECS\ECSL\software\STM32\STM32Basis\HAL\gemeenschappelijk\Third_Party\FreeRTOS\Source\list.c ****      *    Help yourself get started quickly while simultaneously helping     *
  33:C:\Users\niels\Documents\Elektrotechniek\Jaar 2\ECS\ECSL\software\STM32\STM32Basis\HAL\gemeenschappelijk\Third_Party\FreeRTOS\Source\list.c ****      *    to support the FreeRTOS project by purchasing a FreeRTOS           *
  34:C:\Users\niels\Documents\Elektrotechniek\Jaar 2\ECS\ECSL\software\STM32\STM32Basis\HAL\gemeenschappelijk\Third_Party\FreeRTOS\Source\list.c ****      *    tutorial book, reference manual, or both:                          *
  35:C:\Users\niels\Documents\Elektrotechniek\Jaar 2\ECS\ECSL\software\STM32\STM32Basis\HAL\gemeenschappelijk\Third_Party\FreeRTOS\Source\list.c ****      *    http://www.FreeRTOS.org/Documentation                              *
  36:C:\Users\niels\Documents\Elektrotechniek\Jaar 2\ECS\ECSL\software\STM32\STM32Basis\HAL\gemeenschappelijk\Third_Party\FreeRTOS\Source\list.c ****      *                                                                       *
  37:C:\Users\niels\Documents\Elektrotechniek\Jaar 2\ECS\ECSL\software\STM32\STM32Basis\HAL\gemeenschappelijk\Third_Party\FreeRTOS\Source\list.c ****     ***************************************************************************
  38:C:\Users\niels\Documents\Elektrotechniek\Jaar 2\ECS\ECSL\software\STM32\STM32Basis\HAL\gemeenschappelijk\Third_Party\FreeRTOS\Source\list.c **** 
  39:C:\Users\niels\Documents\Elektrotechniek\Jaar 2\ECS\ECSL\software\STM32\STM32Basis\HAL\gemeenschappelijk\Third_Party\FreeRTOS\Source\list.c ****     http://www.FreeRTOS.org/FAQHelp.html - Having a problem?  Start by reading
  40:C:\Users\niels\Documents\Elektrotechniek\Jaar 2\ECS\ECSL\software\STM32\STM32Basis\HAL\gemeenschappelijk\Third_Party\FreeRTOS\Source\list.c ****     the FAQ page "My application does not run, what could be wrong?".  Have you
  41:C:\Users\niels\Documents\Elektrotechniek\Jaar 2\ECS\ECSL\software\STM32\STM32Basis\HAL\gemeenschappelijk\Third_Party\FreeRTOS\Source\list.c ****     defined configASSERT()?
  42:C:\Users\niels\Documents\Elektrotechniek\Jaar 2\ECS\ECSL\software\STM32\STM32Basis\HAL\gemeenschappelijk\Third_Party\FreeRTOS\Source\list.c **** 
  43:C:\Users\niels\Documents\Elektrotechniek\Jaar 2\ECS\ECSL\software\STM32\STM32Basis\HAL\gemeenschappelijk\Third_Party\FreeRTOS\Source\list.c ****     http://www.FreeRTOS.org/support - In return for receiving this top quality
  44:C:\Users\niels\Documents\Elektrotechniek\Jaar 2\ECS\ECSL\software\STM32\STM32Basis\HAL\gemeenschappelijk\Third_Party\FreeRTOS\Source\list.c ****     embedded software for free we request you assist our global community by
  45:C:\Users\niels\Documents\Elektrotechniek\Jaar 2\ECS\ECSL\software\STM32\STM32Basis\HAL\gemeenschappelijk\Third_Party\FreeRTOS\Source\list.c ****     participating in the support forum.
  46:C:\Users\niels\Documents\Elektrotechniek\Jaar 2\ECS\ECSL\software\STM32\STM32Basis\HAL\gemeenschappelijk\Third_Party\FreeRTOS\Source\list.c **** 
  47:C:\Users\niels\Documents\Elektrotechniek\Jaar 2\ECS\ECSL\software\STM32\STM32Basis\HAL\gemeenschappelijk\Third_Party\FreeRTOS\Source\list.c ****     http://www.FreeRTOS.org/training - Investing in training allows your team to
  48:C:\Users\niels\Documents\Elektrotechniek\Jaar 2\ECS\ECSL\software\STM32\STM32Basis\HAL\gemeenschappelijk\Third_Party\FreeRTOS\Source\list.c ****     be as productive as possible as early as possible.  Now you can receive
  49:C:\Users\niels\Documents\Elektrotechniek\Jaar 2\ECS\ECSL\software\STM32\STM32Basis\HAL\gemeenschappelijk\Third_Party\FreeRTOS\Source\list.c ****     FreeRTOS training directly from Richard Barry, CEO of Real Time Engineers
  50:C:\Users\niels\Documents\Elektrotechniek\Jaar 2\ECS\ECSL\software\STM32\STM32Basis\HAL\gemeenschappelijk\Third_Party\FreeRTOS\Source\list.c ****     Ltd, and the world's leading authority on the world's leading RTOS.
  51:C:\Users\niels\Documents\Elektrotechniek\Jaar 2\ECS\ECSL\software\STM32\STM32Basis\HAL\gemeenschappelijk\Third_Party\FreeRTOS\Source\list.c **** 
  52:C:\Users\niels\Documents\Elektrotechniek\Jaar 2\ECS\ECSL\software\STM32\STM32Basis\HAL\gemeenschappelijk\Third_Party\FreeRTOS\Source\list.c ****     http://www.FreeRTOS.org/plus - A selection of FreeRTOS ecosystem products,
  53:C:\Users\niels\Documents\Elektrotechniek\Jaar 2\ECS\ECSL\software\STM32\STM32Basis\HAL\gemeenschappelijk\Third_Party\FreeRTOS\Source\list.c ****     including FreeRTOS+Trace - an indispensable productivity tool, a DOS
  54:C:\Users\niels\Documents\Elektrotechniek\Jaar 2\ECS\ECSL\software\STM32\STM32Basis\HAL\gemeenschappelijk\Third_Party\FreeRTOS\Source\list.c ****     compatible FAT file system, and our tiny thread aware UDP/IP stack.
  55:C:\Users\niels\Documents\Elektrotechniek\Jaar 2\ECS\ECSL\software\STM32\STM32Basis\HAL\gemeenschappelijk\Third_Party\FreeRTOS\Source\list.c **** 
  56:C:\Users\niels\Documents\Elektrotechniek\Jaar 2\ECS\ECSL\software\STM32\STM32Basis\HAL\gemeenschappelijk\Third_Party\FreeRTOS\Source\list.c ****     http://www.FreeRTOS.org/labs - Where new FreeRTOS products go to incubate.
  57:C:\Users\niels\Documents\Elektrotechniek\Jaar 2\ECS\ECSL\software\STM32\STM32Basis\HAL\gemeenschappelijk\Third_Party\FreeRTOS\Source\list.c ****     Come and try FreeRTOS+TCP, our new open source TCP/IP stack for FreeRTOS.
  58:C:\Users\niels\Documents\Elektrotechniek\Jaar 2\ECS\ECSL\software\STM32\STM32Basis\HAL\gemeenschappelijk\Third_Party\FreeRTOS\Source\list.c **** 
  59:C:\Users\niels\Documents\Elektrotechniek\Jaar 2\ECS\ECSL\software\STM32\STM32Basis\HAL\gemeenschappelijk\Third_Party\FreeRTOS\Source\list.c ****     http://www.OpenRTOS.com - Real Time Engineers ltd. license FreeRTOS to High
  60:C:\Users\niels\Documents\Elektrotechniek\Jaar 2\ECS\ECSL\software\STM32\STM32Basis\HAL\gemeenschappelijk\Third_Party\FreeRTOS\Source\list.c ****     Integrity Systems ltd. to sell under the OpenRTOS brand.  Low cost OpenRTOS
  61:C:\Users\niels\Documents\Elektrotechniek\Jaar 2\ECS\ECSL\software\STM32\STM32Basis\HAL\gemeenschappelijk\Third_Party\FreeRTOS\Source\list.c ****     licenses offer ticketed support, indemnification and commercial middleware.
  62:C:\Users\niels\Documents\Elektrotechniek\Jaar 2\ECS\ECSL\software\STM32\STM32Basis\HAL\gemeenschappelijk\Third_Party\FreeRTOS\Source\list.c **** 
  63:C:\Users\niels\Documents\Elektrotechniek\Jaar 2\ECS\ECSL\software\STM32\STM32Basis\HAL\gemeenschappelijk\Third_Party\FreeRTOS\Source\list.c ****     http://www.SafeRTOS.com - High Integrity Systems also provide a safety
  64:C:\Users\niels\Documents\Elektrotechniek\Jaar 2\ECS\ECSL\software\STM32\STM32Basis\HAL\gemeenschappelijk\Third_Party\FreeRTOS\Source\list.c ****     engineered and independently SIL3 certified version for use in safety and
  65:C:\Users\niels\Documents\Elektrotechniek\Jaar 2\ECS\ECSL\software\STM32\STM32Basis\HAL\gemeenschappelijk\Third_Party\FreeRTOS\Source\list.c ****     mission critical applications that require provable dependability.
  66:C:\Users\niels\Documents\Elektrotechniek\Jaar 2\ECS\ECSL\software\STM32\STM32Basis\HAL\gemeenschappelijk\Third_Party\FreeRTOS\Source\list.c **** 
  67:C:\Users\niels\Documents\Elektrotechniek\Jaar 2\ECS\ECSL\software\STM32\STM32Basis\HAL\gemeenschappelijk\Third_Party\FreeRTOS\Source\list.c ****     1 tab == 4 spaces!
  68:C:\Users\niels\Documents\Elektrotechniek\Jaar 2\ECS\ECSL\software\STM32\STM32Basis\HAL\gemeenschappelijk\Third_Party\FreeRTOS\Source\list.c **** */
  69:C:\Users\niels\Documents\Elektrotechniek\Jaar 2\ECS\ECSL\software\STM32\STM32Basis\HAL\gemeenschappelijk\Third_Party\FreeRTOS\Source\list.c **** 
  70:C:\Users\niels\Documents\Elektrotechniek\Jaar 2\ECS\ECSL\software\STM32\STM32Basis\HAL\gemeenschappelijk\Third_Party\FreeRTOS\Source\list.c **** 
  71:C:\Users\niels\Documents\Elektrotechniek\Jaar 2\ECS\ECSL\software\STM32\STM32Basis\HAL\gemeenschappelijk\Third_Party\FreeRTOS\Source\list.c **** #include <stdlib.h>
  72:C:\Users\niels\Documents\Elektrotechniek\Jaar 2\ECS\ECSL\software\STM32\STM32Basis\HAL\gemeenschappelijk\Third_Party\FreeRTOS\Source\list.c **** #include "FreeRTOS.h"
  73:C:\Users\niels\Documents\Elektrotechniek\Jaar 2\ECS\ECSL\software\STM32\STM32Basis\HAL\gemeenschappelijk\Third_Party\FreeRTOS\Source\list.c **** #include "list.h"
  74:C:\Users\niels\Documents\Elektrotechniek\Jaar 2\ECS\ECSL\software\STM32\STM32Basis\HAL\gemeenschappelijk\Third_Party\FreeRTOS\Source\list.c **** 
  75:C:\Users\niels\Documents\Elektrotechniek\Jaar 2\ECS\ECSL\software\STM32\STM32Basis\HAL\gemeenschappelijk\Third_Party\FreeRTOS\Source\list.c **** /*-----------------------------------------------------------
  76:C:\Users\niels\Documents\Elektrotechniek\Jaar 2\ECS\ECSL\software\STM32\STM32Basis\HAL\gemeenschappelijk\Third_Party\FreeRTOS\Source\list.c ****  * PUBLIC LIST API documented in list.h
  77:C:\Users\niels\Documents\Elektrotechniek\Jaar 2\ECS\ECSL\software\STM32\STM32Basis\HAL\gemeenschappelijk\Third_Party\FreeRTOS\Source\list.c ****  *----------------------------------------------------------*/
  78:C:\Users\niels\Documents\Elektrotechniek\Jaar 2\ECS\ECSL\software\STM32\STM32Basis\HAL\gemeenschappelijk\Third_Party\FreeRTOS\Source\list.c **** 
  79:C:\Users\niels\Documents\Elektrotechniek\Jaar 2\ECS\ECSL\software\STM32\STM32Basis\HAL\gemeenschappelijk\Third_Party\FreeRTOS\Source\list.c **** void vListInitialise( List_t * const pxList )
  80:C:\Users\niels\Documents\Elektrotechniek\Jaar 2\ECS\ECSL\software\STM32\STM32Basis\HAL\gemeenschappelijk\Third_Party\FreeRTOS\Source\list.c **** {
  30              	 .loc 1 80 1
  31              	 .cfi_startproc
  32              	 
  33              	 
  34              	 
ARM GAS   			page 3


  35 0000 80B4     	 push {r7}
  36              	 .cfi_def_cfa_offset 4
  37              	 .cfi_offset 7,-4
  38 0002 83B0     	 sub sp,sp,#12
  39              	 .cfi_def_cfa_offset 16
  40 0004 00AF     	 add r7,sp,#0
  41              	 .cfi_def_cfa_register 7
  42 0006 7860     	 str r0,[r7,#4]
  81:C:\Users\niels\Documents\Elektrotechniek\Jaar 2\ECS\ECSL\software\STM32\STM32Basis\HAL\gemeenschappelijk\Third_Party\FreeRTOS\Source\list.c **** 	/* The list structure contains a list item which is used to mark the
  82:C:\Users\niels\Documents\Elektrotechniek\Jaar 2\ECS\ECSL\software\STM32\STM32Basis\HAL\gemeenschappelijk\Third_Party\FreeRTOS\Source\list.c **** 	end of the list.  To initialise the list the list end is inserted
  83:C:\Users\niels\Documents\Elektrotechniek\Jaar 2\ECS\ECSL\software\STM32\STM32Basis\HAL\gemeenschappelijk\Third_Party\FreeRTOS\Source\list.c **** 	as the only list entry. */
  84:C:\Users\niels\Documents\Elektrotechniek\Jaar 2\ECS\ECSL\software\STM32\STM32Basis\HAL\gemeenschappelijk\Third_Party\FreeRTOS\Source\list.c **** 	pxList->pxIndex = ( ListItem_t * ) &( pxList->xListEnd );			/*lint !e826 !e740 The mini list struc
  43              	 .loc 1 84 37
  44 0008 7B68     	 ldr r3,[r7,#4]
  45 000a 03F10802 	 add r2,r3,#8
  46              	 .loc 1 84 18
  47 000e 7B68     	 ldr r3,[r7,#4]
  48 0010 5A60     	 str r2,[r3,#4]
  85:C:\Users\niels\Documents\Elektrotechniek\Jaar 2\ECS\ECSL\software\STM32\STM32Basis\HAL\gemeenschappelijk\Third_Party\FreeRTOS\Source\list.c **** 
  86:C:\Users\niels\Documents\Elektrotechniek\Jaar 2\ECS\ECSL\software\STM32\STM32Basis\HAL\gemeenschappelijk\Third_Party\FreeRTOS\Source\list.c **** 	/* The list end value is the highest possible value in the list to
  87:C:\Users\niels\Documents\Elektrotechniek\Jaar 2\ECS\ECSL\software\STM32\STM32Basis\HAL\gemeenschappelijk\Third_Party\FreeRTOS\Source\list.c **** 	ensure it remains at the end of the list. */
  88:C:\Users\niels\Documents\Elektrotechniek\Jaar 2\ECS\ECSL\software\STM32\STM32Basis\HAL\gemeenschappelijk\Third_Party\FreeRTOS\Source\list.c **** 	pxList->xListEnd.xItemValue = portMAX_DELAY;
  49              	 .loc 1 88 30
  50 0012 7B68     	 ldr r3,[r7,#4]
  51 0014 4FF0FF32 	 mov r2,#-1
  52 0018 9A60     	 str r2,[r3,#8]
  89:C:\Users\niels\Documents\Elektrotechniek\Jaar 2\ECS\ECSL\software\STM32\STM32Basis\HAL\gemeenschappelijk\Third_Party\FreeRTOS\Source\list.c **** 
  90:C:\Users\niels\Documents\Elektrotechniek\Jaar 2\ECS\ECSL\software\STM32\STM32Basis\HAL\gemeenschappelijk\Third_Party\FreeRTOS\Source\list.c **** 	/* The list end next and previous pointers point to itself so we know
  91:C:\Users\niels\Documents\Elektrotechniek\Jaar 2\ECS\ECSL\software\STM32\STM32Basis\HAL\gemeenschappelijk\Third_Party\FreeRTOS\Source\list.c **** 	when the list is empty. */
  92:C:\Users\niels\Documents\Elektrotechniek\Jaar 2\ECS\ECSL\software\STM32\STM32Basis\HAL\gemeenschappelijk\Third_Party\FreeRTOS\Source\list.c **** 	pxList->xListEnd.pxNext = ( ListItem_t * ) &( pxList->xListEnd );	/*lint !e826 !e740 The mini list
  53              	 .loc 1 92 45
  54 001a 7B68     	 ldr r3,[r7,#4]
  55 001c 03F10802 	 add r2,r3,#8
  56              	 .loc 1 92 26
  57 0020 7B68     	 ldr r3,[r7,#4]
  58 0022 DA60     	 str r2,[r3,#12]
  93:C:\Users\niels\Documents\Elektrotechniek\Jaar 2\ECS\ECSL\software\STM32\STM32Basis\HAL\gemeenschappelijk\Third_Party\FreeRTOS\Source\list.c **** 	pxList->xListEnd.pxPrevious = ( ListItem_t * ) &( pxList->xListEnd );/*lint !e826 !e740 The mini l
  59              	 .loc 1 93 49
  60 0024 7B68     	 ldr r3,[r7,#4]
  61 0026 03F10802 	 add r2,r3,#8
  62              	 .loc 1 93 30
  63 002a 7B68     	 ldr r3,[r7,#4]
  64 002c 1A61     	 str r2,[r3,#16]
  94:C:\Users\niels\Documents\Elektrotechniek\Jaar 2\ECS\ECSL\software\STM32\STM32Basis\HAL\gemeenschappelijk\Third_Party\FreeRTOS\Source\list.c **** 
  95:C:\Users\niels\Documents\Elektrotechniek\Jaar 2\ECS\ECSL\software\STM32\STM32Basis\HAL\gemeenschappelijk\Third_Party\FreeRTOS\Source\list.c **** 	pxList->uxNumberOfItems = ( UBaseType_t ) 0U;
  65              	 .loc 1 95 26
  66 002e 7B68     	 ldr r3,[r7,#4]
  67 0030 0022     	 movs r2,#0
  68 0032 1A60     	 str r2,[r3]
  96:C:\Users\niels\Documents\Elektrotechniek\Jaar 2\ECS\ECSL\software\STM32\STM32Basis\HAL\gemeenschappelijk\Third_Party\FreeRTOS\Source\list.c **** 
  97:C:\Users\niels\Documents\Elektrotechniek\Jaar 2\ECS\ECSL\software\STM32\STM32Basis\HAL\gemeenschappelijk\Third_Party\FreeRTOS\Source\list.c **** 	/* Write known values into the list if
  98:C:\Users\niels\Documents\Elektrotechniek\Jaar 2\ECS\ECSL\software\STM32\STM32Basis\HAL\gemeenschappelijk\Third_Party\FreeRTOS\Source\list.c **** 	configUSE_LIST_DATA_INTEGRITY_CHECK_BYTES is set to 1. */
  99:C:\Users\niels\Documents\Elektrotechniek\Jaar 2\ECS\ECSL\software\STM32\STM32Basis\HAL\gemeenschappelijk\Third_Party\FreeRTOS\Source\list.c **** 	listSET_LIST_INTEGRITY_CHECK_1_VALUE( pxList );
 100:C:\Users\niels\Documents\Elektrotechniek\Jaar 2\ECS\ECSL\software\STM32\STM32Basis\HAL\gemeenschappelijk\Third_Party\FreeRTOS\Source\list.c **** 	listSET_LIST_INTEGRITY_CHECK_2_VALUE( pxList );
 101:C:\Users\niels\Documents\Elektrotechniek\Jaar 2\ECS\ECSL\software\STM32\STM32Basis\HAL\gemeenschappelijk\Third_Party\FreeRTOS\Source\list.c **** }
  69              	 .loc 1 101 1
  70 0034 00BF     	 nop
ARM GAS   			page 4


  71 0036 0C37     	 adds r7,r7,#12
  72              	 .cfi_def_cfa_offset 4
  73 0038 BD46     	 mov sp,r7
  74              	 .cfi_def_cfa_register 13
  75              	 
  76 003a 5DF8047B 	 ldr r7,[sp],#4
  77              	 .cfi_restore 7
  78              	 .cfi_def_cfa_offset 0
  79 003e 7047     	 bx lr
  80              	 .cfi_endproc
  81              	.LFE11:
  82              	 .cantunwind
  83              	 .fnend
  84              	 .size vListInitialise,.-vListInitialise
  85              	 .section .text.vListInitialiseItem,"ax",%progbits
  86              	 .align 1
  87              	 .global vListInitialiseItem
  88              	 .syntax unified
  89              	 .thumb
  90              	 .thumb_func
  91              	 .type vListInitialiseItem,%function
  92              	vListInitialiseItem:
  93              	 .fnstart
  94              	.LFB12:
 102:C:\Users\niels\Documents\Elektrotechniek\Jaar 2\ECS\ECSL\software\STM32\STM32Basis\HAL\gemeenschappelijk\Third_Party\FreeRTOS\Source\list.c **** /*-----------------------------------------------------------*/
 103:C:\Users\niels\Documents\Elektrotechniek\Jaar 2\ECS\ECSL\software\STM32\STM32Basis\HAL\gemeenschappelijk\Third_Party\FreeRTOS\Source\list.c **** 
 104:C:\Users\niels\Documents\Elektrotechniek\Jaar 2\ECS\ECSL\software\STM32\STM32Basis\HAL\gemeenschappelijk\Third_Party\FreeRTOS\Source\list.c **** void vListInitialiseItem( ListItem_t * const pxItem )
 105:C:\Users\niels\Documents\Elektrotechniek\Jaar 2\ECS\ECSL\software\STM32\STM32Basis\HAL\gemeenschappelijk\Third_Party\FreeRTOS\Source\list.c **** {
  95              	 .loc 1 105 1
  96              	 .cfi_startproc
  97              	 
  98              	 
  99              	 
 100 0000 80B4     	 push {r7}
 101              	 .cfi_def_cfa_offset 4
 102              	 .cfi_offset 7,-4
 103 0002 83B0     	 sub sp,sp,#12
 104              	 .cfi_def_cfa_offset 16
 105 0004 00AF     	 add r7,sp,#0
 106              	 .cfi_def_cfa_register 7
 107 0006 7860     	 str r0,[r7,#4]
 106:C:\Users\niels\Documents\Elektrotechniek\Jaar 2\ECS\ECSL\software\STM32\STM32Basis\HAL\gemeenschappelijk\Third_Party\FreeRTOS\Source\list.c **** 	/* Make sure the list item is not recorded as being on a list. */
 107:C:\Users\niels\Documents\Elektrotechniek\Jaar 2\ECS\ECSL\software\STM32\STM32Basis\HAL\gemeenschappelijk\Third_Party\FreeRTOS\Source\list.c **** 	pxItem->pvContainer = NULL;
 108              	 .loc 1 107 22
 109 0008 7B68     	 ldr r3,[r7,#4]
 110 000a 0022     	 movs r2,#0
 111 000c 1A61     	 str r2,[r3,#16]
 108:C:\Users\niels\Documents\Elektrotechniek\Jaar 2\ECS\ECSL\software\STM32\STM32Basis\HAL\gemeenschappelijk\Third_Party\FreeRTOS\Source\list.c **** 
 109:C:\Users\niels\Documents\Elektrotechniek\Jaar 2\ECS\ECSL\software\STM32\STM32Basis\HAL\gemeenschappelijk\Third_Party\FreeRTOS\Source\list.c **** 	/* Write known values into the list item if
 110:C:\Users\niels\Documents\Elektrotechniek\Jaar 2\ECS\ECSL\software\STM32\STM32Basis\HAL\gemeenschappelijk\Third_Party\FreeRTOS\Source\list.c **** 	configUSE_LIST_DATA_INTEGRITY_CHECK_BYTES is set to 1. */
 111:C:\Users\niels\Documents\Elektrotechniek\Jaar 2\ECS\ECSL\software\STM32\STM32Basis\HAL\gemeenschappelijk\Third_Party\FreeRTOS\Source\list.c **** 	listSET_FIRST_LIST_ITEM_INTEGRITY_CHECK_VALUE( pxItem );
 112:C:\Users\niels\Documents\Elektrotechniek\Jaar 2\ECS\ECSL\software\STM32\STM32Basis\HAL\gemeenschappelijk\Third_Party\FreeRTOS\Source\list.c **** 	listSET_SECOND_LIST_ITEM_INTEGRITY_CHECK_VALUE( pxItem );
 113:C:\Users\niels\Documents\Elektrotechniek\Jaar 2\ECS\ECSL\software\STM32\STM32Basis\HAL\gemeenschappelijk\Third_Party\FreeRTOS\Source\list.c **** }
 112              	 .loc 1 113 1
 113 000e 00BF     	 nop
 114 0010 0C37     	 adds r7,r7,#12
 115              	 .cfi_def_cfa_offset 4
ARM GAS   			page 5


 116 0012 BD46     	 mov sp,r7
 117              	 .cfi_def_cfa_register 13
 118              	 
 119 0014 5DF8047B 	 ldr r7,[sp],#4
 120              	 .cfi_restore 7
 121              	 .cfi_def_cfa_offset 0
 122 0018 7047     	 bx lr
 123              	 .cfi_endproc
 124              	.LFE12:
 125              	 .cantunwind
 126              	 .fnend
 127              	 .size vListInitialiseItem,.-vListInitialiseItem
 128              	 .section .text.vListInsertEnd,"ax",%progbits
 129              	 .align 1
 130              	 .global vListInsertEnd
 131              	 .syntax unified
 132              	 .thumb
 133              	 .thumb_func
 134              	 .type vListInsertEnd,%function
 135              	vListInsertEnd:
 136              	 .fnstart
 137              	.LFB13:
 114:C:\Users\niels\Documents\Elektrotechniek\Jaar 2\ECS\ECSL\software\STM32\STM32Basis\HAL\gemeenschappelijk\Third_Party\FreeRTOS\Source\list.c **** /*-----------------------------------------------------------*/
 115:C:\Users\niels\Documents\Elektrotechniek\Jaar 2\ECS\ECSL\software\STM32\STM32Basis\HAL\gemeenschappelijk\Third_Party\FreeRTOS\Source\list.c **** 
 116:C:\Users\niels\Documents\Elektrotechniek\Jaar 2\ECS\ECSL\software\STM32\STM32Basis\HAL\gemeenschappelijk\Third_Party\FreeRTOS\Source\list.c **** void vListInsertEnd( List_t * const pxList, ListItem_t * const pxNewListItem )
 117:C:\Users\niels\Documents\Elektrotechniek\Jaar 2\ECS\ECSL\software\STM32\STM32Basis\HAL\gemeenschappelijk\Third_Party\FreeRTOS\Source\list.c **** {
 138              	 .loc 1 117 1
 139              	 .cfi_startproc
 140              	 
 141              	 
 142              	 
 143 0000 80B4     	 push {r7}
 144              	 .cfi_def_cfa_offset 4
 145              	 .cfi_offset 7,-4
 146 0002 85B0     	 sub sp,sp,#20
 147              	 .cfi_def_cfa_offset 24
 148 0004 00AF     	 add r7,sp,#0
 149              	 .cfi_def_cfa_register 7
 150 0006 7860     	 str r0,[r7,#4]
 151 0008 3960     	 str r1,[r7]
 118:C:\Users\niels\Documents\Elektrotechniek\Jaar 2\ECS\ECSL\software\STM32\STM32Basis\HAL\gemeenschappelijk\Third_Party\FreeRTOS\Source\list.c **** ListItem_t * const pxIndex = pxList->pxIndex;
 152              	 .loc 1 118 20
 153 000a 7B68     	 ldr r3,[r7,#4]
 154 000c 5B68     	 ldr r3,[r3,#4]
 155 000e FB60     	 str r3,[r7,#12]
 119:C:\Users\niels\Documents\Elektrotechniek\Jaar 2\ECS\ECSL\software\STM32\STM32Basis\HAL\gemeenschappelijk\Third_Party\FreeRTOS\Source\list.c **** 
 120:C:\Users\niels\Documents\Elektrotechniek\Jaar 2\ECS\ECSL\software\STM32\STM32Basis\HAL\gemeenschappelijk\Third_Party\FreeRTOS\Source\list.c **** 	/* Only effective when configASSERT() is also defined, these tests may catch
 121:C:\Users\niels\Documents\Elektrotechniek\Jaar 2\ECS\ECSL\software\STM32\STM32Basis\HAL\gemeenschappelijk\Third_Party\FreeRTOS\Source\list.c **** 	the list data structures being overwritten in memory.  They will not catch
 122:C:\Users\niels\Documents\Elektrotechniek\Jaar 2\ECS\ECSL\software\STM32\STM32Basis\HAL\gemeenschappelijk\Third_Party\FreeRTOS\Source\list.c **** 	data errors caused by incorrect configuration or use of FreeRTOS. */
 123:C:\Users\niels\Documents\Elektrotechniek\Jaar 2\ECS\ECSL\software\STM32\STM32Basis\HAL\gemeenschappelijk\Third_Party\FreeRTOS\Source\list.c **** 	listTEST_LIST_INTEGRITY( pxList );
 124:C:\Users\niels\Documents\Elektrotechniek\Jaar 2\ECS\ECSL\software\STM32\STM32Basis\HAL\gemeenschappelijk\Third_Party\FreeRTOS\Source\list.c **** 	listTEST_LIST_ITEM_INTEGRITY( pxNewListItem );
 125:C:\Users\niels\Documents\Elektrotechniek\Jaar 2\ECS\ECSL\software\STM32\STM32Basis\HAL\gemeenschappelijk\Third_Party\FreeRTOS\Source\list.c **** 
 126:C:\Users\niels\Documents\Elektrotechniek\Jaar 2\ECS\ECSL\software\STM32\STM32Basis\HAL\gemeenschappelijk\Third_Party\FreeRTOS\Source\list.c **** 	/* Insert a new list item into pxList, but rather than sort the list,
 127:C:\Users\niels\Documents\Elektrotechniek\Jaar 2\ECS\ECSL\software\STM32\STM32Basis\HAL\gemeenschappelijk\Third_Party\FreeRTOS\Source\list.c **** 	makes the new list item the last item to be removed by a call to
 128:C:\Users\niels\Documents\Elektrotechniek\Jaar 2\ECS\ECSL\software\STM32\STM32Basis\HAL\gemeenschappelijk\Third_Party\FreeRTOS\Source\list.c **** 	listGET_OWNER_OF_NEXT_ENTRY(). */
 129:C:\Users\niels\Documents\Elektrotechniek\Jaar 2\ECS\ECSL\software\STM32\STM32Basis\HAL\gemeenschappelijk\Third_Party\FreeRTOS\Source\list.c **** 	pxNewListItem->pxNext = pxIndex;
 156              	 .loc 1 129 24
ARM GAS   			page 6


 157 0010 3B68     	 ldr r3,[r7]
 158 0012 FA68     	 ldr r2,[r7,#12]
 159 0014 5A60     	 str r2,[r3,#4]
 130:C:\Users\niels\Documents\Elektrotechniek\Jaar 2\ECS\ECSL\software\STM32\STM32Basis\HAL\gemeenschappelijk\Third_Party\FreeRTOS\Source\list.c **** 	pxNewListItem->pxPrevious = pxIndex->pxPrevious;
 160              	 .loc 1 130 39
 161 0016 FB68     	 ldr r3,[r7,#12]
 162 0018 9A68     	 ldr r2,[r3,#8]
 163              	 .loc 1 130 28
 164 001a 3B68     	 ldr r3,[r7]
 165 001c 9A60     	 str r2,[r3,#8]
 131:C:\Users\niels\Documents\Elektrotechniek\Jaar 2\ECS\ECSL\software\STM32\STM32Basis\HAL\gemeenschappelijk\Third_Party\FreeRTOS\Source\list.c **** 
 132:C:\Users\niels\Documents\Elektrotechniek\Jaar 2\ECS\ECSL\software\STM32\STM32Basis\HAL\gemeenschappelijk\Third_Party\FreeRTOS\Source\list.c **** 	/* Only used during decision coverage testing. */
 133:C:\Users\niels\Documents\Elektrotechniek\Jaar 2\ECS\ECSL\software\STM32\STM32Basis\HAL\gemeenschappelijk\Third_Party\FreeRTOS\Source\list.c **** 	mtCOVERAGE_TEST_DELAY();
 134:C:\Users\niels\Documents\Elektrotechniek\Jaar 2\ECS\ECSL\software\STM32\STM32Basis\HAL\gemeenschappelijk\Third_Party\FreeRTOS\Source\list.c **** 
 135:C:\Users\niels\Documents\Elektrotechniek\Jaar 2\ECS\ECSL\software\STM32\STM32Basis\HAL\gemeenschappelijk\Third_Party\FreeRTOS\Source\list.c **** 	pxIndex->pxPrevious->pxNext = pxNewListItem;
 166              	 .loc 1 135 11
 167 001e FB68     	 ldr r3,[r7,#12]
 168 0020 9B68     	 ldr r3,[r3,#8]
 169              	 .loc 1 135 30
 170 0022 3A68     	 ldr r2,[r7]
 171 0024 5A60     	 str r2,[r3,#4]
 136:C:\Users\niels\Documents\Elektrotechniek\Jaar 2\ECS\ECSL\software\STM32\STM32Basis\HAL\gemeenschappelijk\Third_Party\FreeRTOS\Source\list.c **** 	pxIndex->pxPrevious = pxNewListItem;
 172              	 .loc 1 136 22
 173 0026 FB68     	 ldr r3,[r7,#12]
 174 0028 3A68     	 ldr r2,[r7]
 175 002a 9A60     	 str r2,[r3,#8]
 137:C:\Users\niels\Documents\Elektrotechniek\Jaar 2\ECS\ECSL\software\STM32\STM32Basis\HAL\gemeenschappelijk\Third_Party\FreeRTOS\Source\list.c **** 
 138:C:\Users\niels\Documents\Elektrotechniek\Jaar 2\ECS\ECSL\software\STM32\STM32Basis\HAL\gemeenschappelijk\Third_Party\FreeRTOS\Source\list.c **** 	/* Remember which list the item is in. */
 139:C:\Users\niels\Documents\Elektrotechniek\Jaar 2\ECS\ECSL\software\STM32\STM32Basis\HAL\gemeenschappelijk\Third_Party\FreeRTOS\Source\list.c **** 	pxNewListItem->pvContainer = ( void * ) pxList;
 176              	 .loc 1 139 29
 177 002c 3B68     	 ldr r3,[r7]
 178 002e 7A68     	 ldr r2,[r7,#4]
 179 0030 1A61     	 str r2,[r3,#16]
 140:C:\Users\niels\Documents\Elektrotechniek\Jaar 2\ECS\ECSL\software\STM32\STM32Basis\HAL\gemeenschappelijk\Third_Party\FreeRTOS\Source\list.c **** 
 141:C:\Users\niels\Documents\Elektrotechniek\Jaar 2\ECS\ECSL\software\STM32\STM32Basis\HAL\gemeenschappelijk\Third_Party\FreeRTOS\Source\list.c **** 	( pxList->uxNumberOfItems )++;
 180              	 .loc 1 141 12
 181 0032 7B68     	 ldr r3,[r7,#4]
 182 0034 1B68     	 ldr r3,[r3]
 183              	 .loc 1 141 29
 184 0036 5A1C     	 adds r2,r3,#1
 185 0038 7B68     	 ldr r3,[r7,#4]
 186 003a 1A60     	 str r2,[r3]
 142:C:\Users\niels\Documents\Elektrotechniek\Jaar 2\ECS\ECSL\software\STM32\STM32Basis\HAL\gemeenschappelijk\Third_Party\FreeRTOS\Source\list.c **** }
 187              	 .loc 1 142 1
 188 003c 00BF     	 nop
 189 003e 1437     	 adds r7,r7,#20
 190              	 .cfi_def_cfa_offset 4
 191 0040 BD46     	 mov sp,r7
 192              	 .cfi_def_cfa_register 13
 193              	 
 194 0042 5DF8047B 	 ldr r7,[sp],#4
 195              	 .cfi_restore 7
 196              	 .cfi_def_cfa_offset 0
 197 0046 7047     	 bx lr
 198              	 .cfi_endproc
 199              	.LFE13:
 200              	 .cantunwind
ARM GAS   			page 7


 201              	 .fnend
 202              	 .size vListInsertEnd,.-vListInsertEnd
 203              	 .section .text.vListInsert,"ax",%progbits
 204              	 .align 1
 205              	 .global vListInsert
 206              	 .syntax unified
 207              	 .thumb
 208              	 .thumb_func
 209              	 .type vListInsert,%function
 210              	vListInsert:
 211              	 .fnstart
 212              	.LFB14:
 143:C:\Users\niels\Documents\Elektrotechniek\Jaar 2\ECS\ECSL\software\STM32\STM32Basis\HAL\gemeenschappelijk\Third_Party\FreeRTOS\Source\list.c **** /*-----------------------------------------------------------*/
 144:C:\Users\niels\Documents\Elektrotechniek\Jaar 2\ECS\ECSL\software\STM32\STM32Basis\HAL\gemeenschappelijk\Third_Party\FreeRTOS\Source\list.c **** 
 145:C:\Users\niels\Documents\Elektrotechniek\Jaar 2\ECS\ECSL\software\STM32\STM32Basis\HAL\gemeenschappelijk\Third_Party\FreeRTOS\Source\list.c **** void vListInsert( List_t * const pxList, ListItem_t * const pxNewListItem )
 146:C:\Users\niels\Documents\Elektrotechniek\Jaar 2\ECS\ECSL\software\STM32\STM32Basis\HAL\gemeenschappelijk\Third_Party\FreeRTOS\Source\list.c **** {
 213              	 .loc 1 146 1
 214              	 .cfi_startproc
 215              	 
 216              	 
 217              	 
 218 0000 80B4     	 push {r7}
 219              	 .cfi_def_cfa_offset 4
 220              	 .cfi_offset 7,-4
 221 0002 85B0     	 sub sp,sp,#20
 222              	 .cfi_def_cfa_offset 24
 223 0004 00AF     	 add r7,sp,#0
 224              	 .cfi_def_cfa_register 7
 225 0006 7860     	 str r0,[r7,#4]
 226 0008 3960     	 str r1,[r7]
 147:C:\Users\niels\Documents\Elektrotechniek\Jaar 2\ECS\ECSL\software\STM32\STM32Basis\HAL\gemeenschappelijk\Third_Party\FreeRTOS\Source\list.c **** ListItem_t *pxIterator;
 148:C:\Users\niels\Documents\Elektrotechniek\Jaar 2\ECS\ECSL\software\STM32\STM32Basis\HAL\gemeenschappelijk\Third_Party\FreeRTOS\Source\list.c **** const TickType_t xValueOfInsertion = pxNewListItem->xItemValue;
 227              	 .loc 1 148 18
 228 000a 3B68     	 ldr r3,[r7]
 229 000c 1B68     	 ldr r3,[r3]
 230 000e BB60     	 str r3,[r7,#8]
 149:C:\Users\niels\Documents\Elektrotechniek\Jaar 2\ECS\ECSL\software\STM32\STM32Basis\HAL\gemeenschappelijk\Third_Party\FreeRTOS\Source\list.c **** 
 150:C:\Users\niels\Documents\Elektrotechniek\Jaar 2\ECS\ECSL\software\STM32\STM32Basis\HAL\gemeenschappelijk\Third_Party\FreeRTOS\Source\list.c **** 	/* Only effective when configASSERT() is also defined, these tests may catch
 151:C:\Users\niels\Documents\Elektrotechniek\Jaar 2\ECS\ECSL\software\STM32\STM32Basis\HAL\gemeenschappelijk\Third_Party\FreeRTOS\Source\list.c **** 	the list data structures being overwritten in memory.  They will not catch
 152:C:\Users\niels\Documents\Elektrotechniek\Jaar 2\ECS\ECSL\software\STM32\STM32Basis\HAL\gemeenschappelijk\Third_Party\FreeRTOS\Source\list.c **** 	data errors caused by incorrect configuration or use of FreeRTOS. */
 153:C:\Users\niels\Documents\Elektrotechniek\Jaar 2\ECS\ECSL\software\STM32\STM32Basis\HAL\gemeenschappelijk\Third_Party\FreeRTOS\Source\list.c **** 	listTEST_LIST_INTEGRITY( pxList );
 154:C:\Users\niels\Documents\Elektrotechniek\Jaar 2\ECS\ECSL\software\STM32\STM32Basis\HAL\gemeenschappelijk\Third_Party\FreeRTOS\Source\list.c **** 	listTEST_LIST_ITEM_INTEGRITY( pxNewListItem );
 155:C:\Users\niels\Documents\Elektrotechniek\Jaar 2\ECS\ECSL\software\STM32\STM32Basis\HAL\gemeenschappelijk\Third_Party\FreeRTOS\Source\list.c **** 
 156:C:\Users\niels\Documents\Elektrotechniek\Jaar 2\ECS\ECSL\software\STM32\STM32Basis\HAL\gemeenschappelijk\Third_Party\FreeRTOS\Source\list.c **** 	/* Insert the new list item into the list, sorted in xItemValue order.
 157:C:\Users\niels\Documents\Elektrotechniek\Jaar 2\ECS\ECSL\software\STM32\STM32Basis\HAL\gemeenschappelijk\Third_Party\FreeRTOS\Source\list.c **** 
 158:C:\Users\niels\Documents\Elektrotechniek\Jaar 2\ECS\ECSL\software\STM32\STM32Basis\HAL\gemeenschappelijk\Third_Party\FreeRTOS\Source\list.c **** 	If the list already contains a list item with the same item value then the
 159:C:\Users\niels\Documents\Elektrotechniek\Jaar 2\ECS\ECSL\software\STM32\STM32Basis\HAL\gemeenschappelijk\Third_Party\FreeRTOS\Source\list.c **** 	new list item should be placed after it.  This ensures that TCB's which are
 160:C:\Users\niels\Documents\Elektrotechniek\Jaar 2\ECS\ECSL\software\STM32\STM32Basis\HAL\gemeenschappelijk\Third_Party\FreeRTOS\Source\list.c **** 	stored in ready lists (all of which have the same xItemValue value) get a
 161:C:\Users\niels\Documents\Elektrotechniek\Jaar 2\ECS\ECSL\software\STM32\STM32Basis\HAL\gemeenschappelijk\Third_Party\FreeRTOS\Source\list.c **** 	share of the CPU.  However, if the xItemValue is the same as the back marker
 162:C:\Users\niels\Documents\Elektrotechniek\Jaar 2\ECS\ECSL\software\STM32\STM32Basis\HAL\gemeenschappelijk\Third_Party\FreeRTOS\Source\list.c **** 	the iteration loop below will not end.  Therefore the value is checked
 163:C:\Users\niels\Documents\Elektrotechniek\Jaar 2\ECS\ECSL\software\STM32\STM32Basis\HAL\gemeenschappelijk\Third_Party\FreeRTOS\Source\list.c **** 	first, and the algorithm slightly modified if necessary. */
 164:C:\Users\niels\Documents\Elektrotechniek\Jaar 2\ECS\ECSL\software\STM32\STM32Basis\HAL\gemeenschappelijk\Third_Party\FreeRTOS\Source\list.c **** 	if( xValueOfInsertion == portMAX_DELAY )
 231              	 .loc 1 164 2
 232 0010 BB68     	 ldr r3,[r7,#8]
 233 0012 B3F1FF3F 	 cmp r3,#-1
 234 0016 03D1     	 bne .L5
 165:C:\Users\niels\Documents\Elektrotechniek\Jaar 2\ECS\ECSL\software\STM32\STM32Basis\HAL\gemeenschappelijk\Third_Party\FreeRTOS\Source\list.c **** 	{
ARM GAS   			page 8


 166:C:\Users\niels\Documents\Elektrotechniek\Jaar 2\ECS\ECSL\software\STM32\STM32Basis\HAL\gemeenschappelijk\Third_Party\FreeRTOS\Source\list.c **** 		pxIterator = pxList->xListEnd.pxPrevious;
 235              	 .loc 1 166 14
 236 0018 7B68     	 ldr r3,[r7,#4]
 237 001a 1B69     	 ldr r3,[r3,#16]
 238 001c FB60     	 str r3,[r7,#12]
 239 001e 0CE0     	 b .L6
 240              	.L5:
 167:C:\Users\niels\Documents\Elektrotechniek\Jaar 2\ECS\ECSL\software\STM32\STM32Basis\HAL\gemeenschappelijk\Third_Party\FreeRTOS\Source\list.c **** 	}
 168:C:\Users\niels\Documents\Elektrotechniek\Jaar 2\ECS\ECSL\software\STM32\STM32Basis\HAL\gemeenschappelijk\Third_Party\FreeRTOS\Source\list.c **** 	else
 169:C:\Users\niels\Documents\Elektrotechniek\Jaar 2\ECS\ECSL\software\STM32\STM32Basis\HAL\gemeenschappelijk\Third_Party\FreeRTOS\Source\list.c **** 	{
 170:C:\Users\niels\Documents\Elektrotechniek\Jaar 2\ECS\ECSL\software\STM32\STM32Basis\HAL\gemeenschappelijk\Third_Party\FreeRTOS\Source\list.c **** 		/* *** NOTE ***********************************************************
 171:C:\Users\niels\Documents\Elektrotechniek\Jaar 2\ECS\ECSL\software\STM32\STM32Basis\HAL\gemeenschappelijk\Third_Party\FreeRTOS\Source\list.c **** 		If you find your application is crashing here then likely causes are
 172:C:\Users\niels\Documents\Elektrotechniek\Jaar 2\ECS\ECSL\software\STM32\STM32Basis\HAL\gemeenschappelijk\Third_Party\FreeRTOS\Source\list.c **** 		listed below.  In addition see http://www.freertos.org/FAQHelp.html for
 173:C:\Users\niels\Documents\Elektrotechniek\Jaar 2\ECS\ECSL\software\STM32\STM32Basis\HAL\gemeenschappelijk\Third_Party\FreeRTOS\Source\list.c **** 		more tips, and ensure configASSERT() is defined!
 174:C:\Users\niels\Documents\Elektrotechniek\Jaar 2\ECS\ECSL\software\STM32\STM32Basis\HAL\gemeenschappelijk\Third_Party\FreeRTOS\Source\list.c **** 		http://www.freertos.org/a00110.html#configASSERT
 175:C:\Users\niels\Documents\Elektrotechniek\Jaar 2\ECS\ECSL\software\STM32\STM32Basis\HAL\gemeenschappelijk\Third_Party\FreeRTOS\Source\list.c **** 
 176:C:\Users\niels\Documents\Elektrotechniek\Jaar 2\ECS\ECSL\software\STM32\STM32Basis\HAL\gemeenschappelijk\Third_Party\FreeRTOS\Source\list.c **** 			1) Stack overflow -
 177:C:\Users\niels\Documents\Elektrotechniek\Jaar 2\ECS\ECSL\software\STM32\STM32Basis\HAL\gemeenschappelijk\Third_Party\FreeRTOS\Source\list.c **** 			   see http://www.freertos.org/Stacks-and-stack-overflow-checking.html
 178:C:\Users\niels\Documents\Elektrotechniek\Jaar 2\ECS\ECSL\software\STM32\STM32Basis\HAL\gemeenschappelijk\Third_Party\FreeRTOS\Source\list.c **** 			2) Incorrect interrupt priority assignment, especially on Cortex-M
 179:C:\Users\niels\Documents\Elektrotechniek\Jaar 2\ECS\ECSL\software\STM32\STM32Basis\HAL\gemeenschappelijk\Third_Party\FreeRTOS\Source\list.c **** 			   parts where numerically high priority values denote low actual
 180:C:\Users\niels\Documents\Elektrotechniek\Jaar 2\ECS\ECSL\software\STM32\STM32Basis\HAL\gemeenschappelijk\Third_Party\FreeRTOS\Source\list.c **** 			   interrupt priorities, which can seem counter intuitive.  See
 181:C:\Users\niels\Documents\Elektrotechniek\Jaar 2\ECS\ECSL\software\STM32\STM32Basis\HAL\gemeenschappelijk\Third_Party\FreeRTOS\Source\list.c **** 			   http://www.freertos.org/RTOS-Cortex-M3-M4.html and the definition
 182:C:\Users\niels\Documents\Elektrotechniek\Jaar 2\ECS\ECSL\software\STM32\STM32Basis\HAL\gemeenschappelijk\Third_Party\FreeRTOS\Source\list.c **** 			   of configMAX_SYSCALL_INTERRUPT_PRIORITY on
 183:C:\Users\niels\Documents\Elektrotechniek\Jaar 2\ECS\ECSL\software\STM32\STM32Basis\HAL\gemeenschappelijk\Third_Party\FreeRTOS\Source\list.c **** 			   http://www.freertos.org/a00110.html
 184:C:\Users\niels\Documents\Elektrotechniek\Jaar 2\ECS\ECSL\software\STM32\STM32Basis\HAL\gemeenschappelijk\Third_Party\FreeRTOS\Source\list.c **** 			3) Calling an API function from within a critical section or when
 185:C:\Users\niels\Documents\Elektrotechniek\Jaar 2\ECS\ECSL\software\STM32\STM32Basis\HAL\gemeenschappelijk\Third_Party\FreeRTOS\Source\list.c **** 			   the scheduler is suspended, or calling an API function that does
 186:C:\Users\niels\Documents\Elektrotechniek\Jaar 2\ECS\ECSL\software\STM32\STM32Basis\HAL\gemeenschappelijk\Third_Party\FreeRTOS\Source\list.c **** 			   not end in "FromISR" from an interrupt.
 187:C:\Users\niels\Documents\Elektrotechniek\Jaar 2\ECS\ECSL\software\STM32\STM32Basis\HAL\gemeenschappelijk\Third_Party\FreeRTOS\Source\list.c **** 			4) Using a queue or semaphore before it has been initialised or
 188:C:\Users\niels\Documents\Elektrotechniek\Jaar 2\ECS\ECSL\software\STM32\STM32Basis\HAL\gemeenschappelijk\Third_Party\FreeRTOS\Source\list.c **** 			   before the scheduler has been started (are interrupts firing
 189:C:\Users\niels\Documents\Elektrotechniek\Jaar 2\ECS\ECSL\software\STM32\STM32Basis\HAL\gemeenschappelijk\Third_Party\FreeRTOS\Source\list.c **** 			   before vTaskStartScheduler() has been called?).
 190:C:\Users\niels\Documents\Elektrotechniek\Jaar 2\ECS\ECSL\software\STM32\STM32Basis\HAL\gemeenschappelijk\Third_Party\FreeRTOS\Source\list.c **** 		**********************************************************************/
 191:C:\Users\niels\Documents\Elektrotechniek\Jaar 2\ECS\ECSL\software\STM32\STM32Basis\HAL\gemeenschappelijk\Third_Party\FreeRTOS\Source\list.c **** 
 192:C:\Users\niels\Documents\Elektrotechniek\Jaar 2\ECS\ECSL\software\STM32\STM32Basis\HAL\gemeenschappelijk\Third_Party\FreeRTOS\Source\list.c **** 		for( pxIterator = ( ListItem_t * ) &( pxList->xListEnd ); pxIterator->pxNext->xItemValue <= xValu
 241              	 .loc 1 192 19
 242 0020 7B68     	 ldr r3,[r7,#4]
 243 0022 0833     	 adds r3,r3,#8
 244 0024 FB60     	 str r3,[r7,#12]
 245              	.L7:
 246              	 .loc 1 192 73 discriminator 3
 247 0026 FB68     	 ldr r3,[r7,#12]
 248 0028 5B68     	 ldr r3,[r3,#4]
 249              	 .loc 1 192 81 discriminator 3
 250 002a 1B68     	 ldr r3,[r3]
 251              	 .loc 1 192 92 discriminator 3
 252 002c BA68     	 ldr r2,[r7,#8]
 253 002e 9A42     	 cmp r2,r3
 254 0030 03D3     	 bcc .L6
 255              	 .loc 1 192 125 discriminator 2
 256 0032 FB68     	 ldr r3,[r7,#12]
 257 0034 5B68     	 ldr r3,[r3,#4]
 258 0036 FB60     	 str r3,[r7,#12]
 259              	 .loc 1 192 3 discriminator 2
 260 0038 F5E7     	 b .L7
 261              	.L6:
 193:C:\Users\niels\Documents\Elektrotechniek\Jaar 2\ECS\ECSL\software\STM32\STM32Basis\HAL\gemeenschappelijk\Third_Party\FreeRTOS\Source\list.c **** 		{
 194:C:\Users\niels\Documents\Elektrotechniek\Jaar 2\ECS\ECSL\software\STM32\STM32Basis\HAL\gemeenschappelijk\Third_Party\FreeRTOS\Source\list.c **** 			/* There is nothing to do here, just iterating to the wanted
 195:C:\Users\niels\Documents\Elektrotechniek\Jaar 2\ECS\ECSL\software\STM32\STM32Basis\HAL\gemeenschappelijk\Third_Party\FreeRTOS\Source\list.c **** 			insertion position. */
ARM GAS   			page 9


 196:C:\Users\niels\Documents\Elektrotechniek\Jaar 2\ECS\ECSL\software\STM32\STM32Basis\HAL\gemeenschappelijk\Third_Party\FreeRTOS\Source\list.c **** 		}
 197:C:\Users\niels\Documents\Elektrotechniek\Jaar 2\ECS\ECSL\software\STM32\STM32Basis\HAL\gemeenschappelijk\Third_Party\FreeRTOS\Source\list.c **** 	}
 198:C:\Users\niels\Documents\Elektrotechniek\Jaar 2\ECS\ECSL\software\STM32\STM32Basis\HAL\gemeenschappelijk\Third_Party\FreeRTOS\Source\list.c **** 
 199:C:\Users\niels\Documents\Elektrotechniek\Jaar 2\ECS\ECSL\software\STM32\STM32Basis\HAL\gemeenschappelijk\Third_Party\FreeRTOS\Source\list.c **** 	pxNewListItem->pxNext = pxIterator->pxNext;
 262              	 .loc 1 199 38
 263 003a FB68     	 ldr r3,[r7,#12]
 264 003c 5A68     	 ldr r2,[r3,#4]
 265              	 .loc 1 199 24
 266 003e 3B68     	 ldr r3,[r7]
 267 0040 5A60     	 str r2,[r3,#4]
 200:C:\Users\niels\Documents\Elektrotechniek\Jaar 2\ECS\ECSL\software\STM32\STM32Basis\HAL\gemeenschappelijk\Third_Party\FreeRTOS\Source\list.c **** 	pxNewListItem->pxNext->pxPrevious = pxNewListItem;
 268              	 .loc 1 200 17
 269 0042 3B68     	 ldr r3,[r7]
 270 0044 5B68     	 ldr r3,[r3,#4]
 271              	 .loc 1 200 36
 272 0046 3A68     	 ldr r2,[r7]
 273 0048 9A60     	 str r2,[r3,#8]
 201:C:\Users\niels\Documents\Elektrotechniek\Jaar 2\ECS\ECSL\software\STM32\STM32Basis\HAL\gemeenschappelijk\Third_Party\FreeRTOS\Source\list.c **** 	pxNewListItem->pxPrevious = pxIterator;
 274              	 .loc 1 201 28
 275 004a 3B68     	 ldr r3,[r7]
 276 004c FA68     	 ldr r2,[r7,#12]
 277 004e 9A60     	 str r2,[r3,#8]
 202:C:\Users\niels\Documents\Elektrotechniek\Jaar 2\ECS\ECSL\software\STM32\STM32Basis\HAL\gemeenschappelijk\Third_Party\FreeRTOS\Source\list.c **** 	pxIterator->pxNext = pxNewListItem;
 278              	 .loc 1 202 21
 279 0050 FB68     	 ldr r3,[r7,#12]
 280 0052 3A68     	 ldr r2,[r7]
 281 0054 5A60     	 str r2,[r3,#4]
 203:C:\Users\niels\Documents\Elektrotechniek\Jaar 2\ECS\ECSL\software\STM32\STM32Basis\HAL\gemeenschappelijk\Third_Party\FreeRTOS\Source\list.c **** 
 204:C:\Users\niels\Documents\Elektrotechniek\Jaar 2\ECS\ECSL\software\STM32\STM32Basis\HAL\gemeenschappelijk\Third_Party\FreeRTOS\Source\list.c **** 	/* Remember which list the item is in.  This allows fast removal of the
 205:C:\Users\niels\Documents\Elektrotechniek\Jaar 2\ECS\ECSL\software\STM32\STM32Basis\HAL\gemeenschappelijk\Third_Party\FreeRTOS\Source\list.c **** 	item later. */
 206:C:\Users\niels\Documents\Elektrotechniek\Jaar 2\ECS\ECSL\software\STM32\STM32Basis\HAL\gemeenschappelijk\Third_Party\FreeRTOS\Source\list.c **** 	pxNewListItem->pvContainer = ( void * ) pxList;
 282              	 .loc 1 206 29
 283 0056 3B68     	 ldr r3,[r7]
 284 0058 7A68     	 ldr r2,[r7,#4]
 285 005a 1A61     	 str r2,[r3,#16]
 207:C:\Users\niels\Documents\Elektrotechniek\Jaar 2\ECS\ECSL\software\STM32\STM32Basis\HAL\gemeenschappelijk\Third_Party\FreeRTOS\Source\list.c **** 
 208:C:\Users\niels\Documents\Elektrotechniek\Jaar 2\ECS\ECSL\software\STM32\STM32Basis\HAL\gemeenschappelijk\Third_Party\FreeRTOS\Source\list.c **** 	( pxList->uxNumberOfItems )++;
 286              	 .loc 1 208 12
 287 005c 7B68     	 ldr r3,[r7,#4]
 288 005e 1B68     	 ldr r3,[r3]
 289              	 .loc 1 208 29
 290 0060 5A1C     	 adds r2,r3,#1
 291 0062 7B68     	 ldr r3,[r7,#4]
 292 0064 1A60     	 str r2,[r3]
 209:C:\Users\niels\Documents\Elektrotechniek\Jaar 2\ECS\ECSL\software\STM32\STM32Basis\HAL\gemeenschappelijk\Third_Party\FreeRTOS\Source\list.c **** }
 293              	 .loc 1 209 1
 294 0066 00BF     	 nop
 295 0068 1437     	 adds r7,r7,#20
 296              	 .cfi_def_cfa_offset 4
 297 006a BD46     	 mov sp,r7
 298              	 .cfi_def_cfa_register 13
 299              	 
 300 006c 5DF8047B 	 ldr r7,[sp],#4
 301              	 .cfi_restore 7
 302              	 .cfi_def_cfa_offset 0
 303 0070 7047     	 bx lr
 304              	 .cfi_endproc
ARM GAS   			page 10


 305              	.LFE14:
 306              	 .cantunwind
 307              	 .fnend
 308              	 .size vListInsert,.-vListInsert
 309              	 .section .text.uxListRemove,"ax",%progbits
 310              	 .align 1
 311              	 .global uxListRemove
 312              	 .syntax unified
 313              	 .thumb
 314              	 .thumb_func
 315              	 .type uxListRemove,%function
 316              	uxListRemove:
 317              	 .fnstart
 318              	.LFB15:
 210:C:\Users\niels\Documents\Elektrotechniek\Jaar 2\ECS\ECSL\software\STM32\STM32Basis\HAL\gemeenschappelijk\Third_Party\FreeRTOS\Source\list.c **** /*-----------------------------------------------------------*/
 211:C:\Users\niels\Documents\Elektrotechniek\Jaar 2\ECS\ECSL\software\STM32\STM32Basis\HAL\gemeenschappelijk\Third_Party\FreeRTOS\Source\list.c **** 
 212:C:\Users\niels\Documents\Elektrotechniek\Jaar 2\ECS\ECSL\software\STM32\STM32Basis\HAL\gemeenschappelijk\Third_Party\FreeRTOS\Source\list.c **** UBaseType_t uxListRemove( ListItem_t * const pxItemToRemove )
 213:C:\Users\niels\Documents\Elektrotechniek\Jaar 2\ECS\ECSL\software\STM32\STM32Basis\HAL\gemeenschappelijk\Third_Party\FreeRTOS\Source\list.c **** {
 319              	 .loc 1 213 1
 320              	 .cfi_startproc
 321              	 
 322              	 
 323              	 
 324 0000 80B4     	 push {r7}
 325              	 .cfi_def_cfa_offset 4
 326              	 .cfi_offset 7,-4
 327 0002 85B0     	 sub sp,sp,#20
 328              	 .cfi_def_cfa_offset 24
 329 0004 00AF     	 add r7,sp,#0
 330              	 .cfi_def_cfa_register 7
 331 0006 7860     	 str r0,[r7,#4]
 214:C:\Users\niels\Documents\Elektrotechniek\Jaar 2\ECS\ECSL\software\STM32\STM32Basis\HAL\gemeenschappelijk\Third_Party\FreeRTOS\Source\list.c **** /* The list item knows which list it is in.  Obtain the list from the list
 215:C:\Users\niels\Documents\Elektrotechniek\Jaar 2\ECS\ECSL\software\STM32\STM32Basis\HAL\gemeenschappelijk\Third_Party\FreeRTOS\Source\list.c **** item. */
 216:C:\Users\niels\Documents\Elektrotechniek\Jaar 2\ECS\ECSL\software\STM32\STM32Basis\HAL\gemeenschappelijk\Third_Party\FreeRTOS\Source\list.c **** List_t * const pxList = ( List_t * ) pxItemToRemove->pvContainer;
 332              	 .loc 1 216 16
 333 0008 7B68     	 ldr r3,[r7,#4]
 334 000a 1B69     	 ldr r3,[r3,#16]
 335 000c FB60     	 str r3,[r7,#12]
 217:C:\Users\niels\Documents\Elektrotechniek\Jaar 2\ECS\ECSL\software\STM32\STM32Basis\HAL\gemeenschappelijk\Third_Party\FreeRTOS\Source\list.c **** 
 218:C:\Users\niels\Documents\Elektrotechniek\Jaar 2\ECS\ECSL\software\STM32\STM32Basis\HAL\gemeenschappelijk\Third_Party\FreeRTOS\Source\list.c **** 	pxItemToRemove->pxNext->pxPrevious = pxItemToRemove->pxPrevious;
 336              	 .loc 1 218 18
 337 000e 7B68     	 ldr r3,[r7,#4]
 338 0010 5B68     	 ldr r3,[r3,#4]
 339              	 .loc 1 218 55
 340 0012 7A68     	 ldr r2,[r7,#4]
 341 0014 9268     	 ldr r2,[r2,#8]
 342              	 .loc 1 218 37
 343 0016 9A60     	 str r2,[r3,#8]
 219:C:\Users\niels\Documents\Elektrotechniek\Jaar 2\ECS\ECSL\software\STM32\STM32Basis\HAL\gemeenschappelijk\Third_Party\FreeRTOS\Source\list.c **** 	pxItemToRemove->pxPrevious->pxNext = pxItemToRemove->pxNext;
 344              	 .loc 1 219 18
 345 0018 7B68     	 ldr r3,[r7,#4]
 346 001a 9B68     	 ldr r3,[r3,#8]
 347              	 .loc 1 219 55
 348 001c 7A68     	 ldr r2,[r7,#4]
 349 001e 5268     	 ldr r2,[r2,#4]
 350              	 .loc 1 219 37
 351 0020 5A60     	 str r2,[r3,#4]
ARM GAS   			page 11


 220:C:\Users\niels\Documents\Elektrotechniek\Jaar 2\ECS\ECSL\software\STM32\STM32Basis\HAL\gemeenschappelijk\Third_Party\FreeRTOS\Source\list.c **** 
 221:C:\Users\niels\Documents\Elektrotechniek\Jaar 2\ECS\ECSL\software\STM32\STM32Basis\HAL\gemeenschappelijk\Third_Party\FreeRTOS\Source\list.c **** 	/* Only used during decision coverage testing. */
 222:C:\Users\niels\Documents\Elektrotechniek\Jaar 2\ECS\ECSL\software\STM32\STM32Basis\HAL\gemeenschappelijk\Third_Party\FreeRTOS\Source\list.c **** 	mtCOVERAGE_TEST_DELAY();
 223:C:\Users\niels\Documents\Elektrotechniek\Jaar 2\ECS\ECSL\software\STM32\STM32Basis\HAL\gemeenschappelijk\Third_Party\FreeRTOS\Source\list.c **** 
 224:C:\Users\niels\Documents\Elektrotechniek\Jaar 2\ECS\ECSL\software\STM32\STM32Basis\HAL\gemeenschappelijk\Third_Party\FreeRTOS\Source\list.c **** 	/* Make sure the index is left pointing to a valid item. */
 225:C:\Users\niels\Documents\Elektrotechniek\Jaar 2\ECS\ECSL\software\STM32\STM32Basis\HAL\gemeenschappelijk\Third_Party\FreeRTOS\Source\list.c **** 	if( pxList->pxIndex == pxItemToRemove )
 352              	 .loc 1 225 14
 353 0022 FB68     	 ldr r3,[r7,#12]
 354 0024 5B68     	 ldr r3,[r3,#4]
 355              	 .loc 1 225 2
 356 0026 7A68     	 ldr r2,[r7,#4]
 357 0028 9A42     	 cmp r2,r3
 358 002a 03D1     	 bne .L9
 226:C:\Users\niels\Documents\Elektrotechniek\Jaar 2\ECS\ECSL\software\STM32\STM32Basis\HAL\gemeenschappelijk\Third_Party\FreeRTOS\Source\list.c **** 	{
 227:C:\Users\niels\Documents\Elektrotechniek\Jaar 2\ECS\ECSL\software\STM32\STM32Basis\HAL\gemeenschappelijk\Third_Party\FreeRTOS\Source\list.c **** 		pxList->pxIndex = pxItemToRemove->pxPrevious;
 359              	 .loc 1 227 37
 360 002c 7B68     	 ldr r3,[r7,#4]
 361 002e 9A68     	 ldr r2,[r3,#8]
 362              	 .loc 1 227 19
 363 0030 FB68     	 ldr r3,[r7,#12]
 364 0032 5A60     	 str r2,[r3,#4]
 365              	.L9:
 228:C:\Users\niels\Documents\Elektrotechniek\Jaar 2\ECS\ECSL\software\STM32\STM32Basis\HAL\gemeenschappelijk\Third_Party\FreeRTOS\Source\list.c **** 	}
 229:C:\Users\niels\Documents\Elektrotechniek\Jaar 2\ECS\ECSL\software\STM32\STM32Basis\HAL\gemeenschappelijk\Third_Party\FreeRTOS\Source\list.c **** 	else
 230:C:\Users\niels\Documents\Elektrotechniek\Jaar 2\ECS\ECSL\software\STM32\STM32Basis\HAL\gemeenschappelijk\Third_Party\FreeRTOS\Source\list.c **** 	{
 231:C:\Users\niels\Documents\Elektrotechniek\Jaar 2\ECS\ECSL\software\STM32\STM32Basis\HAL\gemeenschappelijk\Third_Party\FreeRTOS\Source\list.c **** 		mtCOVERAGE_TEST_MARKER();
 232:C:\Users\niels\Documents\Elektrotechniek\Jaar 2\ECS\ECSL\software\STM32\STM32Basis\HAL\gemeenschappelijk\Third_Party\FreeRTOS\Source\list.c **** 	}
 233:C:\Users\niels\Documents\Elektrotechniek\Jaar 2\ECS\ECSL\software\STM32\STM32Basis\HAL\gemeenschappelijk\Third_Party\FreeRTOS\Source\list.c **** 
 234:C:\Users\niels\Documents\Elektrotechniek\Jaar 2\ECS\ECSL\software\STM32\STM32Basis\HAL\gemeenschappelijk\Third_Party\FreeRTOS\Source\list.c **** 	pxItemToRemove->pvContainer = NULL;
 366              	 .loc 1 234 30
 367 0034 7B68     	 ldr r3,[r7,#4]
 368 0036 0022     	 movs r2,#0
 369 0038 1A61     	 str r2,[r3,#16]
 235:C:\Users\niels\Documents\Elektrotechniek\Jaar 2\ECS\ECSL\software\STM32\STM32Basis\HAL\gemeenschappelijk\Third_Party\FreeRTOS\Source\list.c **** 	( pxList->uxNumberOfItems )--;
 370              	 .loc 1 235 12
 371 003a FB68     	 ldr r3,[r7,#12]
 372 003c 1B68     	 ldr r3,[r3]
 373              	 .loc 1 235 29
 374 003e 5A1E     	 subs r2,r3,#1
 375 0040 FB68     	 ldr r3,[r7,#12]
 376 0042 1A60     	 str r2,[r3]
 236:C:\Users\niels\Documents\Elektrotechniek\Jaar 2\ECS\ECSL\software\STM32\STM32Basis\HAL\gemeenschappelijk\Third_Party\FreeRTOS\Source\list.c **** 
 237:C:\Users\niels\Documents\Elektrotechniek\Jaar 2\ECS\ECSL\software\STM32\STM32Basis\HAL\gemeenschappelijk\Third_Party\FreeRTOS\Source\list.c **** 	return pxList->uxNumberOfItems;
 377              	 .loc 1 237 17
 378 0044 FB68     	 ldr r3,[r7,#12]
 379 0046 1B68     	 ldr r3,[r3]
 238:C:\Users\niels\Documents\Elektrotechniek\Jaar 2\ECS\ECSL\software\STM32\STM32Basis\HAL\gemeenschappelijk\Third_Party\FreeRTOS\Source\list.c **** }
 380              	 .loc 1 238 1
 381 0048 1846     	 mov r0,r3
 382 004a 1437     	 adds r7,r7,#20
 383              	 .cfi_def_cfa_offset 4
 384 004c BD46     	 mov sp,r7
 385              	 .cfi_def_cfa_register 13
 386              	 
 387 004e 5DF8047B 	 ldr r7,[sp],#4
 388              	 .cfi_restore 7
 389              	 .cfi_def_cfa_offset 0
ARM GAS   			page 12


 390 0052 7047     	 bx lr
 391              	 .cfi_endproc
 392              	.LFE15:
 393              	 .cantunwind
 394              	 .fnend
 395              	 .size uxListRemove,.-uxListRemove
 396              	 .text
 397              	.Letext0:
 398              	 .file 2 "c:\\progra~2\\gnuarm~1\\102021~1.10\\arm-none-eabi\\include\\c++\\10.3.1\\cstdlib"
 399              	 .file 3 "c:\\progra~2\\gnuarm~1\\102021~1.10\\arm-none-eabi\\include\\c++\\10.3.1\\bits\\std_abs.h"
 400              	 .file 4 "c:\\progra~2\\gnuarm~1\\102021~1.10\\arm-none-eabi\\include\\c++\\10.3.1\\arm-none-eabi\\thumb\\v7e-m+fp\\hard\\bits\\c++config.h"
 401              	 .file 5 "c:\\progra~2\\gnuarm~1\\102021~1.10\\lib\\gcc\\arm-none-eabi\\10.3.1\\include\\stddef.h"
 402              	 .file 6 "c:\\progra~2\\gnuarm~1\\102021~1.10\\arm-none-eabi\\include\\machine\\_default_types.h"
 403              	 .file 7 "c:\\progra~2\\gnuarm~1\\102021~1.10\\arm-none-eabi\\include\\stdlib.h"
 404              	 .file 8 "c:\\progra~2\\gnuarm~1\\102021~1.10\\arm-none-eabi\\include\\c++\\10.3.1\\stdlib.h"
 405              	 .file 9 "c:\\progra~2\\gnuarm~1\\102021~1.10\\arm-none-eabi\\include\\sys\\_stdint.h"
 406              	 .file 10 "C:/Users/niels/DOCUME~1/ELEKTR~1/JAAR2~1/ECS/ECSL/software/STM32/STM32B~1/HAL/GEMEEN~1/THIRD_~1/FreeRTOS/Source/portable/GCC/ARM_CM4F/portmacro.h"
 407              	 .file 11 "C:/Users/niels/DOCUME~1/ELEKTR~1/JAAR2~1/ECS/ECSL/software/STM32/STM32B~1/HAL/GEMEEN~1/THIRD_~1/FreeRTOS/Source/include/list.h"
 408              	 .file 12 "<built-in>"