ARM GAS   			page 1


   1              	 .cpu cortex-m4
   2              	 .arch armv7e-m
   3              	 .fpu fpv4-sp-d16
   4              	 .eabi_attribute 27,1
   5              	 .eabi_attribute 28,1
   6              	 .eabi_attribute 20,1
   7              	 .eabi_attribute 21,1
   8              	 .eabi_attribute 23,3
   9              	 .eabi_attribute 24,1
  10              	 .eabi_attribute 25,1
  11              	 .eabi_attribute 26,1
  12              	 .eabi_attribute 30,6
  13              	 .eabi_attribute 34,0
  14              	 .eabi_attribute 18,4
  15              	 .file "system_stm32f4xx.c"
  16              	 .text
  17              	.Ltext0:
  18              	 .cfi_sections .debug_frame
  19              	 .global SystemCoreClock
  20              	 .section .data.SystemCoreClock,"aw"
  21              	 .align 2
  22              	 .type SystemCoreClock,%object
  23              	 .size SystemCoreClock,4
  24              	SystemCoreClock:
  25 0000 0024F400 	 .word 16000000
  26              	 .global AHBPrescTable
  27              	 .section .rodata.AHBPrescTable,"a"
  28              	 .align 2
  29              	 .type AHBPrescTable,%object
  30              	 .size AHBPrescTable,16
  31              	AHBPrescTable:
  32 0000 00000000 	 .ascii "\000\000\000\000\000\000\000\000\001\002\003\004\006"
  32      00000000 
  32      01020304 
  32      06
  33 000d 070809   	 .ascii "\007\010\011"
  34              	 .global APBPrescTable
  35              	 .section .rodata.APBPrescTable,"a"
  36              	 .align 2
  37              	 .type APBPrescTable,%object
  38              	 .size APBPrescTable,8
  39              	APBPrescTable:
  40 0000 00000000 	 .ascii "\000\000\000\000\001\002\003\004"
  40      01020304 
  41              	 .section .text.SystemInit,"ax",%progbits
  42              	 .align 1
  43              	 .global SystemInit
  44              	 .syntax unified
  45              	 .thumb
  46              	 .thumb_func
  47              	 .type SystemInit,%function
  48              	SystemInit:
  49              	 .fnstart
  50              	.LFB123:
  51              	 .file 1 "C:\\Users\\niels\\Documents\\Elektrotechniek\\Jaar 2\\ECS\\ECSL\\software\\STM32\\STM32Basis\\HAL\\gemeenschappelijk\\Libraries\\CMSIS\\Device\\ST\\STM32F4xx\\Source\\Templates\\system_stm32f4xx.c"
   1:C:\Users\niels\Documents\Elektrotechniek\Jaar 2\ECS\ECSL\software\STM32\STM32Basis\HAL\gemeenschappelijk\Libraries\CMSIS\Device\ST\STM32F4xx\Source\Templates\system_stm32f4xx.c **** /**
   2:C:\Users\niels\Documents\Elektrotechniek\Jaar 2\ECS\ECSL\software\STM32\STM32Basis\HAL\gemeenschappelijk\Libraries\CMSIS\Device\ST\STM32F4xx\Source\Templates\system_stm32f4xx.c ****   ******************************************************************************
ARM GAS   			page 2


   3:C:\Users\niels\Documents\Elektrotechniek\Jaar 2\ECS\ECSL\software\STM32\STM32Basis\HAL\gemeenschappelijk\Libraries\CMSIS\Device\ST\STM32F4xx\Source\Templates\system_stm32f4xx.c ****   * @file    system_stm32f4xx.c
   4:C:\Users\niels\Documents\Elektrotechniek\Jaar 2\ECS\ECSL\software\STM32\STM32Basis\HAL\gemeenschappelijk\Libraries\CMSIS\Device\ST\STM32F4xx\Source\Templates\system_stm32f4xx.c ****   * @author  MCD Application Team
   5:C:\Users\niels\Documents\Elektrotechniek\Jaar 2\ECS\ECSL\software\STM32\STM32Basis\HAL\gemeenschappelijk\Libraries\CMSIS\Device\ST\STM32F4xx\Source\Templates\system_stm32f4xx.c ****   * @brief   CMSIS Cortex-M4 Device Peripheral Access Layer System Source File.
   6:C:\Users\niels\Documents\Elektrotechniek\Jaar 2\ECS\ECSL\software\STM32\STM32Basis\HAL\gemeenschappelijk\Libraries\CMSIS\Device\ST\STM32F4xx\Source\Templates\system_stm32f4xx.c ****   *
   7:C:\Users\niels\Documents\Elektrotechniek\Jaar 2\ECS\ECSL\software\STM32\STM32Basis\HAL\gemeenschappelijk\Libraries\CMSIS\Device\ST\STM32F4xx\Source\Templates\system_stm32f4xx.c ****   *   This file provides two functions and one global variable to be called from 
   8:C:\Users\niels\Documents\Elektrotechniek\Jaar 2\ECS\ECSL\software\STM32\STM32Basis\HAL\gemeenschappelijk\Libraries\CMSIS\Device\ST\STM32F4xx\Source\Templates\system_stm32f4xx.c ****   *   user application:
   9:C:\Users\niels\Documents\Elektrotechniek\Jaar 2\ECS\ECSL\software\STM32\STM32Basis\HAL\gemeenschappelijk\Libraries\CMSIS\Device\ST\STM32F4xx\Source\Templates\system_stm32f4xx.c ****   *      - SystemInit(): This function is called at startup just after reset and 
  10:C:\Users\niels\Documents\Elektrotechniek\Jaar 2\ECS\ECSL\software\STM32\STM32Basis\HAL\gemeenschappelijk\Libraries\CMSIS\Device\ST\STM32F4xx\Source\Templates\system_stm32f4xx.c ****   *                      before branch to main program. This call is made inside
  11:C:\Users\niels\Documents\Elektrotechniek\Jaar 2\ECS\ECSL\software\STM32\STM32Basis\HAL\gemeenschappelijk\Libraries\CMSIS\Device\ST\STM32F4xx\Source\Templates\system_stm32f4xx.c ****   *                      the "startup_stm32f4xx.s" file.
  12:C:\Users\niels\Documents\Elektrotechniek\Jaar 2\ECS\ECSL\software\STM32\STM32Basis\HAL\gemeenschappelijk\Libraries\CMSIS\Device\ST\STM32F4xx\Source\Templates\system_stm32f4xx.c ****   *
  13:C:\Users\niels\Documents\Elektrotechniek\Jaar 2\ECS\ECSL\software\STM32\STM32Basis\HAL\gemeenschappelijk\Libraries\CMSIS\Device\ST\STM32F4xx\Source\Templates\system_stm32f4xx.c ****   *      - SystemCoreClock variable: Contains the core clock (HCLK), it can be used
  14:C:\Users\niels\Documents\Elektrotechniek\Jaar 2\ECS\ECSL\software\STM32\STM32Basis\HAL\gemeenschappelijk\Libraries\CMSIS\Device\ST\STM32F4xx\Source\Templates\system_stm32f4xx.c ****   *                                  by the user application to setup the SysTick 
  15:C:\Users\niels\Documents\Elektrotechniek\Jaar 2\ECS\ECSL\software\STM32\STM32Basis\HAL\gemeenschappelijk\Libraries\CMSIS\Device\ST\STM32F4xx\Source\Templates\system_stm32f4xx.c ****   *                                  timer or configure other parameters.
  16:C:\Users\niels\Documents\Elektrotechniek\Jaar 2\ECS\ECSL\software\STM32\STM32Basis\HAL\gemeenschappelijk\Libraries\CMSIS\Device\ST\STM32F4xx\Source\Templates\system_stm32f4xx.c ****   *                                     
  17:C:\Users\niels\Documents\Elektrotechniek\Jaar 2\ECS\ECSL\software\STM32\STM32Basis\HAL\gemeenschappelijk\Libraries\CMSIS\Device\ST\STM32F4xx\Source\Templates\system_stm32f4xx.c ****   *      - SystemCoreClockUpdate(): Updates the variable SystemCoreClock and must
  18:C:\Users\niels\Documents\Elektrotechniek\Jaar 2\ECS\ECSL\software\STM32\STM32Basis\HAL\gemeenschappelijk\Libraries\CMSIS\Device\ST\STM32F4xx\Source\Templates\system_stm32f4xx.c ****   *                                 be called whenever the core clock is changed
  19:C:\Users\niels\Documents\Elektrotechniek\Jaar 2\ECS\ECSL\software\STM32\STM32Basis\HAL\gemeenschappelijk\Libraries\CMSIS\Device\ST\STM32F4xx\Source\Templates\system_stm32f4xx.c ****   *                                 during program execution.
  20:C:\Users\niels\Documents\Elektrotechniek\Jaar 2\ECS\ECSL\software\STM32\STM32Basis\HAL\gemeenschappelijk\Libraries\CMSIS\Device\ST\STM32F4xx\Source\Templates\system_stm32f4xx.c ****   *
  21:C:\Users\niels\Documents\Elektrotechniek\Jaar 2\ECS\ECSL\software\STM32\STM32Basis\HAL\gemeenschappelijk\Libraries\CMSIS\Device\ST\STM32F4xx\Source\Templates\system_stm32f4xx.c ****   *
  22:C:\Users\niels\Documents\Elektrotechniek\Jaar 2\ECS\ECSL\software\STM32\STM32Basis\HAL\gemeenschappelijk\Libraries\CMSIS\Device\ST\STM32F4xx\Source\Templates\system_stm32f4xx.c ****   ******************************************************************************
  23:C:\Users\niels\Documents\Elektrotechniek\Jaar 2\ECS\ECSL\software\STM32\STM32Basis\HAL\gemeenschappelijk\Libraries\CMSIS\Device\ST\STM32F4xx\Source\Templates\system_stm32f4xx.c ****   * @attention
  24:C:\Users\niels\Documents\Elektrotechniek\Jaar 2\ECS\ECSL\software\STM32\STM32Basis\HAL\gemeenschappelijk\Libraries\CMSIS\Device\ST\STM32F4xx\Source\Templates\system_stm32f4xx.c ****   *
  25:C:\Users\niels\Documents\Elektrotechniek\Jaar 2\ECS\ECSL\software\STM32\STM32Basis\HAL\gemeenschappelijk\Libraries\CMSIS\Device\ST\STM32F4xx\Source\Templates\system_stm32f4xx.c ****   * <h2><center>&copy; Copyright (c) 2017 STMicroelectronics.
  26:C:\Users\niels\Documents\Elektrotechniek\Jaar 2\ECS\ECSL\software\STM32\STM32Basis\HAL\gemeenschappelijk\Libraries\CMSIS\Device\ST\STM32F4xx\Source\Templates\system_stm32f4xx.c ****   * All rights reserved.</center></h2>
  27:C:\Users\niels\Documents\Elektrotechniek\Jaar 2\ECS\ECSL\software\STM32\STM32Basis\HAL\gemeenschappelijk\Libraries\CMSIS\Device\ST\STM32F4xx\Source\Templates\system_stm32f4xx.c ****   *
  28:C:\Users\niels\Documents\Elektrotechniek\Jaar 2\ECS\ECSL\software\STM32\STM32Basis\HAL\gemeenschappelijk\Libraries\CMSIS\Device\ST\STM32F4xx\Source\Templates\system_stm32f4xx.c ****   * This software component is licensed by ST under BSD 3-Clause license,
  29:C:\Users\niels\Documents\Elektrotechniek\Jaar 2\ECS\ECSL\software\STM32\STM32Basis\HAL\gemeenschappelijk\Libraries\CMSIS\Device\ST\STM32F4xx\Source\Templates\system_stm32f4xx.c ****   * the "License"; You may not use this file except in compliance with the
  30:C:\Users\niels\Documents\Elektrotechniek\Jaar 2\ECS\ECSL\software\STM32\STM32Basis\HAL\gemeenschappelijk\Libraries\CMSIS\Device\ST\STM32F4xx\Source\Templates\system_stm32f4xx.c ****   * License. You may obtain a copy of the License at:
  31:C:\Users\niels\Documents\Elektrotechniek\Jaar 2\ECS\ECSL\software\STM32\STM32Basis\HAL\gemeenschappelijk\Libraries\CMSIS\Device\ST\STM32F4xx\Source\Templates\system_stm32f4xx.c ****   *                        opensource.org/licenses/BSD-3-Clause
  32:C:\Users\niels\Documents\Elektrotechniek\Jaar 2\ECS\ECSL\software\STM32\STM32Basis\HAL\gemeenschappelijk\Libraries\CMSIS\Device\ST\STM32F4xx\Source\Templates\system_stm32f4xx.c ****   *
  33:C:\Users\niels\Documents\Elektrotechniek\Jaar 2\ECS\ECSL\software\STM32\STM32Basis\HAL\gemeenschappelijk\Libraries\CMSIS\Device\ST\STM32F4xx\Source\Templates\system_stm32f4xx.c ****   ******************************************************************************
  34:C:\Users\niels\Documents\Elektrotechniek\Jaar 2\ECS\ECSL\software\STM32\STM32Basis\HAL\gemeenschappelijk\Libraries\CMSIS\Device\ST\STM32F4xx\Source\Templates\system_stm32f4xx.c ****   */
  35:C:\Users\niels\Documents\Elektrotechniek\Jaar 2\ECS\ECSL\software\STM32\STM32Basis\HAL\gemeenschappelijk\Libraries\CMSIS\Device\ST\STM32F4xx\Source\Templates\system_stm32f4xx.c **** 
  36:C:\Users\niels\Documents\Elektrotechniek\Jaar 2\ECS\ECSL\software\STM32\STM32Basis\HAL\gemeenschappelijk\Libraries\CMSIS\Device\ST\STM32F4xx\Source\Templates\system_stm32f4xx.c **** /** @addtogroup CMSIS
  37:C:\Users\niels\Documents\Elektrotechniek\Jaar 2\ECS\ECSL\software\STM32\STM32Basis\HAL\gemeenschappelijk\Libraries\CMSIS\Device\ST\STM32F4xx\Source\Templates\system_stm32f4xx.c ****   * @{
  38:C:\Users\niels\Documents\Elektrotechniek\Jaar 2\ECS\ECSL\software\STM32\STM32Basis\HAL\gemeenschappelijk\Libraries\CMSIS\Device\ST\STM32F4xx\Source\Templates\system_stm32f4xx.c ****   */
  39:C:\Users\niels\Documents\Elektrotechniek\Jaar 2\ECS\ECSL\software\STM32\STM32Basis\HAL\gemeenschappelijk\Libraries\CMSIS\Device\ST\STM32F4xx\Source\Templates\system_stm32f4xx.c **** 
  40:C:\Users\niels\Documents\Elektrotechniek\Jaar 2\ECS\ECSL\software\STM32\STM32Basis\HAL\gemeenschappelijk\Libraries\CMSIS\Device\ST\STM32F4xx\Source\Templates\system_stm32f4xx.c **** /** @addtogroup stm32f4xx_system
  41:C:\Users\niels\Documents\Elektrotechniek\Jaar 2\ECS\ECSL\software\STM32\STM32Basis\HAL\gemeenschappelijk\Libraries\CMSIS\Device\ST\STM32F4xx\Source\Templates\system_stm32f4xx.c ****   * @{
  42:C:\Users\niels\Documents\Elektrotechniek\Jaar 2\ECS\ECSL\software\STM32\STM32Basis\HAL\gemeenschappelijk\Libraries\CMSIS\Device\ST\STM32F4xx\Source\Templates\system_stm32f4xx.c ****   */  
  43:C:\Users\niels\Documents\Elektrotechniek\Jaar 2\ECS\ECSL\software\STM32\STM32Basis\HAL\gemeenschappelijk\Libraries\CMSIS\Device\ST\STM32F4xx\Source\Templates\system_stm32f4xx.c ****   
  44:C:\Users\niels\Documents\Elektrotechniek\Jaar 2\ECS\ECSL\software\STM32\STM32Basis\HAL\gemeenschappelijk\Libraries\CMSIS\Device\ST\STM32F4xx\Source\Templates\system_stm32f4xx.c **** /** @addtogroup STM32F4xx_System_Private_Includes
  45:C:\Users\niels\Documents\Elektrotechniek\Jaar 2\ECS\ECSL\software\STM32\STM32Basis\HAL\gemeenschappelijk\Libraries\CMSIS\Device\ST\STM32F4xx\Source\Templates\system_stm32f4xx.c ****   * @{
  46:C:\Users\niels\Documents\Elektrotechniek\Jaar 2\ECS\ECSL\software\STM32\STM32Basis\HAL\gemeenschappelijk\Libraries\CMSIS\Device\ST\STM32F4xx\Source\Templates\system_stm32f4xx.c ****   */
  47:C:\Users\niels\Documents\Elektrotechniek\Jaar 2\ECS\ECSL\software\STM32\STM32Basis\HAL\gemeenschappelijk\Libraries\CMSIS\Device\ST\STM32F4xx\Source\Templates\system_stm32f4xx.c **** 
  48:C:\Users\niels\Documents\Elektrotechniek\Jaar 2\ECS\ECSL\software\STM32\STM32Basis\HAL\gemeenschappelijk\Libraries\CMSIS\Device\ST\STM32F4xx\Source\Templates\system_stm32f4xx.c **** 
  49:C:\Users\niels\Documents\Elektrotechniek\Jaar 2\ECS\ECSL\software\STM32\STM32Basis\HAL\gemeenschappelijk\Libraries\CMSIS\Device\ST\STM32F4xx\Source\Templates\system_stm32f4xx.c **** #include "stm32f4xx.h"
  50:C:\Users\niels\Documents\Elektrotechniek\Jaar 2\ECS\ECSL\software\STM32\STM32Basis\HAL\gemeenschappelijk\Libraries\CMSIS\Device\ST\STM32F4xx\Source\Templates\system_stm32f4xx.c **** 
  51:C:\Users\niels\Documents\Elektrotechniek\Jaar 2\ECS\ECSL\software\STM32\STM32Basis\HAL\gemeenschappelijk\Libraries\CMSIS\Device\ST\STM32F4xx\Source\Templates\system_stm32f4xx.c **** #if !defined  (HSE_VALUE) 
  52:C:\Users\niels\Documents\Elektrotechniek\Jaar 2\ECS\ECSL\software\STM32\STM32Basis\HAL\gemeenschappelijk\Libraries\CMSIS\Device\ST\STM32F4xx\Source\Templates\system_stm32f4xx.c ****   #define HSE_VALUE    ((uint32_t)25000000) /*!< Default value of the External oscillator in Hz */
  53:C:\Users\niels\Documents\Elektrotechniek\Jaar 2\ECS\ECSL\software\STM32\STM32Basis\HAL\gemeenschappelijk\Libraries\CMSIS\Device\ST\STM32F4xx\Source\Templates\system_stm32f4xx.c **** #endif /* HSE_VALUE */
  54:C:\Users\niels\Documents\Elektrotechniek\Jaar 2\ECS\ECSL\software\STM32\STM32Basis\HAL\gemeenschappelijk\Libraries\CMSIS\Device\ST\STM32F4xx\Source\Templates\system_stm32f4xx.c **** 
  55:C:\Users\niels\Documents\Elektrotechniek\Jaar 2\ECS\ECSL\software\STM32\STM32Basis\HAL\gemeenschappelijk\Libraries\CMSIS\Device\ST\STM32F4xx\Source\Templates\system_stm32f4xx.c **** #if !defined  (HSI_VALUE)
  56:C:\Users\niels\Documents\Elektrotechniek\Jaar 2\ECS\ECSL\software\STM32\STM32Basis\HAL\gemeenschappelijk\Libraries\CMSIS\Device\ST\STM32F4xx\Source\Templates\system_stm32f4xx.c ****   #define HSI_VALUE    ((uint32_t)16000000) /*!< Value of the Internal oscillator in Hz*/
  57:C:\Users\niels\Documents\Elektrotechniek\Jaar 2\ECS\ECSL\software\STM32\STM32Basis\HAL\gemeenschappelijk\Libraries\CMSIS\Device\ST\STM32F4xx\Source\Templates\system_stm32f4xx.c **** #endif /* HSI_VALUE */
  58:C:\Users\niels\Documents\Elektrotechniek\Jaar 2\ECS\ECSL\software\STM32\STM32Basis\HAL\gemeenschappelijk\Libraries\CMSIS\Device\ST\STM32F4xx\Source\Templates\system_stm32f4xx.c **** 
  59:C:\Users\niels\Documents\Elektrotechniek\Jaar 2\ECS\ECSL\software\STM32\STM32Basis\HAL\gemeenschappelijk\Libraries\CMSIS\Device\ST\STM32F4xx\Source\Templates\system_stm32f4xx.c **** /**
ARM GAS   			page 3


  60:C:\Users\niels\Documents\Elektrotechniek\Jaar 2\ECS\ECSL\software\STM32\STM32Basis\HAL\gemeenschappelijk\Libraries\CMSIS\Device\ST\STM32F4xx\Source\Templates\system_stm32f4xx.c ****   * @}
  61:C:\Users\niels\Documents\Elektrotechniek\Jaar 2\ECS\ECSL\software\STM32\STM32Basis\HAL\gemeenschappelijk\Libraries\CMSIS\Device\ST\STM32F4xx\Source\Templates\system_stm32f4xx.c ****   */
  62:C:\Users\niels\Documents\Elektrotechniek\Jaar 2\ECS\ECSL\software\STM32\STM32Basis\HAL\gemeenschappelijk\Libraries\CMSIS\Device\ST\STM32F4xx\Source\Templates\system_stm32f4xx.c **** 
  63:C:\Users\niels\Documents\Elektrotechniek\Jaar 2\ECS\ECSL\software\STM32\STM32Basis\HAL\gemeenschappelijk\Libraries\CMSIS\Device\ST\STM32F4xx\Source\Templates\system_stm32f4xx.c **** /** @addtogroup STM32F4xx_System_Private_TypesDefinitions
  64:C:\Users\niels\Documents\Elektrotechniek\Jaar 2\ECS\ECSL\software\STM32\STM32Basis\HAL\gemeenschappelijk\Libraries\CMSIS\Device\ST\STM32F4xx\Source\Templates\system_stm32f4xx.c ****   * @{
  65:C:\Users\niels\Documents\Elektrotechniek\Jaar 2\ECS\ECSL\software\STM32\STM32Basis\HAL\gemeenschappelijk\Libraries\CMSIS\Device\ST\STM32F4xx\Source\Templates\system_stm32f4xx.c ****   */
  66:C:\Users\niels\Documents\Elektrotechniek\Jaar 2\ECS\ECSL\software\STM32\STM32Basis\HAL\gemeenschappelijk\Libraries\CMSIS\Device\ST\STM32F4xx\Source\Templates\system_stm32f4xx.c **** 
  67:C:\Users\niels\Documents\Elektrotechniek\Jaar 2\ECS\ECSL\software\STM32\STM32Basis\HAL\gemeenschappelijk\Libraries\CMSIS\Device\ST\STM32F4xx\Source\Templates\system_stm32f4xx.c **** /**
  68:C:\Users\niels\Documents\Elektrotechniek\Jaar 2\ECS\ECSL\software\STM32\STM32Basis\HAL\gemeenschappelijk\Libraries\CMSIS\Device\ST\STM32F4xx\Source\Templates\system_stm32f4xx.c ****   * @}
  69:C:\Users\niels\Documents\Elektrotechniek\Jaar 2\ECS\ECSL\software\STM32\STM32Basis\HAL\gemeenschappelijk\Libraries\CMSIS\Device\ST\STM32F4xx\Source\Templates\system_stm32f4xx.c ****   */
  70:C:\Users\niels\Documents\Elektrotechniek\Jaar 2\ECS\ECSL\software\STM32\STM32Basis\HAL\gemeenschappelijk\Libraries\CMSIS\Device\ST\STM32F4xx\Source\Templates\system_stm32f4xx.c **** 
  71:C:\Users\niels\Documents\Elektrotechniek\Jaar 2\ECS\ECSL\software\STM32\STM32Basis\HAL\gemeenschappelijk\Libraries\CMSIS\Device\ST\STM32F4xx\Source\Templates\system_stm32f4xx.c **** /** @addtogroup STM32F4xx_System_Private_Defines
  72:C:\Users\niels\Documents\Elektrotechniek\Jaar 2\ECS\ECSL\software\STM32\STM32Basis\HAL\gemeenschappelijk\Libraries\CMSIS\Device\ST\STM32F4xx\Source\Templates\system_stm32f4xx.c ****   * @{
  73:C:\Users\niels\Documents\Elektrotechniek\Jaar 2\ECS\ECSL\software\STM32\STM32Basis\HAL\gemeenschappelijk\Libraries\CMSIS\Device\ST\STM32F4xx\Source\Templates\system_stm32f4xx.c ****   */
  74:C:\Users\niels\Documents\Elektrotechniek\Jaar 2\ECS\ECSL\software\STM32\STM32Basis\HAL\gemeenschappelijk\Libraries\CMSIS\Device\ST\STM32F4xx\Source\Templates\system_stm32f4xx.c **** 
  75:C:\Users\niels\Documents\Elektrotechniek\Jaar 2\ECS\ECSL\software\STM32\STM32Basis\HAL\gemeenschappelijk\Libraries\CMSIS\Device\ST\STM32F4xx\Source\Templates\system_stm32f4xx.c **** /************************* Miscellaneous Configuration ************************/
  76:C:\Users\niels\Documents\Elektrotechniek\Jaar 2\ECS\ECSL\software\STM32\STM32Basis\HAL\gemeenschappelijk\Libraries\CMSIS\Device\ST\STM32F4xx\Source\Templates\system_stm32f4xx.c **** /*!< Uncomment the following line if you need to use external SRAM or SDRAM as data memory  */
  77:C:\Users\niels\Documents\Elektrotechniek\Jaar 2\ECS\ECSL\software\STM32\STM32Basis\HAL\gemeenschappelijk\Libraries\CMSIS\Device\ST\STM32F4xx\Source\Templates\system_stm32f4xx.c **** #if defined(STM32F405xx) || defined(STM32F415xx) || defined(STM32F407xx) || defined(STM32F417xx)\
  78:C:\Users\niels\Documents\Elektrotechniek\Jaar 2\ECS\ECSL\software\STM32\STM32Basis\HAL\gemeenschappelijk\Libraries\CMSIS\Device\ST\STM32F4xx\Source\Templates\system_stm32f4xx.c ****  || defined(STM32F427xx) || defined(STM32F437xx) || defined(STM32F429xx) || defined(STM32F439xx)\
  79:C:\Users\niels\Documents\Elektrotechniek\Jaar 2\ECS\ECSL\software\STM32\STM32Basis\HAL\gemeenschappelijk\Libraries\CMSIS\Device\ST\STM32F4xx\Source\Templates\system_stm32f4xx.c ****  || defined(STM32F469xx) || defined(STM32F479xx) || defined(STM32F412Zx) || defined(STM32F412Vx)
  80:C:\Users\niels\Documents\Elektrotechniek\Jaar 2\ECS\ECSL\software\STM32\STM32Basis\HAL\gemeenschappelijk\Libraries\CMSIS\Device\ST\STM32F4xx\Source\Templates\system_stm32f4xx.c **** /* #define DATA_IN_ExtSRAM */
  81:C:\Users\niels\Documents\Elektrotechniek\Jaar 2\ECS\ECSL\software\STM32\STM32Basis\HAL\gemeenschappelijk\Libraries\CMSIS\Device\ST\STM32F4xx\Source\Templates\system_stm32f4xx.c **** #endif /* STM32F40xxx || STM32F41xxx || STM32F42xxx || STM32F43xxx || STM32F469xx || STM32F479xx ||
  82:C:\Users\niels\Documents\Elektrotechniek\Jaar 2\ECS\ECSL\software\STM32\STM32Basis\HAL\gemeenschappelijk\Libraries\CMSIS\Device\ST\STM32F4xx\Source\Templates\system_stm32f4xx.c ****           STM32F412Zx || STM32F412Vx */
  83:C:\Users\niels\Documents\Elektrotechniek\Jaar 2\ECS\ECSL\software\STM32\STM32Basis\HAL\gemeenschappelijk\Libraries\CMSIS\Device\ST\STM32F4xx\Source\Templates\system_stm32f4xx.c ****  
  84:C:\Users\niels\Documents\Elektrotechniek\Jaar 2\ECS\ECSL\software\STM32\STM32Basis\HAL\gemeenschappelijk\Libraries\CMSIS\Device\ST\STM32F4xx\Source\Templates\system_stm32f4xx.c **** #if defined(STM32F427xx) || defined(STM32F437xx) || defined(STM32F429xx) || defined(STM32F439xx)\
  85:C:\Users\niels\Documents\Elektrotechniek\Jaar 2\ECS\ECSL\software\STM32\STM32Basis\HAL\gemeenschappelijk\Libraries\CMSIS\Device\ST\STM32F4xx\Source\Templates\system_stm32f4xx.c ****  || defined(STM32F446xx) || defined(STM32F469xx) || defined(STM32F479xx)
  86:C:\Users\niels\Documents\Elektrotechniek\Jaar 2\ECS\ECSL\software\STM32\STM32Basis\HAL\gemeenschappelijk\Libraries\CMSIS\Device\ST\STM32F4xx\Source\Templates\system_stm32f4xx.c **** /* #define DATA_IN_ExtSDRAM */
  87:C:\Users\niels\Documents\Elektrotechniek\Jaar 2\ECS\ECSL\software\STM32\STM32Basis\HAL\gemeenschappelijk\Libraries\CMSIS\Device\ST\STM32F4xx\Source\Templates\system_stm32f4xx.c **** #endif /* STM32F427xx || STM32F437xx || STM32F429xx || STM32F439xx || STM32F446xx || STM32F469xx ||
  88:C:\Users\niels\Documents\Elektrotechniek\Jaar 2\ECS\ECSL\software\STM32\STM32Basis\HAL\gemeenschappelijk\Libraries\CMSIS\Device\ST\STM32F4xx\Source\Templates\system_stm32f4xx.c ****           STM32F479xx */
  89:C:\Users\niels\Documents\Elektrotechniek\Jaar 2\ECS\ECSL\software\STM32\STM32Basis\HAL\gemeenschappelijk\Libraries\CMSIS\Device\ST\STM32F4xx\Source\Templates\system_stm32f4xx.c **** 
  90:C:\Users\niels\Documents\Elektrotechniek\Jaar 2\ECS\ECSL\software\STM32\STM32Basis\HAL\gemeenschappelijk\Libraries\CMSIS\Device\ST\STM32F4xx\Source\Templates\system_stm32f4xx.c **** /*!< Uncomment the following line if you need to relocate your vector Table in
  91:C:\Users\niels\Documents\Elektrotechniek\Jaar 2\ECS\ECSL\software\STM32\STM32Basis\HAL\gemeenschappelijk\Libraries\CMSIS\Device\ST\STM32F4xx\Source\Templates\system_stm32f4xx.c ****      Internal SRAM. */
  92:C:\Users\niels\Documents\Elektrotechniek\Jaar 2\ECS\ECSL\software\STM32\STM32Basis\HAL\gemeenschappelijk\Libraries\CMSIS\Device\ST\STM32F4xx\Source\Templates\system_stm32f4xx.c **** /* #define VECT_TAB_SRAM */
  93:C:\Users\niels\Documents\Elektrotechniek\Jaar 2\ECS\ECSL\software\STM32\STM32Basis\HAL\gemeenschappelijk\Libraries\CMSIS\Device\ST\STM32F4xx\Source\Templates\system_stm32f4xx.c **** #define VECT_TAB_OFFSET  0x00 /*!< Vector Table base offset field. 
  94:C:\Users\niels\Documents\Elektrotechniek\Jaar 2\ECS\ECSL\software\STM32\STM32Basis\HAL\gemeenschappelijk\Libraries\CMSIS\Device\ST\STM32F4xx\Source\Templates\system_stm32f4xx.c ****                                    This value must be a multiple of 0x200. */
  95:C:\Users\niels\Documents\Elektrotechniek\Jaar 2\ECS\ECSL\software\STM32\STM32Basis\HAL\gemeenschappelijk\Libraries\CMSIS\Device\ST\STM32F4xx\Source\Templates\system_stm32f4xx.c **** /******************************************************************************/
  96:C:\Users\niels\Documents\Elektrotechniek\Jaar 2\ECS\ECSL\software\STM32\STM32Basis\HAL\gemeenschappelijk\Libraries\CMSIS\Device\ST\STM32F4xx\Source\Templates\system_stm32f4xx.c **** 
  97:C:\Users\niels\Documents\Elektrotechniek\Jaar 2\ECS\ECSL\software\STM32\STM32Basis\HAL\gemeenschappelijk\Libraries\CMSIS\Device\ST\STM32F4xx\Source\Templates\system_stm32f4xx.c **** /**
  98:C:\Users\niels\Documents\Elektrotechniek\Jaar 2\ECS\ECSL\software\STM32\STM32Basis\HAL\gemeenschappelijk\Libraries\CMSIS\Device\ST\STM32F4xx\Source\Templates\system_stm32f4xx.c ****   * @}
  99:C:\Users\niels\Documents\Elektrotechniek\Jaar 2\ECS\ECSL\software\STM32\STM32Basis\HAL\gemeenschappelijk\Libraries\CMSIS\Device\ST\STM32F4xx\Source\Templates\system_stm32f4xx.c ****   */
 100:C:\Users\niels\Documents\Elektrotechniek\Jaar 2\ECS\ECSL\software\STM32\STM32Basis\HAL\gemeenschappelijk\Libraries\CMSIS\Device\ST\STM32F4xx\Source\Templates\system_stm32f4xx.c **** 
 101:C:\Users\niels\Documents\Elektrotechniek\Jaar 2\ECS\ECSL\software\STM32\STM32Basis\HAL\gemeenschappelijk\Libraries\CMSIS\Device\ST\STM32F4xx\Source\Templates\system_stm32f4xx.c **** /** @addtogroup STM32F4xx_System_Private_Macros
 102:C:\Users\niels\Documents\Elektrotechniek\Jaar 2\ECS\ECSL\software\STM32\STM32Basis\HAL\gemeenschappelijk\Libraries\CMSIS\Device\ST\STM32F4xx\Source\Templates\system_stm32f4xx.c ****   * @{
 103:C:\Users\niels\Documents\Elektrotechniek\Jaar 2\ECS\ECSL\software\STM32\STM32Basis\HAL\gemeenschappelijk\Libraries\CMSIS\Device\ST\STM32F4xx\Source\Templates\system_stm32f4xx.c ****   */
 104:C:\Users\niels\Documents\Elektrotechniek\Jaar 2\ECS\ECSL\software\STM32\STM32Basis\HAL\gemeenschappelijk\Libraries\CMSIS\Device\ST\STM32F4xx\Source\Templates\system_stm32f4xx.c **** 
 105:C:\Users\niels\Documents\Elektrotechniek\Jaar 2\ECS\ECSL\software\STM32\STM32Basis\HAL\gemeenschappelijk\Libraries\CMSIS\Device\ST\STM32F4xx\Source\Templates\system_stm32f4xx.c **** /**
 106:C:\Users\niels\Documents\Elektrotechniek\Jaar 2\ECS\ECSL\software\STM32\STM32Basis\HAL\gemeenschappelijk\Libraries\CMSIS\Device\ST\STM32F4xx\Source\Templates\system_stm32f4xx.c ****   * @}
 107:C:\Users\niels\Documents\Elektrotechniek\Jaar 2\ECS\ECSL\software\STM32\STM32Basis\HAL\gemeenschappelijk\Libraries\CMSIS\Device\ST\STM32F4xx\Source\Templates\system_stm32f4xx.c ****   */
 108:C:\Users\niels\Documents\Elektrotechniek\Jaar 2\ECS\ECSL\software\STM32\STM32Basis\HAL\gemeenschappelijk\Libraries\CMSIS\Device\ST\STM32F4xx\Source\Templates\system_stm32f4xx.c **** 
 109:C:\Users\niels\Documents\Elektrotechniek\Jaar 2\ECS\ECSL\software\STM32\STM32Basis\HAL\gemeenschappelijk\Libraries\CMSIS\Device\ST\STM32F4xx\Source\Templates\system_stm32f4xx.c **** /** @addtogroup STM32F4xx_System_Private_Variables
 110:C:\Users\niels\Documents\Elektrotechniek\Jaar 2\ECS\ECSL\software\STM32\STM32Basis\HAL\gemeenschappelijk\Libraries\CMSIS\Device\ST\STM32F4xx\Source\Templates\system_stm32f4xx.c ****   * @{
 111:C:\Users\niels\Documents\Elektrotechniek\Jaar 2\ECS\ECSL\software\STM32\STM32Basis\HAL\gemeenschappelijk\Libraries\CMSIS\Device\ST\STM32F4xx\Source\Templates\system_stm32f4xx.c ****   */
 112:C:\Users\niels\Documents\Elektrotechniek\Jaar 2\ECS\ECSL\software\STM32\STM32Basis\HAL\gemeenschappelijk\Libraries\CMSIS\Device\ST\STM32F4xx\Source\Templates\system_stm32f4xx.c ****   /* This variable is updated in three ways:
 113:C:\Users\niels\Documents\Elektrotechniek\Jaar 2\ECS\ECSL\software\STM32\STM32Basis\HAL\gemeenschappelijk\Libraries\CMSIS\Device\ST\STM32F4xx\Source\Templates\system_stm32f4xx.c ****       1) by calling CMSIS function SystemCoreClockUpdate()
 114:C:\Users\niels\Documents\Elektrotechniek\Jaar 2\ECS\ECSL\software\STM32\STM32Basis\HAL\gemeenschappelijk\Libraries\CMSIS\Device\ST\STM32F4xx\Source\Templates\system_stm32f4xx.c ****       2) by calling HAL API function HAL_RCC_GetHCLKFreq()
 115:C:\Users\niels\Documents\Elektrotechniek\Jaar 2\ECS\ECSL\software\STM32\STM32Basis\HAL\gemeenschappelijk\Libraries\CMSIS\Device\ST\STM32F4xx\Source\Templates\system_stm32f4xx.c ****       3) each time HAL_RCC_ClockConfig() is called to configure the system clock frequency 
 116:C:\Users\niels\Documents\Elektrotechniek\Jaar 2\ECS\ECSL\software\STM32\STM32Basis\HAL\gemeenschappelijk\Libraries\CMSIS\Device\ST\STM32F4xx\Source\Templates\system_stm32f4xx.c ****          Note: If you use this function to configure the system clock; then there
ARM GAS   			page 4


 117:C:\Users\niels\Documents\Elektrotechniek\Jaar 2\ECS\ECSL\software\STM32\STM32Basis\HAL\gemeenschappelijk\Libraries\CMSIS\Device\ST\STM32F4xx\Source\Templates\system_stm32f4xx.c ****                is no need to call the 2 first functions listed above, since SystemCoreClock
 118:C:\Users\niels\Documents\Elektrotechniek\Jaar 2\ECS\ECSL\software\STM32\STM32Basis\HAL\gemeenschappelijk\Libraries\CMSIS\Device\ST\STM32F4xx\Source\Templates\system_stm32f4xx.c ****                variable is updated automatically.
 119:C:\Users\niels\Documents\Elektrotechniek\Jaar 2\ECS\ECSL\software\STM32\STM32Basis\HAL\gemeenschappelijk\Libraries\CMSIS\Device\ST\STM32F4xx\Source\Templates\system_stm32f4xx.c ****   */
 120:C:\Users\niels\Documents\Elektrotechniek\Jaar 2\ECS\ECSL\software\STM32\STM32Basis\HAL\gemeenschappelijk\Libraries\CMSIS\Device\ST\STM32F4xx\Source\Templates\system_stm32f4xx.c **** uint32_t SystemCoreClock = 16000000;
 121:C:\Users\niels\Documents\Elektrotechniek\Jaar 2\ECS\ECSL\software\STM32\STM32Basis\HAL\gemeenschappelijk\Libraries\CMSIS\Device\ST\STM32F4xx\Source\Templates\system_stm32f4xx.c **** const uint8_t AHBPrescTable[16] = {0, 0, 0, 0, 0, 0, 0, 0, 1, 2, 3, 4, 6, 7, 8, 9};
 122:C:\Users\niels\Documents\Elektrotechniek\Jaar 2\ECS\ECSL\software\STM32\STM32Basis\HAL\gemeenschappelijk\Libraries\CMSIS\Device\ST\STM32F4xx\Source\Templates\system_stm32f4xx.c **** const uint8_t APBPrescTable[8]  = {0, 0, 0, 0, 1, 2, 3, 4};
 123:C:\Users\niels\Documents\Elektrotechniek\Jaar 2\ECS\ECSL\software\STM32\STM32Basis\HAL\gemeenschappelijk\Libraries\CMSIS\Device\ST\STM32F4xx\Source\Templates\system_stm32f4xx.c **** /**
 124:C:\Users\niels\Documents\Elektrotechniek\Jaar 2\ECS\ECSL\software\STM32\STM32Basis\HAL\gemeenschappelijk\Libraries\CMSIS\Device\ST\STM32F4xx\Source\Templates\system_stm32f4xx.c ****   * @}
 125:C:\Users\niels\Documents\Elektrotechniek\Jaar 2\ECS\ECSL\software\STM32\STM32Basis\HAL\gemeenschappelijk\Libraries\CMSIS\Device\ST\STM32F4xx\Source\Templates\system_stm32f4xx.c ****   */
 126:C:\Users\niels\Documents\Elektrotechniek\Jaar 2\ECS\ECSL\software\STM32\STM32Basis\HAL\gemeenschappelijk\Libraries\CMSIS\Device\ST\STM32F4xx\Source\Templates\system_stm32f4xx.c **** 
 127:C:\Users\niels\Documents\Elektrotechniek\Jaar 2\ECS\ECSL\software\STM32\STM32Basis\HAL\gemeenschappelijk\Libraries\CMSIS\Device\ST\STM32F4xx\Source\Templates\system_stm32f4xx.c **** /** @addtogroup STM32F4xx_System_Private_FunctionPrototypes
 128:C:\Users\niels\Documents\Elektrotechniek\Jaar 2\ECS\ECSL\software\STM32\STM32Basis\HAL\gemeenschappelijk\Libraries\CMSIS\Device\ST\STM32F4xx\Source\Templates\system_stm32f4xx.c ****   * @{
 129:C:\Users\niels\Documents\Elektrotechniek\Jaar 2\ECS\ECSL\software\STM32\STM32Basis\HAL\gemeenschappelijk\Libraries\CMSIS\Device\ST\STM32F4xx\Source\Templates\system_stm32f4xx.c ****   */
 130:C:\Users\niels\Documents\Elektrotechniek\Jaar 2\ECS\ECSL\software\STM32\STM32Basis\HAL\gemeenschappelijk\Libraries\CMSIS\Device\ST\STM32F4xx\Source\Templates\system_stm32f4xx.c **** 
 131:C:\Users\niels\Documents\Elektrotechniek\Jaar 2\ECS\ECSL\software\STM32\STM32Basis\HAL\gemeenschappelijk\Libraries\CMSIS\Device\ST\STM32F4xx\Source\Templates\system_stm32f4xx.c **** #if defined (DATA_IN_ExtSRAM) || defined (DATA_IN_ExtSDRAM)
 132:C:\Users\niels\Documents\Elektrotechniek\Jaar 2\ECS\ECSL\software\STM32\STM32Basis\HAL\gemeenschappelijk\Libraries\CMSIS\Device\ST\STM32F4xx\Source\Templates\system_stm32f4xx.c ****   static void SystemInit_ExtMemCtl(void); 
 133:C:\Users\niels\Documents\Elektrotechniek\Jaar 2\ECS\ECSL\software\STM32\STM32Basis\HAL\gemeenschappelijk\Libraries\CMSIS\Device\ST\STM32F4xx\Source\Templates\system_stm32f4xx.c **** #endif /* DATA_IN_ExtSRAM || DATA_IN_ExtSDRAM */
 134:C:\Users\niels\Documents\Elektrotechniek\Jaar 2\ECS\ECSL\software\STM32\STM32Basis\HAL\gemeenschappelijk\Libraries\CMSIS\Device\ST\STM32F4xx\Source\Templates\system_stm32f4xx.c **** 
 135:C:\Users\niels\Documents\Elektrotechniek\Jaar 2\ECS\ECSL\software\STM32\STM32Basis\HAL\gemeenschappelijk\Libraries\CMSIS\Device\ST\STM32F4xx\Source\Templates\system_stm32f4xx.c **** /**
 136:C:\Users\niels\Documents\Elektrotechniek\Jaar 2\ECS\ECSL\software\STM32\STM32Basis\HAL\gemeenschappelijk\Libraries\CMSIS\Device\ST\STM32F4xx\Source\Templates\system_stm32f4xx.c ****   * @}
 137:C:\Users\niels\Documents\Elektrotechniek\Jaar 2\ECS\ECSL\software\STM32\STM32Basis\HAL\gemeenschappelijk\Libraries\CMSIS\Device\ST\STM32F4xx\Source\Templates\system_stm32f4xx.c ****   */
 138:C:\Users\niels\Documents\Elektrotechniek\Jaar 2\ECS\ECSL\software\STM32\STM32Basis\HAL\gemeenschappelijk\Libraries\CMSIS\Device\ST\STM32F4xx\Source\Templates\system_stm32f4xx.c **** 
 139:C:\Users\niels\Documents\Elektrotechniek\Jaar 2\ECS\ECSL\software\STM32\STM32Basis\HAL\gemeenschappelijk\Libraries\CMSIS\Device\ST\STM32F4xx\Source\Templates\system_stm32f4xx.c **** /** @addtogroup STM32F4xx_System_Private_Functions
 140:C:\Users\niels\Documents\Elektrotechniek\Jaar 2\ECS\ECSL\software\STM32\STM32Basis\HAL\gemeenschappelijk\Libraries\CMSIS\Device\ST\STM32F4xx\Source\Templates\system_stm32f4xx.c ****   * @{
 141:C:\Users\niels\Documents\Elektrotechniek\Jaar 2\ECS\ECSL\software\STM32\STM32Basis\HAL\gemeenschappelijk\Libraries\CMSIS\Device\ST\STM32F4xx\Source\Templates\system_stm32f4xx.c ****   */
 142:C:\Users\niels\Documents\Elektrotechniek\Jaar 2\ECS\ECSL\software\STM32\STM32Basis\HAL\gemeenschappelijk\Libraries\CMSIS\Device\ST\STM32F4xx\Source\Templates\system_stm32f4xx.c **** 
 143:C:\Users\niels\Documents\Elektrotechniek\Jaar 2\ECS\ECSL\software\STM32\STM32Basis\HAL\gemeenschappelijk\Libraries\CMSIS\Device\ST\STM32F4xx\Source\Templates\system_stm32f4xx.c **** /**
 144:C:\Users\niels\Documents\Elektrotechniek\Jaar 2\ECS\ECSL\software\STM32\STM32Basis\HAL\gemeenschappelijk\Libraries\CMSIS\Device\ST\STM32F4xx\Source\Templates\system_stm32f4xx.c ****   * @brief  Setup the microcontroller system
 145:C:\Users\niels\Documents\Elektrotechniek\Jaar 2\ECS\ECSL\software\STM32\STM32Basis\HAL\gemeenschappelijk\Libraries\CMSIS\Device\ST\STM32F4xx\Source\Templates\system_stm32f4xx.c ****   *         Initialize the FPU setting, vector table location and External memory 
 146:C:\Users\niels\Documents\Elektrotechniek\Jaar 2\ECS\ECSL\software\STM32\STM32Basis\HAL\gemeenschappelijk\Libraries\CMSIS\Device\ST\STM32F4xx\Source\Templates\system_stm32f4xx.c ****   *         configuration.
 147:C:\Users\niels\Documents\Elektrotechniek\Jaar 2\ECS\ECSL\software\STM32\STM32Basis\HAL\gemeenschappelijk\Libraries\CMSIS\Device\ST\STM32F4xx\Source\Templates\system_stm32f4xx.c ****   * @param  None
 148:C:\Users\niels\Documents\Elektrotechniek\Jaar 2\ECS\ECSL\software\STM32\STM32Basis\HAL\gemeenschappelijk\Libraries\CMSIS\Device\ST\STM32F4xx\Source\Templates\system_stm32f4xx.c ****   * @retval None
 149:C:\Users\niels\Documents\Elektrotechniek\Jaar 2\ECS\ECSL\software\STM32\STM32Basis\HAL\gemeenschappelijk\Libraries\CMSIS\Device\ST\STM32F4xx\Source\Templates\system_stm32f4xx.c ****   */
 150:C:\Users\niels\Documents\Elektrotechniek\Jaar 2\ECS\ECSL\software\STM32\STM32Basis\HAL\gemeenschappelijk\Libraries\CMSIS\Device\ST\STM32F4xx\Source\Templates\system_stm32f4xx.c **** void SystemInit(void)
 151:C:\Users\niels\Documents\Elektrotechniek\Jaar 2\ECS\ECSL\software\STM32\STM32Basis\HAL\gemeenschappelijk\Libraries\CMSIS\Device\ST\STM32F4xx\Source\Templates\system_stm32f4xx.c **** {
  52              	 .loc 1 151 1
  53              	 .cfi_startproc
  54              	 
  55              	 
  56              	 
  57 0000 80B4     	 push {r7}
  58              	 .cfi_def_cfa_offset 4
  59              	 .cfi_offset 7,-4
  60 0002 00AF     	 add r7,sp,#0
  61              	 .cfi_def_cfa_register 7
 152:C:\Users\niels\Documents\Elektrotechniek\Jaar 2\ECS\ECSL\software\STM32\STM32Basis\HAL\gemeenschappelijk\Libraries\CMSIS\Device\ST\STM32F4xx\Source\Templates\system_stm32f4xx.c ****   /* FPU settings ------------------------------------------------------------*/
 153:C:\Users\niels\Documents\Elektrotechniek\Jaar 2\ECS\ECSL\software\STM32\STM32Basis\HAL\gemeenschappelijk\Libraries\CMSIS\Device\ST\STM32F4xx\Source\Templates\system_stm32f4xx.c ****   #if (__FPU_PRESENT == 1) && (__FPU_USED == 1)
 154:C:\Users\niels\Documents\Elektrotechniek\Jaar 2\ECS\ECSL\software\STM32\STM32Basis\HAL\gemeenschappelijk\Libraries\CMSIS\Device\ST\STM32F4xx\Source\Templates\system_stm32f4xx.c ****     SCB->CPACR |= ((3UL << 10*2)|(3UL << 11*2));  /* set CP10 and CP11 Full Access */
  62              	 .loc 1 154 16
  63 0004 084B     	 ldr r3,.L2
  64 0006 D3F88830 	 ldr r3,[r3,#136]
  65 000a 074A     	 ldr r2,.L2
  66 000c 43F47003 	 orr r3,r3,#15728640
  67 0010 C2F88830 	 str r3,[r2,#136]
 155:C:\Users\niels\Documents\Elektrotechniek\Jaar 2\ECS\ECSL\software\STM32\STM32Basis\HAL\gemeenschappelijk\Libraries\CMSIS\Device\ST\STM32F4xx\Source\Templates\system_stm32f4xx.c ****   #endif
 156:C:\Users\niels\Documents\Elektrotechniek\Jaar 2\ECS\ECSL\software\STM32\STM32Basis\HAL\gemeenschappelijk\Libraries\CMSIS\Device\ST\STM32F4xx\Source\Templates\system_stm32f4xx.c **** 
 157:C:\Users\niels\Documents\Elektrotechniek\Jaar 2\ECS\ECSL\software\STM32\STM32Basis\HAL\gemeenschappelijk\Libraries\CMSIS\Device\ST\STM32F4xx\Source\Templates\system_stm32f4xx.c **** #if defined (DATA_IN_ExtSRAM) || defined (DATA_IN_ExtSDRAM)
ARM GAS   			page 5


 158:C:\Users\niels\Documents\Elektrotechniek\Jaar 2\ECS\ECSL\software\STM32\STM32Basis\HAL\gemeenschappelijk\Libraries\CMSIS\Device\ST\STM32F4xx\Source\Templates\system_stm32f4xx.c ****   SystemInit_ExtMemCtl(); 
 159:C:\Users\niels\Documents\Elektrotechniek\Jaar 2\ECS\ECSL\software\STM32\STM32Basis\HAL\gemeenschappelijk\Libraries\CMSIS\Device\ST\STM32F4xx\Source\Templates\system_stm32f4xx.c **** #endif /* DATA_IN_ExtSRAM || DATA_IN_ExtSDRAM */
 160:C:\Users\niels\Documents\Elektrotechniek\Jaar 2\ECS\ECSL\software\STM32\STM32Basis\HAL\gemeenschappelijk\Libraries\CMSIS\Device\ST\STM32F4xx\Source\Templates\system_stm32f4xx.c **** 
 161:C:\Users\niels\Documents\Elektrotechniek\Jaar 2\ECS\ECSL\software\STM32\STM32Basis\HAL\gemeenschappelijk\Libraries\CMSIS\Device\ST\STM32F4xx\Source\Templates\system_stm32f4xx.c ****   /* Configure the Vector Table location add offset address ------------------*/
 162:C:\Users\niels\Documents\Elektrotechniek\Jaar 2\ECS\ECSL\software\STM32\STM32Basis\HAL\gemeenschappelijk\Libraries\CMSIS\Device\ST\STM32F4xx\Source\Templates\system_stm32f4xx.c **** #ifdef VECT_TAB_SRAM
 163:C:\Users\niels\Documents\Elektrotechniek\Jaar 2\ECS\ECSL\software\STM32\STM32Basis\HAL\gemeenschappelijk\Libraries\CMSIS\Device\ST\STM32F4xx\Source\Templates\system_stm32f4xx.c ****   SCB->VTOR = SRAM_BASE | VECT_TAB_OFFSET; /* Vector Table Relocation in Internal SRAM */
 164:C:\Users\niels\Documents\Elektrotechniek\Jaar 2\ECS\ECSL\software\STM32\STM32Basis\HAL\gemeenschappelijk\Libraries\CMSIS\Device\ST\STM32F4xx\Source\Templates\system_stm32f4xx.c **** #else
 165:C:\Users\niels\Documents\Elektrotechniek\Jaar 2\ECS\ECSL\software\STM32\STM32Basis\HAL\gemeenschappelijk\Libraries\CMSIS\Device\ST\STM32F4xx\Source\Templates\system_stm32f4xx.c ****   SCB->VTOR = FLASH_BASE | VECT_TAB_OFFSET; /* Vector Table Relocation in Internal FLASH */
  68              	 .loc 1 165 8
  69 0014 044B     	 ldr r3,.L2
  70              	 .loc 1 165 13
  71 0016 4FF00062 	 mov r2,#134217728
  72 001a 9A60     	 str r2,[r3,#8]
 166:C:\Users\niels\Documents\Elektrotechniek\Jaar 2\ECS\ECSL\software\STM32\STM32Basis\HAL\gemeenschappelijk\Libraries\CMSIS\Device\ST\STM32F4xx\Source\Templates\system_stm32f4xx.c **** #endif
 167:C:\Users\niels\Documents\Elektrotechniek\Jaar 2\ECS\ECSL\software\STM32\STM32Basis\HAL\gemeenschappelijk\Libraries\CMSIS\Device\ST\STM32F4xx\Source\Templates\system_stm32f4xx.c **** }
  73              	 .loc 1 167 1
  74 001c 00BF     	 nop
  75 001e BD46     	 mov sp,r7
  76              	 .cfi_def_cfa_register 13
  77              	 
  78 0020 5DF8047B 	 ldr r7,[sp],#4
  79              	 .cfi_restore 7
  80              	 .cfi_def_cfa_offset 0
  81 0024 7047     	 bx lr
  82              	.L3:
  83 0026 00BF     	 .align 2
  84              	.L2:
  85 0028 00ED00E0 	 .word -536810240
  86              	 .cfi_endproc
  87              	.LFE123:
  88              	 .cantunwind
  89              	 .fnend
  90              	 .size SystemInit,.-SystemInit
  91              	 .section .text.SystemCoreClockUpdate,"ax",%progbits
  92              	 .align 1
  93              	 .global SystemCoreClockUpdate
  94              	 .syntax unified
  95              	 .thumb
  96              	 .thumb_func
  97              	 .type SystemCoreClockUpdate,%function
  98              	SystemCoreClockUpdate:
  99              	 .fnstart
 100              	.LFB124:
 168:C:\Users\niels\Documents\Elektrotechniek\Jaar 2\ECS\ECSL\software\STM32\STM32Basis\HAL\gemeenschappelijk\Libraries\CMSIS\Device\ST\STM32F4xx\Source\Templates\system_stm32f4xx.c **** 
 169:C:\Users\niels\Documents\Elektrotechniek\Jaar 2\ECS\ECSL\software\STM32\STM32Basis\HAL\gemeenschappelijk\Libraries\CMSIS\Device\ST\STM32F4xx\Source\Templates\system_stm32f4xx.c **** /**
 170:C:\Users\niels\Documents\Elektrotechniek\Jaar 2\ECS\ECSL\software\STM32\STM32Basis\HAL\gemeenschappelijk\Libraries\CMSIS\Device\ST\STM32F4xx\Source\Templates\system_stm32f4xx.c ****    * @brief  Update SystemCoreClock variable according to Clock Register Values.
 171:C:\Users\niels\Documents\Elektrotechniek\Jaar 2\ECS\ECSL\software\STM32\STM32Basis\HAL\gemeenschappelijk\Libraries\CMSIS\Device\ST\STM32F4xx\Source\Templates\system_stm32f4xx.c ****   *         The SystemCoreClock variable contains the core clock (HCLK), it can
 172:C:\Users\niels\Documents\Elektrotechniek\Jaar 2\ECS\ECSL\software\STM32\STM32Basis\HAL\gemeenschappelijk\Libraries\CMSIS\Device\ST\STM32F4xx\Source\Templates\system_stm32f4xx.c ****   *         be used by the user application to setup the SysTick timer or configure
 173:C:\Users\niels\Documents\Elektrotechniek\Jaar 2\ECS\ECSL\software\STM32\STM32Basis\HAL\gemeenschappelijk\Libraries\CMSIS\Device\ST\STM32F4xx\Source\Templates\system_stm32f4xx.c ****   *         other parameters.
 174:C:\Users\niels\Documents\Elektrotechniek\Jaar 2\ECS\ECSL\software\STM32\STM32Basis\HAL\gemeenschappelijk\Libraries\CMSIS\Device\ST\STM32F4xx\Source\Templates\system_stm32f4xx.c ****   *           
 175:C:\Users\niels\Documents\Elektrotechniek\Jaar 2\ECS\ECSL\software\STM32\STM32Basis\HAL\gemeenschappelijk\Libraries\CMSIS\Device\ST\STM32F4xx\Source\Templates\system_stm32f4xx.c ****   * @note   Each time the core clock (HCLK) changes, this function must be called
 176:C:\Users\niels\Documents\Elektrotechniek\Jaar 2\ECS\ECSL\software\STM32\STM32Basis\HAL\gemeenschappelijk\Libraries\CMSIS\Device\ST\STM32F4xx\Source\Templates\system_stm32f4xx.c ****   *         to update SystemCoreClock variable value. Otherwise, any configuration
 177:C:\Users\niels\Documents\Elektrotechniek\Jaar 2\ECS\ECSL\software\STM32\STM32Basis\HAL\gemeenschappelijk\Libraries\CMSIS\Device\ST\STM32F4xx\Source\Templates\system_stm32f4xx.c ****   *         based on this variable will be incorrect.         
 178:C:\Users\niels\Documents\Elektrotechniek\Jaar 2\ECS\ECSL\software\STM32\STM32Basis\HAL\gemeenschappelijk\Libraries\CMSIS\Device\ST\STM32F4xx\Source\Templates\system_stm32f4xx.c ****   *     
 179:C:\Users\niels\Documents\Elektrotechniek\Jaar 2\ECS\ECSL\software\STM32\STM32Basis\HAL\gemeenschappelijk\Libraries\CMSIS\Device\ST\STM32F4xx\Source\Templates\system_stm32f4xx.c ****   * @note   - The system frequency computed by this function is not the real 
 180:C:\Users\niels\Documents\Elektrotechniek\Jaar 2\ECS\ECSL\software\STM32\STM32Basis\HAL\gemeenschappelijk\Libraries\CMSIS\Device\ST\STM32F4xx\Source\Templates\system_stm32f4xx.c ****   *           frequency in the chip. It is calculated based on the predefined 
 181:C:\Users\niels\Documents\Elektrotechniek\Jaar 2\ECS\ECSL\software\STM32\STM32Basis\HAL\gemeenschappelijk\Libraries\CMSIS\Device\ST\STM32F4xx\Source\Templates\system_stm32f4xx.c ****   *           constant and the selected clock source:
ARM GAS   			page 6


 182:C:\Users\niels\Documents\Elektrotechniek\Jaar 2\ECS\ECSL\software\STM32\STM32Basis\HAL\gemeenschappelijk\Libraries\CMSIS\Device\ST\STM32F4xx\Source\Templates\system_stm32f4xx.c ****   *             
 183:C:\Users\niels\Documents\Elektrotechniek\Jaar 2\ECS\ECSL\software\STM32\STM32Basis\HAL\gemeenschappelijk\Libraries\CMSIS\Device\ST\STM32F4xx\Source\Templates\system_stm32f4xx.c ****   *           - If SYSCLK source is HSI, SystemCoreClock will contain the HSI_VALUE(*)
 184:C:\Users\niels\Documents\Elektrotechniek\Jaar 2\ECS\ECSL\software\STM32\STM32Basis\HAL\gemeenschappelijk\Libraries\CMSIS\Device\ST\STM32F4xx\Source\Templates\system_stm32f4xx.c ****   *                                              
 185:C:\Users\niels\Documents\Elektrotechniek\Jaar 2\ECS\ECSL\software\STM32\STM32Basis\HAL\gemeenschappelijk\Libraries\CMSIS\Device\ST\STM32F4xx\Source\Templates\system_stm32f4xx.c ****   *           - If SYSCLK source is HSE, SystemCoreClock will contain the HSE_VALUE(**)
 186:C:\Users\niels\Documents\Elektrotechniek\Jaar 2\ECS\ECSL\software\STM32\STM32Basis\HAL\gemeenschappelijk\Libraries\CMSIS\Device\ST\STM32F4xx\Source\Templates\system_stm32f4xx.c ****   *                          
 187:C:\Users\niels\Documents\Elektrotechniek\Jaar 2\ECS\ECSL\software\STM32\STM32Basis\HAL\gemeenschappelijk\Libraries\CMSIS\Device\ST\STM32F4xx\Source\Templates\system_stm32f4xx.c ****   *           - If SYSCLK source is PLL, SystemCoreClock will contain the HSE_VALUE(**) 
 188:C:\Users\niels\Documents\Elektrotechniek\Jaar 2\ECS\ECSL\software\STM32\STM32Basis\HAL\gemeenschappelijk\Libraries\CMSIS\Device\ST\STM32F4xx\Source\Templates\system_stm32f4xx.c ****   *             or HSI_VALUE(*) multiplied/divided by the PLL factors.
 189:C:\Users\niels\Documents\Elektrotechniek\Jaar 2\ECS\ECSL\software\STM32\STM32Basis\HAL\gemeenschappelijk\Libraries\CMSIS\Device\ST\STM32F4xx\Source\Templates\system_stm32f4xx.c ****   *         
 190:C:\Users\niels\Documents\Elektrotechniek\Jaar 2\ECS\ECSL\software\STM32\STM32Basis\HAL\gemeenschappelijk\Libraries\CMSIS\Device\ST\STM32F4xx\Source\Templates\system_stm32f4xx.c ****   *         (*) HSI_VALUE is a constant defined in stm32f4xx_hal_conf.h file (default value
 191:C:\Users\niels\Documents\Elektrotechniek\Jaar 2\ECS\ECSL\software\STM32\STM32Basis\HAL\gemeenschappelijk\Libraries\CMSIS\Device\ST\STM32F4xx\Source\Templates\system_stm32f4xx.c ****   *             16 MHz) but the real value may vary depending on the variations
 192:C:\Users\niels\Documents\Elektrotechniek\Jaar 2\ECS\ECSL\software\STM32\STM32Basis\HAL\gemeenschappelijk\Libraries\CMSIS\Device\ST\STM32F4xx\Source\Templates\system_stm32f4xx.c ****   *             in voltage and temperature.   
 193:C:\Users\niels\Documents\Elektrotechniek\Jaar 2\ECS\ECSL\software\STM32\STM32Basis\HAL\gemeenschappelijk\Libraries\CMSIS\Device\ST\STM32F4xx\Source\Templates\system_stm32f4xx.c ****   *    
 194:C:\Users\niels\Documents\Elektrotechniek\Jaar 2\ECS\ECSL\software\STM32\STM32Basis\HAL\gemeenschappelijk\Libraries\CMSIS\Device\ST\STM32F4xx\Source\Templates\system_stm32f4xx.c ****   *         (**) HSE_VALUE is a constant defined in stm32f4xx_hal_conf.h file (its value
 195:C:\Users\niels\Documents\Elektrotechniek\Jaar 2\ECS\ECSL\software\STM32\STM32Basis\HAL\gemeenschappelijk\Libraries\CMSIS\Device\ST\STM32F4xx\Source\Templates\system_stm32f4xx.c ****   *              depends on the application requirements), user has to ensure that HSE_VALUE
 196:C:\Users\niels\Documents\Elektrotechniek\Jaar 2\ECS\ECSL\software\STM32\STM32Basis\HAL\gemeenschappelijk\Libraries\CMSIS\Device\ST\STM32F4xx\Source\Templates\system_stm32f4xx.c ****   *              is same as the real frequency of the crystal used. Otherwise, this function
 197:C:\Users\niels\Documents\Elektrotechniek\Jaar 2\ECS\ECSL\software\STM32\STM32Basis\HAL\gemeenschappelijk\Libraries\CMSIS\Device\ST\STM32F4xx\Source\Templates\system_stm32f4xx.c ****   *              may have wrong result.
 198:C:\Users\niels\Documents\Elektrotechniek\Jaar 2\ECS\ECSL\software\STM32\STM32Basis\HAL\gemeenschappelijk\Libraries\CMSIS\Device\ST\STM32F4xx\Source\Templates\system_stm32f4xx.c ****   *                
 199:C:\Users\niels\Documents\Elektrotechniek\Jaar 2\ECS\ECSL\software\STM32\STM32Basis\HAL\gemeenschappelijk\Libraries\CMSIS\Device\ST\STM32F4xx\Source\Templates\system_stm32f4xx.c ****   *         - The result of this function could be not correct when using fractional
 200:C:\Users\niels\Documents\Elektrotechniek\Jaar 2\ECS\ECSL\software\STM32\STM32Basis\HAL\gemeenschappelijk\Libraries\CMSIS\Device\ST\STM32F4xx\Source\Templates\system_stm32f4xx.c ****   *           value for HSE crystal.
 201:C:\Users\niels\Documents\Elektrotechniek\Jaar 2\ECS\ECSL\software\STM32\STM32Basis\HAL\gemeenschappelijk\Libraries\CMSIS\Device\ST\STM32F4xx\Source\Templates\system_stm32f4xx.c ****   *     
 202:C:\Users\niels\Documents\Elektrotechniek\Jaar 2\ECS\ECSL\software\STM32\STM32Basis\HAL\gemeenschappelijk\Libraries\CMSIS\Device\ST\STM32F4xx\Source\Templates\system_stm32f4xx.c ****   * @param  None
 203:C:\Users\niels\Documents\Elektrotechniek\Jaar 2\ECS\ECSL\software\STM32\STM32Basis\HAL\gemeenschappelijk\Libraries\CMSIS\Device\ST\STM32F4xx\Source\Templates\system_stm32f4xx.c ****   * @retval None
 204:C:\Users\niels\Documents\Elektrotechniek\Jaar 2\ECS\ECSL\software\STM32\STM32Basis\HAL\gemeenschappelijk\Libraries\CMSIS\Device\ST\STM32F4xx\Source\Templates\system_stm32f4xx.c ****   */
 205:C:\Users\niels\Documents\Elektrotechniek\Jaar 2\ECS\ECSL\software\STM32\STM32Basis\HAL\gemeenschappelijk\Libraries\CMSIS\Device\ST\STM32F4xx\Source\Templates\system_stm32f4xx.c **** void SystemCoreClockUpdate(void)
 206:C:\Users\niels\Documents\Elektrotechniek\Jaar 2\ECS\ECSL\software\STM32\STM32Basis\HAL\gemeenschappelijk\Libraries\CMSIS\Device\ST\STM32F4xx\Source\Templates\system_stm32f4xx.c **** {
 101              	 .loc 1 206 1
 102              	 .cfi_startproc
 103              	 
 104              	 
 105              	 
 106 0000 80B4     	 push {r7}
 107              	 .cfi_def_cfa_offset 4
 108              	 .cfi_offset 7,-4
 109 0002 87B0     	 sub sp,sp,#28
 110              	 .cfi_def_cfa_offset 32
 111 0004 00AF     	 add r7,sp,#0
 112              	 .cfi_def_cfa_register 7
 207:C:\Users\niels\Documents\Elektrotechniek\Jaar 2\ECS\ECSL\software\STM32\STM32Basis\HAL\gemeenschappelijk\Libraries\CMSIS\Device\ST\STM32F4xx\Source\Templates\system_stm32f4xx.c ****   uint32_t tmp = 0, pllvco = 0, pllp = 2, pllsource = 0, pllm = 2;
 113              	 .loc 1 207 12
 114 0006 0023     	 movs r3,#0
 115 0008 3B61     	 str r3,[r7,#16]
 116              	 .loc 1 207 21
 117 000a 0023     	 movs r3,#0
 118 000c 7B61     	 str r3,[r7,#20]
 119              	 .loc 1 207 33
 120 000e 0223     	 movs r3,#2
 121 0010 FB60     	 str r3,[r7,#12]
 122              	 .loc 1 207 43
 123 0012 0023     	 movs r3,#0
 124 0014 BB60     	 str r3,[r7,#8]
 125              	 .loc 1 207 58
 126 0016 0223     	 movs r3,#2
 127 0018 7B60     	 str r3,[r7,#4]
 208:C:\Users\niels\Documents\Elektrotechniek\Jaar 2\ECS\ECSL\software\STM32\STM32Basis\HAL\gemeenschappelijk\Libraries\CMSIS\Device\ST\STM32F4xx\Source\Templates\system_stm32f4xx.c ****   
 209:C:\Users\niels\Documents\Elektrotechniek\Jaar 2\ECS\ECSL\software\STM32\STM32Basis\HAL\gemeenschappelijk\Libraries\CMSIS\Device\ST\STM32F4xx\Source\Templates\system_stm32f4xx.c ****   /* Get SYSCLK source -------------------------------------------------------*/
 210:C:\Users\niels\Documents\Elektrotechniek\Jaar 2\ECS\ECSL\software\STM32\STM32Basis\HAL\gemeenschappelijk\Libraries\CMSIS\Device\ST\STM32F4xx\Source\Templates\system_stm32f4xx.c ****   tmp = RCC->CFGR & RCC_CFGR_SWS;
 128              	 .loc 1 210 14
ARM GAS   			page 7


 129 001a 344B     	 ldr r3,.L12
 130 001c 9B68     	 ldr r3,[r3,#8]
 131              	 .loc 1 210 7
 132 001e 03F00C03 	 and r3,r3,#12
 133 0022 3B61     	 str r3,[r7,#16]
 211:C:\Users\niels\Documents\Elektrotechniek\Jaar 2\ECS\ECSL\software\STM32\STM32Basis\HAL\gemeenschappelijk\Libraries\CMSIS\Device\ST\STM32F4xx\Source\Templates\system_stm32f4xx.c **** 
 212:C:\Users\niels\Documents\Elektrotechniek\Jaar 2\ECS\ECSL\software\STM32\STM32Basis\HAL\gemeenschappelijk\Libraries\CMSIS\Device\ST\STM32F4xx\Source\Templates\system_stm32f4xx.c ****   switch (tmp)
 134              	 .loc 1 212 3
 135 0024 3B69     	 ldr r3,[r7,#16]
 136 0026 082B     	 cmp r3,#8
 137 0028 11D0     	 beq .L5
 138 002a 3B69     	 ldr r3,[r7,#16]
 139 002c 082B     	 cmp r3,#8
 140 002e 44D8     	 bhi .L6
 141 0030 3B69     	 ldr r3,[r7,#16]
 142 0032 002B     	 cmp r3,#0
 143 0034 03D0     	 beq .L7
 144 0036 3B69     	 ldr r3,[r7,#16]
 145 0038 042B     	 cmp r3,#4
 146 003a 04D0     	 beq .L8
 147 003c 3DE0     	 b .L6
 148              	.L7:
 213:C:\Users\niels\Documents\Elektrotechniek\Jaar 2\ECS\ECSL\software\STM32\STM32Basis\HAL\gemeenschappelijk\Libraries\CMSIS\Device\ST\STM32F4xx\Source\Templates\system_stm32f4xx.c ****   {
 214:C:\Users\niels\Documents\Elektrotechniek\Jaar 2\ECS\ECSL\software\STM32\STM32Basis\HAL\gemeenschappelijk\Libraries\CMSIS\Device\ST\STM32F4xx\Source\Templates\system_stm32f4xx.c ****     case 0x00:  /* HSI used as system clock source */
 215:C:\Users\niels\Documents\Elektrotechniek\Jaar 2\ECS\ECSL\software\STM32\STM32Basis\HAL\gemeenschappelijk\Libraries\CMSIS\Device\ST\STM32F4xx\Source\Templates\system_stm32f4xx.c ****       SystemCoreClock = HSI_VALUE;
 149              	 .loc 1 215 23
 150 003e 2C4B     	 ldr r3,.L12+4
 151 0040 2C4A     	 ldr r2,.L12+8
 152 0042 1A60     	 str r2,[r3]
 216:C:\Users\niels\Documents\Elektrotechniek\Jaar 2\ECS\ECSL\software\STM32\STM32Basis\HAL\gemeenschappelijk\Libraries\CMSIS\Device\ST\STM32F4xx\Source\Templates\system_stm32f4xx.c ****       break;
 153              	 .loc 1 216 7
 154 0044 3DE0     	 b .L9
 155              	.L8:
 217:C:\Users\niels\Documents\Elektrotechniek\Jaar 2\ECS\ECSL\software\STM32\STM32Basis\HAL\gemeenschappelijk\Libraries\CMSIS\Device\ST\STM32F4xx\Source\Templates\system_stm32f4xx.c ****     case 0x04:  /* HSE used as system clock source */
 218:C:\Users\niels\Documents\Elektrotechniek\Jaar 2\ECS\ECSL\software\STM32\STM32Basis\HAL\gemeenschappelijk\Libraries\CMSIS\Device\ST\STM32F4xx\Source\Templates\system_stm32f4xx.c ****       SystemCoreClock = HSE_VALUE;
 156              	 .loc 1 218 23
 157 0046 2A4B     	 ldr r3,.L12+4
 158 0048 2B4A     	 ldr r2,.L12+12
 159 004a 1A60     	 str r2,[r3]
 219:C:\Users\niels\Documents\Elektrotechniek\Jaar 2\ECS\ECSL\software\STM32\STM32Basis\HAL\gemeenschappelijk\Libraries\CMSIS\Device\ST\STM32F4xx\Source\Templates\system_stm32f4xx.c ****       break;
 160              	 .loc 1 219 7
 161 004c 39E0     	 b .L9
 162              	.L5:
 220:C:\Users\niels\Documents\Elektrotechniek\Jaar 2\ECS\ECSL\software\STM32\STM32Basis\HAL\gemeenschappelijk\Libraries\CMSIS\Device\ST\STM32F4xx\Source\Templates\system_stm32f4xx.c ****     case 0x08:  /* PLL used as system clock source */
 221:C:\Users\niels\Documents\Elektrotechniek\Jaar 2\ECS\ECSL\software\STM32\STM32Basis\HAL\gemeenschappelijk\Libraries\CMSIS\Device\ST\STM32F4xx\Source\Templates\system_stm32f4xx.c **** 
 222:C:\Users\niels\Documents\Elektrotechniek\Jaar 2\ECS\ECSL\software\STM32\STM32Basis\HAL\gemeenschappelijk\Libraries\CMSIS\Device\ST\STM32F4xx\Source\Templates\system_stm32f4xx.c ****       /* PLL_VCO = (HSE_VALUE or HSI_VALUE / PLL_M) * PLL_N
 223:C:\Users\niels\Documents\Elektrotechniek\Jaar 2\ECS\ECSL\software\STM32\STM32Basis\HAL\gemeenschappelijk\Libraries\CMSIS\Device\ST\STM32F4xx\Source\Templates\system_stm32f4xx.c ****          SYSCLK = PLL_VCO / PLL_P
 224:C:\Users\niels\Documents\Elektrotechniek\Jaar 2\ECS\ECSL\software\STM32\STM32Basis\HAL\gemeenschappelijk\Libraries\CMSIS\Device\ST\STM32F4xx\Source\Templates\system_stm32f4xx.c ****          */    
 225:C:\Users\niels\Documents\Elektrotechniek\Jaar 2\ECS\ECSL\software\STM32\STM32Basis\HAL\gemeenschappelijk\Libraries\CMSIS\Device\ST\STM32F4xx\Source\Templates\system_stm32f4xx.c ****       pllsource = (RCC->PLLCFGR & RCC_PLLCFGR_PLLSRC) >> 22;
 163              	 .loc 1 225 25
 164 004e 274B     	 ldr r3,.L12
 165 0050 5B68     	 ldr r3,[r3,#4]
 166              	 .loc 1 225 55
 167 0052 9B0D     	 lsrs r3,r3,#22
 168              	 .loc 1 225 17
 169 0054 03F00103 	 and r3,r3,#1
 170 0058 BB60     	 str r3,[r7,#8]
ARM GAS   			page 8


 226:C:\Users\niels\Documents\Elektrotechniek\Jaar 2\ECS\ECSL\software\STM32\STM32Basis\HAL\gemeenschappelijk\Libraries\CMSIS\Device\ST\STM32F4xx\Source\Templates\system_stm32f4xx.c ****       pllm = RCC->PLLCFGR & RCC_PLLCFGR_PLLM;
 171              	 .loc 1 226 19
 172 005a 244B     	 ldr r3,.L12
 173 005c 5B68     	 ldr r3,[r3,#4]
 174              	 .loc 1 226 12
 175 005e 03F03F03 	 and r3,r3,#63
 176 0062 7B60     	 str r3,[r7,#4]
 227:C:\Users\niels\Documents\Elektrotechniek\Jaar 2\ECS\ECSL\software\STM32\STM32Basis\HAL\gemeenschappelijk\Libraries\CMSIS\Device\ST\STM32F4xx\Source\Templates\system_stm32f4xx.c ****       
 228:C:\Users\niels\Documents\Elektrotechniek\Jaar 2\ECS\ECSL\software\STM32\STM32Basis\HAL\gemeenschappelijk\Libraries\CMSIS\Device\ST\STM32F4xx\Source\Templates\system_stm32f4xx.c ****       if (pllsource != 0)
 177              	 .loc 1 228 7
 178 0064 BB68     	 ldr r3,[r7,#8]
 179 0066 002B     	 cmp r3,#0
 180 0068 0CD0     	 beq .L10
 229:C:\Users\niels\Documents\Elektrotechniek\Jaar 2\ECS\ECSL\software\STM32\STM32Basis\HAL\gemeenschappelijk\Libraries\CMSIS\Device\ST\STM32F4xx\Source\Templates\system_stm32f4xx.c ****       {
 230:C:\Users\niels\Documents\Elektrotechniek\Jaar 2\ECS\ECSL\software\STM32\STM32Basis\HAL\gemeenschappelijk\Libraries\CMSIS\Device\ST\STM32F4xx\Source\Templates\system_stm32f4xx.c ****         /* HSE used as PLL clock source */
 231:C:\Users\niels\Documents\Elektrotechniek\Jaar 2\ECS\ECSL\software\STM32\STM32Basis\HAL\gemeenschappelijk\Libraries\CMSIS\Device\ST\STM32F4xx\Source\Templates\system_stm32f4xx.c ****         pllvco = (HSE_VALUE / pllm) * ((RCC->PLLCFGR & RCC_PLLCFGR_PLLN) >> 6);
 181              	 .loc 1 231 29
 182 006a 234A     	 ldr r2,.L12+12
 183 006c 7B68     	 ldr r3,[r7,#4]
 184 006e B2FBF3F3 	 udiv r3,r2,r3
 185              	 .loc 1 231 46
 186 0072 1E4A     	 ldr r2,.L12
 187 0074 5268     	 ldr r2,[r2,#4]
 188              	 .loc 1 231 74
 189 0076 9209     	 lsrs r2,r2,#6
 190 0078 C2F30802 	 ubfx r2,r2,#0,#9
 191              	 .loc 1 231 16
 192 007c 02FB03F3 	 mul r3,r2,r3
 193 0080 7B61     	 str r3,[r7,#20]
 194 0082 0BE0     	 b .L11
 195              	.L10:
 232:C:\Users\niels\Documents\Elektrotechniek\Jaar 2\ECS\ECSL\software\STM32\STM32Basis\HAL\gemeenschappelijk\Libraries\CMSIS\Device\ST\STM32F4xx\Source\Templates\system_stm32f4xx.c ****       }
 233:C:\Users\niels\Documents\Elektrotechniek\Jaar 2\ECS\ECSL\software\STM32\STM32Basis\HAL\gemeenschappelijk\Libraries\CMSIS\Device\ST\STM32F4xx\Source\Templates\system_stm32f4xx.c ****       else
 234:C:\Users\niels\Documents\Elektrotechniek\Jaar 2\ECS\ECSL\software\STM32\STM32Basis\HAL\gemeenschappelijk\Libraries\CMSIS\Device\ST\STM32F4xx\Source\Templates\system_stm32f4xx.c ****       {
 235:C:\Users\niels\Documents\Elektrotechniek\Jaar 2\ECS\ECSL\software\STM32\STM32Basis\HAL\gemeenschappelijk\Libraries\CMSIS\Device\ST\STM32F4xx\Source\Templates\system_stm32f4xx.c ****         /* HSI used as PLL clock source */
 236:C:\Users\niels\Documents\Elektrotechniek\Jaar 2\ECS\ECSL\software\STM32\STM32Basis\HAL\gemeenschappelijk\Libraries\CMSIS\Device\ST\STM32F4xx\Source\Templates\system_stm32f4xx.c ****         pllvco = (HSI_VALUE / pllm) * ((RCC->PLLCFGR & RCC_PLLCFGR_PLLN) >> 6);
 196              	 .loc 1 236 29
 197 0084 1B4A     	 ldr r2,.L12+8
 198 0086 7B68     	 ldr r3,[r7,#4]
 199 0088 B2FBF3F3 	 udiv r3,r2,r3
 200              	 .loc 1 236 46
 201 008c 174A     	 ldr r2,.L12
 202 008e 5268     	 ldr r2,[r2,#4]
 203              	 .loc 1 236 74
 204 0090 9209     	 lsrs r2,r2,#6
 205 0092 C2F30802 	 ubfx r2,r2,#0,#9
 206              	 .loc 1 236 16
 207 0096 02FB03F3 	 mul r3,r2,r3
 208 009a 7B61     	 str r3,[r7,#20]
 209              	.L11:
 237:C:\Users\niels\Documents\Elektrotechniek\Jaar 2\ECS\ECSL\software\STM32\STM32Basis\HAL\gemeenschappelijk\Libraries\CMSIS\Device\ST\STM32F4xx\Source\Templates\system_stm32f4xx.c ****       }
 238:C:\Users\niels\Documents\Elektrotechniek\Jaar 2\ECS\ECSL\software\STM32\STM32Basis\HAL\gemeenschappelijk\Libraries\CMSIS\Device\ST\STM32F4xx\Source\Templates\system_stm32f4xx.c **** 
 239:C:\Users\niels\Documents\Elektrotechniek\Jaar 2\ECS\ECSL\software\STM32\STM32Basis\HAL\gemeenschappelijk\Libraries\CMSIS\Device\ST\STM32F4xx\Source\Templates\system_stm32f4xx.c ****       pllp = (((RCC->PLLCFGR & RCC_PLLCFGR_PLLP) >>16) + 1 ) *2;
 210              	 .loc 1 239 22
 211 009c 134B     	 ldr r3,.L12
 212 009e 5B68     	 ldr r3,[r3,#4]
 213              	 .loc 1 239 50
ARM GAS   			page 9


 214 00a0 1B0C     	 lsrs r3,r3,#16
 215 00a2 03F00303 	 and r3,r3,#3
 216              	 .loc 1 239 56
 217 00a6 0133     	 adds r3,r3,#1
 218              	 .loc 1 239 12
 219 00a8 5B00     	 lsls r3,r3,#1
 220 00aa FB60     	 str r3,[r7,#12]
 240:C:\Users\niels\Documents\Elektrotechniek\Jaar 2\ECS\ECSL\software\STM32\STM32Basis\HAL\gemeenschappelijk\Libraries\CMSIS\Device\ST\STM32F4xx\Source\Templates\system_stm32f4xx.c ****       SystemCoreClock = pllvco/pllp;
 221              	 .loc 1 240 31
 222 00ac 7A69     	 ldr r2,[r7,#20]
 223 00ae FB68     	 ldr r3,[r7,#12]
 224 00b0 B2FBF3F3 	 udiv r3,r2,r3
 225              	 .loc 1 240 23
 226 00b4 0E4A     	 ldr r2,.L12+4
 227 00b6 1360     	 str r3,[r2]
 241:C:\Users\niels\Documents\Elektrotechniek\Jaar 2\ECS\ECSL\software\STM32\STM32Basis\HAL\gemeenschappelijk\Libraries\CMSIS\Device\ST\STM32F4xx\Source\Templates\system_stm32f4xx.c ****       break;
 228              	 .loc 1 241 7
 229 00b8 03E0     	 b .L9
 230              	.L6:
 242:C:\Users\niels\Documents\Elektrotechniek\Jaar 2\ECS\ECSL\software\STM32\STM32Basis\HAL\gemeenschappelijk\Libraries\CMSIS\Device\ST\STM32F4xx\Source\Templates\system_stm32f4xx.c ****     default:
 243:C:\Users\niels\Documents\Elektrotechniek\Jaar 2\ECS\ECSL\software\STM32\STM32Basis\HAL\gemeenschappelijk\Libraries\CMSIS\Device\ST\STM32F4xx\Source\Templates\system_stm32f4xx.c ****       SystemCoreClock = HSI_VALUE;
 231              	 .loc 1 243 23
 232 00ba 0D4B     	 ldr r3,.L12+4
 233 00bc 0D4A     	 ldr r2,.L12+8
 234 00be 1A60     	 str r2,[r3]
 244:C:\Users\niels\Documents\Elektrotechniek\Jaar 2\ECS\ECSL\software\STM32\STM32Basis\HAL\gemeenschappelijk\Libraries\CMSIS\Device\ST\STM32F4xx\Source\Templates\system_stm32f4xx.c ****       break;
 235              	 .loc 1 244 7
 236 00c0 00BF     	 nop
 237              	.L9:
 245:C:\Users\niels\Documents\Elektrotechniek\Jaar 2\ECS\ECSL\software\STM32\STM32Basis\HAL\gemeenschappelijk\Libraries\CMSIS\Device\ST\STM32F4xx\Source\Templates\system_stm32f4xx.c ****   }
 246:C:\Users\niels\Documents\Elektrotechniek\Jaar 2\ECS\ECSL\software\STM32\STM32Basis\HAL\gemeenschappelijk\Libraries\CMSIS\Device\ST\STM32F4xx\Source\Templates\system_stm32f4xx.c ****   /* Compute HCLK frequency --------------------------------------------------*/
 247:C:\Users\niels\Documents\Elektrotechniek\Jaar 2\ECS\ECSL\software\STM32\STM32Basis\HAL\gemeenschappelijk\Libraries\CMSIS\Device\ST\STM32F4xx\Source\Templates\system_stm32f4xx.c ****   /* Get HCLK prescaler */
 248:C:\Users\niels\Documents\Elektrotechniek\Jaar 2\ECS\ECSL\software\STM32\STM32Basis\HAL\gemeenschappelijk\Libraries\CMSIS\Device\ST\STM32F4xx\Source\Templates\system_stm32f4xx.c ****   tmp = AHBPrescTable[((RCC->CFGR & RCC_CFGR_HPRE) >> 4)];
 238              	 .loc 1 248 30
 239 00c2 0A4B     	 ldr r3,.L12
 240 00c4 9B68     	 ldr r3,[r3,#8]
 241              	 .loc 1 248 52
 242 00c6 1B09     	 lsrs r3,r3,#4
 243 00c8 03F00F03 	 and r3,r3,#15
 244              	 .loc 1 248 57
 245 00cc 0B4A     	 ldr r2,.L12+16
 246 00ce D35C     	 ldrb r3,[r2,r3]
 247              	 .loc 1 248 7
 248 00d0 3B61     	 str r3,[r7,#16]
 249:C:\Users\niels\Documents\Elektrotechniek\Jaar 2\ECS\ECSL\software\STM32\STM32Basis\HAL\gemeenschappelijk\Libraries\CMSIS\Device\ST\STM32F4xx\Source\Templates\system_stm32f4xx.c ****   /* HCLK frequency */
 250:C:\Users\niels\Documents\Elektrotechniek\Jaar 2\ECS\ECSL\software\STM32\STM32Basis\HAL\gemeenschappelijk\Libraries\CMSIS\Device\ST\STM32F4xx\Source\Templates\system_stm32f4xx.c ****   SystemCoreClock >>= tmp;
 249              	 .loc 1 250 19
 250 00d2 074B     	 ldr r3,.L12+4
 251 00d4 1A68     	 ldr r2,[r3]
 252 00d6 3B69     	 ldr r3,[r7,#16]
 253 00d8 22FA03F3 	 lsr r3,r2,r3
 254 00dc 044A     	 ldr r2,.L12+4
 255 00de 1360     	 str r3,[r2]
 251:C:\Users\niels\Documents\Elektrotechniek\Jaar 2\ECS\ECSL\software\STM32\STM32Basis\HAL\gemeenschappelijk\Libraries\CMSIS\Device\ST\STM32F4xx\Source\Templates\system_stm32f4xx.c **** }
 256              	 .loc 1 251 1
 257 00e0 00BF     	 nop
 258 00e2 1C37     	 adds r7,r7,#28
ARM GAS   			page 10


 259              	 .cfi_def_cfa_offset 4
 260 00e4 BD46     	 mov sp,r7
 261              	 .cfi_def_cfa_register 13
 262              	 
 263 00e6 5DF8047B 	 ldr r7,[sp],#4
 264              	 .cfi_restore 7
 265              	 .cfi_def_cfa_offset 0
 266 00ea 7047     	 bx lr
 267              	.L13:
 268              	 .align 2
 269              	.L12:
 270 00ec 00380240 	 .word 1073887232
 271 00f0 00000000 	 .word SystemCoreClock
 272 00f4 0024F400 	 .word 16000000
 273 00f8 00127A00 	 .word 8000000
 274 00fc 00000000 	 .word AHBPrescTable
 275              	 .cfi_endproc
 276              	.LFE124:
 277              	 .cantunwind
 278              	 .fnend
 279              	 .size SystemCoreClockUpdate,.-SystemCoreClockUpdate
 280              	 .text
 281              	.Letext0:
 282              	 .file 2 "c:\\progra~2\\gnuarm~1\\102021~1.10\\arm-none-eabi\\include\\machine\\_default_types.h"
 283              	 .file 3 "c:\\progra~2\\gnuarm~1\\102021~1.10\\arm-none-eabi\\include\\sys\\_stdint.h"
 284              	 .file 4 "C:/Users/niels/DOCUME~1/ELEKTR~1/JAAR2~1/ECS/ECSL/software/STM32/STM32B~1/HAL/GEMEEN~1/LIBRAR~1/CMSIS/Include/core_cm4.h"
 285              	 .file 5 "C:/Users/niels/DOCUME~1/ELEKTR~1/JAAR2~1/ECS/ECSL/software/STM32/STM32B~1/HAL/GEMEEN~1/LIBRAR~1/CMSIS/Device/ST/STM32F~1/Include/system_stm32f4xx.h"
 286              	 .file 6 "C:/Users/niels/DOCUME~1/ELEKTR~1/JAAR2~1/ECS/ECSL/software/STM32/STM32B~1/HAL/GEMEEN~1/LIBRAR~1/CMSIS/Device/ST/STM32F~1/Include/stm32f412zx.h"
 287              	 .file 7 "C:/Users/niels/DOCUME~1/ELEKTR~1/JAAR2~1/ECS/ECSL/software/STM32/STM32B~1/HAL/GEMEEN~1/LIBRAR~1/CMSIS/Device/ST/STM32F~1/Include/stm32f4xx.h"
 288              	 .file 8 "C:/Users/niels/DOCUME~1/ELEKTR~1/JAAR2~1/ECS/ECSL/software/STM32/STM32B~1/HAL/GEMEEN~1/LIBRAR~1/STM32F~1/Inc/stm32f4xx_hal.h"