ARM GAS   			page 1


   1              	 .cpu cortex-m4
   2              	 .arch armv7e-m
   3              	 .fpu fpv4-sp-d16
   4              	 .eabi_attribute 27,1
   5              	 .eabi_attribute 28,1
   6              	 .eabi_attribute 20,1
   7              	 .eabi_attribute 21,1
   8              	 .eabi_attribute 23,3
   9              	 .eabi_attribute 24,1
  10              	 .eabi_attribute 25,1
  11              	 .eabi_attribute 26,1
  12              	 .eabi_attribute 30,6
  13              	 .eabi_attribute 34,0
  14              	 .eabi_attribute 18,4
  15              	 .file "SEGGER_RTT_Syscalls_GCC.c"
  16              	 .text
  17              	.Ltext0:
  18              	 .cfi_sections .debug_frame
  19              	 .section .text._write,"ax",%progbits
  20              	 .align 1
  21              	 .global _write
  22              	 .syntax unified
  23              	 .thumb
  24              	 .thumb_func
  25              	 .type _write,%function
  26              	_write:
  27              	 .fnstart
  28              	.LFB7:
  29              	 .file 1 "C:\\Users\\niels\\Documents\\Elektrotechniek\\Jaar 2\\ECS\\ECSL\\software\\STM32\\STM32Basis\\Segger\\Segger_RTT\\Syscalls\\SEGGER_RTT_Syscalls_GCC.c"
   1:C:\Users\niels\Documents\Elektrotechniek\Jaar 2\ECS\ECSL\software\STM32\STM32Basis\Segger\Segger_RTT\Syscalls\SEGGER_RTT_Syscalls_GCC.c **** /*********************************************************************
   2:C:\Users\niels\Documents\Elektrotechniek\Jaar 2\ECS\ECSL\software\STM32\STM32Basis\Segger\Segger_RTT\Syscalls\SEGGER_RTT_Syscalls_GCC.c **** *                    SEGGER Microcontroller GmbH                     *
   3:C:\Users\niels\Documents\Elektrotechniek\Jaar 2\ECS\ECSL\software\STM32\STM32Basis\Segger\Segger_RTT\Syscalls\SEGGER_RTT_Syscalls_GCC.c **** *                        The Embedded Experts                        *
   4:C:\Users\niels\Documents\Elektrotechniek\Jaar 2\ECS\ECSL\software\STM32\STM32Basis\Segger\Segger_RTT\Syscalls\SEGGER_RTT_Syscalls_GCC.c **** **********************************************************************
   5:C:\Users\niels\Documents\Elektrotechniek\Jaar 2\ECS\ECSL\software\STM32\STM32Basis\Segger\Segger_RTT\Syscalls\SEGGER_RTT_Syscalls_GCC.c **** *                                                                    *
   6:C:\Users\niels\Documents\Elektrotechniek\Jaar 2\ECS\ECSL\software\STM32\STM32Basis\Segger\Segger_RTT\Syscalls\SEGGER_RTT_Syscalls_GCC.c **** *            (c) 1995 - 2018 SEGGER Microcontroller GmbH             *
   7:C:\Users\niels\Documents\Elektrotechniek\Jaar 2\ECS\ECSL\software\STM32\STM32Basis\Segger\Segger_RTT\Syscalls\SEGGER_RTT_Syscalls_GCC.c **** *                                                                    *
   8:C:\Users\niels\Documents\Elektrotechniek\Jaar 2\ECS\ECSL\software\STM32\STM32Basis\Segger\Segger_RTT\Syscalls\SEGGER_RTT_Syscalls_GCC.c **** *       www.segger.com     Support: support@segger.com               *
   9:C:\Users\niels\Documents\Elektrotechniek\Jaar 2\ECS\ECSL\software\STM32\STM32Basis\Segger\Segger_RTT\Syscalls\SEGGER_RTT_Syscalls_GCC.c **** *                                                                    *
  10:C:\Users\niels\Documents\Elektrotechniek\Jaar 2\ECS\ECSL\software\STM32\STM32Basis\Segger\Segger_RTT\Syscalls\SEGGER_RTT_Syscalls_GCC.c **** **********************************************************************
  11:C:\Users\niels\Documents\Elektrotechniek\Jaar 2\ECS\ECSL\software\STM32\STM32Basis\Segger\Segger_RTT\Syscalls\SEGGER_RTT_Syscalls_GCC.c **** *                                                                    *
  12:C:\Users\niels\Documents\Elektrotechniek\Jaar 2\ECS\ECSL\software\STM32\STM32Basis\Segger\Segger_RTT\Syscalls\SEGGER_RTT_Syscalls_GCC.c **** *       SEGGER RTT * Real Time Transfer for embedded targets         *
  13:C:\Users\niels\Documents\Elektrotechniek\Jaar 2\ECS\ECSL\software\STM32\STM32Basis\Segger\Segger_RTT\Syscalls\SEGGER_RTT_Syscalls_GCC.c **** *                                                                    *
  14:C:\Users\niels\Documents\Elektrotechniek\Jaar 2\ECS\ECSL\software\STM32\STM32Basis\Segger\Segger_RTT\Syscalls\SEGGER_RTT_Syscalls_GCC.c **** **********************************************************************
  15:C:\Users\niels\Documents\Elektrotechniek\Jaar 2\ECS\ECSL\software\STM32\STM32Basis\Segger\Segger_RTT\Syscalls\SEGGER_RTT_Syscalls_GCC.c **** *                                                                    *
  16:C:\Users\niels\Documents\Elektrotechniek\Jaar 2\ECS\ECSL\software\STM32\STM32Basis\Segger\Segger_RTT\Syscalls\SEGGER_RTT_Syscalls_GCC.c **** * All rights reserved.                                               *
  17:C:\Users\niels\Documents\Elektrotechniek\Jaar 2\ECS\ECSL\software\STM32\STM32Basis\Segger\Segger_RTT\Syscalls\SEGGER_RTT_Syscalls_GCC.c **** *                                                                    *
  18:C:\Users\niels\Documents\Elektrotechniek\Jaar 2\ECS\ECSL\software\STM32\STM32Basis\Segger\Segger_RTT\Syscalls\SEGGER_RTT_Syscalls_GCC.c **** * SEGGER strongly recommends to not make any changes                 *
  19:C:\Users\niels\Documents\Elektrotechniek\Jaar 2\ECS\ECSL\software\STM32\STM32Basis\Segger\Segger_RTT\Syscalls\SEGGER_RTT_Syscalls_GCC.c **** * to or modify the source code of this software in order to stay     *
  20:C:\Users\niels\Documents\Elektrotechniek\Jaar 2\ECS\ECSL\software\STM32\STM32Basis\Segger\Segger_RTT\Syscalls\SEGGER_RTT_Syscalls_GCC.c **** * compatible with the RTT protocol and J-Link.                       *
  21:C:\Users\niels\Documents\Elektrotechniek\Jaar 2\ECS\ECSL\software\STM32\STM32Basis\Segger\Segger_RTT\Syscalls\SEGGER_RTT_Syscalls_GCC.c **** *                                                                    *
  22:C:\Users\niels\Documents\Elektrotechniek\Jaar 2\ECS\ECSL\software\STM32\STM32Basis\Segger\Segger_RTT\Syscalls\SEGGER_RTT_Syscalls_GCC.c **** * Redistribution and use in source and binary forms, with or         *
  23:C:\Users\niels\Documents\Elektrotechniek\Jaar 2\ECS\ECSL\software\STM32\STM32Basis\Segger\Segger_RTT\Syscalls\SEGGER_RTT_Syscalls_GCC.c **** * without modification, are permitted provided that the following    *
  24:C:\Users\niels\Documents\Elektrotechniek\Jaar 2\ECS\ECSL\software\STM32\STM32Basis\Segger\Segger_RTT\Syscalls\SEGGER_RTT_Syscalls_GCC.c **** * conditions are met:                                                *
  25:C:\Users\niels\Documents\Elektrotechniek\Jaar 2\ECS\ECSL\software\STM32\STM32Basis\Segger\Segger_RTT\Syscalls\SEGGER_RTT_Syscalls_GCC.c **** *                                                                    *
  26:C:\Users\niels\Documents\Elektrotechniek\Jaar 2\ECS\ECSL\software\STM32\STM32Basis\Segger\Segger_RTT\Syscalls\SEGGER_RTT_Syscalls_GCC.c **** * o Redistributions of source code must retain the above copyright   *
  27:C:\Users\niels\Documents\Elektrotechniek\Jaar 2\ECS\ECSL\software\STM32\STM32Basis\Segger\Segger_RTT\Syscalls\SEGGER_RTT_Syscalls_GCC.c **** *   notice, this list of conditions and the following disclaimer.    *
  28:C:\Users\niels\Documents\Elektrotechniek\Jaar 2\ECS\ECSL\software\STM32\STM32Basis\Segger\Segger_RTT\Syscalls\SEGGER_RTT_Syscalls_GCC.c **** *                                                                    *
ARM GAS   			page 2


  29:C:\Users\niels\Documents\Elektrotechniek\Jaar 2\ECS\ECSL\software\STM32\STM32Basis\Segger\Segger_RTT\Syscalls\SEGGER_RTT_Syscalls_GCC.c **** * o Redistributions in binary form must reproduce the above          *
  30:C:\Users\niels\Documents\Elektrotechniek\Jaar 2\ECS\ECSL\software\STM32\STM32Basis\Segger\Segger_RTT\Syscalls\SEGGER_RTT_Syscalls_GCC.c **** *   copyright notice, this list of conditions and the following      *
  31:C:\Users\niels\Documents\Elektrotechniek\Jaar 2\ECS\ECSL\software\STM32\STM32Basis\Segger\Segger_RTT\Syscalls\SEGGER_RTT_Syscalls_GCC.c **** *   disclaimer in the documentation and/or other materials provided  *
  32:C:\Users\niels\Documents\Elektrotechniek\Jaar 2\ECS\ECSL\software\STM32\STM32Basis\Segger\Segger_RTT\Syscalls\SEGGER_RTT_Syscalls_GCC.c **** *   with the distribution.                                           *
  33:C:\Users\niels\Documents\Elektrotechniek\Jaar 2\ECS\ECSL\software\STM32\STM32Basis\Segger\Segger_RTT\Syscalls\SEGGER_RTT_Syscalls_GCC.c **** *                                                                    *
  34:C:\Users\niels\Documents\Elektrotechniek\Jaar 2\ECS\ECSL\software\STM32\STM32Basis\Segger\Segger_RTT\Syscalls\SEGGER_RTT_Syscalls_GCC.c **** * o Neither the name of SEGGER Microcontroller GmbH         *
  35:C:\Users\niels\Documents\Elektrotechniek\Jaar 2\ECS\ECSL\software\STM32\STM32Basis\Segger\Segger_RTT\Syscalls\SEGGER_RTT_Syscalls_GCC.c **** *   nor the names of its contributors may be used to endorse or      *
  36:C:\Users\niels\Documents\Elektrotechniek\Jaar 2\ECS\ECSL\software\STM32\STM32Basis\Segger\Segger_RTT\Syscalls\SEGGER_RTT_Syscalls_GCC.c **** *   promote products derived from this software without specific     *
  37:C:\Users\niels\Documents\Elektrotechniek\Jaar 2\ECS\ECSL\software\STM32\STM32Basis\Segger\Segger_RTT\Syscalls\SEGGER_RTT_Syscalls_GCC.c **** *   prior written permission.                                        *
  38:C:\Users\niels\Documents\Elektrotechniek\Jaar 2\ECS\ECSL\software\STM32\STM32Basis\Segger\Segger_RTT\Syscalls\SEGGER_RTT_Syscalls_GCC.c **** *                                                                    *
  39:C:\Users\niels\Documents\Elektrotechniek\Jaar 2\ECS\ECSL\software\STM32\STM32Basis\Segger\Segger_RTT\Syscalls\SEGGER_RTT_Syscalls_GCC.c **** * THIS SOFTWARE IS PROVIDED BY THE COPYRIGHT HOLDERS AND             *
  40:C:\Users\niels\Documents\Elektrotechniek\Jaar 2\ECS\ECSL\software\STM32\STM32Basis\Segger\Segger_RTT\Syscalls\SEGGER_RTT_Syscalls_GCC.c **** * CONTRIBUTORS "AS IS" AND ANY EXPRESS OR IMPLIED WARRANTIES,        *
  41:C:\Users\niels\Documents\Elektrotechniek\Jaar 2\ECS\ECSL\software\STM32\STM32Basis\Segger\Segger_RTT\Syscalls\SEGGER_RTT_Syscalls_GCC.c **** * INCLUDING, BUT NOT LIMITED TO, THE IMPLIED WARRANTIES OF           *
  42:C:\Users\niels\Documents\Elektrotechniek\Jaar 2\ECS\ECSL\software\STM32\STM32Basis\Segger\Segger_RTT\Syscalls\SEGGER_RTT_Syscalls_GCC.c **** * MERCHANTABILITY AND FITNESS FOR A PARTICULAR PURPOSE ARE           *
  43:C:\Users\niels\Documents\Elektrotechniek\Jaar 2\ECS\ECSL\software\STM32\STM32Basis\Segger\Segger_RTT\Syscalls\SEGGER_RTT_Syscalls_GCC.c **** * DISCLAIMED. IN NO EVENT SHALL SEGGER Microcontroller BE LIABLE FOR *
  44:C:\Users\niels\Documents\Elektrotechniek\Jaar 2\ECS\ECSL\software\STM32\STM32Basis\Segger\Segger_RTT\Syscalls\SEGGER_RTT_Syscalls_GCC.c **** * ANY DIRECT, INDIRECT, INCIDENTAL, SPECIAL, EXEMPLARY, OR           *
  45:C:\Users\niels\Documents\Elektrotechniek\Jaar 2\ECS\ECSL\software\STM32\STM32Basis\Segger\Segger_RTT\Syscalls\SEGGER_RTT_Syscalls_GCC.c **** * CONSEQUENTIAL DAMAGES (INCLUDING, BUT NOT LIMITED TO, PROCUREMENT  *
  46:C:\Users\niels\Documents\Elektrotechniek\Jaar 2\ECS\ECSL\software\STM32\STM32Basis\Segger\Segger_RTT\Syscalls\SEGGER_RTT_Syscalls_GCC.c **** * OF SUBSTITUTE GOODS OR SERVICES; LOSS OF USE, DATA, OR PROFITS;    *
  47:C:\Users\niels\Documents\Elektrotechniek\Jaar 2\ECS\ECSL\software\STM32\STM32Basis\Segger\Segger_RTT\Syscalls\SEGGER_RTT_Syscalls_GCC.c **** * OR BUSINESS INTERRUPTION) HOWEVER CAUSED AND ON ANY THEORY OF      *
  48:C:\Users\niels\Documents\Elektrotechniek\Jaar 2\ECS\ECSL\software\STM32\STM32Basis\Segger\Segger_RTT\Syscalls\SEGGER_RTT_Syscalls_GCC.c **** * LIABILITY, WHETHER IN CONTRACT, STRICT LIABILITY, OR TORT          *
  49:C:\Users\niels\Documents\Elektrotechniek\Jaar 2\ECS\ECSL\software\STM32\STM32Basis\Segger\Segger_RTT\Syscalls\SEGGER_RTT_Syscalls_GCC.c **** * (INCLUDING NEGLIGENCE OR OTHERWISE) ARISING IN ANY WAY OUT OF THE  *
  50:C:\Users\niels\Documents\Elektrotechniek\Jaar 2\ECS\ECSL\software\STM32\STM32Basis\Segger\Segger_RTT\Syscalls\SEGGER_RTT_Syscalls_GCC.c **** * USE OF THIS SOFTWARE, EVEN IF ADVISED OF THE POSSIBILITY OF SUCH   *
  51:C:\Users\niels\Documents\Elektrotechniek\Jaar 2\ECS\ECSL\software\STM32\STM32Basis\Segger\Segger_RTT\Syscalls\SEGGER_RTT_Syscalls_GCC.c **** * DAMAGE.                                                            *
  52:C:\Users\niels\Documents\Elektrotechniek\Jaar 2\ECS\ECSL\software\STM32\STM32Basis\Segger\Segger_RTT\Syscalls\SEGGER_RTT_Syscalls_GCC.c **** *                                                                    *
  53:C:\Users\niels\Documents\Elektrotechniek\Jaar 2\ECS\ECSL\software\STM32\STM32Basis\Segger\Segger_RTT\Syscalls\SEGGER_RTT_Syscalls_GCC.c **** **********************************************************************
  54:C:\Users\niels\Documents\Elektrotechniek\Jaar 2\ECS\ECSL\software\STM32\STM32Basis\Segger\Segger_RTT\Syscalls\SEGGER_RTT_Syscalls_GCC.c **** *                                                                    *
  55:C:\Users\niels\Documents\Elektrotechniek\Jaar 2\ECS\ECSL\software\STM32\STM32Basis\Segger\Segger_RTT\Syscalls\SEGGER_RTT_Syscalls_GCC.c **** *       RTT version: 6.34h                                           *
  56:C:\Users\niels\Documents\Elektrotechniek\Jaar 2\ECS\ECSL\software\STM32\STM32Basis\Segger\Segger_RTT\Syscalls\SEGGER_RTT_Syscalls_GCC.c **** *                                                                    *
  57:C:\Users\niels\Documents\Elektrotechniek\Jaar 2\ECS\ECSL\software\STM32\STM32Basis\Segger\Segger_RTT\Syscalls\SEGGER_RTT_Syscalls_GCC.c **** **********************************************************************
  58:C:\Users\niels\Documents\Elektrotechniek\Jaar 2\ECS\ECSL\software\STM32\STM32Basis\Segger\Segger_RTT\Syscalls\SEGGER_RTT_Syscalls_GCC.c **** ---------------------------END-OF-HEADER------------------------------
  59:C:\Users\niels\Documents\Elektrotechniek\Jaar 2\ECS\ECSL\software\STM32\STM32Basis\Segger\Segger_RTT\Syscalls\SEGGER_RTT_Syscalls_GCC.c **** File    : SEGGER_RTT_Syscalls_GCC.c
  60:C:\Users\niels\Documents\Elektrotechniek\Jaar 2\ECS\ECSL\software\STM32\STM32Basis\Segger\Segger_RTT\Syscalls\SEGGER_RTT_Syscalls_GCC.c **** Purpose : Low-level functions for using printf() via RTT in GCC.
  61:C:\Users\niels\Documents\Elektrotechniek\Jaar 2\ECS\ECSL\software\STM32\STM32Basis\Segger\Segger_RTT\Syscalls\SEGGER_RTT_Syscalls_GCC.c ****           To use RTT for printf output, include this file in your 
  62:C:\Users\niels\Documents\Elektrotechniek\Jaar 2\ECS\ECSL\software\STM32\STM32Basis\Segger\Segger_RTT\Syscalls\SEGGER_RTT_Syscalls_GCC.c ****           application.
  63:C:\Users\niels\Documents\Elektrotechniek\Jaar 2\ECS\ECSL\software\STM32\STM32Basis\Segger\Segger_RTT\Syscalls\SEGGER_RTT_Syscalls_GCC.c **** Revision: $Rev: 9599 $
  64:C:\Users\niels\Documents\Elektrotechniek\Jaar 2\ECS\ECSL\software\STM32\STM32Basis\Segger\Segger_RTT\Syscalls\SEGGER_RTT_Syscalls_GCC.c **** ----------------------------------------------------------------------
  65:C:\Users\niels\Documents\Elektrotechniek\Jaar 2\ECS\ECSL\software\STM32\STM32Basis\Segger\Segger_RTT\Syscalls\SEGGER_RTT_Syscalls_GCC.c **** */
  66:C:\Users\niels\Documents\Elektrotechniek\Jaar 2\ECS\ECSL\software\STM32\STM32Basis\Segger\Segger_RTT\Syscalls\SEGGER_RTT_Syscalls_GCC.c **** #if (defined __GNUC__) && !(defined __SES_ARM) && !(defined __CROSSWORKS_ARM)
  67:C:\Users\niels\Documents\Elektrotechniek\Jaar 2\ECS\ECSL\software\STM32\STM32Basis\Segger\Segger_RTT\Syscalls\SEGGER_RTT_Syscalls_GCC.c **** 
  68:C:\Users\niels\Documents\Elektrotechniek\Jaar 2\ECS\ECSL\software\STM32\STM32Basis\Segger\Segger_RTT\Syscalls\SEGGER_RTT_Syscalls_GCC.c **** 
  69:C:\Users\niels\Documents\Elektrotechniek\Jaar 2\ECS\ECSL\software\STM32\STM32Basis\Segger\Segger_RTT\Syscalls\SEGGER_RTT_Syscalls_GCC.c **** #include <reent.h>  // required for _write_r
  70:C:\Users\niels\Documents\Elektrotechniek\Jaar 2\ECS\ECSL\software\STM32\STM32Basis\Segger\Segger_RTT\Syscalls\SEGGER_RTT_Syscalls_GCC.c **** #include "SEGGER_RTT.h"
  71:C:\Users\niels\Documents\Elektrotechniek\Jaar 2\ECS\ECSL\software\STM32\STM32Basis\Segger\Segger_RTT\Syscalls\SEGGER_RTT_Syscalls_GCC.c **** 
  72:C:\Users\niels\Documents\Elektrotechniek\Jaar 2\ECS\ECSL\software\STM32\STM32Basis\Segger\Segger_RTT\Syscalls\SEGGER_RTT_Syscalls_GCC.c **** extern "C"
  73:C:\Users\niels\Documents\Elektrotechniek\Jaar 2\ECS\ECSL\software\STM32\STM32Basis\Segger\Segger_RTT\Syscalls\SEGGER_RTT_Syscalls_GCC.c **** {
  74:C:\Users\niels\Documents\Elektrotechniek\Jaar 2\ECS\ECSL\software\STM32\STM32Basis\Segger\Segger_RTT\Syscalls\SEGGER_RTT_Syscalls_GCC.c **** 
  75:C:\Users\niels\Documents\Elektrotechniek\Jaar 2\ECS\ECSL\software\STM32\STM32Basis\Segger\Segger_RTT\Syscalls\SEGGER_RTT_Syscalls_GCC.c **** /*********************************************************************
  76:C:\Users\niels\Documents\Elektrotechniek\Jaar 2\ECS\ECSL\software\STM32\STM32Basis\Segger\Segger_RTT\Syscalls\SEGGER_RTT_Syscalls_GCC.c **** *
  77:C:\Users\niels\Documents\Elektrotechniek\Jaar 2\ECS\ECSL\software\STM32\STM32Basis\Segger\Segger_RTT\Syscalls\SEGGER_RTT_Syscalls_GCC.c **** *       Types
  78:C:\Users\niels\Documents\Elektrotechniek\Jaar 2\ECS\ECSL\software\STM32\STM32Basis\Segger\Segger_RTT\Syscalls\SEGGER_RTT_Syscalls_GCC.c **** *
  79:C:\Users\niels\Documents\Elektrotechniek\Jaar 2\ECS\ECSL\software\STM32\STM32Basis\Segger\Segger_RTT\Syscalls\SEGGER_RTT_Syscalls_GCC.c **** **********************************************************************
  80:C:\Users\niels\Documents\Elektrotechniek\Jaar 2\ECS\ECSL\software\STM32\STM32Basis\Segger\Segger_RTT\Syscalls\SEGGER_RTT_Syscalls_GCC.c **** */
  81:C:\Users\niels\Documents\Elektrotechniek\Jaar 2\ECS\ECSL\software\STM32\STM32Basis\Segger\Segger_RTT\Syscalls\SEGGER_RTT_Syscalls_GCC.c **** //
  82:C:\Users\niels\Documents\Elektrotechniek\Jaar 2\ECS\ECSL\software\STM32\STM32Basis\Segger\Segger_RTT\Syscalls\SEGGER_RTT_Syscalls_GCC.c **** // If necessary define the _reent struct 
  83:C:\Users\niels\Documents\Elektrotechniek\Jaar 2\ECS\ECSL\software\STM32\STM32Basis\Segger\Segger_RTT\Syscalls\SEGGER_RTT_Syscalls_GCC.c **** // to match the one passed by the used standard library.
  84:C:\Users\niels\Documents\Elektrotechniek\Jaar 2\ECS\ECSL\software\STM32\STM32Basis\Segger\Segger_RTT\Syscalls\SEGGER_RTT_Syscalls_GCC.c **** //
  85:C:\Users\niels\Documents\Elektrotechniek\Jaar 2\ECS\ECSL\software\STM32\STM32Basis\Segger\Segger_RTT\Syscalls\SEGGER_RTT_Syscalls_GCC.c **** struct _reent;
ARM GAS   			page 3


  86:C:\Users\niels\Documents\Elektrotechniek\Jaar 2\ECS\ECSL\software\STM32\STM32Basis\Segger\Segger_RTT\Syscalls\SEGGER_RTT_Syscalls_GCC.c **** 
  87:C:\Users\niels\Documents\Elektrotechniek\Jaar 2\ECS\ECSL\software\STM32\STM32Basis\Segger\Segger_RTT\Syscalls\SEGGER_RTT_Syscalls_GCC.c **** /*********************************************************************
  88:C:\Users\niels\Documents\Elektrotechniek\Jaar 2\ECS\ECSL\software\STM32\STM32Basis\Segger\Segger_RTT\Syscalls\SEGGER_RTT_Syscalls_GCC.c **** *
  89:C:\Users\niels\Documents\Elektrotechniek\Jaar 2\ECS\ECSL\software\STM32\STM32Basis\Segger\Segger_RTT\Syscalls\SEGGER_RTT_Syscalls_GCC.c **** *       Function prototypes
  90:C:\Users\niels\Documents\Elektrotechniek\Jaar 2\ECS\ECSL\software\STM32\STM32Basis\Segger\Segger_RTT\Syscalls\SEGGER_RTT_Syscalls_GCC.c **** *
  91:C:\Users\niels\Documents\Elektrotechniek\Jaar 2\ECS\ECSL\software\STM32\STM32Basis\Segger\Segger_RTT\Syscalls\SEGGER_RTT_Syscalls_GCC.c **** **********************************************************************
  92:C:\Users\niels\Documents\Elektrotechniek\Jaar 2\ECS\ECSL\software\STM32\STM32Basis\Segger\Segger_RTT\Syscalls\SEGGER_RTT_Syscalls_GCC.c **** */
  93:C:\Users\niels\Documents\Elektrotechniek\Jaar 2\ECS\ECSL\software\STM32\STM32Basis\Segger\Segger_RTT\Syscalls\SEGGER_RTT_Syscalls_GCC.c **** int _write(int file, char *ptr, int len);
  94:C:\Users\niels\Documents\Elektrotechniek\Jaar 2\ECS\ECSL\software\STM32\STM32Basis\Segger\Segger_RTT\Syscalls\SEGGER_RTT_Syscalls_GCC.c **** //int _write_r(struct _reent *r, int file, const void *ptr, int len);
  95:C:\Users\niels\Documents\Elektrotechniek\Jaar 2\ECS\ECSL\software\STM32\STM32Basis\Segger\Segger_RTT\Syscalls\SEGGER_RTT_Syscalls_GCC.c **** 
  96:C:\Users\niels\Documents\Elektrotechniek\Jaar 2\ECS\ECSL\software\STM32\STM32Basis\Segger\Segger_RTT\Syscalls\SEGGER_RTT_Syscalls_GCC.c **** /*********************************************************************
  97:C:\Users\niels\Documents\Elektrotechniek\Jaar 2\ECS\ECSL\software\STM32\STM32Basis\Segger\Segger_RTT\Syscalls\SEGGER_RTT_Syscalls_GCC.c **** *
  98:C:\Users\niels\Documents\Elektrotechniek\Jaar 2\ECS\ECSL\software\STM32\STM32Basis\Segger\Segger_RTT\Syscalls\SEGGER_RTT_Syscalls_GCC.c **** *       Global functions
  99:C:\Users\niels\Documents\Elektrotechniek\Jaar 2\ECS\ECSL\software\STM32\STM32Basis\Segger\Segger_RTT\Syscalls\SEGGER_RTT_Syscalls_GCC.c **** *
 100:C:\Users\niels\Documents\Elektrotechniek\Jaar 2\ECS\ECSL\software\STM32\STM32Basis\Segger\Segger_RTT\Syscalls\SEGGER_RTT_Syscalls_GCC.c **** **********************************************************************
 101:C:\Users\niels\Documents\Elektrotechniek\Jaar 2\ECS\ECSL\software\STM32\STM32Basis\Segger\Segger_RTT\Syscalls\SEGGER_RTT_Syscalls_GCC.c **** */
 102:C:\Users\niels\Documents\Elektrotechniek\Jaar 2\ECS\ECSL\software\STM32\STM32Basis\Segger\Segger_RTT\Syscalls\SEGGER_RTT_Syscalls_GCC.c **** 
 103:C:\Users\niels\Documents\Elektrotechniek\Jaar 2\ECS\ECSL\software\STM32\STM32Basis\Segger\Segger_RTT\Syscalls\SEGGER_RTT_Syscalls_GCC.c **** /*********************************************************************
 104:C:\Users\niels\Documents\Elektrotechniek\Jaar 2\ECS\ECSL\software\STM32\STM32Basis\Segger\Segger_RTT\Syscalls\SEGGER_RTT_Syscalls_GCC.c **** *
 105:C:\Users\niels\Documents\Elektrotechniek\Jaar 2\ECS\ECSL\software\STM32\STM32Basis\Segger\Segger_RTT\Syscalls\SEGGER_RTT_Syscalls_GCC.c **** *       _write()
 106:C:\Users\niels\Documents\Elektrotechniek\Jaar 2\ECS\ECSL\software\STM32\STM32Basis\Segger\Segger_RTT\Syscalls\SEGGER_RTT_Syscalls_GCC.c **** *
 107:C:\Users\niels\Documents\Elektrotechniek\Jaar 2\ECS\ECSL\software\STM32\STM32Basis\Segger\Segger_RTT\Syscalls\SEGGER_RTT_Syscalls_GCC.c **** * Function description
 108:C:\Users\niels\Documents\Elektrotechniek\Jaar 2\ECS\ECSL\software\STM32\STM32Basis\Segger\Segger_RTT\Syscalls\SEGGER_RTT_Syscalls_GCC.c **** *   Low-level write function.
 109:C:\Users\niels\Documents\Elektrotechniek\Jaar 2\ECS\ECSL\software\STM32\STM32Basis\Segger\Segger_RTT\Syscalls\SEGGER_RTT_Syscalls_GCC.c **** *   libc subroutines will use this system routine for output to all files,
 110:C:\Users\niels\Documents\Elektrotechniek\Jaar 2\ECS\ECSL\software\STM32\STM32Basis\Segger\Segger_RTT\Syscalls\SEGGER_RTT_Syscalls_GCC.c **** *   including stdout.
 111:C:\Users\niels\Documents\Elektrotechniek\Jaar 2\ECS\ECSL\software\STM32\STM32Basis\Segger\Segger_RTT\Syscalls\SEGGER_RTT_Syscalls_GCC.c **** *   Write data via RTT.
 112:C:\Users\niels\Documents\Elektrotechniek\Jaar 2\ECS\ECSL\software\STM32\STM32Basis\Segger\Segger_RTT\Syscalls\SEGGER_RTT_Syscalls_GCC.c **** */
 113:C:\Users\niels\Documents\Elektrotechniek\Jaar 2\ECS\ECSL\software\STM32\STM32Basis\Segger\Segger_RTT\Syscalls\SEGGER_RTT_Syscalls_GCC.c **** int _write(int file, char *ptr, int len)
 114:C:\Users\niels\Documents\Elektrotechniek\Jaar 2\ECS\ECSL\software\STM32\STM32Basis\Segger\Segger_RTT\Syscalls\SEGGER_RTT_Syscalls_GCC.c **** {
  30              	 .loc 1 114 1
  31              	 .cfi_startproc
  32              	 
  33              	 
  34 0000 80B5     	 push {r7,lr}
  35              	 .save {r7,lr}
  36              	 .cfi_def_cfa_offset 8
  37              	 .cfi_offset 7,-8
  38              	 .cfi_offset 14,-4
  39              	 .pad #16
  40 0002 84B0     	 sub sp,sp,#16
  41              	 .cfi_def_cfa_offset 24
  42              	 .setfp r7,sp,#0
  43 0004 00AF     	 add r7,sp,#0
  44              	 .cfi_def_cfa_register 7
  45 0006 F860     	 str r0,[r7,#12]
  46 0008 B960     	 str r1,[r7,#8]
  47 000a 7A60     	 str r2,[r7,#4]
 115:C:\Users\niels\Documents\Elektrotechniek\Jaar 2\ECS\ECSL\software\STM32\STM32Basis\Segger\Segger_RTT\Syscalls\SEGGER_RTT_Syscalls_GCC.c **** 	(void) file;  /* Not used, avoid warning */
 116:C:\Users\niels\Documents\Elektrotechniek\Jaar 2\ECS\ECSL\software\STM32\STM32Basis\Segger\Segger_RTT\Syscalls\SEGGER_RTT_Syscalls_GCC.c **** 	SEGGER_RTT_Write(0, ptr, len);
  48              	 .loc 1 116 18
  49 000c 7B68     	 ldr r3,[r7,#4]
  50 000e 1A46     	 mov r2,r3
  51 0010 B968     	 ldr r1,[r7,#8]
  52 0012 0020     	 movs r0,#0
  53 0014 FFF7FEFF 	 bl SEGGER_RTT_Write
 117:C:\Users\niels\Documents\Elektrotechniek\Jaar 2\ECS\ECSL\software\STM32\STM32Basis\Segger\Segger_RTT\Syscalls\SEGGER_RTT_Syscalls_GCC.c **** 	return len;
  54              	 .loc 1 117 9
ARM GAS   			page 4


  55 0018 7B68     	 ldr r3,[r7,#4]
 118:C:\Users\niels\Documents\Elektrotechniek\Jaar 2\ECS\ECSL\software\STM32\STM32Basis\Segger\Segger_RTT\Syscalls\SEGGER_RTT_Syscalls_GCC.c **** }
  56              	 .loc 1 118 1
  57 001a 1846     	 mov r0,r3
  58 001c 1037     	 adds r7,r7,#16
  59              	 .cfi_def_cfa_offset 8
  60 001e BD46     	 mov sp,r7
  61              	 .cfi_def_cfa_register 13
  62              	 
  63 0020 80BD     	 pop {r7,pc}
  64              	 .cfi_endproc
  65              	.LFE7:
  66              	 .fnend
  67              	 .size _write,.-_write
  68              	 .section .text._write_r,"ax",%progbits
  69              	 .align 1
  70              	 .global _write_r
  71              	 .syntax unified
  72              	 .thumb
  73              	 .thumb_func
  74              	 .type _write_r,%function
  75              	_write_r:
  76              	 .fnstart
  77              	.LFB8:
 119:C:\Users\niels\Documents\Elektrotechniek\Jaar 2\ECS\ECSL\software\STM32\STM32Basis\Segger\Segger_RTT\Syscalls\SEGGER_RTT_Syscalls_GCC.c **** 
 120:C:\Users\niels\Documents\Elektrotechniek\Jaar 2\ECS\ECSL\software\STM32\STM32Basis\Segger\Segger_RTT\Syscalls\SEGGER_RTT_Syscalls_GCC.c **** /*********************************************************************
 121:C:\Users\niels\Documents\Elektrotechniek\Jaar 2\ECS\ECSL\software\STM32\STM32Basis\Segger\Segger_RTT\Syscalls\SEGGER_RTT_Syscalls_GCC.c **** *
 122:C:\Users\niels\Documents\Elektrotechniek\Jaar 2\ECS\ECSL\software\STM32\STM32Basis\Segger\Segger_RTT\Syscalls\SEGGER_RTT_Syscalls_GCC.c **** *       _write_r()
 123:C:\Users\niels\Documents\Elektrotechniek\Jaar 2\ECS\ECSL\software\STM32\STM32Basis\Segger\Segger_RTT\Syscalls\SEGGER_RTT_Syscalls_GCC.c **** *
 124:C:\Users\niels\Documents\Elektrotechniek\Jaar 2\ECS\ECSL\software\STM32\STM32Basis\Segger\Segger_RTT\Syscalls\SEGGER_RTT_Syscalls_GCC.c **** * Function description
 125:C:\Users\niels\Documents\Elektrotechniek\Jaar 2\ECS\ECSL\software\STM32\STM32Basis\Segger\Segger_RTT\Syscalls\SEGGER_RTT_Syscalls_GCC.c **** *   Low-level reentrant write function.
 126:C:\Users\niels\Documents\Elektrotechniek\Jaar 2\ECS\ECSL\software\STM32\STM32Basis\Segger\Segger_RTT\Syscalls\SEGGER_RTT_Syscalls_GCC.c **** *   libc subroutines will use this system routine for output to all files,
 127:C:\Users\niels\Documents\Elektrotechniek\Jaar 2\ECS\ECSL\software\STM32\STM32Basis\Segger\Segger_RTT\Syscalls\SEGGER_RTT_Syscalls_GCC.c **** *   including stdout.
 128:C:\Users\niels\Documents\Elektrotechniek\Jaar 2\ECS\ECSL\software\STM32\STM32Basis\Segger\Segger_RTT\Syscalls\SEGGER_RTT_Syscalls_GCC.c **** *   Write data via RTT.
 129:C:\Users\niels\Documents\Elektrotechniek\Jaar 2\ECS\ECSL\software\STM32\STM32Basis\Segger\Segger_RTT\Syscalls\SEGGER_RTT_Syscalls_GCC.c **** */
 130:C:\Users\niels\Documents\Elektrotechniek\Jaar 2\ECS\ECSL\software\STM32\STM32Basis\Segger\Segger_RTT\Syscalls\SEGGER_RTT_Syscalls_GCC.c **** _ssize_t _write_r(struct _reent *r, int file, const void *ptr, size_t len)
 131:C:\Users\niels\Documents\Elektrotechniek\Jaar 2\ECS\ECSL\software\STM32\STM32Basis\Segger\Segger_RTT\Syscalls\SEGGER_RTT_Syscalls_GCC.c **** {
  78              	 .loc 1 131 1
  79              	 .cfi_startproc
  80              	 
  81              	 
  82 0000 80B5     	 push {r7,lr}
  83              	 .save {r7,lr}
  84              	 .cfi_def_cfa_offset 8
  85              	 .cfi_offset 7,-8
  86              	 .cfi_offset 14,-4
  87              	 .pad #16
  88 0002 84B0     	 sub sp,sp,#16
  89              	 .cfi_def_cfa_offset 24
  90              	 .setfp r7,sp,#0
  91 0004 00AF     	 add r7,sp,#0
  92              	 .cfi_def_cfa_register 7
  93 0006 F860     	 str r0,[r7,#12]
  94 0008 B960     	 str r1,[r7,#8]
  95 000a 7A60     	 str r2,[r7,#4]
  96 000c 3B60     	 str r3,[r7]
 132:C:\Users\niels\Documents\Elektrotechniek\Jaar 2\ECS\ECSL\software\STM32\STM32Basis\Segger\Segger_RTT\Syscalls\SEGGER_RTT_Syscalls_GCC.c **** 	(void) file;  /* Not used, avoid warning */
ARM GAS   			page 5


 133:C:\Users\niels\Documents\Elektrotechniek\Jaar 2\ECS\ECSL\software\STM32\STM32Basis\Segger\Segger_RTT\Syscalls\SEGGER_RTT_Syscalls_GCC.c **** 	(void) r;     /* Not used, avoid warning */
 134:C:\Users\niels\Documents\Elektrotechniek\Jaar 2\ECS\ECSL\software\STM32\STM32Basis\Segger\Segger_RTT\Syscalls\SEGGER_RTT_Syscalls_GCC.c **** 	SEGGER_RTT_Write(0, ptr, len);
  97              	 .loc 1 134 18
  98 000e 3A68     	 ldr r2,[r7]
  99 0010 7968     	 ldr r1,[r7,#4]
 100 0012 0020     	 movs r0,#0
 101 0014 FFF7FEFF 	 bl SEGGER_RTT_Write
 135:C:\Users\niels\Documents\Elektrotechniek\Jaar 2\ECS\ECSL\software\STM32\STM32Basis\Segger\Segger_RTT\Syscalls\SEGGER_RTT_Syscalls_GCC.c **** 	return len;
 102              	 .loc 1 135 9
 103 0018 3B68     	 ldr r3,[r7]
 136:C:\Users\niels\Documents\Elektrotechniek\Jaar 2\ECS\ECSL\software\STM32\STM32Basis\Segger\Segger_RTT\Syscalls\SEGGER_RTT_Syscalls_GCC.c **** }
 104              	 .loc 1 136 1
 105 001a 1846     	 mov r0,r3
 106 001c 1037     	 adds r7,r7,#16
 107              	 .cfi_def_cfa_offset 8
 108 001e BD46     	 mov sp,r7
 109              	 .cfi_def_cfa_register 13
 110              	 
 111 0020 80BD     	 pop {r7,pc}
 112              	 .cfi_endproc
 113              	.LFE8:
 114              	 .fnend
 115              	 .size _write_r,.-_write_r
 116              	 .text
 117              	.Letext0:
 118              	 .file 2 "c:\\progra~2\\gnuarm~1\\102021~1.10\\lib\\gcc\\arm-none-eabi\\10.3.1\\include\\stddef.h"
 119              	 .file 3 "c:\\progra~2\\gnuarm~1\\102021~1.10\\arm-none-eabi\\include\\sys\\_types.h"
 120              	 .file 4 "c:\\progra~2\\gnuarm~1\\102021~1.10\\arm-none-eabi\\include\\sys\\reent.h"
 121              	 .file 5 "c:\\progra~2\\gnuarm~1\\102021~1.10\\arm-none-eabi\\include\\sys\\lock.h"
 122              	 .file 6 "c:\\progra~2\\gnuarm~1\\102021~1.10\\arm-none-eabi\\include\\c++\\10.3.1\\cstdlib"
 123              	 .file 7 "c:\\progra~2\\gnuarm~1\\102021~1.10\\arm-none-eabi\\include\\c++\\10.3.1\\bits\\std_abs.h"
 124              	 .file 8 "c:\\progra~2\\gnuarm~1\\102021~1.10\\arm-none-eabi\\include\\c++\\10.3.1\\arm-none-eabi\\thumb\\v7e-m+fp\\hard\\bits\\c++config.h"
 125              	 .file 9 "c:\\progra~2\\gnuarm~1\\102021~1.10\\arm-none-eabi\\include\\stdlib.h"
 126              	 .file 10 "c:\\progra~2\\gnuarm~1\\102021~1.10\\arm-none-eabi\\include\\c++\\10.3.1\\stdlib.h"
 127              	 .file 11 "<built-in>"