ARM GAS   			page 1


   1              	 .cpu cortex-m4
   2              	 .arch armv7e-m
   3              	 .fpu fpv4-sp-d16
   4              	 .eabi_attribute 27,1
   5              	 .eabi_attribute 28,1
   6              	 .eabi_attribute 20,1
   7              	 .eabi_attribute 21,1
   8              	 .eabi_attribute 23,3
   9              	 .eabi_attribute 24,1
  10              	 .eabi_attribute 25,1
  11              	 .eabi_attribute 26,1
  12              	 .eabi_attribute 30,6
  13              	 .eabi_attribute 34,0
  14              	 .eabi_attribute 18,4
  15              	 .file "SEGGER_RTT_printf.c"
  16              	 .text
  17              	.Ltext0:
  18              	 .cfi_sections .debug_frame
  19              	 .section .text._ZL10_StoreCharP22SEGGER_RTT_PRINTF_DESCc,"ax",%progbits
  20              	 .align 1
  21              	 .syntax unified
  22              	 .thumb
  23              	 .thumb_func
  24              	 .type _ZL10_StoreCharP22SEGGER_RTT_PRINTF_DESCc,%function
  25              	_ZL10_StoreCharP22SEGGER_RTT_PRINTF_DESCc:
  26              	 .fnstart
  27              	.LFB7:
  28              	 .file 1 "C:\\Users\\niels\\Documents\\Elektrotechniek\\Jaar 2\\ECS\\ECSL\\software\\STM32\\STM32Basis\\Segger\\Segger_RTT\\RTT\\SEGGER_RTT_printf.c"
   1:C:\Users\niels\Documents\Elektrotechniek\Jaar 2\ECS\ECSL\software\STM32\STM32Basis\Segger\Segger_RTT\RTT\SEGGER_RTT_printf.c **** /*********************************************************************
   2:C:\Users\niels\Documents\Elektrotechniek\Jaar 2\ECS\ECSL\software\STM32\STM32Basis\Segger\Segger_RTT\RTT\SEGGER_RTT_printf.c **** *                    SEGGER Microcontroller GmbH                     *
   3:C:\Users\niels\Documents\Elektrotechniek\Jaar 2\ECS\ECSL\software\STM32\STM32Basis\Segger\Segger_RTT\RTT\SEGGER_RTT_printf.c **** *                        The Embedded Experts                        *
   4:C:\Users\niels\Documents\Elektrotechniek\Jaar 2\ECS\ECSL\software\STM32\STM32Basis\Segger\Segger_RTT\RTT\SEGGER_RTT_printf.c **** **********************************************************************
   5:C:\Users\niels\Documents\Elektrotechniek\Jaar 2\ECS\ECSL\software\STM32\STM32Basis\Segger\Segger_RTT\RTT\SEGGER_RTT_printf.c **** *                                                                    *
   6:C:\Users\niels\Documents\Elektrotechniek\Jaar 2\ECS\ECSL\software\STM32\STM32Basis\Segger\Segger_RTT\RTT\SEGGER_RTT_printf.c **** *            (c) 1995 - 2018 SEGGER Microcontroller GmbH             *
   7:C:\Users\niels\Documents\Elektrotechniek\Jaar 2\ECS\ECSL\software\STM32\STM32Basis\Segger\Segger_RTT\RTT\SEGGER_RTT_printf.c **** *                                                                    *
   8:C:\Users\niels\Documents\Elektrotechniek\Jaar 2\ECS\ECSL\software\STM32\STM32Basis\Segger\Segger_RTT\RTT\SEGGER_RTT_printf.c **** *       www.segger.com     Support: support@segger.com               *
   9:C:\Users\niels\Documents\Elektrotechniek\Jaar 2\ECS\ECSL\software\STM32\STM32Basis\Segger\Segger_RTT\RTT\SEGGER_RTT_printf.c **** *                                                                    *
  10:C:\Users\niels\Documents\Elektrotechniek\Jaar 2\ECS\ECSL\software\STM32\STM32Basis\Segger\Segger_RTT\RTT\SEGGER_RTT_printf.c **** **********************************************************************
  11:C:\Users\niels\Documents\Elektrotechniek\Jaar 2\ECS\ECSL\software\STM32\STM32Basis\Segger\Segger_RTT\RTT\SEGGER_RTT_printf.c **** *                                                                    *
  12:C:\Users\niels\Documents\Elektrotechniek\Jaar 2\ECS\ECSL\software\STM32\STM32Basis\Segger\Segger_RTT\RTT\SEGGER_RTT_printf.c **** *       SEGGER RTT * Real Time Transfer for embedded targets         *
  13:C:\Users\niels\Documents\Elektrotechniek\Jaar 2\ECS\ECSL\software\STM32\STM32Basis\Segger\Segger_RTT\RTT\SEGGER_RTT_printf.c **** *                                                                    *
  14:C:\Users\niels\Documents\Elektrotechniek\Jaar 2\ECS\ECSL\software\STM32\STM32Basis\Segger\Segger_RTT\RTT\SEGGER_RTT_printf.c **** **********************************************************************
  15:C:\Users\niels\Documents\Elektrotechniek\Jaar 2\ECS\ECSL\software\STM32\STM32Basis\Segger\Segger_RTT\RTT\SEGGER_RTT_printf.c **** *                                                                    *
  16:C:\Users\niels\Documents\Elektrotechniek\Jaar 2\ECS\ECSL\software\STM32\STM32Basis\Segger\Segger_RTT\RTT\SEGGER_RTT_printf.c **** * All rights reserved.                                               *
  17:C:\Users\niels\Documents\Elektrotechniek\Jaar 2\ECS\ECSL\software\STM32\STM32Basis\Segger\Segger_RTT\RTT\SEGGER_RTT_printf.c **** *                                                                    *
  18:C:\Users\niels\Documents\Elektrotechniek\Jaar 2\ECS\ECSL\software\STM32\STM32Basis\Segger\Segger_RTT\RTT\SEGGER_RTT_printf.c **** * SEGGER strongly recommends to not make any changes                 *
  19:C:\Users\niels\Documents\Elektrotechniek\Jaar 2\ECS\ECSL\software\STM32\STM32Basis\Segger\Segger_RTT\RTT\SEGGER_RTT_printf.c **** * to or modify the source code of this software in order to stay     *
  20:C:\Users\niels\Documents\Elektrotechniek\Jaar 2\ECS\ECSL\software\STM32\STM32Basis\Segger\Segger_RTT\RTT\SEGGER_RTT_printf.c **** * compatible with the RTT protocol and J-Link.                       *
  21:C:\Users\niels\Documents\Elektrotechniek\Jaar 2\ECS\ECSL\software\STM32\STM32Basis\Segger\Segger_RTT\RTT\SEGGER_RTT_printf.c **** *                                                                    *
  22:C:\Users\niels\Documents\Elektrotechniek\Jaar 2\ECS\ECSL\software\STM32\STM32Basis\Segger\Segger_RTT\RTT\SEGGER_RTT_printf.c **** * Redistribution and use in source and binary forms, with or         *
  23:C:\Users\niels\Documents\Elektrotechniek\Jaar 2\ECS\ECSL\software\STM32\STM32Basis\Segger\Segger_RTT\RTT\SEGGER_RTT_printf.c **** * without modification, are permitted provided that the following    *
  24:C:\Users\niels\Documents\Elektrotechniek\Jaar 2\ECS\ECSL\software\STM32\STM32Basis\Segger\Segger_RTT\RTT\SEGGER_RTT_printf.c **** * conditions are met:                                                *
  25:C:\Users\niels\Documents\Elektrotechniek\Jaar 2\ECS\ECSL\software\STM32\STM32Basis\Segger\Segger_RTT\RTT\SEGGER_RTT_printf.c **** *                                                                    *
  26:C:\Users\niels\Documents\Elektrotechniek\Jaar 2\ECS\ECSL\software\STM32\STM32Basis\Segger\Segger_RTT\RTT\SEGGER_RTT_printf.c **** * o Redistributions of source code must retain the above copyright   *
  27:C:\Users\niels\Documents\Elektrotechniek\Jaar 2\ECS\ECSL\software\STM32\STM32Basis\Segger\Segger_RTT\RTT\SEGGER_RTT_printf.c **** *   notice, this list of conditions and the following disclaimer.    *
  28:C:\Users\niels\Documents\Elektrotechniek\Jaar 2\ECS\ECSL\software\STM32\STM32Basis\Segger\Segger_RTT\RTT\SEGGER_RTT_printf.c **** *                                                                    *
  29:C:\Users\niels\Documents\Elektrotechniek\Jaar 2\ECS\ECSL\software\STM32\STM32Basis\Segger\Segger_RTT\RTT\SEGGER_RTT_printf.c **** * o Redistributions in binary form must reproduce the above          *
ARM GAS   			page 2


  30:C:\Users\niels\Documents\Elektrotechniek\Jaar 2\ECS\ECSL\software\STM32\STM32Basis\Segger\Segger_RTT\RTT\SEGGER_RTT_printf.c **** *   copyright notice, this list of conditions and the following      *
  31:C:\Users\niels\Documents\Elektrotechniek\Jaar 2\ECS\ECSL\software\STM32\STM32Basis\Segger\Segger_RTT\RTT\SEGGER_RTT_printf.c **** *   disclaimer in the documentation and/or other materials provided  *
  32:C:\Users\niels\Documents\Elektrotechniek\Jaar 2\ECS\ECSL\software\STM32\STM32Basis\Segger\Segger_RTT\RTT\SEGGER_RTT_printf.c **** *   with the distribution.                                           *
  33:C:\Users\niels\Documents\Elektrotechniek\Jaar 2\ECS\ECSL\software\STM32\STM32Basis\Segger\Segger_RTT\RTT\SEGGER_RTT_printf.c **** *                                                                    *
  34:C:\Users\niels\Documents\Elektrotechniek\Jaar 2\ECS\ECSL\software\STM32\STM32Basis\Segger\Segger_RTT\RTT\SEGGER_RTT_printf.c **** * o Neither the name of SEGGER Microcontroller GmbH         *
  35:C:\Users\niels\Documents\Elektrotechniek\Jaar 2\ECS\ECSL\software\STM32\STM32Basis\Segger\Segger_RTT\RTT\SEGGER_RTT_printf.c **** *   nor the names of its contributors may be used to endorse or      *
  36:C:\Users\niels\Documents\Elektrotechniek\Jaar 2\ECS\ECSL\software\STM32\STM32Basis\Segger\Segger_RTT\RTT\SEGGER_RTT_printf.c **** *   promote products derived from this software without specific     *
  37:C:\Users\niels\Documents\Elektrotechniek\Jaar 2\ECS\ECSL\software\STM32\STM32Basis\Segger\Segger_RTT\RTT\SEGGER_RTT_printf.c **** *   prior written permission.                                        *
  38:C:\Users\niels\Documents\Elektrotechniek\Jaar 2\ECS\ECSL\software\STM32\STM32Basis\Segger\Segger_RTT\RTT\SEGGER_RTT_printf.c **** *                                                                    *
  39:C:\Users\niels\Documents\Elektrotechniek\Jaar 2\ECS\ECSL\software\STM32\STM32Basis\Segger\Segger_RTT\RTT\SEGGER_RTT_printf.c **** * THIS SOFTWARE IS PROVIDED BY THE COPYRIGHT HOLDERS AND             *
  40:C:\Users\niels\Documents\Elektrotechniek\Jaar 2\ECS\ECSL\software\STM32\STM32Basis\Segger\Segger_RTT\RTT\SEGGER_RTT_printf.c **** * CONTRIBUTORS "AS IS" AND ANY EXPRESS OR IMPLIED WARRANTIES,        *
  41:C:\Users\niels\Documents\Elektrotechniek\Jaar 2\ECS\ECSL\software\STM32\STM32Basis\Segger\Segger_RTT\RTT\SEGGER_RTT_printf.c **** * INCLUDING, BUT NOT LIMITED TO, THE IMPLIED WARRANTIES OF           *
  42:C:\Users\niels\Documents\Elektrotechniek\Jaar 2\ECS\ECSL\software\STM32\STM32Basis\Segger\Segger_RTT\RTT\SEGGER_RTT_printf.c **** * MERCHANTABILITY AND FITNESS FOR A PARTICULAR PURPOSE ARE           *
  43:C:\Users\niels\Documents\Elektrotechniek\Jaar 2\ECS\ECSL\software\STM32\STM32Basis\Segger\Segger_RTT\RTT\SEGGER_RTT_printf.c **** * DISCLAIMED. IN NO EVENT SHALL SEGGER Microcontroller BE LIABLE FOR *
  44:C:\Users\niels\Documents\Elektrotechniek\Jaar 2\ECS\ECSL\software\STM32\STM32Basis\Segger\Segger_RTT\RTT\SEGGER_RTT_printf.c **** * ANY DIRECT, INDIRECT, INCIDENTAL, SPECIAL, EXEMPLARY, OR           *
  45:C:\Users\niels\Documents\Elektrotechniek\Jaar 2\ECS\ECSL\software\STM32\STM32Basis\Segger\Segger_RTT\RTT\SEGGER_RTT_printf.c **** * CONSEQUENTIAL DAMAGES (INCLUDING, BUT NOT LIMITED TO, PROCUREMENT  *
  46:C:\Users\niels\Documents\Elektrotechniek\Jaar 2\ECS\ECSL\software\STM32\STM32Basis\Segger\Segger_RTT\RTT\SEGGER_RTT_printf.c **** * OF SUBSTITUTE GOODS OR SERVICES; LOSS OF USE, DATA, OR PROFITS;    *
  47:C:\Users\niels\Documents\Elektrotechniek\Jaar 2\ECS\ECSL\software\STM32\STM32Basis\Segger\Segger_RTT\RTT\SEGGER_RTT_printf.c **** * OR BUSINESS INTERRUPTION) HOWEVER CAUSED AND ON ANY THEORY OF      *
  48:C:\Users\niels\Documents\Elektrotechniek\Jaar 2\ECS\ECSL\software\STM32\STM32Basis\Segger\Segger_RTT\RTT\SEGGER_RTT_printf.c **** * LIABILITY, WHETHER IN CONTRACT, STRICT LIABILITY, OR TORT          *
  49:C:\Users\niels\Documents\Elektrotechniek\Jaar 2\ECS\ECSL\software\STM32\STM32Basis\Segger\Segger_RTT\RTT\SEGGER_RTT_printf.c **** * (INCLUDING NEGLIGENCE OR OTHERWISE) ARISING IN ANY WAY OUT OF THE  *
  50:C:\Users\niels\Documents\Elektrotechniek\Jaar 2\ECS\ECSL\software\STM32\STM32Basis\Segger\Segger_RTT\RTT\SEGGER_RTT_printf.c **** * USE OF THIS SOFTWARE, EVEN IF ADVISED OF THE POSSIBILITY OF SUCH   *
  51:C:\Users\niels\Documents\Elektrotechniek\Jaar 2\ECS\ECSL\software\STM32\STM32Basis\Segger\Segger_RTT\RTT\SEGGER_RTT_printf.c **** * DAMAGE.                                                            *
  52:C:\Users\niels\Documents\Elektrotechniek\Jaar 2\ECS\ECSL\software\STM32\STM32Basis\Segger\Segger_RTT\RTT\SEGGER_RTT_printf.c **** *                                                                    *
  53:C:\Users\niels\Documents\Elektrotechniek\Jaar 2\ECS\ECSL\software\STM32\STM32Basis\Segger\Segger_RTT\RTT\SEGGER_RTT_printf.c **** **********************************************************************
  54:C:\Users\niels\Documents\Elektrotechniek\Jaar 2\ECS\ECSL\software\STM32\STM32Basis\Segger\Segger_RTT\RTT\SEGGER_RTT_printf.c **** *                                                                    *
  55:C:\Users\niels\Documents\Elektrotechniek\Jaar 2\ECS\ECSL\software\STM32\STM32Basis\Segger\Segger_RTT\RTT\SEGGER_RTT_printf.c **** *       RTT version: 6.34h                                           *
  56:C:\Users\niels\Documents\Elektrotechniek\Jaar 2\ECS\ECSL\software\STM32\STM32Basis\Segger\Segger_RTT\RTT\SEGGER_RTT_printf.c **** *                                                                    *
  57:C:\Users\niels\Documents\Elektrotechniek\Jaar 2\ECS\ECSL\software\STM32\STM32Basis\Segger\Segger_RTT\RTT\SEGGER_RTT_printf.c **** **********************************************************************
  58:C:\Users\niels\Documents\Elektrotechniek\Jaar 2\ECS\ECSL\software\STM32\STM32Basis\Segger\Segger_RTT\RTT\SEGGER_RTT_printf.c **** ---------------------------END-OF-HEADER------------------------------
  59:C:\Users\niels\Documents\Elektrotechniek\Jaar 2\ECS\ECSL\software\STM32\STM32Basis\Segger\Segger_RTT\RTT\SEGGER_RTT_printf.c **** File    : SEGGER_RTT_printf.c
  60:C:\Users\niels\Documents\Elektrotechniek\Jaar 2\ECS\ECSL\software\STM32\STM32Basis\Segger\Segger_RTT\RTT\SEGGER_RTT_printf.c **** Purpose : Replacement for printf to write formatted data via RTT
  61:C:\Users\niels\Documents\Elektrotechniek\Jaar 2\ECS\ECSL\software\STM32\STM32Basis\Segger\Segger_RTT\RTT\SEGGER_RTT_printf.c **** Revision: $Rev: 12489 $
  62:C:\Users\niels\Documents\Elektrotechniek\Jaar 2\ECS\ECSL\software\STM32\STM32Basis\Segger\Segger_RTT\RTT\SEGGER_RTT_printf.c **** ----------------------------------------------------------------------
  63:C:\Users\niels\Documents\Elektrotechniek\Jaar 2\ECS\ECSL\software\STM32\STM32Basis\Segger\Segger_RTT\RTT\SEGGER_RTT_printf.c **** */
  64:C:\Users\niels\Documents\Elektrotechniek\Jaar 2\ECS\ECSL\software\STM32\STM32Basis\Segger\Segger_RTT\RTT\SEGGER_RTT_printf.c **** #include "SEGGER_RTT.h"
  65:C:\Users\niels\Documents\Elektrotechniek\Jaar 2\ECS\ECSL\software\STM32\STM32Basis\Segger\Segger_RTT\RTT\SEGGER_RTT_printf.c **** #include "SEGGER_RTT_Conf.h"
  66:C:\Users\niels\Documents\Elektrotechniek\Jaar 2\ECS\ECSL\software\STM32\STM32Basis\Segger\Segger_RTT\RTT\SEGGER_RTT_printf.c **** 
  67:C:\Users\niels\Documents\Elektrotechniek\Jaar 2\ECS\ECSL\software\STM32\STM32Basis\Segger\Segger_RTT\RTT\SEGGER_RTT_printf.c **** /*********************************************************************
  68:C:\Users\niels\Documents\Elektrotechniek\Jaar 2\ECS\ECSL\software\STM32\STM32Basis\Segger\Segger_RTT\RTT\SEGGER_RTT_printf.c **** *
  69:C:\Users\niels\Documents\Elektrotechniek\Jaar 2\ECS\ECSL\software\STM32\STM32Basis\Segger\Segger_RTT\RTT\SEGGER_RTT_printf.c **** *       Defines, configurable
  70:C:\Users\niels\Documents\Elektrotechniek\Jaar 2\ECS\ECSL\software\STM32\STM32Basis\Segger\Segger_RTT\RTT\SEGGER_RTT_printf.c **** *
  71:C:\Users\niels\Documents\Elektrotechniek\Jaar 2\ECS\ECSL\software\STM32\STM32Basis\Segger\Segger_RTT\RTT\SEGGER_RTT_printf.c **** **********************************************************************
  72:C:\Users\niels\Documents\Elektrotechniek\Jaar 2\ECS\ECSL\software\STM32\STM32Basis\Segger\Segger_RTT\RTT\SEGGER_RTT_printf.c **** */
  73:C:\Users\niels\Documents\Elektrotechniek\Jaar 2\ECS\ECSL\software\STM32\STM32Basis\Segger\Segger_RTT\RTT\SEGGER_RTT_printf.c **** 
  74:C:\Users\niels\Documents\Elektrotechniek\Jaar 2\ECS\ECSL\software\STM32\STM32Basis\Segger\Segger_RTT\RTT\SEGGER_RTT_printf.c **** #ifndef SEGGER_RTT_PRINTF_BUFFER_SIZE
  75:C:\Users\niels\Documents\Elektrotechniek\Jaar 2\ECS\ECSL\software\STM32\STM32Basis\Segger\Segger_RTT\RTT\SEGGER_RTT_printf.c ****   #define SEGGER_RTT_PRINTF_BUFFER_SIZE (64)
  76:C:\Users\niels\Documents\Elektrotechniek\Jaar 2\ECS\ECSL\software\STM32\STM32Basis\Segger\Segger_RTT\RTT\SEGGER_RTT_printf.c **** #endif
  77:C:\Users\niels\Documents\Elektrotechniek\Jaar 2\ECS\ECSL\software\STM32\STM32Basis\Segger\Segger_RTT\RTT\SEGGER_RTT_printf.c **** 
  78:C:\Users\niels\Documents\Elektrotechniek\Jaar 2\ECS\ECSL\software\STM32\STM32Basis\Segger\Segger_RTT\RTT\SEGGER_RTT_printf.c **** #include <stdlib.h>
  79:C:\Users\niels\Documents\Elektrotechniek\Jaar 2\ECS\ECSL\software\STM32\STM32Basis\Segger\Segger_RTT\RTT\SEGGER_RTT_printf.c **** #include <stdarg.h>
  80:C:\Users\niels\Documents\Elektrotechniek\Jaar 2\ECS\ECSL\software\STM32\STM32Basis\Segger\Segger_RTT\RTT\SEGGER_RTT_printf.c **** 
  81:C:\Users\niels\Documents\Elektrotechniek\Jaar 2\ECS\ECSL\software\STM32\STM32Basis\Segger\Segger_RTT\RTT\SEGGER_RTT_printf.c **** 
  82:C:\Users\niels\Documents\Elektrotechniek\Jaar 2\ECS\ECSL\software\STM32\STM32Basis\Segger\Segger_RTT\RTT\SEGGER_RTT_printf.c **** #define FORMAT_FLAG_LEFT_JUSTIFY   (1u << 0)
  83:C:\Users\niels\Documents\Elektrotechniek\Jaar 2\ECS\ECSL\software\STM32\STM32Basis\Segger\Segger_RTT\RTT\SEGGER_RTT_printf.c **** #define FORMAT_FLAG_PAD_ZERO       (1u << 1)
  84:C:\Users\niels\Documents\Elektrotechniek\Jaar 2\ECS\ECSL\software\STM32\STM32Basis\Segger\Segger_RTT\RTT\SEGGER_RTT_printf.c **** #define FORMAT_FLAG_PRINT_SIGN     (1u << 2)
  85:C:\Users\niels\Documents\Elektrotechniek\Jaar 2\ECS\ECSL\software\STM32\STM32Basis\Segger\Segger_RTT\RTT\SEGGER_RTT_printf.c **** #define FORMAT_FLAG_ALTERNATE      (1u << 3)
  86:C:\Users\niels\Documents\Elektrotechniek\Jaar 2\ECS\ECSL\software\STM32\STM32Basis\Segger\Segger_RTT\RTT\SEGGER_RTT_printf.c **** 
ARM GAS   			page 3


  87:C:\Users\niels\Documents\Elektrotechniek\Jaar 2\ECS\ECSL\software\STM32\STM32Basis\Segger\Segger_RTT\RTT\SEGGER_RTT_printf.c **** /*********************************************************************
  88:C:\Users\niels\Documents\Elektrotechniek\Jaar 2\ECS\ECSL\software\STM32\STM32Basis\Segger\Segger_RTT\RTT\SEGGER_RTT_printf.c **** *
  89:C:\Users\niels\Documents\Elektrotechniek\Jaar 2\ECS\ECSL\software\STM32\STM32Basis\Segger\Segger_RTT\RTT\SEGGER_RTT_printf.c **** *       Types
  90:C:\Users\niels\Documents\Elektrotechniek\Jaar 2\ECS\ECSL\software\STM32\STM32Basis\Segger\Segger_RTT\RTT\SEGGER_RTT_printf.c **** *
  91:C:\Users\niels\Documents\Elektrotechniek\Jaar 2\ECS\ECSL\software\STM32\STM32Basis\Segger\Segger_RTT\RTT\SEGGER_RTT_printf.c **** **********************************************************************
  92:C:\Users\niels\Documents\Elektrotechniek\Jaar 2\ECS\ECSL\software\STM32\STM32Basis\Segger\Segger_RTT\RTT\SEGGER_RTT_printf.c **** */
  93:C:\Users\niels\Documents\Elektrotechniek\Jaar 2\ECS\ECSL\software\STM32\STM32Basis\Segger\Segger_RTT\RTT\SEGGER_RTT_printf.c **** 
  94:C:\Users\niels\Documents\Elektrotechniek\Jaar 2\ECS\ECSL\software\STM32\STM32Basis\Segger\Segger_RTT\RTT\SEGGER_RTT_printf.c **** typedef struct {
  95:C:\Users\niels\Documents\Elektrotechniek\Jaar 2\ECS\ECSL\software\STM32\STM32Basis\Segger\Segger_RTT\RTT\SEGGER_RTT_printf.c ****   char*     pBuffer;
  96:C:\Users\niels\Documents\Elektrotechniek\Jaar 2\ECS\ECSL\software\STM32\STM32Basis\Segger\Segger_RTT\RTT\SEGGER_RTT_printf.c ****   unsigned  BufferSize;
  97:C:\Users\niels\Documents\Elektrotechniek\Jaar 2\ECS\ECSL\software\STM32\STM32Basis\Segger\Segger_RTT\RTT\SEGGER_RTT_printf.c ****   unsigned  Cnt;
  98:C:\Users\niels\Documents\Elektrotechniek\Jaar 2\ECS\ECSL\software\STM32\STM32Basis\Segger\Segger_RTT\RTT\SEGGER_RTT_printf.c **** 
  99:C:\Users\niels\Documents\Elektrotechniek\Jaar 2\ECS\ECSL\software\STM32\STM32Basis\Segger\Segger_RTT\RTT\SEGGER_RTT_printf.c ****   int   ReturnValue;
 100:C:\Users\niels\Documents\Elektrotechniek\Jaar 2\ECS\ECSL\software\STM32\STM32Basis\Segger\Segger_RTT\RTT\SEGGER_RTT_printf.c **** 
 101:C:\Users\niels\Documents\Elektrotechniek\Jaar 2\ECS\ECSL\software\STM32\STM32Basis\Segger\Segger_RTT\RTT\SEGGER_RTT_printf.c ****   unsigned RTTBufferIndex;
 102:C:\Users\niels\Documents\Elektrotechniek\Jaar 2\ECS\ECSL\software\STM32\STM32Basis\Segger\Segger_RTT\RTT\SEGGER_RTT_printf.c **** } SEGGER_RTT_PRINTF_DESC;
 103:C:\Users\niels\Documents\Elektrotechniek\Jaar 2\ECS\ECSL\software\STM32\STM32Basis\Segger\Segger_RTT\RTT\SEGGER_RTT_printf.c **** 
 104:C:\Users\niels\Documents\Elektrotechniek\Jaar 2\ECS\ECSL\software\STM32\STM32Basis\Segger\Segger_RTT\RTT\SEGGER_RTT_printf.c **** /*********************************************************************
 105:C:\Users\niels\Documents\Elektrotechniek\Jaar 2\ECS\ECSL\software\STM32\STM32Basis\Segger\Segger_RTT\RTT\SEGGER_RTT_printf.c **** *
 106:C:\Users\niels\Documents\Elektrotechniek\Jaar 2\ECS\ECSL\software\STM32\STM32Basis\Segger\Segger_RTT\RTT\SEGGER_RTT_printf.c **** *       Function prototypes
 107:C:\Users\niels\Documents\Elektrotechniek\Jaar 2\ECS\ECSL\software\STM32\STM32Basis\Segger\Segger_RTT\RTT\SEGGER_RTT_printf.c **** *
 108:C:\Users\niels\Documents\Elektrotechniek\Jaar 2\ECS\ECSL\software\STM32\STM32Basis\Segger\Segger_RTT\RTT\SEGGER_RTT_printf.c **** **********************************************************************
 109:C:\Users\niels\Documents\Elektrotechniek\Jaar 2\ECS\ECSL\software\STM32\STM32Basis\Segger\Segger_RTT\RTT\SEGGER_RTT_printf.c **** */
 110:C:\Users\niels\Documents\Elektrotechniek\Jaar 2\ECS\ECSL\software\STM32\STM32Basis\Segger\Segger_RTT\RTT\SEGGER_RTT_printf.c **** 
 111:C:\Users\niels\Documents\Elektrotechniek\Jaar 2\ECS\ECSL\software\STM32\STM32Basis\Segger\Segger_RTT\RTT\SEGGER_RTT_printf.c **** /*********************************************************************
 112:C:\Users\niels\Documents\Elektrotechniek\Jaar 2\ECS\ECSL\software\STM32\STM32Basis\Segger\Segger_RTT\RTT\SEGGER_RTT_printf.c **** *
 113:C:\Users\niels\Documents\Elektrotechniek\Jaar 2\ECS\ECSL\software\STM32\STM32Basis\Segger\Segger_RTT\RTT\SEGGER_RTT_printf.c **** *       Static code
 114:C:\Users\niels\Documents\Elektrotechniek\Jaar 2\ECS\ECSL\software\STM32\STM32Basis\Segger\Segger_RTT\RTT\SEGGER_RTT_printf.c **** *
 115:C:\Users\niels\Documents\Elektrotechniek\Jaar 2\ECS\ECSL\software\STM32\STM32Basis\Segger\Segger_RTT\RTT\SEGGER_RTT_printf.c **** **********************************************************************
 116:C:\Users\niels\Documents\Elektrotechniek\Jaar 2\ECS\ECSL\software\STM32\STM32Basis\Segger\Segger_RTT\RTT\SEGGER_RTT_printf.c **** */
 117:C:\Users\niels\Documents\Elektrotechniek\Jaar 2\ECS\ECSL\software\STM32\STM32Basis\Segger\Segger_RTT\RTT\SEGGER_RTT_printf.c **** /*********************************************************************
 118:C:\Users\niels\Documents\Elektrotechniek\Jaar 2\ECS\ECSL\software\STM32\STM32Basis\Segger\Segger_RTT\RTT\SEGGER_RTT_printf.c **** *
 119:C:\Users\niels\Documents\Elektrotechniek\Jaar 2\ECS\ECSL\software\STM32\STM32Basis\Segger\Segger_RTT\RTT\SEGGER_RTT_printf.c **** *       _StoreChar
 120:C:\Users\niels\Documents\Elektrotechniek\Jaar 2\ECS\ECSL\software\STM32\STM32Basis\Segger\Segger_RTT\RTT\SEGGER_RTT_printf.c **** */
 121:C:\Users\niels\Documents\Elektrotechniek\Jaar 2\ECS\ECSL\software\STM32\STM32Basis\Segger\Segger_RTT\RTT\SEGGER_RTT_printf.c **** static void _StoreChar(SEGGER_RTT_PRINTF_DESC * p, char c) {
  29              	 .loc 1 121 60
  30              	 .cfi_startproc
  31              	 
  32              	 
  33 0000 80B5     	 push {r7,lr}
  34              	 .save {r7,lr}
  35              	 .cfi_def_cfa_offset 8
  36              	 .cfi_offset 7,-8
  37              	 .cfi_offset 14,-4
  38              	 .pad #16
  39 0002 84B0     	 sub sp,sp,#16
  40              	 .cfi_def_cfa_offset 24
  41              	 .setfp r7,sp,#0
  42 0004 00AF     	 add r7,sp,#0
  43              	 .cfi_def_cfa_register 7
  44 0006 7860     	 str r0,[r7,#4]
  45 0008 0B46     	 mov r3,r1
  46 000a FB70     	 strb r3,[r7,#3]
 122:C:\Users\niels\Documents\Elektrotechniek\Jaar 2\ECS\ECSL\software\STM32\STM32Basis\Segger\Segger_RTT\RTT\SEGGER_RTT_printf.c ****   unsigned Cnt;
 123:C:\Users\niels\Documents\Elektrotechniek\Jaar 2\ECS\ECSL\software\STM32\STM32Basis\Segger\Segger_RTT\RTT\SEGGER_RTT_printf.c **** 
 124:C:\Users\niels\Documents\Elektrotechniek\Jaar 2\ECS\ECSL\software\STM32\STM32Basis\Segger\Segger_RTT\RTT\SEGGER_RTT_printf.c ****   Cnt = p->Cnt;
  47              	 .loc 1 124 7
ARM GAS   			page 4


  48 000c 7B68     	 ldr r3,[r7,#4]
  49 000e 9B68     	 ldr r3,[r3,#8]
  50 0010 FB60     	 str r3,[r7,#12]
 125:C:\Users\niels\Documents\Elektrotechniek\Jaar 2\ECS\ECSL\software\STM32\STM32Basis\Segger\Segger_RTT\RTT\SEGGER_RTT_printf.c ****   if ((Cnt + 1u) <= p->BufferSize) {
  51              	 .loc 1 125 12
  52 0012 FB68     	 ldr r3,[r7,#12]
  53 0014 5A1C     	 adds r2,r3,#1
  54              	 .loc 1 125 24
  55 0016 7B68     	 ldr r3,[r7,#4]
  56 0018 5B68     	 ldr r3,[r3,#4]
  57              	 .loc 1 125 3
  58 001a 9A42     	 cmp r2,r3
  59 001c 0ED8     	 bhi .L2
 126:C:\Users\niels\Documents\Elektrotechniek\Jaar 2\ECS\ECSL\software\STM32\STM32Basis\Segger\Segger_RTT\RTT\SEGGER_RTT_printf.c ****     *(p->pBuffer + Cnt) = c;
  60              	 .loc 1 126 10
  61 001e 7B68     	 ldr r3,[r7,#4]
  62 0020 1A68     	 ldr r2,[r3]
  63              	 .loc 1 126 18
  64 0022 FB68     	 ldr r3,[r7,#12]
  65 0024 1344     	 add r3,r3,r2
  66              	 .loc 1 126 25
  67 0026 FA78     	 ldrb r2,[r7,#3]
  68 0028 1A70     	 strb r2,[r3]
 127:C:\Users\niels\Documents\Elektrotechniek\Jaar 2\ECS\ECSL\software\STM32\STM32Basis\Segger\Segger_RTT\RTT\SEGGER_RTT_printf.c ****     p->Cnt = Cnt + 1u;
  69              	 .loc 1 127 18
  70 002a FB68     	 ldr r3,[r7,#12]
  71 002c 5A1C     	 adds r2,r3,#1
  72              	 .loc 1 127 12
  73 002e 7B68     	 ldr r3,[r7,#4]
  74 0030 9A60     	 str r2,[r3,#8]
 128:C:\Users\niels\Documents\Elektrotechniek\Jaar 2\ECS\ECSL\software\STM32\STM32Basis\Segger\Segger_RTT\RTT\SEGGER_RTT_printf.c ****     p->ReturnValue++;
  75              	 .loc 1 128 8
  76 0032 7B68     	 ldr r3,[r7,#4]
  77 0034 DB68     	 ldr r3,[r3,#12]
  78              	 .loc 1 128 19
  79 0036 5A1C     	 adds r2,r3,#1
  80 0038 7B68     	 ldr r3,[r7,#4]
  81 003a DA60     	 str r2,[r3,#12]
  82              	.L2:
 129:C:\Users\niels\Documents\Elektrotechniek\Jaar 2\ECS\ECSL\software\STM32\STM32Basis\Segger\Segger_RTT\RTT\SEGGER_RTT_printf.c ****   }
 130:C:\Users\niels\Documents\Elektrotechniek\Jaar 2\ECS\ECSL\software\STM32\STM32Basis\Segger\Segger_RTT\RTT\SEGGER_RTT_printf.c ****   //
 131:C:\Users\niels\Documents\Elektrotechniek\Jaar 2\ECS\ECSL\software\STM32\STM32Basis\Segger\Segger_RTT\RTT\SEGGER_RTT_printf.c ****   // Write part of string, when the buffer is full
 132:C:\Users\niels\Documents\Elektrotechniek\Jaar 2\ECS\ECSL\software\STM32\STM32Basis\Segger\Segger_RTT\RTT\SEGGER_RTT_printf.c ****   //
 133:C:\Users\niels\Documents\Elektrotechniek\Jaar 2\ECS\ECSL\software\STM32\STM32Basis\Segger\Segger_RTT\RTT\SEGGER_RTT_printf.c ****   if (p->Cnt == p->BufferSize) {
  83              	 .loc 1 133 10
  84 003c 7B68     	 ldr r3,[r7,#4]
  85 003e 9A68     	 ldr r2,[r3,#8]
  86              	 .loc 1 133 20
  87 0040 7B68     	 ldr r3,[r7,#4]
  88 0042 5B68     	 ldr r3,[r3,#4]
  89              	 .loc 1 133 3
  90 0044 9A42     	 cmp r2,r3
  91 0046 1AD1     	 bne .L5
 134:C:\Users\niels\Documents\Elektrotechniek\Jaar 2\ECS\ECSL\software\STM32\STM32Basis\Segger\Segger_RTT\RTT\SEGGER_RTT_printf.c ****     if (SEGGER_RTT_Write(p->RTTBufferIndex, p->pBuffer, p->Cnt) != p->Cnt) {
  92              	 .loc 1 134 25
  93 0048 7B68     	 ldr r3,[r7,#4]
  94 004a 1869     	 ldr r0,[r3,#16]
ARM GAS   			page 5


  95              	 .loc 1 134 48
  96 004c 7B68     	 ldr r3,[r7,#4]
  97 004e 1968     	 ldr r1,[r3]
  98              	 .loc 1 134 25
  99 0050 7B68     	 ldr r3,[r7,#4]
 100 0052 9B68     	 ldr r3,[r3,#8]
 101 0054 1A46     	 mov r2,r3
 102 0056 FFF7FEFF 	 bl SEGGER_RTT_Write
 103 005a 0246     	 mov r2,r0
 104              	 .loc 1 134 71
 105 005c 7B68     	 ldr r3,[r7,#4]
 106 005e 9B68     	 ldr r3,[r3,#8]
 107              	 .loc 1 134 65
 108 0060 9A42     	 cmp r2,r3
 109 0062 14BF     	 ite ne
 110 0064 0123     	 movne r3,#1
 111 0066 0023     	 moveq r3,#0
 112 0068 DBB2     	 uxtb r3,r3
 113              	 .loc 1 134 5
 114 006a 002B     	 cmp r3,#0
 115 006c 04D0     	 beq .L4
 135:C:\Users\niels\Documents\Elektrotechniek\Jaar 2\ECS\ECSL\software\STM32\STM32Basis\Segger\Segger_RTT\RTT\SEGGER_RTT_printf.c ****       p->ReturnValue = -1;
 116              	 .loc 1 135 22
 117 006e 7B68     	 ldr r3,[r7,#4]
 118 0070 4FF0FF32 	 mov r2,#-1
 119 0074 DA60     	 str r2,[r3,#12]
 136:C:\Users\niels\Documents\Elektrotechniek\Jaar 2\ECS\ECSL\software\STM32\STM32Basis\Segger\Segger_RTT\RTT\SEGGER_RTT_printf.c ****     } else {
 137:C:\Users\niels\Documents\Elektrotechniek\Jaar 2\ECS\ECSL\software\STM32\STM32Basis\Segger\Segger_RTT\RTT\SEGGER_RTT_printf.c ****       p->Cnt = 0u;
 138:C:\Users\niels\Documents\Elektrotechniek\Jaar 2\ECS\ECSL\software\STM32\STM32Basis\Segger\Segger_RTT\RTT\SEGGER_RTT_printf.c ****     }
 139:C:\Users\niels\Documents\Elektrotechniek\Jaar 2\ECS\ECSL\software\STM32\STM32Basis\Segger\Segger_RTT\RTT\SEGGER_RTT_printf.c ****   }
 140:C:\Users\niels\Documents\Elektrotechniek\Jaar 2\ECS\ECSL\software\STM32\STM32Basis\Segger\Segger_RTT\RTT\SEGGER_RTT_printf.c **** }
 120              	 .loc 1 140 1
 121 0076 02E0     	 b .L5
 122              	.L4:
 137:C:\Users\niels\Documents\Elektrotechniek\Jaar 2\ECS\ECSL\software\STM32\STM32Basis\Segger\Segger_RTT\RTT\SEGGER_RTT_printf.c ****     }
 123              	 .loc 1 137 14
 124 0078 7B68     	 ldr r3,[r7,#4]
 125 007a 0022     	 movs r2,#0
 126 007c 9A60     	 str r2,[r3,#8]
 127              	.L5:
 128              	 .loc 1 140 1
 129 007e 00BF     	 nop
 130 0080 1037     	 adds r7,r7,#16
 131              	 .cfi_def_cfa_offset 8
 132 0082 BD46     	 mov sp,r7
 133              	 .cfi_def_cfa_register 13
 134              	 
 135 0084 80BD     	 pop {r7,pc}
 136              	 .cfi_endproc
 137              	.LFE7:
 138              	 .fnend
 139              	 .size _ZL10_StoreCharP22SEGGER_RTT_PRINTF_DESCc,.-_ZL10_StoreCharP22SEGGER_RTT_PRINTF_DESCc
 140              	 .section .rodata._ZZL14_PrintUnsignedP22SEGGER_RTT_PRINTF_DESCjjjjjE5_aV2C,"a"
 141              	 .align 2
 142              	 .type _ZZL14_PrintUnsignedP22SEGGER_RTT_PRINTF_DESCjjjjjE5_aV2C,%object
 143              	 .size _ZZL14_PrintUnsignedP22SEGGER_RTT_PRINTF_DESCjjjjjE5_aV2C,16
 144              	_ZZL14_PrintUnsignedP22SEGGER_RTT_PRINTF_DESCjjjjjE5_aV2C:
ARM GAS   			page 6


 145 0000 30313233 	 .ascii "0123456789ABCDEF"
 145      34353637 
 145      38394142 
 145      43444546 
 146              	 .section .text._ZL14_PrintUnsignedP22SEGGER_RTT_PRINTF_DESCjjjjj,"ax",%progbits
 147              	 .align 1
 148              	 .syntax unified
 149              	 .thumb
 150              	 .thumb_func
 151              	 .type _ZL14_PrintUnsignedP22SEGGER_RTT_PRINTF_DESCjjjjj,%function
 152              	_ZL14_PrintUnsignedP22SEGGER_RTT_PRINTF_DESCjjjjj:
 153              	 .fnstart
 154              	.LFB8:
 141:C:\Users\niels\Documents\Elektrotechniek\Jaar 2\ECS\ECSL\software\STM32\STM32Basis\Segger\Segger_RTT\RTT\SEGGER_RTT_printf.c **** 
 142:C:\Users\niels\Documents\Elektrotechniek\Jaar 2\ECS\ECSL\software\STM32\STM32Basis\Segger\Segger_RTT\RTT\SEGGER_RTT_printf.c **** /*********************************************************************
 143:C:\Users\niels\Documents\Elektrotechniek\Jaar 2\ECS\ECSL\software\STM32\STM32Basis\Segger\Segger_RTT\RTT\SEGGER_RTT_printf.c **** *
 144:C:\Users\niels\Documents\Elektrotechniek\Jaar 2\ECS\ECSL\software\STM32\STM32Basis\Segger\Segger_RTT\RTT\SEGGER_RTT_printf.c **** *       _PrintUnsigned
 145:C:\Users\niels\Documents\Elektrotechniek\Jaar 2\ECS\ECSL\software\STM32\STM32Basis\Segger\Segger_RTT\RTT\SEGGER_RTT_printf.c **** */
 146:C:\Users\niels\Documents\Elektrotechniek\Jaar 2\ECS\ECSL\software\STM32\STM32Basis\Segger\Segger_RTT\RTT\SEGGER_RTT_printf.c **** static void _PrintUnsigned(SEGGER_RTT_PRINTF_DESC * pBufferDesc, unsigned v, unsigned Base, unsigne
 155              	 .loc 1 146 156
 156              	 .cfi_startproc
 157              	 
 158              	 
 159 0000 80B5     	 push {r7,lr}
 160              	 .save {r7,lr}
 161              	 .cfi_def_cfa_offset 8
 162              	 .cfi_offset 7,-8
 163              	 .cfi_offset 14,-4
 164              	 .pad #40
 165 0002 8AB0     	 sub sp,sp,#40
 166              	 .cfi_def_cfa_offset 48
 167              	 .setfp r7,sp,#0
 168 0004 00AF     	 add r7,sp,#0
 169              	 .cfi_def_cfa_register 7
 170 0006 F860     	 str r0,[r7,#12]
 171 0008 B960     	 str r1,[r7,#8]
 172 000a 7A60     	 str r2,[r7,#4]
 173 000c 3B60     	 str r3,[r7]
 147:C:\Users\niels\Documents\Elektrotechniek\Jaar 2\ECS\ECSL\software\STM32\STM32Basis\Segger\Segger_RTT\RTT\SEGGER_RTT_printf.c ****   static const char _aV2C[16] = {'0', '1', '2', '3', '4', '5', '6', '7', '8', '9', 'A', 'B', 'C', '
 148:C:\Users\niels\Documents\Elektrotechniek\Jaar 2\ECS\ECSL\software\STM32\STM32Basis\Segger\Segger_RTT\RTT\SEGGER_RTT_printf.c ****   unsigned Div;
 149:C:\Users\niels\Documents\Elektrotechniek\Jaar 2\ECS\ECSL\software\STM32\STM32Basis\Segger\Segger_RTT\RTT\SEGGER_RTT_printf.c ****   unsigned Digit;
 150:C:\Users\niels\Documents\Elektrotechniek\Jaar 2\ECS\ECSL\software\STM32\STM32Basis\Segger\Segger_RTT\RTT\SEGGER_RTT_printf.c ****   unsigned Number;
 151:C:\Users\niels\Documents\Elektrotechniek\Jaar 2\ECS\ECSL\software\STM32\STM32Basis\Segger\Segger_RTT\RTT\SEGGER_RTT_printf.c ****   unsigned Width;
 152:C:\Users\niels\Documents\Elektrotechniek\Jaar 2\ECS\ECSL\software\STM32\STM32Basis\Segger\Segger_RTT\RTT\SEGGER_RTT_printf.c ****   char c;
 153:C:\Users\niels\Documents\Elektrotechniek\Jaar 2\ECS\ECSL\software\STM32\STM32Basis\Segger\Segger_RTT\RTT\SEGGER_RTT_printf.c **** 
 154:C:\Users\niels\Documents\Elektrotechniek\Jaar 2\ECS\ECSL\software\STM32\STM32Basis\Segger\Segger_RTT\RTT\SEGGER_RTT_printf.c ****   Number = v;
 174              	 .loc 1 154 10
 175 000e BB68     	 ldr r3,[r7,#8]
 176 0010 3B62     	 str r3,[r7,#32]
 155:C:\Users\niels\Documents\Elektrotechniek\Jaar 2\ECS\ECSL\software\STM32\STM32Basis\Segger\Segger_RTT\RTT\SEGGER_RTT_printf.c ****   Digit = 1u;
 177              	 .loc 1 155 9
 178 0012 0123     	 movs r3,#1
 179 0014 7B62     	 str r3,[r7,#36]
 156:C:\Users\niels\Documents\Elektrotechniek\Jaar 2\ECS\ECSL\software\STM32\STM32Basis\Segger\Segger_RTT\RTT\SEGGER_RTT_printf.c ****   //
 157:C:\Users\niels\Documents\Elektrotechniek\Jaar 2\ECS\ECSL\software\STM32\STM32Basis\Segger\Segger_RTT\RTT\SEGGER_RTT_printf.c ****   // Get actual field width
 158:C:\Users\niels\Documents\Elektrotechniek\Jaar 2\ECS\ECSL\software\STM32\STM32Basis\Segger\Segger_RTT\RTT\SEGGER_RTT_printf.c ****   //
 159:C:\Users\niels\Documents\Elektrotechniek\Jaar 2\ECS\ECSL\software\STM32\STM32Basis\Segger\Segger_RTT\RTT\SEGGER_RTT_printf.c ****   Width = 1u;
ARM GAS   			page 7


 180              	 .loc 1 159 9
 181 0016 0123     	 movs r3,#1
 182 0018 FB61     	 str r3,[r7,#28]
 183              	.L8:
 160:C:\Users\niels\Documents\Elektrotechniek\Jaar 2\ECS\ECSL\software\STM32\STM32Basis\Segger\Segger_RTT\RTT\SEGGER_RTT_printf.c ****   while (Number >= Base) {
 184              	 .loc 1 160 17
 185 001a 3A6A     	 ldr r2,[r7,#32]
 186 001c 7B68     	 ldr r3,[r7,#4]
 187 001e 9A42     	 cmp r2,r3
 188 0020 08D3     	 bcc .L7
 161:C:\Users\niels\Documents\Elektrotechniek\Jaar 2\ECS\ECSL\software\STM32\STM32Basis\Segger\Segger_RTT\RTT\SEGGER_RTT_printf.c ****     Number = (Number / Base);
 189              	 .loc 1 161 12
 190 0022 3A6A     	 ldr r2,[r7,#32]
 191 0024 7B68     	 ldr r3,[r7,#4]
 192 0026 B2FBF3F3 	 udiv r3,r2,r3
 193 002a 3B62     	 str r3,[r7,#32]
 162:C:\Users\niels\Documents\Elektrotechniek\Jaar 2\ECS\ECSL\software\STM32\STM32Basis\Segger\Segger_RTT\RTT\SEGGER_RTT_printf.c ****     Width++;
 194              	 .loc 1 162 10
 195 002c FB69     	 ldr r3,[r7,#28]
 196 002e 0133     	 adds r3,r3,#1
 197 0030 FB61     	 str r3,[r7,#28]
 160:C:\Users\niels\Documents\Elektrotechniek\Jaar 2\ECS\ECSL\software\STM32\STM32Basis\Segger\Segger_RTT\RTT\SEGGER_RTT_printf.c ****   while (Number >= Base) {
 198              	 .loc 1 160 3
 199 0032 F2E7     	 b .L8
 200              	.L7:
 163:C:\Users\niels\Documents\Elektrotechniek\Jaar 2\ECS\ECSL\software\STM32\STM32Basis\Segger\Segger_RTT\RTT\SEGGER_RTT_printf.c ****   }
 164:C:\Users\niels\Documents\Elektrotechniek\Jaar 2\ECS\ECSL\software\STM32\STM32Basis\Segger\Segger_RTT\RTT\SEGGER_RTT_printf.c ****   if (NumDigits > Width) {
 201              	 .loc 1 164 3
 202 0034 3A68     	 ldr r2,[r7]
 203 0036 FB69     	 ldr r3,[r7,#28]
 204 0038 9A42     	 cmp r2,r3
 205 003a 01D9     	 bls .L9
 165:C:\Users\niels\Documents\Elektrotechniek\Jaar 2\ECS\ECSL\software\STM32\STM32Basis\Segger\Segger_RTT\RTT\SEGGER_RTT_printf.c ****     Width = NumDigits;
 206              	 .loc 1 165 11
 207 003c 3B68     	 ldr r3,[r7]
 208 003e FB61     	 str r3,[r7,#28]
 209              	.L9:
 166:C:\Users\niels\Documents\Elektrotechniek\Jaar 2\ECS\ECSL\software\STM32\STM32Basis\Segger\Segger_RTT\RTT\SEGGER_RTT_printf.c ****   }
 167:C:\Users\niels\Documents\Elektrotechniek\Jaar 2\ECS\ECSL\software\STM32\STM32Basis\Segger\Segger_RTT\RTT\SEGGER_RTT_printf.c ****   //
 168:C:\Users\niels\Documents\Elektrotechniek\Jaar 2\ECS\ECSL\software\STM32\STM32Basis\Segger\Segger_RTT\RTT\SEGGER_RTT_printf.c ****   // Print leading chars if necessary
 169:C:\Users\niels\Documents\Elektrotechniek\Jaar 2\ECS\ECSL\software\STM32\STM32Basis\Segger\Segger_RTT\RTT\SEGGER_RTT_printf.c ****   //
 170:C:\Users\niels\Documents\Elektrotechniek\Jaar 2\ECS\ECSL\software\STM32\STM32Basis\Segger\Segger_RTT\RTT\SEGGER_RTT_printf.c ****   if ((FormatFlags & FORMAT_FLAG_LEFT_JUSTIFY) == 0u) {
 210              	 .loc 1 170 20
 211 0040 7B6B     	 ldr r3,[r7,#52]
 212 0042 03F00103 	 and r3,r3,#1
 213              	 .loc 1 170 3
 214 0046 002B     	 cmp r3,#0
 215 0048 24D1     	 bne .L10
 171:C:\Users\niels\Documents\Elektrotechniek\Jaar 2\ECS\ECSL\software\STM32\STM32Basis\Segger\Segger_RTT\RTT\SEGGER_RTT_printf.c ****     if (FieldWidth != 0u) {
 216              	 .loc 1 171 5
 217 004a 3B6B     	 ldr r3,[r7,#48]
 218 004c 002B     	 cmp r3,#0
 219 004e 21D0     	 beq .L10
 172:C:\Users\niels\Documents\Elektrotechniek\Jaar 2\ECS\ECSL\software\STM32\STM32Basis\Segger\Segger_RTT\RTT\SEGGER_RTT_printf.c ****       if (((FormatFlags & FORMAT_FLAG_PAD_ZERO) == FORMAT_FLAG_PAD_ZERO) && (NumDigits == 0u)) {
 220              	 .loc 1 172 25
 221 0050 7B6B     	 ldr r3,[r7,#52]
 222 0052 03F00203 	 and r3,r3,#2
ARM GAS   			page 8


 223              	 .loc 1 172 7
 224 0056 002B     	 cmp r3,#0
 225 0058 05D0     	 beq .L11
 226              	 .loc 1 172 74 discriminator 1
 227 005a 3B68     	 ldr r3,[r7]
 228 005c 002B     	 cmp r3,#0
 229 005e 02D1     	 bne .L11
 173:C:\Users\niels\Documents\Elektrotechniek\Jaar 2\ECS\ECSL\software\STM32\STM32Basis\Segger\Segger_RTT\RTT\SEGGER_RTT_printf.c ****         c = '0';
 230              	 .loc 1 173 11
 231 0060 3023     	 movs r3,#48
 232 0062 FB76     	 strb r3,[r7,#27]
 233 0064 01E0     	 b .L15
 234              	.L11:
 174:C:\Users\niels\Documents\Elektrotechniek\Jaar 2\ECS\ECSL\software\STM32\STM32Basis\Segger\Segger_RTT\RTT\SEGGER_RTT_printf.c ****       } else {
 175:C:\Users\niels\Documents\Elektrotechniek\Jaar 2\ECS\ECSL\software\STM32\STM32Basis\Segger\Segger_RTT\RTT\SEGGER_RTT_printf.c ****         c = ' ';
 235              	 .loc 1 175 11
 236 0066 2023     	 movs r3,#32
 237 0068 FB76     	 strb r3,[r7,#27]
 238              	.L15:
 176:C:\Users\niels\Documents\Elektrotechniek\Jaar 2\ECS\ECSL\software\STM32\STM32Basis\Segger\Segger_RTT\RTT\SEGGER_RTT_printf.c ****       }
 177:C:\Users\niels\Documents\Elektrotechniek\Jaar 2\ECS\ECSL\software\STM32\STM32Basis\Segger\Segger_RTT\RTT\SEGGER_RTT_printf.c ****       while ((FieldWidth != 0u) && (Width < FieldWidth)) {
 239              	 .loc 1 177 33
 240 006a 3B6B     	 ldr r3,[r7,#48]
 241 006c 002B     	 cmp r3,#0
 242 006e 11D0     	 beq .L10
 243              	 .loc 1 177 33 is_stmt 0 discriminator 1
 244 0070 FA69     	 ldr r2,[r7,#28]
 245 0072 3B6B     	 ldr r3,[r7,#48]
 246 0074 9A42     	 cmp r2,r3
 247 0076 0DD2     	 bcs .L10
 178:C:\Users\niels\Documents\Elektrotechniek\Jaar 2\ECS\ECSL\software\STM32\STM32Basis\Segger\Segger_RTT\RTT\SEGGER_RTT_printf.c ****         FieldWidth--;
 248              	 .loc 1 178 19 is_stmt 1
 249 0078 3B6B     	 ldr r3,[r7,#48]
 250 007a 013B     	 subs r3,r3,#1
 251 007c 3B63     	 str r3,[r7,#48]
 179:C:\Users\niels\Documents\Elektrotechniek\Jaar 2\ECS\ECSL\software\STM32\STM32Basis\Segger\Segger_RTT\RTT\SEGGER_RTT_printf.c ****         _StoreChar(pBufferDesc, c);
 252              	 .loc 1 179 19
 253 007e FB7E     	 ldrb r3,[r7,#27]
 254 0080 1946     	 mov r1,r3
 255 0082 F868     	 ldr r0,[r7,#12]
 256 0084 FFF7FEFF 	 bl _ZL10_StoreCharP22SEGGER_RTT_PRINTF_DESCc
 180:C:\Users\niels\Documents\Elektrotechniek\Jaar 2\ECS\ECSL\software\STM32\STM32Basis\Segger\Segger_RTT\RTT\SEGGER_RTT_printf.c ****         if (pBufferDesc->ReturnValue < 0) {
 257              	 .loc 1 180 26
 258 0088 FB68     	 ldr r3,[r7,#12]
 259 008a DB68     	 ldr r3,[r3,#12]
 260              	 .loc 1 180 9
 261 008c 002B     	 cmp r3,#0
 262 008e 00DB     	 blt .L27
 177:C:\Users\niels\Documents\Elektrotechniek\Jaar 2\ECS\ECSL\software\STM32\STM32Basis\Segger\Segger_RTT\RTT\SEGGER_RTT_printf.c ****         FieldWidth--;
 263              	 .loc 1 177 7
 264 0090 EBE7     	 b .L15
 265              	.L27:
 181:C:\Users\niels\Documents\Elektrotechniek\Jaar 2\ECS\ECSL\software\STM32\STM32Basis\Segger\Segger_RTT\RTT\SEGGER_RTT_printf.c ****           break;
 266              	 .loc 1 181 11
 267 0092 00BF     	 nop
 268              	.L10:
 182:C:\Users\niels\Documents\Elektrotechniek\Jaar 2\ECS\ECSL\software\STM32\STM32Basis\Segger\Segger_RTT\RTT\SEGGER_RTT_printf.c ****         }
ARM GAS   			page 9


 183:C:\Users\niels\Documents\Elektrotechniek\Jaar 2\ECS\ECSL\software\STM32\STM32Basis\Segger\Segger_RTT\RTT\SEGGER_RTT_printf.c ****       }
 184:C:\Users\niels\Documents\Elektrotechniek\Jaar 2\ECS\ECSL\software\STM32\STM32Basis\Segger\Segger_RTT\RTT\SEGGER_RTT_printf.c ****     }
 185:C:\Users\niels\Documents\Elektrotechniek\Jaar 2\ECS\ECSL\software\STM32\STM32Basis\Segger\Segger_RTT\RTT\SEGGER_RTT_printf.c ****   }
 186:C:\Users\niels\Documents\Elektrotechniek\Jaar 2\ECS\ECSL\software\STM32\STM32Basis\Segger\Segger_RTT\RTT\SEGGER_RTT_printf.c ****   if (pBufferDesc->ReturnValue >= 0) {
 269              	 .loc 1 186 20
 270 0094 FB68     	 ldr r3,[r7,#12]
 271 0096 DB68     	 ldr r3,[r3,#12]
 272              	 .loc 1 186 3
 273 0098 002B     	 cmp r3,#0
 274 009a 54DB     	 blt .L28
 275              	.L20:
 187:C:\Users\niels\Documents\Elektrotechniek\Jaar 2\ECS\ECSL\software\STM32\STM32Basis\Segger\Segger_RTT\RTT\SEGGER_RTT_printf.c ****     //
 188:C:\Users\niels\Documents\Elektrotechniek\Jaar 2\ECS\ECSL\software\STM32\STM32Basis\Segger\Segger_RTT\RTT\SEGGER_RTT_printf.c ****     // Compute Digit.
 189:C:\Users\niels\Documents\Elektrotechniek\Jaar 2\ECS\ECSL\software\STM32\STM32Basis\Segger\Segger_RTT\RTT\SEGGER_RTT_printf.c ****     // Loop until Digit has the value of the highest digit required.
 190:C:\Users\niels\Documents\Elektrotechniek\Jaar 2\ECS\ECSL\software\STM32\STM32Basis\Segger\Segger_RTT\RTT\SEGGER_RTT_printf.c ****     // Example: If the output is 345 (Base 10), loop 2 times until Digit is 100.
 191:C:\Users\niels\Documents\Elektrotechniek\Jaar 2\ECS\ECSL\software\STM32\STM32Basis\Segger\Segger_RTT\RTT\SEGGER_RTT_printf.c ****     //
 192:C:\Users\niels\Documents\Elektrotechniek\Jaar 2\ECS\ECSL\software\STM32\STM32Basis\Segger\Segger_RTT\RTT\SEGGER_RTT_printf.c ****     while (1) {
 193:C:\Users\niels\Documents\Elektrotechniek\Jaar 2\ECS\ECSL\software\STM32\STM32Basis\Segger\Segger_RTT\RTT\SEGGER_RTT_printf.c ****       if (NumDigits > 1u) {       // User specified a min number of digits to print? => Make sure w
 276              	 .loc 1 193 7
 277 009c 3B68     	 ldr r3,[r7]
 278 009e 012B     	 cmp r3,#1
 279 00a0 03D9     	 bls .L17
 194:C:\Users\niels\Documents\Elektrotechniek\Jaar 2\ECS\ECSL\software\STM32\STM32Basis\Segger\Segger_RTT\RTT\SEGGER_RTT_printf.c ****         NumDigits--;
 280              	 .loc 1 194 18
 281 00a2 3B68     	 ldr r3,[r7]
 282 00a4 013B     	 subs r3,r3,#1
 283 00a6 3B60     	 str r3,[r7]
 284 00a8 09E0     	 b .L18
 285              	.L17:
 195:C:\Users\niels\Documents\Elektrotechniek\Jaar 2\ECS\ECSL\software\STM32\STM32Basis\Segger\Segger_RTT\RTT\SEGGER_RTT_printf.c ****       } else {
 196:C:\Users\niels\Documents\Elektrotechniek\Jaar 2\ECS\ECSL\software\STM32\STM32Basis\Segger\Segger_RTT\RTT\SEGGER_RTT_printf.c ****         Div = v / Digit;
 286              	 .loc 1 196 13
 287 00aa BA68     	 ldr r2,[r7,#8]
 288 00ac 7B6A     	 ldr r3,[r7,#36]
 289 00ae B2FBF3F3 	 udiv r3,r2,r3
 290 00b2 7B61     	 str r3,[r7,#20]
 197:C:\Users\niels\Documents\Elektrotechniek\Jaar 2\ECS\ECSL\software\STM32\STM32Basis\Segger\Segger_RTT\RTT\SEGGER_RTT_printf.c ****         if (Div < Base) {        // Is our divider big enough to extract the highest digit from val
 291              	 .loc 1 197 9
 292 00b4 7A69     	 ldr r2,[r7,#20]
 293 00b6 7B68     	 ldr r3,[r7,#4]
 294 00b8 9A42     	 cmp r2,r3
 295 00ba 00D2     	 bcs .L18
 198:C:\Users\niels\Documents\Elektrotechniek\Jaar 2\ECS\ECSL\software\STM32\STM32Basis\Segger\Segger_RTT\RTT\SEGGER_RTT_printf.c ****           break;
 296              	 .loc 1 198 11
 297 00bc 05E0     	 b .L19
 298              	.L18:
 199:C:\Users\niels\Documents\Elektrotechniek\Jaar 2\ECS\ECSL\software\STM32\STM32Basis\Segger\Segger_RTT\RTT\SEGGER_RTT_printf.c ****         }
 200:C:\Users\niels\Documents\Elektrotechniek\Jaar 2\ECS\ECSL\software\STM32\STM32Basis\Segger\Segger_RTT\RTT\SEGGER_RTT_printf.c ****       }
 201:C:\Users\niels\Documents\Elektrotechniek\Jaar 2\ECS\ECSL\software\STM32\STM32Basis\Segger\Segger_RTT\RTT\SEGGER_RTT_printf.c ****       Digit *= Base;
 299              	 .loc 1 201 13
 300 00be 7B6A     	 ldr r3,[r7,#36]
 301 00c0 7A68     	 ldr r2,[r7,#4]
 302 00c2 02FB03F3 	 mul r3,r2,r3
 303 00c6 7B62     	 str r3,[r7,#36]
 193:C:\Users\niels\Documents\Elektrotechniek\Jaar 2\ECS\ECSL\software\STM32\STM32Basis\Segger\Segger_RTT\RTT\SEGGER_RTT_printf.c ****         NumDigits--;
 304              	 .loc 1 193 7
 305 00c8 E8E7     	 b .L20
ARM GAS   			page 10


 306              	.L19:
 202:C:\Users\niels\Documents\Elektrotechniek\Jaar 2\ECS\ECSL\software\STM32\STM32Basis\Segger\Segger_RTT\RTT\SEGGER_RTT_printf.c ****     }
 203:C:\Users\niels\Documents\Elektrotechniek\Jaar 2\ECS\ECSL\software\STM32\STM32Basis\Segger\Segger_RTT\RTT\SEGGER_RTT_printf.c ****     //
 204:C:\Users\niels\Documents\Elektrotechniek\Jaar 2\ECS\ECSL\software\STM32\STM32Basis\Segger\Segger_RTT\RTT\SEGGER_RTT_printf.c ****     // Output digits
 205:C:\Users\niels\Documents\Elektrotechniek\Jaar 2\ECS\ECSL\software\STM32\STM32Basis\Segger\Segger_RTT\RTT\SEGGER_RTT_printf.c ****     //
 206:C:\Users\niels\Documents\Elektrotechniek\Jaar 2\ECS\ECSL\software\STM32\STM32Basis\Segger\Segger_RTT\RTT\SEGGER_RTT_printf.c ****     do {
 207:C:\Users\niels\Documents\Elektrotechniek\Jaar 2\ECS\ECSL\software\STM32\STM32Basis\Segger\Segger_RTT\RTT\SEGGER_RTT_printf.c ****       Div = v / Digit;
 307              	 .loc 1 207 11
 308 00ca BA68     	 ldr r2,[r7,#8]
 309 00cc 7B6A     	 ldr r3,[r7,#36]
 310 00ce B2FBF3F3 	 udiv r3,r2,r3
 311 00d2 7B61     	 str r3,[r7,#20]
 208:C:\Users\niels\Documents\Elektrotechniek\Jaar 2\ECS\ECSL\software\STM32\STM32Basis\Segger\Segger_RTT\RTT\SEGGER_RTT_printf.c ****       v -= Div * Digit;
 312              	 .loc 1 208 16
 313 00d4 7B69     	 ldr r3,[r7,#20]
 314 00d6 7A6A     	 ldr r2,[r7,#36]
 315 00d8 02FB03F3 	 mul r3,r2,r3
 316              	 .loc 1 208 9
 317 00dc BA68     	 ldr r2,[r7,#8]
 318 00de D31A     	 subs r3,r2,r3
 319 00e0 BB60     	 str r3,[r7,#8]
 209:C:\Users\niels\Documents\Elektrotechniek\Jaar 2\ECS\ECSL\software\STM32\STM32Basis\Segger\Segger_RTT\RTT\SEGGER_RTT_printf.c ****       _StoreChar(pBufferDesc, _aV2C[Div]);
 320              	 .loc 1 209 40
 321 00e2 1B4A     	 ldr r2,.L31
 322 00e4 7B69     	 ldr r3,[r7,#20]
 323 00e6 1344     	 add r3,r3,r2
 324 00e8 1B78     	 ldrb r3,[r3]
 325              	 .loc 1 209 17
 326 00ea 1946     	 mov r1,r3
 327 00ec F868     	 ldr r0,[r7,#12]
 328 00ee FFF7FEFF 	 bl _ZL10_StoreCharP22SEGGER_RTT_PRINTF_DESCc
 210:C:\Users\niels\Documents\Elektrotechniek\Jaar 2\ECS\ECSL\software\STM32\STM32Basis\Segger\Segger_RTT\RTT\SEGGER_RTT_printf.c ****       if (pBufferDesc->ReturnValue < 0) {
 329              	 .loc 1 210 24
 330 00f2 FB68     	 ldr r3,[r7,#12]
 331 00f4 DB68     	 ldr r3,[r3,#12]
 332              	 .loc 1 210 7
 333 00f6 002B     	 cmp r3,#0
 334 00f8 08DB     	 blt .L29
 211:C:\Users\niels\Documents\Elektrotechniek\Jaar 2\ECS\ECSL\software\STM32\STM32Basis\Segger\Segger_RTT\RTT\SEGGER_RTT_printf.c ****         break;
 212:C:\Users\niels\Documents\Elektrotechniek\Jaar 2\ECS\ECSL\software\STM32\STM32Basis\Segger\Segger_RTT\RTT\SEGGER_RTT_printf.c ****       }
 213:C:\Users\niels\Documents\Elektrotechniek\Jaar 2\ECS\ECSL\software\STM32\STM32Basis\Segger\Segger_RTT\RTT\SEGGER_RTT_printf.c ****       Digit /= Base;
 335              	 .loc 1 213 13
 336 00fa 7A6A     	 ldr r2,[r7,#36]
 337 00fc 7B68     	 ldr r3,[r7,#4]
 338 00fe B2FBF3F3 	 udiv r3,r2,r3
 339 0102 7B62     	 str r3,[r7,#36]
 214:C:\Users\niels\Documents\Elektrotechniek\Jaar 2\ECS\ECSL\software\STM32\STM32Basis\Segger\Segger_RTT\RTT\SEGGER_RTT_printf.c ****     } while (Digit);
 340              	 .loc 1 214 14
 341 0104 7B6A     	 ldr r3,[r7,#36]
 342 0106 002B     	 cmp r3,#0
 343 0108 01D0     	 beq .L22
 206:C:\Users\niels\Documents\Elektrotechniek\Jaar 2\ECS\ECSL\software\STM32\STM32Basis\Segger\Segger_RTT\RTT\SEGGER_RTT_printf.c ****       Div = v / Digit;
 344              	 .loc 1 206 5
 345 010a DEE7     	 b .L19
 346              	.L29:
 211:C:\Users\niels\Documents\Elektrotechniek\Jaar 2\ECS\ECSL\software\STM32\STM32Basis\Segger\Segger_RTT\RTT\SEGGER_RTT_printf.c ****         break;
 347              	 .loc 1 211 9
ARM GAS   			page 11


 348 010c 00BF     	 nop
 349              	.L22:
 215:C:\Users\niels\Documents\Elektrotechniek\Jaar 2\ECS\ECSL\software\STM32\STM32Basis\Segger\Segger_RTT\RTT\SEGGER_RTT_printf.c ****     //
 216:C:\Users\niels\Documents\Elektrotechniek\Jaar 2\ECS\ECSL\software\STM32\STM32Basis\Segger\Segger_RTT\RTT\SEGGER_RTT_printf.c ****     // Print trailing spaces if necessary
 217:C:\Users\niels\Documents\Elektrotechniek\Jaar 2\ECS\ECSL\software\STM32\STM32Basis\Segger\Segger_RTT\RTT\SEGGER_RTT_printf.c ****     //
 218:C:\Users\niels\Documents\Elektrotechniek\Jaar 2\ECS\ECSL\software\STM32\STM32Basis\Segger\Segger_RTT\RTT\SEGGER_RTT_printf.c ****     if ((FormatFlags & FORMAT_FLAG_LEFT_JUSTIFY) == FORMAT_FLAG_LEFT_JUSTIFY) {
 350              	 .loc 1 218 22
 351 010e 7B6B     	 ldr r3,[r7,#52]
 352 0110 03F00103 	 and r3,r3,#1
 353              	 .loc 1 218 5
 354 0114 002B     	 cmp r3,#0
 355 0116 16D0     	 beq .L28
 219:C:\Users\niels\Documents\Elektrotechniek\Jaar 2\ECS\ECSL\software\STM32\STM32Basis\Segger\Segger_RTT\RTT\SEGGER_RTT_printf.c ****       if (FieldWidth != 0u) {
 356              	 .loc 1 219 7
 357 0118 3B6B     	 ldr r3,[r7,#48]
 358 011a 002B     	 cmp r3,#0
 359 011c 13D0     	 beq .L28
 360              	.L25:
 220:C:\Users\niels\Documents\Elektrotechniek\Jaar 2\ECS\ECSL\software\STM32\STM32Basis\Segger\Segger_RTT\RTT\SEGGER_RTT_printf.c ****         while ((FieldWidth != 0u) && (Width < FieldWidth)) {
 361              	 .loc 1 220 35
 362 011e 3B6B     	 ldr r3,[r7,#48]
 363 0120 002B     	 cmp r3,#0
 364 0122 10D0     	 beq .L28
 365              	 .loc 1 220 35 is_stmt 0 discriminator 1
 366 0124 FA69     	 ldr r2,[r7,#28]
 367 0126 3B6B     	 ldr r3,[r7,#48]
 368 0128 9A42     	 cmp r2,r3
 369 012a 0CD2     	 bcs .L28
 221:C:\Users\niels\Documents\Elektrotechniek\Jaar 2\ECS\ECSL\software\STM32\STM32Basis\Segger\Segger_RTT\RTT\SEGGER_RTT_printf.c ****           FieldWidth--;
 370              	 .loc 1 221 21 is_stmt 1
 371 012c 3B6B     	 ldr r3,[r7,#48]
 372 012e 013B     	 subs r3,r3,#1
 373 0130 3B63     	 str r3,[r7,#48]
 222:C:\Users\niels\Documents\Elektrotechniek\Jaar 2\ECS\ECSL\software\STM32\STM32Basis\Segger\Segger_RTT\RTT\SEGGER_RTT_printf.c ****           _StoreChar(pBufferDesc, ' ');
 374              	 .loc 1 222 21
 375 0132 2021     	 movs r1,#32
 376 0134 F868     	 ldr r0,[r7,#12]
 377 0136 FFF7FEFF 	 bl _ZL10_StoreCharP22SEGGER_RTT_PRINTF_DESCc
 223:C:\Users\niels\Documents\Elektrotechniek\Jaar 2\ECS\ECSL\software\STM32\STM32Basis\Segger\Segger_RTT\RTT\SEGGER_RTT_printf.c ****           if (pBufferDesc->ReturnValue < 0) {
 378              	 .loc 1 223 28
 379 013a FB68     	 ldr r3,[r7,#12]
 380 013c DB68     	 ldr r3,[r3,#12]
 381              	 .loc 1 223 11
 382 013e 002B     	 cmp r3,#0
 383 0140 00DB     	 blt .L30
 220:C:\Users\niels\Documents\Elektrotechniek\Jaar 2\ECS\ECSL\software\STM32\STM32Basis\Segger\Segger_RTT\RTT\SEGGER_RTT_printf.c ****           FieldWidth--;
 384              	 .loc 1 220 9
 385 0142 ECE7     	 b .L25
 386              	.L30:
 224:C:\Users\niels\Documents\Elektrotechniek\Jaar 2\ECS\ECSL\software\STM32\STM32Basis\Segger\Segger_RTT\RTT\SEGGER_RTT_printf.c ****             break;
 387              	 .loc 1 224 13
 388 0144 00BF     	 nop
 389              	.L28:
 225:C:\Users\niels\Documents\Elektrotechniek\Jaar 2\ECS\ECSL\software\STM32\STM32Basis\Segger\Segger_RTT\RTT\SEGGER_RTT_printf.c ****           }
 226:C:\Users\niels\Documents\Elektrotechniek\Jaar 2\ECS\ECSL\software\STM32\STM32Basis\Segger\Segger_RTT\RTT\SEGGER_RTT_printf.c ****         }
 227:C:\Users\niels\Documents\Elektrotechniek\Jaar 2\ECS\ECSL\software\STM32\STM32Basis\Segger\Segger_RTT\RTT\SEGGER_RTT_printf.c ****       }
 228:C:\Users\niels\Documents\Elektrotechniek\Jaar 2\ECS\ECSL\software\STM32\STM32Basis\Segger\Segger_RTT\RTT\SEGGER_RTT_printf.c ****     }
ARM GAS   			page 12


 229:C:\Users\niels\Documents\Elektrotechniek\Jaar 2\ECS\ECSL\software\STM32\STM32Basis\Segger\Segger_RTT\RTT\SEGGER_RTT_printf.c ****   }
 230:C:\Users\niels\Documents\Elektrotechniek\Jaar 2\ECS\ECSL\software\STM32\STM32Basis\Segger\Segger_RTT\RTT\SEGGER_RTT_printf.c **** }
 390              	 .loc 1 230 1
 391 0146 00BF     	 nop
 392 0148 2837     	 adds r7,r7,#40
 393              	 .cfi_def_cfa_offset 8
 394 014a BD46     	 mov sp,r7
 395              	 .cfi_def_cfa_register 13
 396              	 
 397 014c 80BD     	 pop {r7,pc}
 398              	.L32:
 399 014e 00BF     	 .align 2
 400              	.L31:
 401 0150 00000000 	 .word _ZZL14_PrintUnsignedP22SEGGER_RTT_PRINTF_DESCjjjjjE5_aV2C
 402              	 .cfi_endproc
 403              	.LFE8:
 404              	 .fnend
 405              	 .size _ZL14_PrintUnsignedP22SEGGER_RTT_PRINTF_DESCjjjjj,.-_ZL14_PrintUnsignedP22SEGGER_RTT_PRINTF_DESCjjjjj
 406              	 .section .text._ZL9_PrintIntP22SEGGER_RTT_PRINTF_DESCijjjj,"ax",%progbits
 407              	 .align 1
 408              	 .syntax unified
 409              	 .thumb
 410              	 .thumb_func
 411              	 .type _ZL9_PrintIntP22SEGGER_RTT_PRINTF_DESCijjjj,%function
 412              	_ZL9_PrintIntP22SEGGER_RTT_PRINTF_DESCijjjj:
 413              	 .fnstart
 414              	.LFB9:
 231:C:\Users\niels\Documents\Elektrotechniek\Jaar 2\ECS\ECSL\software\STM32\STM32Basis\Segger\Segger_RTT\RTT\SEGGER_RTT_printf.c **** 
 232:C:\Users\niels\Documents\Elektrotechniek\Jaar 2\ECS\ECSL\software\STM32\STM32Basis\Segger\Segger_RTT\RTT\SEGGER_RTT_printf.c **** /*********************************************************************
 233:C:\Users\niels\Documents\Elektrotechniek\Jaar 2\ECS\ECSL\software\STM32\STM32Basis\Segger\Segger_RTT\RTT\SEGGER_RTT_printf.c **** *
 234:C:\Users\niels\Documents\Elektrotechniek\Jaar 2\ECS\ECSL\software\STM32\STM32Basis\Segger\Segger_RTT\RTT\SEGGER_RTT_printf.c **** *       _PrintInt
 235:C:\Users\niels\Documents\Elektrotechniek\Jaar 2\ECS\ECSL\software\STM32\STM32Basis\Segger\Segger_RTT\RTT\SEGGER_RTT_printf.c **** */
 236:C:\Users\niels\Documents\Elektrotechniek\Jaar 2\ECS\ECSL\software\STM32\STM32Basis\Segger\Segger_RTT\RTT\SEGGER_RTT_printf.c **** static void _PrintInt(SEGGER_RTT_PRINTF_DESC * pBufferDesc, int v, unsigned Base, unsigned NumDigit
 415              	 .loc 1 236 146
 416              	 .cfi_startproc
 417              	 
 418              	 
 419 0000 80B5     	 push {r7,lr}
 420              	 .save {r7,lr}
 421              	 .cfi_def_cfa_offset 8
 422              	 .cfi_offset 7,-8
 423              	 .cfi_offset 14,-4
 424              	 .pad #32
 425 0002 88B0     	 sub sp,sp,#32
 426              	 .cfi_def_cfa_offset 40
 427              	 .setfp r7,sp,#8
 428 0004 02AF     	 add r7,sp,#8
 429              	 .cfi_def_cfa 7,32
 430 0006 F860     	 str r0,[r7,#12]
 431 0008 B960     	 str r1,[r7,#8]
 432 000a 7A60     	 str r2,[r7,#4]
 433 000c 3B60     	 str r3,[r7]
 237:C:\Users\niels\Documents\Elektrotechniek\Jaar 2\ECS\ECSL\software\STM32\STM32Basis\Segger\Segger_RTT\RTT\SEGGER_RTT_printf.c ****   unsigned Width;
 238:C:\Users\niels\Documents\Elektrotechniek\Jaar 2\ECS\ECSL\software\STM32\STM32Basis\Segger\Segger_RTT\RTT\SEGGER_RTT_printf.c ****   int Number;
 239:C:\Users\niels\Documents\Elektrotechniek\Jaar 2\ECS\ECSL\software\STM32\STM32Basis\Segger\Segger_RTT\RTT\SEGGER_RTT_printf.c **** 
 240:C:\Users\niels\Documents\Elektrotechniek\Jaar 2\ECS\ECSL\software\STM32\STM32Basis\Segger\Segger_RTT\RTT\SEGGER_RTT_printf.c ****   Number = (v < 0) ? -v : v;
 434              	 .loc 1 240 10
ARM GAS   			page 13


 435 000e BB68     	 ldr r3,[r7,#8]
 436 0010 002B     	 cmp r3,#0
 437 0012 B8BF     	 it lt
 438 0014 5B42     	 rsblt r3,r3,#0
 439 0016 3B61     	 str r3,[r7,#16]
 241:C:\Users\niels\Documents\Elektrotechniek\Jaar 2\ECS\ECSL\software\STM32\STM32Basis\Segger\Segger_RTT\RTT\SEGGER_RTT_printf.c **** 
 242:C:\Users\niels\Documents\Elektrotechniek\Jaar 2\ECS\ECSL\software\STM32\STM32Basis\Segger\Segger_RTT\RTT\SEGGER_RTT_printf.c ****   //
 243:C:\Users\niels\Documents\Elektrotechniek\Jaar 2\ECS\ECSL\software\STM32\STM32Basis\Segger\Segger_RTT\RTT\SEGGER_RTT_printf.c ****   // Get actual field width
 244:C:\Users\niels\Documents\Elektrotechniek\Jaar 2\ECS\ECSL\software\STM32\STM32Basis\Segger\Segger_RTT\RTT\SEGGER_RTT_printf.c ****   //
 245:C:\Users\niels\Documents\Elektrotechniek\Jaar 2\ECS\ECSL\software\STM32\STM32Basis\Segger\Segger_RTT\RTT\SEGGER_RTT_printf.c ****   Width = 1u;
 440              	 .loc 1 245 9
 441 0018 0123     	 movs r3,#1
 442 001a 7B61     	 str r3,[r7,#20]
 443              	.L35:
 246:C:\Users\niels\Documents\Elektrotechniek\Jaar 2\ECS\ECSL\software\STM32\STM32Basis\Segger\Segger_RTT\RTT\SEGGER_RTT_printf.c ****   while (Number >= (int)Base) {
 444              	 .loc 1 246 20
 445 001c 7B68     	 ldr r3,[r7,#4]
 446              	 .loc 1 246 17
 447 001e 3A69     	 ldr r2,[r7,#16]
 448 0020 9A42     	 cmp r2,r3
 449 0022 08DB     	 blt .L34
 247:C:\Users\niels\Documents\Elektrotechniek\Jaar 2\ECS\ECSL\software\STM32\STM32Basis\Segger\Segger_RTT\RTT\SEGGER_RTT_printf.c ****     Number = (Number / (int)Base);
 450              	 .loc 1 247 24
 451 0024 7B68     	 ldr r3,[r7,#4]
 452              	 .loc 1 247 12
 453 0026 3A69     	 ldr r2,[r7,#16]
 454 0028 92FBF3F3 	 sdiv r3,r2,r3
 455 002c 3B61     	 str r3,[r7,#16]
 248:C:\Users\niels\Documents\Elektrotechniek\Jaar 2\ECS\ECSL\software\STM32\STM32Basis\Segger\Segger_RTT\RTT\SEGGER_RTT_printf.c ****     Width++;
 456              	 .loc 1 248 10
 457 002e 7B69     	 ldr r3,[r7,#20]
 458 0030 0133     	 adds r3,r3,#1
 459 0032 7B61     	 str r3,[r7,#20]
 246:C:\Users\niels\Documents\Elektrotechniek\Jaar 2\ECS\ECSL\software\STM32\STM32Basis\Segger\Segger_RTT\RTT\SEGGER_RTT_printf.c ****   while (Number >= (int)Base) {
 460              	 .loc 1 246 3
 461 0034 F2E7     	 b .L35
 462              	.L34:
 249:C:\Users\niels\Documents\Elektrotechniek\Jaar 2\ECS\ECSL\software\STM32\STM32Basis\Segger\Segger_RTT\RTT\SEGGER_RTT_printf.c ****   }
 250:C:\Users\niels\Documents\Elektrotechniek\Jaar 2\ECS\ECSL\software\STM32\STM32Basis\Segger\Segger_RTT\RTT\SEGGER_RTT_printf.c ****   if (NumDigits > Width) {
 463              	 .loc 1 250 3
 464 0036 3A68     	 ldr r2,[r7]
 465 0038 7B69     	 ldr r3,[r7,#20]
 466 003a 9A42     	 cmp r2,r3
 467 003c 01D9     	 bls .L36
 251:C:\Users\niels\Documents\Elektrotechniek\Jaar 2\ECS\ECSL\software\STM32\STM32Basis\Segger\Segger_RTT\RTT\SEGGER_RTT_printf.c ****     Width = NumDigits;
 468              	 .loc 1 251 11
 469 003e 3B68     	 ldr r3,[r7]
 470 0040 7B61     	 str r3,[r7,#20]
 471              	.L36:
 252:C:\Users\niels\Documents\Elektrotechniek\Jaar 2\ECS\ECSL\software\STM32\STM32Basis\Segger\Segger_RTT\RTT\SEGGER_RTT_printf.c ****   }
 253:C:\Users\niels\Documents\Elektrotechniek\Jaar 2\ECS\ECSL\software\STM32\STM32Basis\Segger\Segger_RTT\RTT\SEGGER_RTT_printf.c ****   if ((FieldWidth > 0u) && ((v < 0) || ((FormatFlags & FORMAT_FLAG_PRINT_SIGN) == FORMAT_FLAG_PRINT
 472              	 .loc 1 253 3
 473 0042 3B6A     	 ldr r3,[r7,#32]
 474 0044 002B     	 cmp r3,#0
 475 0046 0AD0     	 beq .L37
 476              	 .loc 1 253 25 discriminator 1
 477 0048 BB68     	 ldr r3,[r7,#8]
ARM GAS   			page 14


 478 004a 002B     	 cmp r3,#0
 479 004c 04DB     	 blt .L38
 480              	 .loc 1 253 54 discriminator 2
 481 004e 7B6A     	 ldr r3,[r7,#36]
 482 0050 03F00403 	 and r3,r3,#4
 483              	 .loc 1 253 37 discriminator 2
 484 0054 002B     	 cmp r3,#0
 485 0056 02D0     	 beq .L37
 486              	.L38:
 254:C:\Users\niels\Documents\Elektrotechniek\Jaar 2\ECS\ECSL\software\STM32\STM32Basis\Segger\Segger_RTT\RTT\SEGGER_RTT_printf.c ****     FieldWidth--;
 487              	 .loc 1 254 15
 488 0058 3B6A     	 ldr r3,[r7,#32]
 489 005a 013B     	 subs r3,r3,#1
 490 005c 3B62     	 str r3,[r7,#32]
 491              	.L37:
 255:C:\Users\niels\Documents\Elektrotechniek\Jaar 2\ECS\ECSL\software\STM32\STM32Basis\Segger\Segger_RTT\RTT\SEGGER_RTT_printf.c ****   }
 256:C:\Users\niels\Documents\Elektrotechniek\Jaar 2\ECS\ECSL\software\STM32\STM32Basis\Segger\Segger_RTT\RTT\SEGGER_RTT_printf.c **** 
 257:C:\Users\niels\Documents\Elektrotechniek\Jaar 2\ECS\ECSL\software\STM32\STM32Basis\Segger\Segger_RTT\RTT\SEGGER_RTT_printf.c ****   //
 258:C:\Users\niels\Documents\Elektrotechniek\Jaar 2\ECS\ECSL\software\STM32\STM32Basis\Segger\Segger_RTT\RTT\SEGGER_RTT_printf.c ****   // Print leading spaces if necessary
 259:C:\Users\niels\Documents\Elektrotechniek\Jaar 2\ECS\ECSL\software\STM32\STM32Basis\Segger\Segger_RTT\RTT\SEGGER_RTT_printf.c ****   //
 260:C:\Users\niels\Documents\Elektrotechniek\Jaar 2\ECS\ECSL\software\STM32\STM32Basis\Segger\Segger_RTT\RTT\SEGGER_RTT_printf.c ****   if ((((FormatFlags & FORMAT_FLAG_PAD_ZERO) == 0u) || (NumDigits != 0u)) && ((FormatFlags & FORMAT
 492              	 .loc 1 260 22
 493 005e 7B6A     	 ldr r3,[r7,#36]
 494 0060 03F00203 	 and r3,r3,#2
 495              	 .loc 1 260 3
 496 0064 002B     	 cmp r3,#0
 497 0066 02D0     	 beq .L39
 498              	 .loc 1 260 53 discriminator 2
 499 0068 3B68     	 ldr r3,[r7]
 500 006a 002B     	 cmp r3,#0
 501 006c 1BD0     	 beq .L40
 502              	.L39:
 503              	 .loc 1 260 92 discriminator 3
 504 006e 7B6A     	 ldr r3,[r7,#36]
 505 0070 03F00103 	 and r3,r3,#1
 506              	 .loc 1 260 75 discriminator 3
 507 0074 002B     	 cmp r3,#0
 508 0076 16D1     	 bne .L40
 261:C:\Users\niels\Documents\Elektrotechniek\Jaar 2\ECS\ECSL\software\STM32\STM32Basis\Segger\Segger_RTT\RTT\SEGGER_RTT_printf.c ****     if (FieldWidth != 0u) {
 509              	 .loc 1 261 5
 510 0078 3B6A     	 ldr r3,[r7,#32]
 511 007a 002B     	 cmp r3,#0
 512 007c 13D0     	 beq .L40
 513              	.L43:
 262:C:\Users\niels\Documents\Elektrotechniek\Jaar 2\ECS\ECSL\software\STM32\STM32Basis\Segger\Segger_RTT\RTT\SEGGER_RTT_printf.c ****       while ((FieldWidth != 0u) && (Width < FieldWidth)) {
 514              	 .loc 1 262 33
 515 007e 3B6A     	 ldr r3,[r7,#32]
 516 0080 002B     	 cmp r3,#0
 517 0082 10D0     	 beq .L40
 518              	 .loc 1 262 33 is_stmt 0 discriminator 1
 519 0084 7A69     	 ldr r2,[r7,#20]
 520 0086 3B6A     	 ldr r3,[r7,#32]
 521 0088 9A42     	 cmp r2,r3
 522 008a 0CD2     	 bcs .L40
 263:C:\Users\niels\Documents\Elektrotechniek\Jaar 2\ECS\ECSL\software\STM32\STM32Basis\Segger\Segger_RTT\RTT\SEGGER_RTT_printf.c ****         FieldWidth--;
 523              	 .loc 1 263 19 is_stmt 1
 524 008c 3B6A     	 ldr r3,[r7,#32]
ARM GAS   			page 15


 525 008e 013B     	 subs r3,r3,#1
 526 0090 3B62     	 str r3,[r7,#32]
 264:C:\Users\niels\Documents\Elektrotechniek\Jaar 2\ECS\ECSL\software\STM32\STM32Basis\Segger\Segger_RTT\RTT\SEGGER_RTT_printf.c ****         _StoreChar(pBufferDesc, ' ');
 527              	 .loc 1 264 19
 528 0092 2021     	 movs r1,#32
 529 0094 F868     	 ldr r0,[r7,#12]
 530 0096 FFF7FEFF 	 bl _ZL10_StoreCharP22SEGGER_RTT_PRINTF_DESCc
 265:C:\Users\niels\Documents\Elektrotechniek\Jaar 2\ECS\ECSL\software\STM32\STM32Basis\Segger\Segger_RTT\RTT\SEGGER_RTT_printf.c ****         if (pBufferDesc->ReturnValue < 0) {
 531              	 .loc 1 265 26
 532 009a FB68     	 ldr r3,[r7,#12]
 533 009c DB68     	 ldr r3,[r3,#12]
 534              	 .loc 1 265 9
 535 009e 002B     	 cmp r3,#0
 536 00a0 00DB     	 blt .L51
 262:C:\Users\niels\Documents\Elektrotechniek\Jaar 2\ECS\ECSL\software\STM32\STM32Basis\Segger\Segger_RTT\RTT\SEGGER_RTT_printf.c ****         FieldWidth--;
 537              	 .loc 1 262 7
 538 00a2 ECE7     	 b .L43
 539              	.L51:
 266:C:\Users\niels\Documents\Elektrotechniek\Jaar 2\ECS\ECSL\software\STM32\STM32Basis\Segger\Segger_RTT\RTT\SEGGER_RTT_printf.c ****           break;
 540              	 .loc 1 266 11
 541 00a4 00BF     	 nop
 542              	.L40:
 267:C:\Users\niels\Documents\Elektrotechniek\Jaar 2\ECS\ECSL\software\STM32\STM32Basis\Segger\Segger_RTT\RTT\SEGGER_RTT_printf.c ****         }
 268:C:\Users\niels\Documents\Elektrotechniek\Jaar 2\ECS\ECSL\software\STM32\STM32Basis\Segger\Segger_RTT\RTT\SEGGER_RTT_printf.c ****       }
 269:C:\Users\niels\Documents\Elektrotechniek\Jaar 2\ECS\ECSL\software\STM32\STM32Basis\Segger\Segger_RTT\RTT\SEGGER_RTT_printf.c ****     }
 270:C:\Users\niels\Documents\Elektrotechniek\Jaar 2\ECS\ECSL\software\STM32\STM32Basis\Segger\Segger_RTT\RTT\SEGGER_RTT_printf.c ****   }
 271:C:\Users\niels\Documents\Elektrotechniek\Jaar 2\ECS\ECSL\software\STM32\STM32Basis\Segger\Segger_RTT\RTT\SEGGER_RTT_printf.c ****   //
 272:C:\Users\niels\Documents\Elektrotechniek\Jaar 2\ECS\ECSL\software\STM32\STM32Basis\Segger\Segger_RTT\RTT\SEGGER_RTT_printf.c ****   // Print sign if necessary
 273:C:\Users\niels\Documents\Elektrotechniek\Jaar 2\ECS\ECSL\software\STM32\STM32Basis\Segger\Segger_RTT\RTT\SEGGER_RTT_printf.c ****   //
 274:C:\Users\niels\Documents\Elektrotechniek\Jaar 2\ECS\ECSL\software\STM32\STM32Basis\Segger\Segger_RTT\RTT\SEGGER_RTT_printf.c ****   if (pBufferDesc->ReturnValue >= 0) {
 543              	 .loc 1 274 20
 544 00a6 FB68     	 ldr r3,[r7,#12]
 545 00a8 DB68     	 ldr r3,[r3,#12]
 546              	 .loc 1 274 3
 547 00aa 002B     	 cmp r3,#0
 548 00ac 49DB     	 blt .L52
 275:C:\Users\niels\Documents\Elektrotechniek\Jaar 2\ECS\ECSL\software\STM32\STM32Basis\Segger\Segger_RTT\RTT\SEGGER_RTT_printf.c ****     if (v < 0) {
 549              	 .loc 1 275 5
 550 00ae BB68     	 ldr r3,[r7,#8]
 551 00b0 002B     	 cmp r3,#0
 552 00b2 07DA     	 bge .L45
 276:C:\Users\niels\Documents\Elektrotechniek\Jaar 2\ECS\ECSL\software\STM32\STM32Basis\Segger\Segger_RTT\RTT\SEGGER_RTT_printf.c ****       v = -v;
 553              	 .loc 1 276 9
 554 00b4 BB68     	 ldr r3,[r7,#8]
 555 00b6 5B42     	 rsbs r3,r3,#0
 556 00b8 BB60     	 str r3,[r7,#8]
 277:C:\Users\niels\Documents\Elektrotechniek\Jaar 2\ECS\ECSL\software\STM32\STM32Basis\Segger\Segger_RTT\RTT\SEGGER_RTT_printf.c ****       _StoreChar(pBufferDesc, '-');
 557              	 .loc 1 277 17
 558 00ba 2D21     	 movs r1,#45
 559 00bc F868     	 ldr r0,[r7,#12]
 560 00be FFF7FEFF 	 bl _ZL10_StoreCharP22SEGGER_RTT_PRINTF_DESCc
 561 00c2 08E0     	 b .L46
 562              	.L45:
 278:C:\Users\niels\Documents\Elektrotechniek\Jaar 2\ECS\ECSL\software\STM32\STM32Basis\Segger\Segger_RTT\RTT\SEGGER_RTT_printf.c ****     } else if ((FormatFlags & FORMAT_FLAG_PRINT_SIGN) == FORMAT_FLAG_PRINT_SIGN) {
 563              	 .loc 1 278 29
 564 00c4 7B6A     	 ldr r3,[r7,#36]
 565 00c6 03F00403 	 and r3,r3,#4
ARM GAS   			page 16


 566              	 .loc 1 278 12
 567 00ca 002B     	 cmp r3,#0
 568 00cc 03D0     	 beq .L46
 279:C:\Users\niels\Documents\Elektrotechniek\Jaar 2\ECS\ECSL\software\STM32\STM32Basis\Segger\Segger_RTT\RTT\SEGGER_RTT_printf.c ****       _StoreChar(pBufferDesc, '+');
 569              	 .loc 1 279 17
 570 00ce 2B21     	 movs r1,#43
 571 00d0 F868     	 ldr r0,[r7,#12]
 572 00d2 FFF7FEFF 	 bl _ZL10_StoreCharP22SEGGER_RTT_PRINTF_DESCc
 573              	.L46:
 280:C:\Users\niels\Documents\Elektrotechniek\Jaar 2\ECS\ECSL\software\STM32\STM32Basis\Segger\Segger_RTT\RTT\SEGGER_RTT_printf.c ****     } else {
 281:C:\Users\niels\Documents\Elektrotechniek\Jaar 2\ECS\ECSL\software\STM32\STM32Basis\Segger\Segger_RTT\RTT\SEGGER_RTT_printf.c **** 
 282:C:\Users\niels\Documents\Elektrotechniek\Jaar 2\ECS\ECSL\software\STM32\STM32Basis\Segger\Segger_RTT\RTT\SEGGER_RTT_printf.c ****     }
 283:C:\Users\niels\Documents\Elektrotechniek\Jaar 2\ECS\ECSL\software\STM32\STM32Basis\Segger\Segger_RTT\RTT\SEGGER_RTT_printf.c ****     if (pBufferDesc->ReturnValue >= 0) {
 574              	 .loc 1 283 22
 575 00d6 FB68     	 ldr r3,[r7,#12]
 576 00d8 DB68     	 ldr r3,[r3,#12]
 577              	 .loc 1 283 5
 578 00da 002B     	 cmp r3,#0
 579 00dc 31DB     	 blt .L52
 284:C:\Users\niels\Documents\Elektrotechniek\Jaar 2\ECS\ECSL\software\STM32\STM32Basis\Segger\Segger_RTT\RTT\SEGGER_RTT_printf.c ****       //
 285:C:\Users\niels\Documents\Elektrotechniek\Jaar 2\ECS\ECSL\software\STM32\STM32Basis\Segger\Segger_RTT\RTT\SEGGER_RTT_printf.c ****       // Print leading zeros if necessary
 286:C:\Users\niels\Documents\Elektrotechniek\Jaar 2\ECS\ECSL\software\STM32\STM32Basis\Segger\Segger_RTT\RTT\SEGGER_RTT_printf.c ****       //
 287:C:\Users\niels\Documents\Elektrotechniek\Jaar 2\ECS\ECSL\software\STM32\STM32Basis\Segger\Segger_RTT\RTT\SEGGER_RTT_printf.c ****       if (((FormatFlags & FORMAT_FLAG_PAD_ZERO) == FORMAT_FLAG_PAD_ZERO) && ((FormatFlags & FORMAT_
 580              	 .loc 1 287 25
 581 00de 7B6A     	 ldr r3,[r7,#36]
 582 00e0 03F00203 	 and r3,r3,#2
 583              	 .loc 1 287 7
 584 00e4 002B     	 cmp r3,#0
 585 00e6 1ED0     	 beq .L47
 586              	 .loc 1 287 91 discriminator 1
 587 00e8 7B6A     	 ldr r3,[r7,#36]
 588 00ea 03F00103 	 and r3,r3,#1
 589              	 .loc 1 287 74 discriminator 1
 590 00ee 002B     	 cmp r3,#0
 591 00f0 19D1     	 bne .L47
 592              	 .loc 1 287 126 discriminator 2
 593 00f2 3B68     	 ldr r3,[r7]
 594 00f4 002B     	 cmp r3,#0
 595 00f6 16D1     	 bne .L47
 288:C:\Users\niels\Documents\Elektrotechniek\Jaar 2\ECS\ECSL\software\STM32\STM32Basis\Segger\Segger_RTT\RTT\SEGGER_RTT_printf.c ****         if (FieldWidth != 0u) {
 596              	 .loc 1 288 9
 597 00f8 3B6A     	 ldr r3,[r7,#32]
 598 00fa 002B     	 cmp r3,#0
 599 00fc 13D0     	 beq .L47
 600              	.L50:
 289:C:\Users\niels\Documents\Elektrotechniek\Jaar 2\ECS\ECSL\software\STM32\STM32Basis\Segger\Segger_RTT\RTT\SEGGER_RTT_printf.c ****           while ((FieldWidth != 0u) && (Width < FieldWidth)) {
 601              	 .loc 1 289 37
 602 00fe 3B6A     	 ldr r3,[r7,#32]
 603 0100 002B     	 cmp r3,#0
 604 0102 10D0     	 beq .L47
 605              	 .loc 1 289 37 is_stmt 0 discriminator 1
 606 0104 7A69     	 ldr r2,[r7,#20]
 607 0106 3B6A     	 ldr r3,[r7,#32]
 608 0108 9A42     	 cmp r2,r3
 609 010a 0CD2     	 bcs .L47
 290:C:\Users\niels\Documents\Elektrotechniek\Jaar 2\ECS\ECSL\software\STM32\STM32Basis\Segger\Segger_RTT\RTT\SEGGER_RTT_printf.c ****             FieldWidth--;
 610              	 .loc 1 290 23 is_stmt 1
ARM GAS   			page 17


 611 010c 3B6A     	 ldr r3,[r7,#32]
 612 010e 013B     	 subs r3,r3,#1
 613 0110 3B62     	 str r3,[r7,#32]
 291:C:\Users\niels\Documents\Elektrotechniek\Jaar 2\ECS\ECSL\software\STM32\STM32Basis\Segger\Segger_RTT\RTT\SEGGER_RTT_printf.c ****             _StoreChar(pBufferDesc, '0');
 614              	 .loc 1 291 23
 615 0112 3021     	 movs r1,#48
 616 0114 F868     	 ldr r0,[r7,#12]
 617 0116 FFF7FEFF 	 bl _ZL10_StoreCharP22SEGGER_RTT_PRINTF_DESCc
 292:C:\Users\niels\Documents\Elektrotechniek\Jaar 2\ECS\ECSL\software\STM32\STM32Basis\Segger\Segger_RTT\RTT\SEGGER_RTT_printf.c ****             if (pBufferDesc->ReturnValue < 0) {
 618              	 .loc 1 292 30
 619 011a FB68     	 ldr r3,[r7,#12]
 620 011c DB68     	 ldr r3,[r3,#12]
 621              	 .loc 1 292 13
 622 011e 002B     	 cmp r3,#0
 623 0120 00DB     	 blt .L53
 289:C:\Users\niels\Documents\Elektrotechniek\Jaar 2\ECS\ECSL\software\STM32\STM32Basis\Segger\Segger_RTT\RTT\SEGGER_RTT_printf.c ****             FieldWidth--;
 624              	 .loc 1 289 11
 625 0122 ECE7     	 b .L50
 626              	.L53:
 293:C:\Users\niels\Documents\Elektrotechniek\Jaar 2\ECS\ECSL\software\STM32\STM32Basis\Segger\Segger_RTT\RTT\SEGGER_RTT_printf.c ****               break;
 627              	 .loc 1 293 15
 628 0124 00BF     	 nop
 629              	.L47:
 294:C:\Users\niels\Documents\Elektrotechniek\Jaar 2\ECS\ECSL\software\STM32\STM32Basis\Segger\Segger_RTT\RTT\SEGGER_RTT_printf.c ****             }
 295:C:\Users\niels\Documents\Elektrotechniek\Jaar 2\ECS\ECSL\software\STM32\STM32Basis\Segger\Segger_RTT\RTT\SEGGER_RTT_printf.c ****           }
 296:C:\Users\niels\Documents\Elektrotechniek\Jaar 2\ECS\ECSL\software\STM32\STM32Basis\Segger\Segger_RTT\RTT\SEGGER_RTT_printf.c ****         }
 297:C:\Users\niels\Documents\Elektrotechniek\Jaar 2\ECS\ECSL\software\STM32\STM32Basis\Segger\Segger_RTT\RTT\SEGGER_RTT_printf.c ****       }
 298:C:\Users\niels\Documents\Elektrotechniek\Jaar 2\ECS\ECSL\software\STM32\STM32Basis\Segger\Segger_RTT\RTT\SEGGER_RTT_printf.c ****       if (pBufferDesc->ReturnValue >= 0) {
 630              	 .loc 1 298 24
 631 0126 FB68     	 ldr r3,[r7,#12]
 632 0128 DB68     	 ldr r3,[r3,#12]
 633              	 .loc 1 298 7
 634 012a 002B     	 cmp r3,#0
 635 012c 09DB     	 blt .L52
 299:C:\Users\niels\Documents\Elektrotechniek\Jaar 2\ECS\ECSL\software\STM32\STM32Basis\Segger\Segger_RTT\RTT\SEGGER_RTT_printf.c ****         //
 300:C:\Users\niels\Documents\Elektrotechniek\Jaar 2\ECS\ECSL\software\STM32\STM32Basis\Segger\Segger_RTT\RTT\SEGGER_RTT_printf.c ****         // Print number without sign
 301:C:\Users\niels\Documents\Elektrotechniek\Jaar 2\ECS\ECSL\software\STM32\STM32Basis\Segger\Segger_RTT\RTT\SEGGER_RTT_printf.c ****         //
 302:C:\Users\niels\Documents\Elektrotechniek\Jaar 2\ECS\ECSL\software\STM32\STM32Basis\Segger\Segger_RTT\RTT\SEGGER_RTT_printf.c ****         _PrintUnsigned(pBufferDesc, (unsigned)v, Base, NumDigits, FieldWidth, FormatFlags);
 636              	 .loc 1 302 23
 637 012e B968     	 ldr r1,[r7,#8]
 638 0130 7B6A     	 ldr r3,[r7,#36]
 639 0132 0193     	 str r3,[sp,#4]
 640 0134 3B6A     	 ldr r3,[r7,#32]
 641 0136 0093     	 str r3,[sp]
 642 0138 3B68     	 ldr r3,[r7]
 643 013a 7A68     	 ldr r2,[r7,#4]
 644 013c F868     	 ldr r0,[r7,#12]
 645 013e FFF7FEFF 	 bl _ZL14_PrintUnsignedP22SEGGER_RTT_PRINTF_DESCjjjjj
 646              	.L52:
 303:C:\Users\niels\Documents\Elektrotechniek\Jaar 2\ECS\ECSL\software\STM32\STM32Basis\Segger\Segger_RTT\RTT\SEGGER_RTT_printf.c ****       }
 304:C:\Users\niels\Documents\Elektrotechniek\Jaar 2\ECS\ECSL\software\STM32\STM32Basis\Segger\Segger_RTT\RTT\SEGGER_RTT_printf.c ****     }
 305:C:\Users\niels\Documents\Elektrotechniek\Jaar 2\ECS\ECSL\software\STM32\STM32Basis\Segger\Segger_RTT\RTT\SEGGER_RTT_printf.c ****   }
 306:C:\Users\niels\Documents\Elektrotechniek\Jaar 2\ECS\ECSL\software\STM32\STM32Basis\Segger\Segger_RTT\RTT\SEGGER_RTT_printf.c **** }
 647              	 .loc 1 306 1
 648 0142 00BF     	 nop
 649 0144 1837     	 adds r7,r7,#24
 650              	 .cfi_def_cfa_offset 8
ARM GAS   			page 18


 651 0146 BD46     	 mov sp,r7
 652              	 .cfi_def_cfa_register 13
 653              	 
 654 0148 80BD     	 pop {r7,pc}
 655              	 .cfi_endproc
 656              	.LFE9:
 657              	 .fnend
 658              	 .size _ZL9_PrintIntP22SEGGER_RTT_PRINTF_DESCijjjj,.-_ZL9_PrintIntP22SEGGER_RTT_PRINTF_DESCijjjj
 659              	 .section .text.SEGGER_RTT_vprintf,"ax",%progbits
 660              	 .align 1
 661              	 .global SEGGER_RTT_vprintf
 662              	 .syntax unified
 663              	 .thumb
 664              	 .thumb_func
 665              	 .type SEGGER_RTT_vprintf,%function
 666              	SEGGER_RTT_vprintf:
 667              	 .fnstart
 668              	.LFB10:
 307:C:\Users\niels\Documents\Elektrotechniek\Jaar 2\ECS\ECSL\software\STM32\STM32Basis\Segger\Segger_RTT\RTT\SEGGER_RTT_printf.c **** 
 308:C:\Users\niels\Documents\Elektrotechniek\Jaar 2\ECS\ECSL\software\STM32\STM32Basis\Segger\Segger_RTT\RTT\SEGGER_RTT_printf.c **** /*********************************************************************
 309:C:\Users\niels\Documents\Elektrotechniek\Jaar 2\ECS\ECSL\software\STM32\STM32Basis\Segger\Segger_RTT\RTT\SEGGER_RTT_printf.c **** *
 310:C:\Users\niels\Documents\Elektrotechniek\Jaar 2\ECS\ECSL\software\STM32\STM32Basis\Segger\Segger_RTT\RTT\SEGGER_RTT_printf.c **** *       Public code
 311:C:\Users\niels\Documents\Elektrotechniek\Jaar 2\ECS\ECSL\software\STM32\STM32Basis\Segger\Segger_RTT\RTT\SEGGER_RTT_printf.c **** *
 312:C:\Users\niels\Documents\Elektrotechniek\Jaar 2\ECS\ECSL\software\STM32\STM32Basis\Segger\Segger_RTT\RTT\SEGGER_RTT_printf.c **** **********************************************************************
 313:C:\Users\niels\Documents\Elektrotechniek\Jaar 2\ECS\ECSL\software\STM32\STM32Basis\Segger\Segger_RTT\RTT\SEGGER_RTT_printf.c **** */
 314:C:\Users\niels\Documents\Elektrotechniek\Jaar 2\ECS\ECSL\software\STM32\STM32Basis\Segger\Segger_RTT\RTT\SEGGER_RTT_printf.c **** /*********************************************************************
 315:C:\Users\niels\Documents\Elektrotechniek\Jaar 2\ECS\ECSL\software\STM32\STM32Basis\Segger\Segger_RTT\RTT\SEGGER_RTT_printf.c **** *
 316:C:\Users\niels\Documents\Elektrotechniek\Jaar 2\ECS\ECSL\software\STM32\STM32Basis\Segger\Segger_RTT\RTT\SEGGER_RTT_printf.c **** *       SEGGER_RTT_vprintf
 317:C:\Users\niels\Documents\Elektrotechniek\Jaar 2\ECS\ECSL\software\STM32\STM32Basis\Segger\Segger_RTT\RTT\SEGGER_RTT_printf.c **** *
 318:C:\Users\niels\Documents\Elektrotechniek\Jaar 2\ECS\ECSL\software\STM32\STM32Basis\Segger\Segger_RTT\RTT\SEGGER_RTT_printf.c **** *  Function description
 319:C:\Users\niels\Documents\Elektrotechniek\Jaar 2\ECS\ECSL\software\STM32\STM32Basis\Segger\Segger_RTT\RTT\SEGGER_RTT_printf.c **** *    Stores a formatted string in SEGGER RTT control block.
 320:C:\Users\niels\Documents\Elektrotechniek\Jaar 2\ECS\ECSL\software\STM32\STM32Basis\Segger\Segger_RTT\RTT\SEGGER_RTT_printf.c **** *    This data is read by the host.
 321:C:\Users\niels\Documents\Elektrotechniek\Jaar 2\ECS\ECSL\software\STM32\STM32Basis\Segger\Segger_RTT\RTT\SEGGER_RTT_printf.c **** *
 322:C:\Users\niels\Documents\Elektrotechniek\Jaar 2\ECS\ECSL\software\STM32\STM32Basis\Segger\Segger_RTT\RTT\SEGGER_RTT_printf.c **** *  Parameters
 323:C:\Users\niels\Documents\Elektrotechniek\Jaar 2\ECS\ECSL\software\STM32\STM32Basis\Segger\Segger_RTT\RTT\SEGGER_RTT_printf.c **** *    BufferIndex  Index of "Up"-buffer to be used. (e.g. 0 for "Terminal")
 324:C:\Users\niels\Documents\Elektrotechniek\Jaar 2\ECS\ECSL\software\STM32\STM32Basis\Segger\Segger_RTT\RTT\SEGGER_RTT_printf.c **** *    sFormat      Pointer to format string
 325:C:\Users\niels\Documents\Elektrotechniek\Jaar 2\ECS\ECSL\software\STM32\STM32Basis\Segger\Segger_RTT\RTT\SEGGER_RTT_printf.c **** *    pParamList   Pointer to the list of arguments for the format string
 326:C:\Users\niels\Documents\Elektrotechniek\Jaar 2\ECS\ECSL\software\STM32\STM32Basis\Segger\Segger_RTT\RTT\SEGGER_RTT_printf.c **** *
 327:C:\Users\niels\Documents\Elektrotechniek\Jaar 2\ECS\ECSL\software\STM32\STM32Basis\Segger\Segger_RTT\RTT\SEGGER_RTT_printf.c **** *  Return values
 328:C:\Users\niels\Documents\Elektrotechniek\Jaar 2\ECS\ECSL\software\STM32\STM32Basis\Segger\Segger_RTT\RTT\SEGGER_RTT_printf.c **** *    >= 0:  Number of bytes which have been stored in the "Up"-buffer.
 329:C:\Users\niels\Documents\Elektrotechniek\Jaar 2\ECS\ECSL\software\STM32\STM32Basis\Segger\Segger_RTT\RTT\SEGGER_RTT_printf.c **** *     < 0:  Error
 330:C:\Users\niels\Documents\Elektrotechniek\Jaar 2\ECS\ECSL\software\STM32\STM32Basis\Segger\Segger_RTT\RTT\SEGGER_RTT_printf.c **** */
 331:C:\Users\niels\Documents\Elektrotechniek\Jaar 2\ECS\ECSL\software\STM32\STM32Basis\Segger\Segger_RTT\RTT\SEGGER_RTT_printf.c **** int SEGGER_RTT_vprintf(unsigned BufferIndex, const char * sFormat, va_list * pParamList) {
 669              	 .loc 1 331 90
 670              	 .cfi_startproc
 671              	 
 672              	 
 673 0000 80B5     	 push {r7,lr}
 674              	 .save {r7,lr}
 675              	 .cfi_def_cfa_offset 8
 676              	 .cfi_offset 7,-8
 677              	 .cfi_offset 14,-4
 678              	 .pad #136
 679 0002 A2B0     	 sub sp,sp,#136
 680              	 .cfi_def_cfa_offset 144
 681              	 .setfp r7,sp,#8
 682 0004 02AF     	 add r7,sp,#8
ARM GAS   			page 19


 683              	 .cfi_def_cfa 7,136
 684 0006 F860     	 str r0,[r7,#12]
 685 0008 B960     	 str r1,[r7,#8]
 686 000a 7A60     	 str r2,[r7,#4]
 332:C:\Users\niels\Documents\Elektrotechniek\Jaar 2\ECS\ECSL\software\STM32\STM32Basis\Segger\Segger_RTT\RTT\SEGGER_RTT_printf.c ****   char c;
 333:C:\Users\niels\Documents\Elektrotechniek\Jaar 2\ECS\ECSL\software\STM32\STM32Basis\Segger\Segger_RTT\RTT\SEGGER_RTT_printf.c ****   SEGGER_RTT_PRINTF_DESC BufferDesc;
 334:C:\Users\niels\Documents\Elektrotechniek\Jaar 2\ECS\ECSL\software\STM32\STM32Basis\Segger\Segger_RTT\RTT\SEGGER_RTT_printf.c ****   int v;
 335:C:\Users\niels\Documents\Elektrotechniek\Jaar 2\ECS\ECSL\software\STM32\STM32Basis\Segger\Segger_RTT\RTT\SEGGER_RTT_printf.c ****   unsigned NumDigits;
 336:C:\Users\niels\Documents\Elektrotechniek\Jaar 2\ECS\ECSL\software\STM32\STM32Basis\Segger\Segger_RTT\RTT\SEGGER_RTT_printf.c ****   unsigned FormatFlags;
 337:C:\Users\niels\Documents\Elektrotechniek\Jaar 2\ECS\ECSL\software\STM32\STM32Basis\Segger\Segger_RTT\RTT\SEGGER_RTT_printf.c ****   unsigned FieldWidth;
 338:C:\Users\niels\Documents\Elektrotechniek\Jaar 2\ECS\ECSL\software\STM32\STM32Basis\Segger\Segger_RTT\RTT\SEGGER_RTT_printf.c ****   char acBuffer[SEGGER_RTT_PRINTF_BUFFER_SIZE];
 339:C:\Users\niels\Documents\Elektrotechniek\Jaar 2\ECS\ECSL\software\STM32\STM32Basis\Segger\Segger_RTT\RTT\SEGGER_RTT_printf.c **** 
 340:C:\Users\niels\Documents\Elektrotechniek\Jaar 2\ECS\ECSL\software\STM32\STM32Basis\Segger\Segger_RTT\RTT\SEGGER_RTT_printf.c ****   BufferDesc.pBuffer        = acBuffer;
 687              	 .loc 1 340 29
 688 000c 07F11003 	 add r3,r7,#16
 689 0010 3B65     	 str r3,[r7,#80]
 341:C:\Users\niels\Documents\Elektrotechniek\Jaar 2\ECS\ECSL\software\STM32\STM32Basis\Segger\Segger_RTT\RTT\SEGGER_RTT_printf.c ****   BufferDesc.BufferSize     = SEGGER_RTT_PRINTF_BUFFER_SIZE;
 690              	 .loc 1 341 29
 691 0012 4023     	 movs r3,#64
 692 0014 7B65     	 str r3,[r7,#84]
 342:C:\Users\niels\Documents\Elektrotechniek\Jaar 2\ECS\ECSL\software\STM32\STM32Basis\Segger\Segger_RTT\RTT\SEGGER_RTT_printf.c ****   BufferDesc.Cnt            = 0u;
 693              	 .loc 1 342 29
 694 0016 0023     	 movs r3,#0
 695 0018 BB65     	 str r3,[r7,#88]
 343:C:\Users\niels\Documents\Elektrotechniek\Jaar 2\ECS\ECSL\software\STM32\STM32Basis\Segger\Segger_RTT\RTT\SEGGER_RTT_printf.c ****   BufferDesc.RTTBufferIndex = BufferIndex;
 696              	 .loc 1 343 29
 697 001a FB68     	 ldr r3,[r7,#12]
 698 001c 3B66     	 str r3,[r7,#96]
 344:C:\Users\niels\Documents\Elektrotechniek\Jaar 2\ECS\ECSL\software\STM32\STM32Basis\Segger\Segger_RTT\RTT\SEGGER_RTT_printf.c ****   BufferDesc.ReturnValue    = 0;
 699              	 .loc 1 344 29
 700 001e 0023     	 movs r3,#0
 701 0020 FB65     	 str r3,[r7,#92]
 702              	.L88:
 703              	.LBB2:
 345:C:\Users\niels\Documents\Elektrotechniek\Jaar 2\ECS\ECSL\software\STM32\STM32Basis\Segger\Segger_RTT\RTT\SEGGER_RTT_printf.c **** 
 346:C:\Users\niels\Documents\Elektrotechniek\Jaar 2\ECS\ECSL\software\STM32\STM32Basis\Segger\Segger_RTT\RTT\SEGGER_RTT_printf.c ****   do {
 347:C:\Users\niels\Documents\Elektrotechniek\Jaar 2\ECS\ECSL\software\STM32\STM32Basis\Segger\Segger_RTT\RTT\SEGGER_RTT_printf.c ****     c = *sFormat;
 704              	 .loc 1 347 7
 705 0022 BB68     	 ldr r3,[r7,#8]
 706 0024 1B78     	 ldrb r3,[r3]
 707 0026 87F87F30 	 strb r3,[r7,#127]
 348:C:\Users\niels\Documents\Elektrotechniek\Jaar 2\ECS\ECSL\software\STM32\STM32Basis\Segger\Segger_RTT\RTT\SEGGER_RTT_printf.c ****     sFormat++;
 708              	 .loc 1 348 12
 709 002a BB68     	 ldr r3,[r7,#8]
 710 002c 0133     	 adds r3,r3,#1
 711 002e BB60     	 str r3,[r7,#8]
 349:C:\Users\niels\Documents\Elektrotechniek\Jaar 2\ECS\ECSL\software\STM32\STM32Basis\Segger\Segger_RTT\RTT\SEGGER_RTT_printf.c ****     if (c == 0u) {
 712              	 .loc 1 349 5
 713 0030 97F87F30 	 ldrb r3,[r7,#127]
 714 0034 002B     	 cmp r3,#0
 715 0036 00F0A281 	 beq .L93
 716              	.LBB3:
 350:C:\Users\niels\Documents\Elektrotechniek\Jaar 2\ECS\ECSL\software\STM32\STM32Basis\Segger\Segger_RTT\RTT\SEGGER_RTT_printf.c ****       break;
 351:C:\Users\niels\Documents\Elektrotechniek\Jaar 2\ECS\ECSL\software\STM32\STM32Basis\Segger\Segger_RTT\RTT\SEGGER_RTT_printf.c ****     }
 352:C:\Users\niels\Documents\Elektrotechniek\Jaar 2\ECS\ECSL\software\STM32\STM32Basis\Segger\Segger_RTT\RTT\SEGGER_RTT_printf.c ****     if (c == '%') {
 717              	 .loc 1 352 5
 718 003a 97F87F30 	 ldrb r3,[r7,#127]
ARM GAS   			page 20


 719 003e 252B     	 cmp r3,#37
 720 0040 40F09181 	 bne .L57
 721              	.LBB4:
 353:C:\Users\niels\Documents\Elektrotechniek\Jaar 2\ECS\ECSL\software\STM32\STM32Basis\Segger\Segger_RTT\RTT\SEGGER_RTT_printf.c ****       //
 354:C:\Users\niels\Documents\Elektrotechniek\Jaar 2\ECS\ECSL\software\STM32\STM32Basis\Segger\Segger_RTT\RTT\SEGGER_RTT_printf.c ****       // Filter out flags
 355:C:\Users\niels\Documents\Elektrotechniek\Jaar 2\ECS\ECSL\software\STM32\STM32Basis\Segger\Segger_RTT\RTT\SEGGER_RTT_printf.c ****       //
 356:C:\Users\niels\Documents\Elektrotechniek\Jaar 2\ECS\ECSL\software\STM32\STM32Basis\Segger\Segger_RTT\RTT\SEGGER_RTT_printf.c ****       FormatFlags = 0u;
 722              	 .loc 1 356 19
 723 0044 0023     	 movs r3,#0
 724 0046 3B67     	 str r3,[r7,#112]
 357:C:\Users\niels\Documents\Elektrotechniek\Jaar 2\ECS\ECSL\software\STM32\STM32Basis\Segger\Segger_RTT\RTT\SEGGER_RTT_printf.c ****       v = 1;
 725              	 .loc 1 357 9
 726 0048 0123     	 movs r3,#1
 727 004a BB67     	 str r3,[r7,#120]
 728              	.L66:
 358:C:\Users\niels\Documents\Elektrotechniek\Jaar 2\ECS\ECSL\software\STM32\STM32Basis\Segger\Segger_RTT\RTT\SEGGER_RTT_printf.c ****       do {
 359:C:\Users\niels\Documents\Elektrotechniek\Jaar 2\ECS\ECSL\software\STM32\STM32Basis\Segger\Segger_RTT\RTT\SEGGER_RTT_printf.c ****         c = *sFormat;
 729              	 .loc 1 359 11
 730 004c BB68     	 ldr r3,[r7,#8]
 731 004e 1B78     	 ldrb r3,[r3]
 732 0050 87F87F30 	 strb r3,[r7,#127]
 360:C:\Users\niels\Documents\Elektrotechniek\Jaar 2\ECS\ECSL\software\STM32\STM32Basis\Segger\Segger_RTT\RTT\SEGGER_RTT_printf.c ****         switch (c) {
 733              	 .loc 1 360 17
 734 0054 97F87F30 	 ldrb r3,[r7,#127]
 735              	 .loc 1 360 9
 736 0058 233B     	 subs r3,r3,#35
 737 005a 0D2B     	 cmp r3,#13
 738 005c 3ED8     	 bhi .L58
 739 005e 01A2     	 adr r2,.L60
 740 0060 52F823F0 	 ldr pc,[r2,r3,lsl#2]
 741              	 .p2align 2
 742              	.L60:
 743 0064 CD000000 	 .word .L63+1
 744 0068 DD000000 	 .word .L58+1
 745 006c DD000000 	 .word .L58+1
 746 0070 DD000000 	 .word .L58+1
 747 0074 DD000000 	 .word .L58+1
 748 0078 DD000000 	 .word .L58+1
 749 007c DD000000 	 .word .L58+1
 750 0080 DD000000 	 .word .L58+1
 751 0084 BD000000 	 .word .L62+1
 752 0088 DD000000 	 .word .L58+1
 753 008c 9D000000 	 .word .L61+1
 754 0090 DD000000 	 .word .L58+1
 755 0094 DD000000 	 .word .L58+1
 756 0098 AD000000 	 .word .L59+1
 757              	 .p2align 1
 758              	.L61:
 361:C:\Users\niels\Documents\Elektrotechniek\Jaar 2\ECS\ECSL\software\STM32\STM32Basis\Segger\Segger_RTT\RTT\SEGGER_RTT_printf.c ****         case '-': FormatFlags |= FORMAT_FLAG_LEFT_JUSTIFY; sFormat++; break;
 759              	 .loc 1 361 31
 760 009c 3B6F     	 ldr r3,[r7,#112]
 761 009e 43F00103 	 orr r3,r3,#1
 762 00a2 3B67     	 str r3,[r7,#112]
 763              	 .loc 1 361 67
 764 00a4 BB68     	 ldr r3,[r7,#8]
 765 00a6 0133     	 adds r3,r3,#1
 766 00a8 BB60     	 str r3,[r7,#8]
ARM GAS   			page 21


 767              	 .loc 1 361 71
 768 00aa 1AE0     	 b .L64
 769              	.L59:
 362:C:\Users\niels\Documents\Elektrotechniek\Jaar 2\ECS\ECSL\software\STM32\STM32Basis\Segger\Segger_RTT\RTT\SEGGER_RTT_printf.c ****         case '0': FormatFlags |= FORMAT_FLAG_PAD_ZERO;     sFormat++; break;
 770              	 .loc 1 362 31
 771 00ac 3B6F     	 ldr r3,[r7,#112]
 772 00ae 43F00203 	 orr r3,r3,#2
 773 00b2 3B67     	 str r3,[r7,#112]
 774              	 .loc 1 362 67
 775 00b4 BB68     	 ldr r3,[r7,#8]
 776 00b6 0133     	 adds r3,r3,#1
 777 00b8 BB60     	 str r3,[r7,#8]
 778              	 .loc 1 362 71
 779 00ba 12E0     	 b .L64
 780              	.L62:
 363:C:\Users\niels\Documents\Elektrotechniek\Jaar 2\ECS\ECSL\software\STM32\STM32Basis\Segger\Segger_RTT\RTT\SEGGER_RTT_printf.c ****         case '+': FormatFlags |= FORMAT_FLAG_PRINT_SIGN;   sFormat++; break;
 781              	 .loc 1 363 31
 782 00bc 3B6F     	 ldr r3,[r7,#112]
 783 00be 43F00403 	 orr r3,r3,#4
 784 00c2 3B67     	 str r3,[r7,#112]
 785              	 .loc 1 363 67
 786 00c4 BB68     	 ldr r3,[r7,#8]
 787 00c6 0133     	 adds r3,r3,#1
 788 00c8 BB60     	 str r3,[r7,#8]
 789              	 .loc 1 363 71
 790 00ca 0AE0     	 b .L64
 791              	.L63:
 364:C:\Users\niels\Documents\Elektrotechniek\Jaar 2\ECS\ECSL\software\STM32\STM32Basis\Segger\Segger_RTT\RTT\SEGGER_RTT_printf.c ****         case '#': FormatFlags |= FORMAT_FLAG_ALTERNATE;    sFormat++; break;
 792              	 .loc 1 364 31
 793 00cc 3B6F     	 ldr r3,[r7,#112]
 794 00ce 43F00803 	 orr r3,r3,#8
 795 00d2 3B67     	 str r3,[r7,#112]
 796              	 .loc 1 364 67
 797 00d4 BB68     	 ldr r3,[r7,#8]
 798 00d6 0133     	 adds r3,r3,#1
 799 00d8 BB60     	 str r3,[r7,#8]
 800              	 .loc 1 364 71
 801 00da 02E0     	 b .L64
 802              	.L58:
 365:C:\Users\niels\Documents\Elektrotechniek\Jaar 2\ECS\ECSL\software\STM32\STM32Basis\Segger\Segger_RTT\RTT\SEGGER_RTT_printf.c ****         default:  v = 0; break;
 803              	 .loc 1 365 21
 804 00dc 0023     	 movs r3,#0
 805 00de BB67     	 str r3,[r7,#120]
 806              	 .loc 1 365 26
 807 00e0 00BF     	 nop
 808              	.L64:
 366:C:\Users\niels\Documents\Elektrotechniek\Jaar 2\ECS\ECSL\software\STM32\STM32Basis\Segger\Segger_RTT\RTT\SEGGER_RTT_printf.c ****         }
 367:C:\Users\niels\Documents\Elektrotechniek\Jaar 2\ECS\ECSL\software\STM32\STM32Basis\Segger\Segger_RTT\RTT\SEGGER_RTT_printf.c ****       } while (v);
 809              	 .loc 1 367 16
 810 00e2 BB6F     	 ldr r3,[r7,#120]
 811 00e4 002B     	 cmp r3,#0
 812 00e6 00D0     	 beq .L65
 358:C:\Users\niels\Documents\Elektrotechniek\Jaar 2\ECS\ECSL\software\STM32\STM32Basis\Segger\Segger_RTT\RTT\SEGGER_RTT_printf.c ****         c = *sFormat;
 813              	 .loc 1 358 7
 814 00e8 B0E7     	 b .L66
 815              	.L65:
 368:C:\Users\niels\Documents\Elektrotechniek\Jaar 2\ECS\ECSL\software\STM32\STM32Basis\Segger\Segger_RTT\RTT\SEGGER_RTT_printf.c ****       //
ARM GAS   			page 22


 369:C:\Users\niels\Documents\Elektrotechniek\Jaar 2\ECS\ECSL\software\STM32\STM32Basis\Segger\Segger_RTT\RTT\SEGGER_RTT_printf.c ****       // filter out field with
 370:C:\Users\niels\Documents\Elektrotechniek\Jaar 2\ECS\ECSL\software\STM32\STM32Basis\Segger\Segger_RTT\RTT\SEGGER_RTT_printf.c ****       //
 371:C:\Users\niels\Documents\Elektrotechniek\Jaar 2\ECS\ECSL\software\STM32\STM32Basis\Segger\Segger_RTT\RTT\SEGGER_RTT_printf.c ****       FieldWidth = 0u;
 816              	 .loc 1 371 18
 817 00ea 0023     	 movs r3,#0
 818 00ec FB66     	 str r3,[r7,#108]
 819              	.L68:
 372:C:\Users\niels\Documents\Elektrotechniek\Jaar 2\ECS\ECSL\software\STM32\STM32Basis\Segger\Segger_RTT\RTT\SEGGER_RTT_printf.c ****       do {
 373:C:\Users\niels\Documents\Elektrotechniek\Jaar 2\ECS\ECSL\software\STM32\STM32Basis\Segger\Segger_RTT\RTT\SEGGER_RTT_printf.c ****         c = *sFormat;
 820              	 .loc 1 373 11
 821 00ee BB68     	 ldr r3,[r7,#8]
 822 00f0 1B78     	 ldrb r3,[r3]
 823 00f2 87F87F30 	 strb r3,[r7,#127]
 374:C:\Users\niels\Documents\Elektrotechniek\Jaar 2\ECS\ECSL\software\STM32\STM32Basis\Segger\Segger_RTT\RTT\SEGGER_RTT_printf.c ****         if ((c < '0') || (c > '9')) {
 824              	 .loc 1 374 9
 825 00f6 97F87F30 	 ldrb r3,[r7,#127]
 826 00fa 2F2B     	 cmp r3,#47
 827 00fc 12D9     	 bls .L67
 828              	 .loc 1 374 23 discriminator 1
 829 00fe 97F87F30 	 ldrb r3,[r7,#127]
 830 0102 392B     	 cmp r3,#57
 831 0104 0ED8     	 bhi .L67
 375:C:\Users\niels\Documents\Elektrotechniek\Jaar 2\ECS\ECSL\software\STM32\STM32Basis\Segger\Segger_RTT\RTT\SEGGER_RTT_printf.c ****           break;
 376:C:\Users\niels\Documents\Elektrotechniek\Jaar 2\ECS\ECSL\software\STM32\STM32Basis\Segger\Segger_RTT\RTT\SEGGER_RTT_printf.c ****         }
 377:C:\Users\niels\Documents\Elektrotechniek\Jaar 2\ECS\ECSL\software\STM32\STM32Basis\Segger\Segger_RTT\RTT\SEGGER_RTT_printf.c ****         sFormat++;
 832              	 .loc 1 377 16
 833 0106 BB68     	 ldr r3,[r7,#8]
 834 0108 0133     	 adds r3,r3,#1
 835 010a BB60     	 str r3,[r7,#8]
 378:C:\Users\niels\Documents\Elektrotechniek\Jaar 2\ECS\ECSL\software\STM32\STM32Basis\Segger\Segger_RTT\RTT\SEGGER_RTT_printf.c ****         FieldWidth = (FieldWidth * 10u) + ((unsigned)c - '0');
 836              	 .loc 1 378 34
 837 010c FA6E     	 ldr r2,[r7,#108]
 838 010e 1346     	 mov r3,r2
 839 0110 9B00     	 lsls r3,r3,#2
 840 0112 1344     	 add r3,r3,r2
 841 0114 5B00     	 lsls r3,r3,#1
 842 0116 1A46     	 mov r2,r3
 843              	 .loc 1 378 44
 844 0118 97F87F30 	 ldrb r3,[r7,#127]
 845              	 .loc 1 378 41
 846 011c 1344     	 add r3,r3,r2
 847              	 .loc 1 378 20
 848 011e 303B     	 subs r3,r3,#48
 849 0120 FB66     	 str r3,[r7,#108]
 373:C:\Users\niels\Documents\Elektrotechniek\Jaar 2\ECS\ECSL\software\STM32\STM32Basis\Segger\Segger_RTT\RTT\SEGGER_RTT_printf.c ****         if ((c < '0') || (c > '9')) {
 850              	 .loc 1 373 11
 851 0122 E4E7     	 b .L68
 852              	.L67:
 379:C:\Users\niels\Documents\Elektrotechniek\Jaar 2\ECS\ECSL\software\STM32\STM32Basis\Segger\Segger_RTT\RTT\SEGGER_RTT_printf.c ****       } while (1);
 380:C:\Users\niels\Documents\Elektrotechniek\Jaar 2\ECS\ECSL\software\STM32\STM32Basis\Segger\Segger_RTT\RTT\SEGGER_RTT_printf.c **** 
 381:C:\Users\niels\Documents\Elektrotechniek\Jaar 2\ECS\ECSL\software\STM32\STM32Basis\Segger\Segger_RTT\RTT\SEGGER_RTT_printf.c ****       //
 382:C:\Users\niels\Documents\Elektrotechniek\Jaar 2\ECS\ECSL\software\STM32\STM32Basis\Segger\Segger_RTT\RTT\SEGGER_RTT_printf.c ****       // Filter out precision (number of digits to display)
 383:C:\Users\niels\Documents\Elektrotechniek\Jaar 2\ECS\ECSL\software\STM32\STM32Basis\Segger\Segger_RTT\RTT\SEGGER_RTT_printf.c ****       //
 384:C:\Users\niels\Documents\Elektrotechniek\Jaar 2\ECS\ECSL\software\STM32\STM32Basis\Segger\Segger_RTT\RTT\SEGGER_RTT_printf.c ****       NumDigits = 0u;
 853              	 .loc 1 384 17
 854 0124 0023     	 movs r3,#0
 855 0126 7B67     	 str r3,[r7,#116]
ARM GAS   			page 23


 385:C:\Users\niels\Documents\Elektrotechniek\Jaar 2\ECS\ECSL\software\STM32\STM32Basis\Segger\Segger_RTT\RTT\SEGGER_RTT_printf.c ****       c = *sFormat;
 856              	 .loc 1 385 9
 857 0128 BB68     	 ldr r3,[r7,#8]
 858 012a 1B78     	 ldrb r3,[r3]
 859 012c 87F87F30 	 strb r3,[r7,#127]
 386:C:\Users\niels\Documents\Elektrotechniek\Jaar 2\ECS\ECSL\software\STM32\STM32Basis\Segger\Segger_RTT\RTT\SEGGER_RTT_printf.c ****       if (c == '.') {
 860              	 .loc 1 386 7
 861 0130 97F87F30 	 ldrb r3,[r7,#127]
 862 0134 2E2B     	 cmp r3,#46
 863 0136 1DD1     	 bne .L69
 387:C:\Users\niels\Documents\Elektrotechniek\Jaar 2\ECS\ECSL\software\STM32\STM32Basis\Segger\Segger_RTT\RTT\SEGGER_RTT_printf.c ****         sFormat++;
 864              	 .loc 1 387 16
 865 0138 BB68     	 ldr r3,[r7,#8]
 866 013a 0133     	 adds r3,r3,#1
 867 013c BB60     	 str r3,[r7,#8]
 868              	.L70:
 388:C:\Users\niels\Documents\Elektrotechniek\Jaar 2\ECS\ECSL\software\STM32\STM32Basis\Segger\Segger_RTT\RTT\SEGGER_RTT_printf.c ****         do {
 389:C:\Users\niels\Documents\Elektrotechniek\Jaar 2\ECS\ECSL\software\STM32\STM32Basis\Segger\Segger_RTT\RTT\SEGGER_RTT_printf.c ****           c = *sFormat;
 869              	 .loc 1 389 13
 870 013e BB68     	 ldr r3,[r7,#8]
 871 0140 1B78     	 ldrb r3,[r3]
 872 0142 87F87F30 	 strb r3,[r7,#127]
 390:C:\Users\niels\Documents\Elektrotechniek\Jaar 2\ECS\ECSL\software\STM32\STM32Basis\Segger\Segger_RTT\RTT\SEGGER_RTT_printf.c ****           if ((c < '0') || (c > '9')) {
 873              	 .loc 1 390 11
 874 0146 97F87F30 	 ldrb r3,[r7,#127]
 875 014a 2F2B     	 cmp r3,#47
 876 014c 12D9     	 bls .L69
 877              	 .loc 1 390 25 discriminator 1
 878 014e 97F87F30 	 ldrb r3,[r7,#127]
 879 0152 392B     	 cmp r3,#57
 880 0154 0ED8     	 bhi .L69
 391:C:\Users\niels\Documents\Elektrotechniek\Jaar 2\ECS\ECSL\software\STM32\STM32Basis\Segger\Segger_RTT\RTT\SEGGER_RTT_printf.c ****             break;
 392:C:\Users\niels\Documents\Elektrotechniek\Jaar 2\ECS\ECSL\software\STM32\STM32Basis\Segger\Segger_RTT\RTT\SEGGER_RTT_printf.c ****           }
 393:C:\Users\niels\Documents\Elektrotechniek\Jaar 2\ECS\ECSL\software\STM32\STM32Basis\Segger\Segger_RTT\RTT\SEGGER_RTT_printf.c ****           sFormat++;
 881              	 .loc 1 393 18
 882 0156 BB68     	 ldr r3,[r7,#8]
 883 0158 0133     	 adds r3,r3,#1
 884 015a BB60     	 str r3,[r7,#8]
 394:C:\Users\niels\Documents\Elektrotechniek\Jaar 2\ECS\ECSL\software\STM32\STM32Basis\Segger\Segger_RTT\RTT\SEGGER_RTT_printf.c ****           NumDigits = NumDigits * 10u + ((unsigned)c - '0');
 885              	 .loc 1 394 33
 886 015c 7A6F     	 ldr r2,[r7,#116]
 887 015e 1346     	 mov r3,r2
 888 0160 9B00     	 lsls r3,r3,#2
 889 0162 1344     	 add r3,r3,r2
 890 0164 5B00     	 lsls r3,r3,#1
 891 0166 1A46     	 mov r2,r3
 892              	 .loc 1 394 42
 893 0168 97F87F30 	 ldrb r3,[r7,#127]
 894              	 .loc 1 394 39
 895 016c 1344     	 add r3,r3,r2
 896              	 .loc 1 394 21
 897 016e 303B     	 subs r3,r3,#48
 898 0170 7B67     	 str r3,[r7,#116]
 389:C:\Users\niels\Documents\Elektrotechniek\Jaar 2\ECS\ECSL\software\STM32\STM32Basis\Segger\Segger_RTT\RTT\SEGGER_RTT_printf.c ****           if ((c < '0') || (c > '9')) {
 899              	 .loc 1 389 13
 900 0172 E4E7     	 b .L70
 901              	.L69:
ARM GAS   			page 24


 395:C:\Users\niels\Documents\Elektrotechniek\Jaar 2\ECS\ECSL\software\STM32\STM32Basis\Segger\Segger_RTT\RTT\SEGGER_RTT_printf.c ****         } while (1);
 396:C:\Users\niels\Documents\Elektrotechniek\Jaar 2\ECS\ECSL\software\STM32\STM32Basis\Segger\Segger_RTT\RTT\SEGGER_RTT_printf.c ****       }
 397:C:\Users\niels\Documents\Elektrotechniek\Jaar 2\ECS\ECSL\software\STM32\STM32Basis\Segger\Segger_RTT\RTT\SEGGER_RTT_printf.c ****       //
 398:C:\Users\niels\Documents\Elektrotechniek\Jaar 2\ECS\ECSL\software\STM32\STM32Basis\Segger\Segger_RTT\RTT\SEGGER_RTT_printf.c ****       // Filter out length modifier
 399:C:\Users\niels\Documents\Elektrotechniek\Jaar 2\ECS\ECSL\software\STM32\STM32Basis\Segger\Segger_RTT\RTT\SEGGER_RTT_printf.c ****       //
 400:C:\Users\niels\Documents\Elektrotechniek\Jaar 2\ECS\ECSL\software\STM32\STM32Basis\Segger\Segger_RTT\RTT\SEGGER_RTT_printf.c ****       c = *sFormat;
 902              	 .loc 1 400 9
 903 0174 BB68     	 ldr r3,[r7,#8]
 904 0176 1B78     	 ldrb r3,[r3]
 905 0178 87F87F30 	 strb r3,[r7,#127]
 906              	.L73:
 401:C:\Users\niels\Documents\Elektrotechniek\Jaar 2\ECS\ECSL\software\STM32\STM32Basis\Segger\Segger_RTT\RTT\SEGGER_RTT_printf.c ****       do {
 402:C:\Users\niels\Documents\Elektrotechniek\Jaar 2\ECS\ECSL\software\STM32\STM32Basis\Segger\Segger_RTT\RTT\SEGGER_RTT_printf.c ****         if ((c == 'l') || (c == 'h')) {
 907              	 .loc 1 402 9
 908 017c 97F87F30 	 ldrb r3,[r7,#127]
 909 0180 6C2B     	 cmp r3,#108
 910 0182 03D0     	 beq .L71
 911              	 .loc 1 402 24 discriminator 1
 912 0184 97F87F30 	 ldrb r3,[r7,#127]
 913 0188 682B     	 cmp r3,#104
 914 018a 07D1     	 bne .L72
 915              	.L71:
 403:C:\Users\niels\Documents\Elektrotechniek\Jaar 2\ECS\ECSL\software\STM32\STM32Basis\Segger\Segger_RTT\RTT\SEGGER_RTT_printf.c ****           sFormat++;
 916              	 .loc 1 403 18
 917 018c BB68     	 ldr r3,[r7,#8]
 918 018e 0133     	 adds r3,r3,#1
 919 0190 BB60     	 str r3,[r7,#8]
 404:C:\Users\niels\Documents\Elektrotechniek\Jaar 2\ECS\ECSL\software\STM32\STM32Basis\Segger\Segger_RTT\RTT\SEGGER_RTT_printf.c ****           c = *sFormat;
 920              	 .loc 1 404 13
 921 0192 BB68     	 ldr r3,[r7,#8]
 922 0194 1B78     	 ldrb r3,[r3]
 923 0196 87F87F30 	 strb r3,[r7,#127]
 402:C:\Users\niels\Documents\Elektrotechniek\Jaar 2\ECS\ECSL\software\STM32\STM32Basis\Segger\Segger_RTT\RTT\SEGGER_RTT_printf.c ****           sFormat++;
 924              	 .loc 1 402 9
 925 019a EFE7     	 b .L73
 926              	.L72:
 927              	.LBB5:
 405:C:\Users\niels\Documents\Elektrotechniek\Jaar 2\ECS\ECSL\software\STM32\STM32Basis\Segger\Segger_RTT\RTT\SEGGER_RTT_printf.c ****         } else {
 406:C:\Users\niels\Documents\Elektrotechniek\Jaar 2\ECS\ECSL\software\STM32\STM32Basis\Segger\Segger_RTT\RTT\SEGGER_RTT_printf.c ****           break;
 407:C:\Users\niels\Documents\Elektrotechniek\Jaar 2\ECS\ECSL\software\STM32\STM32Basis\Segger\Segger_RTT\RTT\SEGGER_RTT_printf.c ****         }
 408:C:\Users\niels\Documents\Elektrotechniek\Jaar 2\ECS\ECSL\software\STM32\STM32Basis\Segger\Segger_RTT\RTT\SEGGER_RTT_printf.c ****       } while (1);
 409:C:\Users\niels\Documents\Elektrotechniek\Jaar 2\ECS\ECSL\software\STM32\STM32Basis\Segger\Segger_RTT\RTT\SEGGER_RTT_printf.c ****       //
 410:C:\Users\niels\Documents\Elektrotechniek\Jaar 2\ECS\ECSL\software\STM32\STM32Basis\Segger\Segger_RTT\RTT\SEGGER_RTT_printf.c ****       // Handle specifiers
 411:C:\Users\niels\Documents\Elektrotechniek\Jaar 2\ECS\ECSL\software\STM32\STM32Basis\Segger\Segger_RTT\RTT\SEGGER_RTT_printf.c ****       //
 412:C:\Users\niels\Documents\Elektrotechniek\Jaar 2\ECS\ECSL\software\STM32\STM32Basis\Segger\Segger_RTT\RTT\SEGGER_RTT_printf.c ****       switch (c) {
 928              	 .loc 1 412 15
 929 019c 97F87F30 	 ldrb r3,[r7,#127]
 930              	 .loc 1 412 7
 931 01a0 252B     	 cmp r3,#37
 932 01a2 00F0D280 	 beq .L74
 933 01a6 252B     	 cmp r3,#37
 934 01a8 C0F2D680 	 blt .L94
 935 01ac 782B     	 cmp r3,#120
 936 01ae 00F3D380 	 bgt .L94
 937 01b2 582B     	 cmp r3,#88
 938 01b4 C0F2D080 	 blt .L94
 939 01b8 583B     	 subs r3,r3,#88
ARM GAS   			page 25


 940 01ba 202B     	 cmp r3,#32
 941 01bc 00F2CC80 	 bhi .L94
 942 01c0 01A2     	 adr r2,.L77
 943 01c2 52F823F0 	 ldr pc,[r2,r3,lsl#2]
 944 01c6 00BF     	 .p2align 2
 945              	.L77:
 946 01c8 BF020000 	 .word .L76+1
 947 01cc 59030000 	 .word .L94+1
 948 01d0 59030000 	 .word .L94+1
 949 01d4 59030000 	 .word .L94+1
 950 01d8 59030000 	 .word .L94+1
 951 01dc 59030000 	 .word .L94+1
 952 01e0 59030000 	 .word .L94+1
 953 01e4 59030000 	 .word .L94+1
 954 01e8 59030000 	 .word .L94+1
 955 01ec 59030000 	 .word .L94+1
 956 01f0 59030000 	 .word .L94+1
 957 01f4 4D020000 	 .word .L82+1
 958 01f8 73020000 	 .word .L81+1
 959 01fc 59030000 	 .word .L94+1
 960 0200 59030000 	 .word .L94+1
 961 0204 59030000 	 .word .L94+1
 962 0208 59030000 	 .word .L94+1
 963 020c 59030000 	 .word .L94+1
 964 0210 59030000 	 .word .L94+1
 965 0214 59030000 	 .word .L94+1
 966 0218 59030000 	 .word .L94+1
 967 021c 59030000 	 .word .L94+1
 968 0220 59030000 	 .word .L94+1
 969 0224 59030000 	 .word .L94+1
 970 0228 25030000 	 .word .L80+1
 971 022c 59030000 	 .word .L94+1
 972 0230 59030000 	 .word .L94+1
 973 0234 E5020000 	 .word .L79+1
 974 0238 59030000 	 .word .L94+1
 975 023c 99020000 	 .word .L78+1
 976 0240 59030000 	 .word .L94+1
 977 0244 59030000 	 .word .L94+1
 978 0248 BF020000 	 .word .L76+1
 979              	 .p2align 1
 980              	.L82:
 981              	.LBB6:
 982              	.LBB7:
 413:C:\Users\niels\Documents\Elektrotechniek\Jaar 2\ECS\ECSL\software\STM32\STM32Basis\Segger\Segger_RTT\RTT\SEGGER_RTT_printf.c ****       case 'c': {
 414:C:\Users\niels\Documents\Elektrotechniek\Jaar 2\ECS\ECSL\software\STM32\STM32Basis\Segger\Segger_RTT\RTT\SEGGER_RTT_printf.c ****         char c0;
 415:C:\Users\niels\Documents\Elektrotechniek\Jaar 2\ECS\ECSL\software\STM32\STM32Basis\Segger\Segger_RTT\RTT\SEGGER_RTT_printf.c ****         v = va_arg(*pParamList, int);
 983              	 .loc 1 415 11
 984 024c 7B68     	 ldr r3,[r7,#4]
 985 024e 1B68     	 ldr r3,[r3]
 986 0250 191D     	 adds r1,r3,#4
 987 0252 7A68     	 ldr r2,[r7,#4]
 988 0254 1160     	 str r1,[r2]
 989 0256 1B68     	 ldr r3,[r3]
 990 0258 BB67     	 str r3,[r7,#120]
 416:C:\Users\niels\Documents\Elektrotechniek\Jaar 2\ECS\ECSL\software\STM32\STM32Basis\Segger\Segger_RTT\RTT\SEGGER_RTT_printf.c ****         c0 = (char)v;
 991              	 .loc 1 416 12
 992 025a BB6F     	 ldr r3,[r7,#120]
ARM GAS   			page 26


 993 025c 87F86730 	 strb r3,[r7,#103]
 417:C:\Users\niels\Documents\Elektrotechniek\Jaar 2\ECS\ECSL\software\STM32\STM32Basis\Segger\Segger_RTT\RTT\SEGGER_RTT_printf.c ****         _StoreChar(&BufferDesc, c0);
 994              	 .loc 1 417 19
 995 0260 97F86720 	 ldrb r2,[r7,#103]
 996 0264 07F15003 	 add r3,r7,#80
 997 0268 1146     	 mov r1,r2
 998 026a 1846     	 mov r0,r3
 999 026c FFF7FEFF 	 bl _ZL10_StoreCharP22SEGGER_RTT_PRINTF_DESCc
 418:C:\Users\niels\Documents\Elektrotechniek\Jaar 2\ECS\ECSL\software\STM32\STM32Basis\Segger\Segger_RTT\RTT\SEGGER_RTT_printf.c ****         break;
 1000              	 .loc 1 418 9
 1001 0270 75E0     	 b .L83
 1002              	.L81:
 1003              	.LBE7:
 419:C:\Users\niels\Documents\Elektrotechniek\Jaar 2\ECS\ECSL\software\STM32\STM32Basis\Segger\Segger_RTT\RTT\SEGGER_RTT_printf.c ****       }
 420:C:\Users\niels\Documents\Elektrotechniek\Jaar 2\ECS\ECSL\software\STM32\STM32Basis\Segger\Segger_RTT\RTT\SEGGER_RTT_printf.c ****       case 'd':
 421:C:\Users\niels\Documents\Elektrotechniek\Jaar 2\ECS\ECSL\software\STM32\STM32Basis\Segger\Segger_RTT\RTT\SEGGER_RTT_printf.c ****         v = va_arg(*pParamList, int);
 1004              	 .loc 1 421 11
 1005 0272 7B68     	 ldr r3,[r7,#4]
 1006 0274 1B68     	 ldr r3,[r3]
 1007 0276 191D     	 adds r1,r3,#4
 1008 0278 7A68     	 ldr r2,[r7,#4]
 1009 027a 1160     	 str r1,[r2]
 1010 027c 1B68     	 ldr r3,[r3]
 1011 027e BB67     	 str r3,[r7,#120]
 422:C:\Users\niels\Documents\Elektrotechniek\Jaar 2\ECS\ECSL\software\STM32\STM32Basis\Segger\Segger_RTT\RTT\SEGGER_RTT_printf.c ****         _PrintInt(&BufferDesc, v, 10u, NumDigits, FieldWidth, FormatFlags);
 1012              	 .loc 1 422 18
 1013 0280 07F15000 	 add r0,r7,#80
 1014 0284 3B6F     	 ldr r3,[r7,#112]
 1015 0286 0193     	 str r3,[sp,#4]
 1016 0288 FB6E     	 ldr r3,[r7,#108]
 1017 028a 0093     	 str r3,[sp]
 1018 028c 7B6F     	 ldr r3,[r7,#116]
 1019 028e 0A22     	 movs r2,#10
 1020 0290 B96F     	 ldr r1,[r7,#120]
 1021 0292 FFF7FEFF 	 bl _ZL9_PrintIntP22SEGGER_RTT_PRINTF_DESCijjjj
 423:C:\Users\niels\Documents\Elektrotechniek\Jaar 2\ECS\ECSL\software\STM32\STM32Basis\Segger\Segger_RTT\RTT\SEGGER_RTT_printf.c ****         break;
 1022              	 .loc 1 423 9
 1023 0296 62E0     	 b .L83
 1024              	.L78:
 424:C:\Users\niels\Documents\Elektrotechniek\Jaar 2\ECS\ECSL\software\STM32\STM32Basis\Segger\Segger_RTT\RTT\SEGGER_RTT_printf.c ****       case 'u':
 425:C:\Users\niels\Documents\Elektrotechniek\Jaar 2\ECS\ECSL\software\STM32\STM32Basis\Segger\Segger_RTT\RTT\SEGGER_RTT_printf.c ****         v = va_arg(*pParamList, int);
 1025              	 .loc 1 425 11
 1026 0298 7B68     	 ldr r3,[r7,#4]
 1027 029a 1B68     	 ldr r3,[r3]
 1028 029c 191D     	 adds r1,r3,#4
 1029 029e 7A68     	 ldr r2,[r7,#4]
 1030 02a0 1160     	 str r1,[r2]
 1031 02a2 1B68     	 ldr r3,[r3]
 1032 02a4 BB67     	 str r3,[r7,#120]
 426:C:\Users\niels\Documents\Elektrotechniek\Jaar 2\ECS\ECSL\software\STM32\STM32Basis\Segger\Segger_RTT\RTT\SEGGER_RTT_printf.c ****         _PrintUnsigned(&BufferDesc, (unsigned)v, 10u, NumDigits, FieldWidth, FormatFlags);
 1033              	 .loc 1 426 23
 1034 02a6 B96F     	 ldr r1,[r7,#120]
 1035 02a8 07F15000 	 add r0,r7,#80
 1036 02ac 3B6F     	 ldr r3,[r7,#112]
 1037 02ae 0193     	 str r3,[sp,#4]
 1038 02b0 FB6E     	 ldr r3,[r7,#108]
 1039 02b2 0093     	 str r3,[sp]
ARM GAS   			page 27


 1040 02b4 7B6F     	 ldr r3,[r7,#116]
 1041 02b6 0A22     	 movs r2,#10
 1042 02b8 FFF7FEFF 	 bl _ZL14_PrintUnsignedP22SEGGER_RTT_PRINTF_DESCjjjjj
 427:C:\Users\niels\Documents\Elektrotechniek\Jaar 2\ECS\ECSL\software\STM32\STM32Basis\Segger\Segger_RTT\RTT\SEGGER_RTT_printf.c ****         break;
 1043              	 .loc 1 427 9
 1044 02bc 4FE0     	 b .L83
 1045              	.L76:
 428:C:\Users\niels\Documents\Elektrotechniek\Jaar 2\ECS\ECSL\software\STM32\STM32Basis\Segger\Segger_RTT\RTT\SEGGER_RTT_printf.c ****       case 'x':
 429:C:\Users\niels\Documents\Elektrotechniek\Jaar 2\ECS\ECSL\software\STM32\STM32Basis\Segger\Segger_RTT\RTT\SEGGER_RTT_printf.c ****       case 'X':
 430:C:\Users\niels\Documents\Elektrotechniek\Jaar 2\ECS\ECSL\software\STM32\STM32Basis\Segger\Segger_RTT\RTT\SEGGER_RTT_printf.c ****         v = va_arg(*pParamList, int);
 1046              	 .loc 1 430 11
 1047 02be 7B68     	 ldr r3,[r7,#4]
 1048 02c0 1B68     	 ldr r3,[r3]
 1049 02c2 191D     	 adds r1,r3,#4
 1050 02c4 7A68     	 ldr r2,[r7,#4]
 1051 02c6 1160     	 str r1,[r2]
 1052 02c8 1B68     	 ldr r3,[r3]
 1053 02ca BB67     	 str r3,[r7,#120]
 431:C:\Users\niels\Documents\Elektrotechniek\Jaar 2\ECS\ECSL\software\STM32\STM32Basis\Segger\Segger_RTT\RTT\SEGGER_RTT_printf.c ****         _PrintUnsigned(&BufferDesc, (unsigned)v, 16u, NumDigits, FieldWidth, FormatFlags);
 1054              	 .loc 1 431 23
 1055 02cc B96F     	 ldr r1,[r7,#120]
 1056 02ce 07F15000 	 add r0,r7,#80
 1057 02d2 3B6F     	 ldr r3,[r7,#112]
 1058 02d4 0193     	 str r3,[sp,#4]
 1059 02d6 FB6E     	 ldr r3,[r7,#108]
 1060 02d8 0093     	 str r3,[sp]
 1061 02da 7B6F     	 ldr r3,[r7,#116]
 1062 02dc 1022     	 movs r2,#16
 1063 02de FFF7FEFF 	 bl _ZL14_PrintUnsignedP22SEGGER_RTT_PRINTF_DESCjjjjj
 432:C:\Users\niels\Documents\Elektrotechniek\Jaar 2\ECS\ECSL\software\STM32\STM32Basis\Segger\Segger_RTT\RTT\SEGGER_RTT_printf.c ****         break;
 1064              	 .loc 1 432 9
 1065 02e2 3CE0     	 b .L83
 1066              	.L79:
 1067              	.LBB8:
 433:C:\Users\niels\Documents\Elektrotechniek\Jaar 2\ECS\ECSL\software\STM32\STM32Basis\Segger\Segger_RTT\RTT\SEGGER_RTT_printf.c ****       case 's':
 434:C:\Users\niels\Documents\Elektrotechniek\Jaar 2\ECS\ECSL\software\STM32\STM32Basis\Segger\Segger_RTT\RTT\SEGGER_RTT_printf.c ****         {
 435:C:\Users\niels\Documents\Elektrotechniek\Jaar 2\ECS\ECSL\software\STM32\STM32Basis\Segger\Segger_RTT\RTT\SEGGER_RTT_printf.c ****           const char * s = va_arg(*pParamList, const char *);
 1068              	 .loc 1 435 28
 1069 02e4 7B68     	 ldr r3,[r7,#4]
 1070 02e6 1B68     	 ldr r3,[r3]
 1071 02e8 191D     	 adds r1,r3,#4
 1072 02ea 7A68     	 ldr r2,[r7,#4]
 1073 02ec 1160     	 str r1,[r2]
 1074 02ee 1B68     	 ldr r3,[r3]
 1075 02f0 BB66     	 str r3,[r7,#104]
 1076              	.L86:
 436:C:\Users\niels\Documents\Elektrotechniek\Jaar 2\ECS\ECSL\software\STM32\STM32Basis\Segger\Segger_RTT\RTT\SEGGER_RTT_printf.c ****           do {
 437:C:\Users\niels\Documents\Elektrotechniek\Jaar 2\ECS\ECSL\software\STM32\STM32Basis\Segger\Segger_RTT\RTT\SEGGER_RTT_printf.c ****             c = *s;
 1077              	 .loc 1 437 15
 1078 02f2 BB6E     	 ldr r3,[r7,#104]
 1079 02f4 1B78     	 ldrb r3,[r3]
 1080 02f6 87F87F30 	 strb r3,[r7,#127]
 438:C:\Users\niels\Documents\Elektrotechniek\Jaar 2\ECS\ECSL\software\STM32\STM32Basis\Segger\Segger_RTT\RTT\SEGGER_RTT_printf.c ****             s++;
 1081              	 .loc 1 438 14
 1082 02fa BB6E     	 ldr r3,[r7,#104]
 1083 02fc 0133     	 adds r3,r3,#1
 1084 02fe BB66     	 str r3,[r7,#104]
ARM GAS   			page 28


 439:C:\Users\niels\Documents\Elektrotechniek\Jaar 2\ECS\ECSL\software\STM32\STM32Basis\Segger\Segger_RTT\RTT\SEGGER_RTT_printf.c ****             if (c == '\0') {
 1085              	 .loc 1 439 13
 1086 0300 97F87F30 	 ldrb r3,[r7,#127]
 1087 0304 002B     	 cmp r3,#0
 1088 0306 0BD0     	 beq .L95
 440:C:\Users\niels\Documents\Elektrotechniek\Jaar 2\ECS\ECSL\software\STM32\STM32Basis\Segger\Segger_RTT\RTT\SEGGER_RTT_printf.c ****               break;
 441:C:\Users\niels\Documents\Elektrotechniek\Jaar 2\ECS\ECSL\software\STM32\STM32Basis\Segger\Segger_RTT\RTT\SEGGER_RTT_printf.c ****             }
 442:C:\Users\niels\Documents\Elektrotechniek\Jaar 2\ECS\ECSL\software\STM32\STM32Basis\Segger\Segger_RTT\RTT\SEGGER_RTT_printf.c ****            _StoreChar(&BufferDesc, c);
 1089              	 .loc 1 442 22
 1090 0308 97F87F20 	 ldrb r2,[r7,#127]
 1091 030c 07F15003 	 add r3,r7,#80
 1092 0310 1146     	 mov r1,r2
 1093 0312 1846     	 mov r0,r3
 1094 0314 FFF7FEFF 	 bl _ZL10_StoreCharP22SEGGER_RTT_PRINTF_DESCc
 443:C:\Users\niels\Documents\Elektrotechniek\Jaar 2\ECS\ECSL\software\STM32\STM32Basis\Segger\Segger_RTT\RTT\SEGGER_RTT_printf.c ****           } while (BufferDesc.ReturnValue >= 0);
 1095              	 .loc 1 443 31
 1096 0318 FB6D     	 ldr r3,[r7,#92]
 1097              	 .loc 1 443 43
 1098 031a 002B     	 cmp r3,#0
 1099 031c 1EDB     	 blt .L96
 436:C:\Users\niels\Documents\Elektrotechniek\Jaar 2\ECS\ECSL\software\STM32\STM32Basis\Segger\Segger_RTT\RTT\SEGGER_RTT_printf.c ****             c = *s;
 1100              	 .loc 1 436 11
 1101 031e E8E7     	 b .L86
 1102              	.L95:
 440:C:\Users\niels\Documents\Elektrotechniek\Jaar 2\ECS\ECSL\software\STM32\STM32Basis\Segger\Segger_RTT\RTT\SEGGER_RTT_printf.c ****               break;
 1103              	 .loc 1 440 15
 1104 0320 00BF     	 nop
 1105              	.LBE8:
 444:C:\Users\niels\Documents\Elektrotechniek\Jaar 2\ECS\ECSL\software\STM32\STM32Basis\Segger\Segger_RTT\RTT\SEGGER_RTT_printf.c ****         }
 445:C:\Users\niels\Documents\Elektrotechniek\Jaar 2\ECS\ECSL\software\STM32\STM32Basis\Segger\Segger_RTT\RTT\SEGGER_RTT_printf.c ****         break;
 1106              	 .loc 1 445 9
 1107 0322 1BE0     	 b .L96
 1108              	.L80:
 446:C:\Users\niels\Documents\Elektrotechniek\Jaar 2\ECS\ECSL\software\STM32\STM32Basis\Segger\Segger_RTT\RTT\SEGGER_RTT_printf.c ****       case 'p':
 447:C:\Users\niels\Documents\Elektrotechniek\Jaar 2\ECS\ECSL\software\STM32\STM32Basis\Segger\Segger_RTT\RTT\SEGGER_RTT_printf.c ****         v = va_arg(*pParamList, int);
 1109              	 .loc 1 447 11
 1110 0324 7B68     	 ldr r3,[r7,#4]
 1111 0326 1B68     	 ldr r3,[r3]
 1112 0328 191D     	 adds r1,r3,#4
 1113 032a 7A68     	 ldr r2,[r7,#4]
 1114 032c 1160     	 str r1,[r2]
 1115 032e 1B68     	 ldr r3,[r3]
 1116 0330 BB67     	 str r3,[r7,#120]
 448:C:\Users\niels\Documents\Elektrotechniek\Jaar 2\ECS\ECSL\software\STM32\STM32Basis\Segger\Segger_RTT\RTT\SEGGER_RTT_printf.c ****         _PrintUnsigned(&BufferDesc, (unsigned)v, 16u, 8u, 8u, 0u);
 1117              	 .loc 1 448 23
 1118 0332 B96F     	 ldr r1,[r7,#120]
 1119 0334 07F15000 	 add r0,r7,#80
 1120 0338 0023     	 movs r3,#0
 1121 033a 0193     	 str r3,[sp,#4]
 1122 033c 0823     	 movs r3,#8
 1123 033e 0093     	 str r3,[sp]
 1124 0340 0823     	 movs r3,#8
 1125 0342 1022     	 movs r2,#16
 1126 0344 FFF7FEFF 	 bl _ZL14_PrintUnsignedP22SEGGER_RTT_PRINTF_DESCjjjjj
 449:C:\Users\niels\Documents\Elektrotechniek\Jaar 2\ECS\ECSL\software\STM32\STM32Basis\Segger\Segger_RTT\RTT\SEGGER_RTT_printf.c ****         break;
 1127              	 .loc 1 449 9
 1128 0348 09E0     	 b .L83
ARM GAS   			page 29


 1129              	.L74:
 450:C:\Users\niels\Documents\Elektrotechniek\Jaar 2\ECS\ECSL\software\STM32\STM32Basis\Segger\Segger_RTT\RTT\SEGGER_RTT_printf.c ****       case '%':
 451:C:\Users\niels\Documents\Elektrotechniek\Jaar 2\ECS\ECSL\software\STM32\STM32Basis\Segger\Segger_RTT\RTT\SEGGER_RTT_printf.c ****         _StoreChar(&BufferDesc, '%');
 1130              	 .loc 1 451 19
 1131 034a 07F15003 	 add r3,r7,#80
 1132 034e 2521     	 movs r1,#37
 1133 0350 1846     	 mov r0,r3
 1134 0352 FFF7FEFF 	 bl _ZL10_StoreCharP22SEGGER_RTT_PRINTF_DESCc
 452:C:\Users\niels\Documents\Elektrotechniek\Jaar 2\ECS\ECSL\software\STM32\STM32Basis\Segger\Segger_RTT\RTT\SEGGER_RTT_printf.c ****         break;
 1135              	 .loc 1 452 9
 1136 0356 02E0     	 b .L83
 1137              	.L94:
 453:C:\Users\niels\Documents\Elektrotechniek\Jaar 2\ECS\ECSL\software\STM32\STM32Basis\Segger\Segger_RTT\RTT\SEGGER_RTT_printf.c ****       default:
 454:C:\Users\niels\Documents\Elektrotechniek\Jaar 2\ECS\ECSL\software\STM32\STM32Basis\Segger\Segger_RTT\RTT\SEGGER_RTT_printf.c ****         break;
 1138              	 .loc 1 454 9
 1139 0358 00BF     	 nop
 1140 035a 00E0     	 b .L83
 1141              	.L96:
 445:C:\Users\niels\Documents\Elektrotechniek\Jaar 2\ECS\ECSL\software\STM32\STM32Basis\Segger\Segger_RTT\RTT\SEGGER_RTT_printf.c ****       case 'p':
 1142              	 .loc 1 445 9
 1143 035c 00BF     	 nop
 1144              	.L83:
 1145              	.LBE6:
 1146              	.LBE5:
 455:C:\Users\niels\Documents\Elektrotechniek\Jaar 2\ECS\ECSL\software\STM32\STM32Basis\Segger\Segger_RTT\RTT\SEGGER_RTT_printf.c ****       }
 456:C:\Users\niels\Documents\Elektrotechniek\Jaar 2\ECS\ECSL\software\STM32\STM32Basis\Segger\Segger_RTT\RTT\SEGGER_RTT_printf.c ****       sFormat++;
 1147              	 .loc 1 456 14
 1148 035e BB68     	 ldr r3,[r7,#8]
 1149 0360 0133     	 adds r3,r3,#1
 1150 0362 BB60     	 str r3,[r7,#8]
 1151              	.LBE4:
 1152 0364 07E0     	 b .L87
 1153              	.L57:
 457:C:\Users\niels\Documents\Elektrotechniek\Jaar 2\ECS\ECSL\software\STM32\STM32Basis\Segger\Segger_RTT\RTT\SEGGER_RTT_printf.c ****     } else {
 458:C:\Users\niels\Documents\Elektrotechniek\Jaar 2\ECS\ECSL\software\STM32\STM32Basis\Segger\Segger_RTT\RTT\SEGGER_RTT_printf.c ****       _StoreChar(&BufferDesc, c);
 1154              	 .loc 1 458 17
 1155 0366 97F87F20 	 ldrb r2,[r7,#127]
 1156 036a 07F15003 	 add r3,r7,#80
 1157 036e 1146     	 mov r1,r2
 1158 0370 1846     	 mov r0,r3
 1159 0372 FFF7FEFF 	 bl _ZL10_StoreCharP22SEGGER_RTT_PRINTF_DESCc
 1160              	.L87:
 1161              	.LBE3:
 1162              	.LBE2:
 459:C:\Users\niels\Documents\Elektrotechniek\Jaar 2\ECS\ECSL\software\STM32\STM32Basis\Segger\Segger_RTT\RTT\SEGGER_RTT_printf.c ****     }
 460:C:\Users\niels\Documents\Elektrotechniek\Jaar 2\ECS\ECSL\software\STM32\STM32Basis\Segger\Segger_RTT\RTT\SEGGER_RTT_printf.c ****   } while (BufferDesc.ReturnValue >= 0);
 1163              	 .loc 1 460 23
 1164 0376 FB6D     	 ldr r3,[r7,#92]
 1165              	 .loc 1 460 35
 1166 0378 002B     	 cmp r3,#0
 1167 037a 01DB     	 blt .L56
 346:C:\Users\niels\Documents\Elektrotechniek\Jaar 2\ECS\ECSL\software\STM32\STM32Basis\Segger\Segger_RTT\RTT\SEGGER_RTT_printf.c ****     c = *sFormat;
 1168              	 .loc 1 346 3
 1169 037c 51E6     	 b .L88
 1170              	.L93:
 1171              	.LBB9:
 350:C:\Users\niels\Documents\Elektrotechniek\Jaar 2\ECS\ECSL\software\STM32\STM32Basis\Segger\Segger_RTT\RTT\SEGGER_RTT_printf.c ****     }
ARM GAS   			page 30


 1172              	 .loc 1 350 7
 1173 037e 00BF     	 nop
 1174              	.L56:
 1175              	.LBE9:
 461:C:\Users\niels\Documents\Elektrotechniek\Jaar 2\ECS\ECSL\software\STM32\STM32Basis\Segger\Segger_RTT\RTT\SEGGER_RTT_printf.c **** 
 462:C:\Users\niels\Documents\Elektrotechniek\Jaar 2\ECS\ECSL\software\STM32\STM32Basis\Segger\Segger_RTT\RTT\SEGGER_RTT_printf.c ****   if (BufferDesc.ReturnValue > 0) {
 1176              	 .loc 1 462 18
 1177 0380 FB6D     	 ldr r3,[r7,#92]
 1178              	 .loc 1 462 3
 1179 0382 002B     	 cmp r3,#0
 1180 0384 0DDD     	 ble .L89
 463:C:\Users\niels\Documents\Elektrotechniek\Jaar 2\ECS\ECSL\software\STM32\STM32Basis\Segger\Segger_RTT\RTT\SEGGER_RTT_printf.c ****     //
 464:C:\Users\niels\Documents\Elektrotechniek\Jaar 2\ECS\ECSL\software\STM32\STM32Basis\Segger\Segger_RTT\RTT\SEGGER_RTT_printf.c ****     // Write remaining data, if any
 465:C:\Users\niels\Documents\Elektrotechniek\Jaar 2\ECS\ECSL\software\STM32\STM32Basis\Segger\Segger_RTT\RTT\SEGGER_RTT_printf.c ****     //
 466:C:\Users\niels\Documents\Elektrotechniek\Jaar 2\ECS\ECSL\software\STM32\STM32Basis\Segger\Segger_RTT\RTT\SEGGER_RTT_printf.c ****     if (BufferDesc.Cnt != 0u) {
 1181              	 .loc 1 466 20
 1182 0386 BB6D     	 ldr r3,[r7,#88]
 1183              	 .loc 1 466 5
 1184 0388 002B     	 cmp r3,#0
 1185 038a 06D0     	 beq .L90
 467:C:\Users\niels\Documents\Elektrotechniek\Jaar 2\ECS\ECSL\software\STM32\STM32Basis\Segger\Segger_RTT\RTT\SEGGER_RTT_printf.c ****       SEGGER_RTT_Write(BufferIndex, acBuffer, BufferDesc.Cnt);
 1186              	 .loc 1 467 23
 1187 038c BA6D     	 ldr r2,[r7,#88]
 1188 038e 07F11003 	 add r3,r7,#16
 1189 0392 1946     	 mov r1,r3
 1190 0394 F868     	 ldr r0,[r7,#12]
 1191 0396 FFF7FEFF 	 bl SEGGER_RTT_Write
 1192              	.L90:
 468:C:\Users\niels\Documents\Elektrotechniek\Jaar 2\ECS\ECSL\software\STM32\STM32Basis\Segger\Segger_RTT\RTT\SEGGER_RTT_printf.c ****     }
 469:C:\Users\niels\Documents\Elektrotechniek\Jaar 2\ECS\ECSL\software\STM32\STM32Basis\Segger\Segger_RTT\RTT\SEGGER_RTT_printf.c ****     BufferDesc.ReturnValue += (int)BufferDesc.Cnt;
 1193              	 .loc 1 469 28
 1194 039a FB6D     	 ldr r3,[r7,#92]
 1195              	 .loc 1 469 47
 1196 039c BA6D     	 ldr r2,[r7,#88]
 1197              	 .loc 1 469 28
 1198 039e 1344     	 add r3,r3,r2
 1199 03a0 FB65     	 str r3,[r7,#92]
 1200              	.L89:
 470:C:\Users\niels\Documents\Elektrotechniek\Jaar 2\ECS\ECSL\software\STM32\STM32Basis\Segger\Segger_RTT\RTT\SEGGER_RTT_printf.c ****   }
 471:C:\Users\niels\Documents\Elektrotechniek\Jaar 2\ECS\ECSL\software\STM32\STM32Basis\Segger\Segger_RTT\RTT\SEGGER_RTT_printf.c ****   return BufferDesc.ReturnValue;
 1201              	 .loc 1 471 21
 1202 03a2 FB6D     	 ldr r3,[r7,#92]
 472:C:\Users\niels\Documents\Elektrotechniek\Jaar 2\ECS\ECSL\software\STM32\STM32Basis\Segger\Segger_RTT\RTT\SEGGER_RTT_printf.c **** }
 1203              	 .loc 1 472 1
 1204 03a4 1846     	 mov r0,r3
 1205 03a6 8037     	 adds r7,r7,#128
 1206              	 .cfi_def_cfa_offset 8
 1207 03a8 BD46     	 mov sp,r7
 1208              	 .cfi_def_cfa_register 13
 1209              	 
 1210 03aa 80BD     	 pop {r7,pc}
 1211              	 .cfi_endproc
 1212              	.LFE10:
 1213              	 .fnend
 1214              	 .size SEGGER_RTT_vprintf,.-SEGGER_RTT_vprintf
 1215              	 .section .text.SEGGER_RTT_printf,"ax",%progbits
 1216              	 .align 1
ARM GAS   			page 31


 1217              	 .global SEGGER_RTT_printf
 1218              	 .syntax unified
 1219              	 .thumb
 1220              	 .thumb_func
 1221              	 .type SEGGER_RTT_printf,%function
 1222              	SEGGER_RTT_printf:
 1223              	 .fnstart
 1224              	.LFB11:
 473:C:\Users\niels\Documents\Elektrotechniek\Jaar 2\ECS\ECSL\software\STM32\STM32Basis\Segger\Segger_RTT\RTT\SEGGER_RTT_printf.c **** 
 474:C:\Users\niels\Documents\Elektrotechniek\Jaar 2\ECS\ECSL\software\STM32\STM32Basis\Segger\Segger_RTT\RTT\SEGGER_RTT_printf.c **** /*********************************************************************
 475:C:\Users\niels\Documents\Elektrotechniek\Jaar 2\ECS\ECSL\software\STM32\STM32Basis\Segger\Segger_RTT\RTT\SEGGER_RTT_printf.c **** *
 476:C:\Users\niels\Documents\Elektrotechniek\Jaar 2\ECS\ECSL\software\STM32\STM32Basis\Segger\Segger_RTT\RTT\SEGGER_RTT_printf.c **** *       SEGGER_RTT_printf
 477:C:\Users\niels\Documents\Elektrotechniek\Jaar 2\ECS\ECSL\software\STM32\STM32Basis\Segger\Segger_RTT\RTT\SEGGER_RTT_printf.c **** *
 478:C:\Users\niels\Documents\Elektrotechniek\Jaar 2\ECS\ECSL\software\STM32\STM32Basis\Segger\Segger_RTT\RTT\SEGGER_RTT_printf.c **** *  Function description
 479:C:\Users\niels\Documents\Elektrotechniek\Jaar 2\ECS\ECSL\software\STM32\STM32Basis\Segger\Segger_RTT\RTT\SEGGER_RTT_printf.c **** *    Stores a formatted string in SEGGER RTT control block.
 480:C:\Users\niels\Documents\Elektrotechniek\Jaar 2\ECS\ECSL\software\STM32\STM32Basis\Segger\Segger_RTT\RTT\SEGGER_RTT_printf.c **** *    This data is read by the host.
 481:C:\Users\niels\Documents\Elektrotechniek\Jaar 2\ECS\ECSL\software\STM32\STM32Basis\Segger\Segger_RTT\RTT\SEGGER_RTT_printf.c **** *
 482:C:\Users\niels\Documents\Elektrotechniek\Jaar 2\ECS\ECSL\software\STM32\STM32Basis\Segger\Segger_RTT\RTT\SEGGER_RTT_printf.c **** *  Parameters
 483:C:\Users\niels\Documents\Elektrotechniek\Jaar 2\ECS\ECSL\software\STM32\STM32Basis\Segger\Segger_RTT\RTT\SEGGER_RTT_printf.c **** *    BufferIndex  Index of "Up"-buffer to be used. (e.g. 0 for "Terminal")
 484:C:\Users\niels\Documents\Elektrotechniek\Jaar 2\ECS\ECSL\software\STM32\STM32Basis\Segger\Segger_RTT\RTT\SEGGER_RTT_printf.c **** *    sFormat      Pointer to format string, followed by the arguments for conversion
 485:C:\Users\niels\Documents\Elektrotechniek\Jaar 2\ECS\ECSL\software\STM32\STM32Basis\Segger\Segger_RTT\RTT\SEGGER_RTT_printf.c **** *
 486:C:\Users\niels\Documents\Elektrotechniek\Jaar 2\ECS\ECSL\software\STM32\STM32Basis\Segger\Segger_RTT\RTT\SEGGER_RTT_printf.c **** *  Return values
 487:C:\Users\niels\Documents\Elektrotechniek\Jaar 2\ECS\ECSL\software\STM32\STM32Basis\Segger\Segger_RTT\RTT\SEGGER_RTT_printf.c **** *    >= 0:  Number of bytes which have been stored in the "Up"-buffer.
 488:C:\Users\niels\Documents\Elektrotechniek\Jaar 2\ECS\ECSL\software\STM32\STM32Basis\Segger\Segger_RTT\RTT\SEGGER_RTT_printf.c **** *     < 0:  Error
 489:C:\Users\niels\Documents\Elektrotechniek\Jaar 2\ECS\ECSL\software\STM32\STM32Basis\Segger\Segger_RTT\RTT\SEGGER_RTT_printf.c **** *
 490:C:\Users\niels\Documents\Elektrotechniek\Jaar 2\ECS\ECSL\software\STM32\STM32Basis\Segger\Segger_RTT\RTT\SEGGER_RTT_printf.c **** *  Notes
 491:C:\Users\niels\Documents\Elektrotechniek\Jaar 2\ECS\ECSL\software\STM32\STM32Basis\Segger\Segger_RTT\RTT\SEGGER_RTT_printf.c **** *    (1) Conversion specifications have following syntax:
 492:C:\Users\niels\Documents\Elektrotechniek\Jaar 2\ECS\ECSL\software\STM32\STM32Basis\Segger\Segger_RTT\RTT\SEGGER_RTT_printf.c **** *          %[flags][FieldWidth][.Precision]ConversionSpecifier
 493:C:\Users\niels\Documents\Elektrotechniek\Jaar 2\ECS\ECSL\software\STM32\STM32Basis\Segger\Segger_RTT\RTT\SEGGER_RTT_printf.c **** *    (2) Supported flags:
 494:C:\Users\niels\Documents\Elektrotechniek\Jaar 2\ECS\ECSL\software\STM32\STM32Basis\Segger\Segger_RTT\RTT\SEGGER_RTT_printf.c **** *          -: Left justify within the field width
 495:C:\Users\niels\Documents\Elektrotechniek\Jaar 2\ECS\ECSL\software\STM32\STM32Basis\Segger\Segger_RTT\RTT\SEGGER_RTT_printf.c **** *          +: Always print sign extension for signed conversions
 496:C:\Users\niels\Documents\Elektrotechniek\Jaar 2\ECS\ECSL\software\STM32\STM32Basis\Segger\Segger_RTT\RTT\SEGGER_RTT_printf.c **** *          0: Pad with 0 instead of spaces. Ignored when using '-'-flag or precision
 497:C:\Users\niels\Documents\Elektrotechniek\Jaar 2\ECS\ECSL\software\STM32\STM32Basis\Segger\Segger_RTT\RTT\SEGGER_RTT_printf.c **** *        Supported conversion specifiers:
 498:C:\Users\niels\Documents\Elektrotechniek\Jaar 2\ECS\ECSL\software\STM32\STM32Basis\Segger\Segger_RTT\RTT\SEGGER_RTT_printf.c **** *          c: Print the argument as one char
 499:C:\Users\niels\Documents\Elektrotechniek\Jaar 2\ECS\ECSL\software\STM32\STM32Basis\Segger\Segger_RTT\RTT\SEGGER_RTT_printf.c **** *          d: Print the argument as a signed integer
 500:C:\Users\niels\Documents\Elektrotechniek\Jaar 2\ECS\ECSL\software\STM32\STM32Basis\Segger\Segger_RTT\RTT\SEGGER_RTT_printf.c **** *          u: Print the argument as an unsigned integer
 501:C:\Users\niels\Documents\Elektrotechniek\Jaar 2\ECS\ECSL\software\STM32\STM32Basis\Segger\Segger_RTT\RTT\SEGGER_RTT_printf.c **** *          x: Print the argument as an hexadecimal integer
 502:C:\Users\niels\Documents\Elektrotechniek\Jaar 2\ECS\ECSL\software\STM32\STM32Basis\Segger\Segger_RTT\RTT\SEGGER_RTT_printf.c **** *          s: Print the string pointed to by the argument
 503:C:\Users\niels\Documents\Elektrotechniek\Jaar 2\ECS\ECSL\software\STM32\STM32Basis\Segger\Segger_RTT\RTT\SEGGER_RTT_printf.c **** *          p: Print the argument as an 8-digit hexadecimal integer. (Argument shall be a pointer to
 504:C:\Users\niels\Documents\Elektrotechniek\Jaar 2\ECS\ECSL\software\STM32\STM32Basis\Segger\Segger_RTT\RTT\SEGGER_RTT_printf.c **** */
 505:C:\Users\niels\Documents\Elektrotechniek\Jaar 2\ECS\ECSL\software\STM32\STM32Basis\Segger\Segger_RTT\RTT\SEGGER_RTT_printf.c **** int SEGGER_RTT_printf(unsigned BufferIndex, const char * sFormat, ...) {
 1225              	 .loc 1 505 72
 1226              	 .cfi_startproc
 1227              	 
 1228              	 
 1229 0000 0EB4     	 push {r1,r2,r3}
 1230              	 .save {r1,r2,r3}
 1231              	 .cfi_def_cfa_offset 12
 1232              	 .cfi_offset 1,-12
 1233              	 .cfi_offset 2,-8
 1234              	 .cfi_offset 3,-4
 1235 0002 80B5     	 push {r7,lr}
 1236              	 .save {r7,lr}
 1237              	 .cfi_def_cfa_offset 20
 1238              	 .cfi_offset 7,-20
 1239              	 .cfi_offset 14,-16
 1240              	 .pad #20
ARM GAS   			page 32


 1241 0004 85B0     	 sub sp,sp,#20
 1242              	 .cfi_def_cfa_offset 40
 1243              	 .setfp r7,sp,#0
 1244 0006 00AF     	 add r7,sp,#0
 1245              	 .cfi_def_cfa_register 7
 1246 0008 7860     	 str r0,[r7,#4]
 506:C:\Users\niels\Documents\Elektrotechniek\Jaar 2\ECS\ECSL\software\STM32\STM32Basis\Segger\Segger_RTT\RTT\SEGGER_RTT_printf.c ****   int r;
 507:C:\Users\niels\Documents\Elektrotechniek\Jaar 2\ECS\ECSL\software\STM32\STM32Basis\Segger\Segger_RTT\RTT\SEGGER_RTT_printf.c ****   va_list ParamList;
 508:C:\Users\niels\Documents\Elektrotechniek\Jaar 2\ECS\ECSL\software\STM32\STM32Basis\Segger\Segger_RTT\RTT\SEGGER_RTT_printf.c **** 
 509:C:\Users\niels\Documents\Elektrotechniek\Jaar 2\ECS\ECSL\software\STM32\STM32Basis\Segger\Segger_RTT\RTT\SEGGER_RTT_printf.c ****   va_start(ParamList, sFormat);
 1247              	 .loc 1 509 3
 1248 000a 07F12003 	 add r3,r7,#32
 1249 000e BB60     	 str r3,[r7,#8]
 510:C:\Users\niels\Documents\Elektrotechniek\Jaar 2\ECS\ECSL\software\STM32\STM32Basis\Segger\Segger_RTT\RTT\SEGGER_RTT_printf.c ****   r = SEGGER_RTT_vprintf(BufferIndex, sFormat, &ParamList);
 1250              	 .loc 1 510 25
 1251 0010 07F10803 	 add r3,r7,#8
 1252 0014 1A46     	 mov r2,r3
 1253 0016 F969     	 ldr r1,[r7,#28]
 1254 0018 7868     	 ldr r0,[r7,#4]
 1255 001a FFF7FEFF 	 bl SEGGER_RTT_vprintf
 1256 001e 0346     	 mov r3,r0
 1257 0020 FB60     	 str r3,[r7,#12]
 511:C:\Users\niels\Documents\Elektrotechniek\Jaar 2\ECS\ECSL\software\STM32\STM32Basis\Segger\Segger_RTT\RTT\SEGGER_RTT_printf.c ****   va_end(ParamList);
 512:C:\Users\niels\Documents\Elektrotechniek\Jaar 2\ECS\ECSL\software\STM32\STM32Basis\Segger\Segger_RTT\RTT\SEGGER_RTT_printf.c ****   return r;
 1258              	 .loc 1 512 10
 1259 0022 FB68     	 ldr r3,[r7,#12]
 513:C:\Users\niels\Documents\Elektrotechniek\Jaar 2\ECS\ECSL\software\STM32\STM32Basis\Segger\Segger_RTT\RTT\SEGGER_RTT_printf.c **** }
 1260              	 .loc 1 513 1
 1261 0024 1846     	 mov r0,r3
 1262 0026 1437     	 adds r7,r7,#20
 1263              	 .cfi_def_cfa_offset 20
 1264 0028 BD46     	 mov sp,r7
 1265              	 .cfi_def_cfa_register 13
 1266              	 
 1267 002a BDE88040 	 pop {r7,lr}
 1268              	 .cfi_restore 14
 1269              	 .cfi_restore 7
 1270              	 .cfi_def_cfa_offset 12
 1271 002e 03B0     	 add sp,sp,#12
 1272              	 .cfi_restore 3
 1273              	 .cfi_restore 2
 1274              	 .cfi_restore 1
 1275              	 .cfi_def_cfa_offset 0
 1276 0030 7047     	 bx lr
 1277              	 .cfi_endproc
 1278              	.LFE11:
 1279              	 .fnend
 1280              	 .size SEGGER_RTT_printf,.-SEGGER_RTT_printf
 1281              	 .text
 1282              	.Letext0:
 1283              	 .file 2 "c:\\progra~2\\gnuarm~1\\102021~1.10\\arm-none-eabi\\include\\c++\\10.3.1\\cstdlib"
 1284              	 .file 3 "c:\\progra~2\\gnuarm~1\\102021~1.10\\arm-none-eabi\\include\\c++\\10.3.1\\bits\\std_abs.h"
 1285              	 .file 4 "c:\\progra~2\\gnuarm~1\\102021~1.10\\arm-none-eabi\\include\\c++\\10.3.1\\arm-none-eabi\\thumb\\v7e-m+fp\\hard\\bits\\c++config.h"
 1286              	 .file 5 "c:\\progra~2\\gnuarm~1\\102021~1.10\\lib\\gcc\\arm-none-eabi\\10.3.1\\include\\stddef.h"
 1287              	 .file 6 "c:\\progra~2\\gnuarm~1\\102021~1.10\\arm-none-eabi\\include\\stdlib.h"
 1288              	 .file 7 "c:\\progra~2\\gnuarm~1\\102021~1.10\\arm-none-eabi\\include\\c++\\10.3.1\\stdlib.h"
 1289              	 .file 8 "c:\\progra~2\\gnuarm~1\\102021~1.10\\lib\\gcc\\arm-none-eabi\\10.3.1\\include\\stdarg.h"
ARM GAS   			page 33


 1290              	 .file 9 "<built-in>"
 1291              	 .section .debug_info,"",%progbits
 1292              	.Ldebug_info0:
 1293 0000 F60A0000 	 .4byte 0xaf6
 1294 0004 0400     	 .2byte 0x4
 1295 0006 00000000 	 .4byte .Ldebug_abbrev0
 1296 000a 04       	 .byte 0x4
 1297 000b 01       	 .uleb128 0x1
 1298 000c 81030000 	 .4byte .LASF82
 1299 0010 04       	 .byte 0x4
 1300 0011 DF010000 	 .4byte .LASF83
 1301 0015 9B040000 	 .4byte .LASF84
 1302 0019 00000000 	 .4byte .Ldebug_ranges0+0
 1303 001d 00000000 	 .4byte 0
 1304 0021 00000000 	 .4byte .Ldebug_line0
 1305 0025 02       	 .uleb128 0x2
 1306 0026 73746400 	 .ascii "std\000"
 1307 002a 09       	 .byte 0x9
 1308 002b 00       	 .byte 0
 1309 002c D0010000 	 .4byte 0x1d0
 1310 0030 03       	 .uleb128 0x3
 1311 0031 2A000000 	 .4byte .LASF5
 1312 0035 04       	 .byte 0x4
 1313 0036 1E01     	 .2byte 0x11e
 1314 0038 41       	 .byte 0x41
 1315 0039 04       	 .uleb128 0x4
 1316 003a 04       	 .byte 0x4
 1317 003b 1E01     	 .2byte 0x11e
 1318 003d 41       	 .byte 0x41
 1319 003e 30000000 	 .4byte 0x30
 1320 0042 05       	 .uleb128 0x5
 1321 0043 02       	 .byte 0x2
 1322 0044 7F       	 .byte 0x7f
 1323 0045 0B       	 .byte 0xb
 1324 0046 01030000 	 .4byte 0x301
 1325 004a 05       	 .uleb128 0x5
 1326 004b 02       	 .byte 0x2
 1327 004c 80       	 .byte 0x80
 1328 004d 0B       	 .byte 0xb
 1329 004e 35030000 	 .4byte 0x335
 1330 0052 05       	 .uleb128 0x5
 1331 0053 02       	 .byte 0x2
 1332 0054 86       	 .byte 0x86
 1333 0055 0B       	 .byte 0xb
 1334 0056 A2030000 	 .4byte 0x3a2
 1335 005a 05       	 .uleb128 0x5
 1336 005b 02       	 .byte 0x2
 1337 005c 8C       	 .byte 0x8c
 1338 005d 0B       	 .byte 0xb
 1339 005e B8030000 	 .4byte 0x3b8
 1340 0062 05       	 .uleb128 0x5
 1341 0063 02       	 .byte 0x2
 1342 0064 8D       	 .byte 0x8d
 1343 0065 0B       	 .byte 0xb
 1344 0066 D5030000 	 .4byte 0x3d5
 1345 006a 05       	 .uleb128 0x5
 1346 006b 02       	 .byte 0x2
ARM GAS   			page 34


 1347 006c 8E       	 .byte 0x8e
 1348 006d 0B       	 .byte 0xb
 1349 006e EB030000 	 .4byte 0x3eb
 1350 0072 05       	 .uleb128 0x5
 1351 0073 02       	 .byte 0x2
 1352 0074 8F       	 .byte 0x8f
 1353 0075 0B       	 .byte 0xb
 1354 0076 01040000 	 .4byte 0x401
 1355 007a 05       	 .uleb128 0x5
 1356 007b 02       	 .byte 0x2
 1357 007c 91       	 .byte 0x91
 1358 007d 0B       	 .byte 0xb
 1359 007e 2B040000 	 .4byte 0x42b
 1360 0082 05       	 .uleb128 0x5
 1361 0083 02       	 .byte 0x2
 1362 0084 94       	 .byte 0x94
 1363 0085 0B       	 .byte 0xb
 1364 0086 46040000 	 .4byte 0x446
 1365 008a 05       	 .uleb128 0x5
 1366 008b 02       	 .byte 0x2
 1367 008c 96       	 .byte 0x96
 1368 008d 0B       	 .byte 0xb
 1369 008e 5C040000 	 .4byte 0x45c
 1370 0092 05       	 .uleb128 0x5
 1371 0093 02       	 .byte 0x2
 1372 0094 99       	 .byte 0x99
 1373 0095 0B       	 .byte 0xb
 1374 0096 77040000 	 .4byte 0x477
 1375 009a 05       	 .uleb128 0x5
 1376 009b 02       	 .byte 0x2
 1377 009c 9A       	 .byte 0x9a
 1378 009d 0B       	 .byte 0xb
 1379 009e 92040000 	 .4byte 0x492
 1380 00a2 05       	 .uleb128 0x5
 1381 00a3 02       	 .byte 0x2
 1382 00a4 9B       	 .byte 0x9b
 1383 00a5 0B       	 .byte 0xb
 1384 00a6 C4040000 	 .4byte 0x4c4
 1385 00aa 05       	 .uleb128 0x5
 1386 00ab 02       	 .byte 0x2
 1387 00ac 9D       	 .byte 0x9d
 1388 00ad 0B       	 .byte 0xb
 1389 00ae E4040000 	 .4byte 0x4e4
 1390 00b2 05       	 .uleb128 0x5
 1391 00b3 02       	 .byte 0x2
 1392 00b4 A3       	 .byte 0xa3
 1393 00b5 0B       	 .byte 0xb
 1394 00b6 05050000 	 .4byte 0x505
 1395 00ba 05       	 .uleb128 0x5
 1396 00bb 02       	 .byte 0x2
 1397 00bc A5       	 .byte 0xa5
 1398 00bd 0B       	 .byte 0xb
 1399 00be 11050000 	 .4byte 0x511
 1400 00c2 05       	 .uleb128 0x5
 1401 00c3 02       	 .byte 0x2
 1402 00c4 A6       	 .byte 0xa6
 1403 00c5 0B       	 .byte 0xb
ARM GAS   			page 35


 1404 00c6 23050000 	 .4byte 0x523
 1405 00ca 05       	 .uleb128 0x5
 1406 00cb 02       	 .byte 0x2
 1407 00cc A7       	 .byte 0xa7
 1408 00cd 0B       	 .byte 0xb
 1409 00ce 44050000 	 .4byte 0x544
 1410 00d2 05       	 .uleb128 0x5
 1411 00d3 02       	 .byte 0x2
 1412 00d4 A8       	 .byte 0xa8
 1413 00d5 0B       	 .byte 0xb
 1414 00d6 64050000 	 .4byte 0x564
 1415 00da 05       	 .uleb128 0x5
 1416 00db 02       	 .byte 0x2
 1417 00dc A9       	 .byte 0xa9
 1418 00dd 0B       	 .byte 0xb
 1419 00de 84050000 	 .4byte 0x584
 1420 00e2 05       	 .uleb128 0x5
 1421 00e3 02       	 .byte 0x2
 1422 00e4 AB       	 .byte 0xab
 1423 00e5 0B       	 .byte 0xb
 1424 00e6 9A050000 	 .4byte 0x59a
 1425 00ea 05       	 .uleb128 0x5
 1426 00eb 02       	 .byte 0x2
 1427 00ec AC       	 .byte 0xac
 1428 00ed 0B       	 .byte 0xb
 1429 00ee C0050000 	 .4byte 0x5c0
 1430 00f2 05       	 .uleb128 0x5
 1431 00f3 02       	 .byte 0x2
 1432 00f4 F0       	 .byte 0xf0
 1433 00f5 16       	 .byte 0x16
 1434 00f6 69030000 	 .4byte 0x369
 1435 00fa 05       	 .uleb128 0x5
 1436 00fb 02       	 .byte 0x2
 1437 00fc F5       	 .byte 0xf5
 1438 00fd 16       	 .byte 0x16
 1439 00fe 27020000 	 .4byte 0x227
 1440 0102 05       	 .uleb128 0x5
 1441 0103 02       	 .byte 0x2
 1442 0104 F6       	 .byte 0xf6
 1443 0105 16       	 .byte 0x16
 1444 0106 DB050000 	 .4byte 0x5db
 1445 010a 05       	 .uleb128 0x5
 1446 010b 02       	 .byte 0x2
 1447 010c F8       	 .byte 0xf8
 1448 010d 16       	 .byte 0x16
 1449 010e F7050000 	 .4byte 0x5f7
 1450 0112 05       	 .uleb128 0x5
 1451 0113 02       	 .byte 0x2
 1452 0114 F9       	 .byte 0xf9
 1453 0115 16       	 .byte 0x16
 1454 0116 50060000 	 .4byte 0x650
 1455 011a 05       	 .uleb128 0x5
 1456 011b 02       	 .byte 0x2
 1457 011c FA       	 .byte 0xfa
 1458 011d 16       	 .byte 0x16
 1459 011e 0E060000 	 .4byte 0x60e
 1460 0122 05       	 .uleb128 0x5
ARM GAS   			page 36


 1461 0123 02       	 .byte 0x2
 1462 0124 FB       	 .byte 0xfb
 1463 0125 16       	 .byte 0x16
 1464 0126 2F060000 	 .4byte 0x62f
 1465 012a 05       	 .uleb128 0x5
 1466 012b 02       	 .byte 0x2
 1467 012c FC       	 .byte 0xfc
 1468 012d 16       	 .byte 0x16
 1469 012e 72060000 	 .4byte 0x672
 1470 0132 06       	 .uleb128 0x6
 1471 0133 61627300 	 .ascii "abs\000"
 1472 0137 03       	 .byte 0x3
 1473 0138 4F       	 .byte 0x4f
 1474 0139 03       	 .byte 0x3
 1475 013a 35030000 	 .4byte .LASF0
 1476 013e 64020000 	 .4byte 0x264
 1477 0142 4C010000 	 .4byte 0x14c
 1478 0146 07       	 .uleb128 0x7
 1479 0147 64020000 	 .4byte 0x264
 1480 014b 00       	 .byte 0
 1481 014c 06       	 .uleb128 0x6
 1482 014d 61627300 	 .ascii "abs\000"
 1483 0151 03       	 .byte 0x3
 1484 0152 4B       	 .byte 0x4b
 1485 0153 03       	 .byte 0x3
 1486 0154 3F030000 	 .4byte .LASF1
 1487 0158 6B060000 	 .4byte 0x66b
 1488 015c 66010000 	 .4byte 0x166
 1489 0160 07       	 .uleb128 0x7
 1490 0161 6B060000 	 .4byte 0x66b
 1491 0165 00       	 .byte 0
 1492 0166 06       	 .uleb128 0x6
 1493 0167 61627300 	 .ascii "abs\000"
 1494 016b 03       	 .byte 0x3
 1495 016c 47       	 .byte 0x47
 1496 016d 03       	 .byte 0x3
 1497 016e 2B030000 	 .4byte .LASF2
 1498 0172 CE030000 	 .4byte 0x3ce
 1499 0176 80010000 	 .4byte 0x180
 1500 017a 07       	 .uleb128 0x7
 1501 017b CE030000 	 .4byte 0x3ce
 1502 017f 00       	 .byte 0
 1503 0180 06       	 .uleb128 0x6
 1504 0181 61627300 	 .ascii "abs\000"
 1505 0185 03       	 .byte 0x3
 1506 0186 3D       	 .byte 0x3d
 1507 0187 03       	 .byte 0x3
 1508 0188 77030000 	 .4byte .LASF3
 1509 018c 5D020000 	 .4byte 0x25d
 1510 0190 9A010000 	 .4byte 0x19a
 1511 0194 07       	 .uleb128 0x7
 1512 0195 5D020000 	 .4byte 0x25d
 1513 0199 00       	 .byte 0
 1514 019a 06       	 .uleb128 0x6
 1515 019b 61627300 	 .ascii "abs\000"
 1516 019f 03       	 .byte 0x3
 1517 01a0 38       	 .byte 0x38
ARM GAS   			page 37


 1518 01a1 03       	 .byte 0x3
 1519 01a2 5E030000 	 .4byte .LASF4
 1520 01a6 8C020000 	 .4byte 0x28c
 1521 01aa B4010000 	 .4byte 0x1b4
 1522 01ae 07       	 .uleb128 0x7
 1523 01af 8C020000 	 .4byte 0x28c
 1524 01b3 00       	 .byte 0
 1525 01b4 08       	 .uleb128 0x8
 1526 01b5 64697600 	 .ascii "div\000"
 1527 01b9 02       	 .byte 0x2
 1528 01ba B1       	 .byte 0xb1
 1529 01bb 03       	 .byte 0x3
 1530 01bc 32000000 	 .4byte .LASF6
 1531 01c0 35030000 	 .4byte 0x335
 1532 01c4 07       	 .uleb128 0x7
 1533 01c5 8C020000 	 .4byte 0x28c
 1534 01c9 07       	 .uleb128 0x7
 1535 01ca 8C020000 	 .4byte 0x28c
 1536 01ce 00       	 .byte 0
 1537 01cf 00       	 .byte 0
 1538 01d0 09       	 .uleb128 0x9
 1539 01d1 3C050000 	 .4byte .LASF85
 1540 01d5 04       	 .byte 0x4
 1541 01d6 2001     	 .2byte 0x120
 1542 01d8 0B       	 .byte 0xb
 1543 01d9 43020000 	 .4byte 0x243
 1544 01dd 03       	 .uleb128 0x3
 1545 01de 2A000000 	 .4byte .LASF5
 1546 01e2 04       	 .byte 0x4
 1547 01e3 2201     	 .2byte 0x122
 1548 01e5 41       	 .byte 0x41
 1549 01e6 04       	 .uleb128 0x4
 1550 01e7 04       	 .byte 0x4
 1551 01e8 2201     	 .2byte 0x122
 1552 01ea 41       	 .byte 0x41
 1553 01eb DD010000 	 .4byte 0x1dd
 1554 01ef 05       	 .uleb128 0x5
 1555 01f0 02       	 .byte 0x2
 1556 01f1 C8       	 .byte 0xc8
 1557 01f2 0B       	 .byte 0xb
 1558 01f3 69030000 	 .4byte 0x369
 1559 01f7 05       	 .uleb128 0x5
 1560 01f8 02       	 .byte 0x2
 1561 01f9 D8       	 .byte 0xd8
 1562 01fa 0B       	 .byte 0xb
 1563 01fb DB050000 	 .4byte 0x5db
 1564 01ff 05       	 .uleb128 0x5
 1565 0200 02       	 .byte 0x2
 1566 0201 E3       	 .byte 0xe3
 1567 0202 0B       	 .byte 0xb
 1568 0203 F7050000 	 .4byte 0x5f7
 1569 0207 05       	 .uleb128 0x5
 1570 0208 02       	 .byte 0x2
 1571 0209 E4       	 .byte 0xe4
 1572 020a 0B       	 .byte 0xb
 1573 020b 0E060000 	 .4byte 0x60e
 1574 020f 05       	 .uleb128 0x5
ARM GAS   			page 38


 1575 0210 02       	 .byte 0x2
 1576 0211 E5       	 .byte 0xe5
 1577 0212 0B       	 .byte 0xb
 1578 0213 2F060000 	 .4byte 0x62f
 1579 0217 05       	 .uleb128 0x5
 1580 0218 02       	 .byte 0x2
 1581 0219 E7       	 .byte 0xe7
 1582 021a 0B       	 .byte 0xb
 1583 021b 50060000 	 .4byte 0x650
 1584 021f 05       	 .uleb128 0x5
 1585 0220 02       	 .byte 0x2
 1586 0221 E8       	 .byte 0xe8
 1587 0222 0B       	 .byte 0xb
 1588 0223 72060000 	 .4byte 0x672
 1589 0227 08       	 .uleb128 0x8
 1590 0228 64697600 	 .ascii "div\000"
 1591 022c 02       	 .byte 0x2
 1592 022d D5       	 .byte 0xd5
 1593 022e 03       	 .byte 0x3
 1594 022f 49030000 	 .4byte .LASF7
 1595 0233 69030000 	 .4byte 0x369
 1596 0237 07       	 .uleb128 0x7
 1597 0238 5D020000 	 .4byte 0x25d
 1598 023c 07       	 .uleb128 0x7
 1599 023d 5D020000 	 .4byte 0x25d
 1600 0241 00       	 .byte 0
 1601 0242 00       	 .byte 0
 1602 0243 0A       	 .uleb128 0xa
 1603 0244 23000000 	 .4byte .LASF20
 1604 0248 05       	 .byte 0x5
 1605 0249 D1       	 .byte 0xd1
 1606 024a 17       	 .byte 0x17
 1607 024b 4F020000 	 .4byte 0x24f
 1608 024f 0B       	 .uleb128 0xb
 1609 0250 04       	 .byte 0x4
 1610 0251 07       	 .byte 0x7
 1611 0252 19010000 	 .4byte .LASF8
 1612 0256 0C       	 .uleb128 0xc
 1613 0257 04       	 .byte 0x4
 1614 0258 05       	 .byte 0x5
 1615 0259 696E7400 	 .ascii "int\000"
 1616 025d 0B       	 .uleb128 0xb
 1617 025e 08       	 .byte 0x8
 1618 025f 05       	 .byte 0x5
 1619 0260 8D000000 	 .4byte .LASF9
 1620 0264 0B       	 .uleb128 0xb
 1621 0265 08       	 .byte 0x8
 1622 0266 04       	 .byte 0x4
 1623 0267 D3010000 	 .4byte .LASF10
 1624 026b 0D       	 .uleb128 0xd
 1625 026c 91010000 	 .4byte .LASF86
 1626 0270 0B       	 .uleb128 0xb
 1627 0271 01       	 .byte 0x1
 1628 0272 06       	 .byte 0x6
 1629 0273 9B000000 	 .4byte .LASF11
 1630 0277 0B       	 .uleb128 0xb
 1631 0278 01       	 .byte 0x1
ARM GAS   			page 39


 1632 0279 08       	 .byte 0x8
 1633 027a C9020000 	 .4byte .LASF12
 1634 027e 0B       	 .uleb128 0xb
 1635 027f 02       	 .byte 0x2
 1636 0280 05       	 .byte 0x5
 1637 0281 E7020000 	 .4byte .LASF13
 1638 0285 0B       	 .uleb128 0xb
 1639 0286 02       	 .byte 0x2
 1640 0287 07       	 .byte 0x7
 1641 0288 5C010000 	 .4byte .LASF14
 1642 028c 0B       	 .uleb128 0xb
 1643 028d 04       	 .byte 0x4
 1644 028e 05       	 .byte 0x5
 1645 028f CD000000 	 .4byte .LASF15
 1646 0293 0B       	 .uleb128 0xb
 1647 0294 04       	 .byte 0x4
 1648 0295 07       	 .byte 0x7
 1649 0296 30010000 	 .4byte .LASF16
 1650 029a 0B       	 .uleb128 0xb
 1651 029b 08       	 .byte 0x8
 1652 029c 07       	 .byte 0x7
 1653 029d 69000000 	 .4byte .LASF17
 1654 02a1 0E       	 .uleb128 0xe
 1655 02a2 04       	 .byte 0x4
 1656 02a3 0F       	 .uleb128 0xf
 1657 02a4 DD000000 	 .4byte .LASF87
 1658 02a8 04       	 .byte 0x4
 1659 02a9 09       	 .byte 0x9
 1660 02aa 00       	 .byte 0
 1661 02ab BA020000 	 .4byte 0x2ba
 1662 02af 10       	 .uleb128 0x10
 1663 02b0 FA040000 	 .4byte .LASF88
 1664 02b4 A1020000 	 .4byte 0x2a1
 1665 02b8 00       	 .byte 0
 1666 02b9 00       	 .byte 0
 1667 02ba 11       	 .uleb128 0x11
 1668 02bb 04       	 .byte 0x4
 1669 02bc C0020000 	 .4byte 0x2c0
 1670 02c0 12       	 .uleb128 0x12
 1671 02c1 11       	 .uleb128 0x11
 1672 02c2 04       	 .byte 0x4
 1673 02c3 C7020000 	 .4byte 0x2c7
 1674 02c7 0B       	 .uleb128 0xb
 1675 02c8 01       	 .byte 0x1
 1676 02c9 08       	 .byte 0x8
 1677 02ca 85040000 	 .4byte .LASF18
 1678 02ce 13       	 .uleb128 0x13
 1679 02cf C7020000 	 .4byte 0x2c7
 1680 02d3 11       	 .uleb128 0x11
 1681 02d4 04       	 .byte 0x4
 1682 02d5 CE020000 	 .4byte 0x2ce
 1683 02d9 14       	 .uleb128 0x14
 1684 02da 08       	 .byte 0x8
 1685 02db 06       	 .byte 0x6
 1686 02dc 24       	 .byte 0x24
 1687 02dd 01       	 .byte 0x1
 1688 02de 55010000 	 .4byte .LASF22
ARM GAS   			page 40


 1689 02e2 01030000 	 .4byte 0x301
 1690 02e6 15       	 .uleb128 0x15
 1691 02e7 1E000000 	 .4byte .LASF19
 1692 02eb 06       	 .byte 0x6
 1693 02ec 25       	 .byte 0x25
 1694 02ed 07       	 .byte 0x7
 1695 02ee 56020000 	 .4byte 0x256
 1696 02f2 00       	 .byte 0
 1697 02f3 16       	 .uleb128 0x16
 1698 02f4 72656D00 	 .ascii "rem\000"
 1699 02f8 06       	 .byte 0x6
 1700 02f9 26       	 .byte 0x26
 1701 02fa 07       	 .byte 0x7
 1702 02fb 56020000 	 .4byte 0x256
 1703 02ff 04       	 .byte 0x4
 1704 0300 00       	 .byte 0
 1705 0301 0A       	 .uleb128 0xa
 1706 0302 87000000 	 .4byte .LASF21
 1707 0306 06       	 .byte 0x6
 1708 0307 27       	 .byte 0x27
 1709 0308 03       	 .byte 0x3
 1710 0309 D9020000 	 .4byte 0x2d9
 1711 030d 14       	 .uleb128 0x14
 1712 030e 08       	 .byte 0x8
 1713 030f 06       	 .byte 0x6
 1714 0310 2A       	 .byte 0x2a
 1715 0311 01       	 .byte 0x1
 1716 0312 D7020000 	 .4byte .LASF23
 1717 0316 35030000 	 .4byte 0x335
 1718 031a 15       	 .uleb128 0x15
 1719 031b 1E000000 	 .4byte .LASF19
 1720 031f 06       	 .byte 0x6
 1721 0320 2B       	 .byte 0x2b
 1722 0321 08       	 .byte 0x8
 1723 0322 8C020000 	 .4byte 0x28c
 1724 0326 00       	 .byte 0
 1725 0327 16       	 .uleb128 0x16
 1726 0328 72656D00 	 .ascii "rem\000"
 1727 032c 06       	 .byte 0x6
 1728 032d 2C       	 .byte 0x2c
 1729 032e 08       	 .byte 0x8
 1730 032f 8C020000 	 .4byte 0x28c
 1731 0333 04       	 .byte 0x4
 1732 0334 00       	 .byte 0
 1733 0335 0A       	 .uleb128 0xa
 1734 0336 E7000000 	 .4byte .LASF24
 1735 033a 06       	 .byte 0x6
 1736 033b 2D       	 .byte 0x2d
 1737 033c 03       	 .byte 0x3
 1738 033d 0D030000 	 .4byte 0x30d
 1739 0341 14       	 .uleb128 0x14
 1740 0342 10       	 .byte 0x10
 1741 0343 06       	 .byte 0x6
 1742 0344 31       	 .byte 0x31
 1743 0345 01       	 .byte 0x1
 1744 0346 60000000 	 .4byte .LASF25
 1745 034a 69030000 	 .4byte 0x369
ARM GAS   			page 41


 1746 034e 15       	 .uleb128 0x15
 1747 034f 1E000000 	 .4byte .LASF19
 1748 0353 06       	 .byte 0x6
 1749 0354 32       	 .byte 0x32
 1750 0355 11       	 .byte 0x11
 1751 0356 5D020000 	 .4byte 0x25d
 1752 035a 00       	 .byte 0
 1753 035b 16       	 .uleb128 0x16
 1754 035c 72656D00 	 .ascii "rem\000"
 1755 0360 06       	 .byte 0x6
 1756 0361 33       	 .byte 0x33
 1757 0362 11       	 .byte 0x11
 1758 0363 5D020000 	 .4byte 0x25d
 1759 0367 08       	 .byte 0x8
 1760 0368 00       	 .byte 0
 1761 0369 0A       	 .uleb128 0xa
 1762 036a DF020000 	 .4byte .LASF26
 1763 036e 06       	 .byte 0x6
 1764 036f 34       	 .byte 0x34
 1765 0370 03       	 .byte 0x3
 1766 0371 41030000 	 .4byte 0x341
 1767 0375 0A       	 .uleb128 0xa
 1768 0376 28050000 	 .4byte .LASF27
 1769 037a 06       	 .byte 0x6
 1770 037b 39       	 .byte 0x39
 1771 037c 0F       	 .byte 0xf
 1772 037d 81030000 	 .4byte 0x381
 1773 0381 11       	 .uleb128 0x11
 1774 0382 04       	 .byte 0x4
 1775 0383 87030000 	 .4byte 0x387
 1776 0387 17       	 .uleb128 0x17
 1777 0388 56020000 	 .4byte 0x256
 1778 038c 9B030000 	 .4byte 0x39b
 1779 0390 07       	 .uleb128 0x7
 1780 0391 9B030000 	 .4byte 0x39b
 1781 0395 07       	 .uleb128 0x7
 1782 0396 9B030000 	 .4byte 0x39b
 1783 039a 00       	 .byte 0
 1784 039b 11       	 .uleb128 0x11
 1785 039c 04       	 .byte 0x4
 1786 039d A1030000 	 .4byte 0x3a1
 1787 03a1 18       	 .uleb128 0x18
 1788 03a2 19       	 .uleb128 0x19
 1789 03a3 80000000 	 .4byte .LASF28
 1790 03a7 06       	 .byte 0x6
 1791 03a8 4C       	 .byte 0x4c
 1792 03a9 05       	 .byte 0x5
 1793 03aa 56020000 	 .4byte 0x256
 1794 03ae B8030000 	 .4byte 0x3b8
 1795 03b2 07       	 .uleb128 0x7
 1796 03b3 BA020000 	 .4byte 0x2ba
 1797 03b7 00       	 .byte 0
 1798 03b8 19       	 .uleb128 0x19
 1799 03b9 AA020000 	 .4byte .LASF29
 1800 03bd 06       	 .byte 0x6
 1801 03be 4D       	 .byte 0x4d
 1802 03bf 08       	 .byte 0x8
ARM GAS   			page 42


 1803 03c0 CE030000 	 .4byte 0x3ce
 1804 03c4 CE030000 	 .4byte 0x3ce
 1805 03c8 07       	 .uleb128 0x7
 1806 03c9 D3020000 	 .4byte 0x2d3
 1807 03cd 00       	 .byte 0
 1808 03ce 0B       	 .uleb128 0xb
 1809 03cf 08       	 .byte 0x8
 1810 03d0 04       	 .byte 0x4
 1811 03d1 EE000000 	 .4byte .LASF30
 1812 03d5 19       	 .uleb128 0x19
 1813 03d6 B9020000 	 .4byte .LASF31
 1814 03da 06       	 .byte 0x6
 1815 03db 51       	 .byte 0x51
 1816 03dc 05       	 .byte 0x5
 1817 03dd 56020000 	 .4byte 0x256
 1818 03e1 EB030000 	 .4byte 0x3eb
 1819 03e5 07       	 .uleb128 0x7
 1820 03e6 D3020000 	 .4byte 0x2d3
 1821 03ea 00       	 .byte 0
 1822 03eb 19       	 .uleb128 0x19
 1823 03ec C4020000 	 .4byte .LASF32
 1824 03f0 06       	 .byte 0x6
 1825 03f1 53       	 .byte 0x53
 1826 03f2 06       	 .byte 0x6
 1827 03f3 8C020000 	 .4byte 0x28c
 1828 03f7 01040000 	 .4byte 0x401
 1829 03fb 07       	 .uleb128 0x7
 1830 03fc D3020000 	 .4byte 0x2d3
 1831 0400 00       	 .byte 0
 1832 0401 19       	 .uleb128 0x19
 1833 0402 6F010000 	 .4byte .LASF33
 1834 0406 06       	 .byte 0x6
 1835 0407 55       	 .byte 0x55
 1836 0408 08       	 .byte 0x8
 1837 0409 A1020000 	 .4byte 0x2a1
 1838 040d 2B040000 	 .4byte 0x42b
 1839 0411 07       	 .uleb128 0x7
 1840 0412 9B030000 	 .4byte 0x39b
 1841 0416 07       	 .uleb128 0x7
 1842 0417 9B030000 	 .4byte 0x39b
 1843 041b 07       	 .uleb128 0x7
 1844 041c 43020000 	 .4byte 0x243
 1845 0420 07       	 .uleb128 0x7
 1846 0421 43020000 	 .4byte 0x243
 1847 0425 07       	 .uleb128 0x7
 1848 0426 75030000 	 .4byte 0x375
 1849 042a 00       	 .byte 0
 1850 042b 1A       	 .uleb128 0x1a
 1851 042c 64697600 	 .ascii "div\000"
 1852 0430 06       	 .byte 0x6
 1853 0431 5C       	 .byte 0x5c
 1854 0432 07       	 .byte 0x7
 1855 0433 01030000 	 .4byte 0x301
 1856 0437 46040000 	 .4byte 0x446
 1857 043b 07       	 .uleb128 0x7
 1858 043c 56020000 	 .4byte 0x256
 1859 0440 07       	 .uleb128 0x7
ARM GAS   			page 43


 1860 0441 56020000 	 .4byte 0x256
 1861 0445 00       	 .byte 0
 1862 0446 19       	 .uleb128 0x19
 1863 0447 AE010000 	 .4byte .LASF34
 1864 044b 06       	 .byte 0x6
 1865 044c 5F       	 .byte 0x5f
 1866 044d 09       	 .byte 0x9
 1867 044e C1020000 	 .4byte 0x2c1
 1868 0452 5C040000 	 .4byte 0x45c
 1869 0456 07       	 .uleb128 0x7
 1870 0457 D3020000 	 .4byte 0x2d3
 1871 045b 00       	 .byte 0
 1872 045c 19       	 .uleb128 0x19
 1873 045d 76020000 	 .4byte .LASF35
 1874 0461 06       	 .byte 0x6
 1875 0462 6B       	 .byte 0x6b
 1876 0463 08       	 .byte 0x8
 1877 0464 35030000 	 .4byte 0x335
 1878 0468 77040000 	 .4byte 0x477
 1879 046c 07       	 .uleb128 0x7
 1880 046d 8C020000 	 .4byte 0x28c
 1881 0471 07       	 .uleb128 0x7
 1882 0472 8C020000 	 .4byte 0x28c
 1883 0476 00       	 .byte 0
 1884 0477 19       	 .uleb128 0x19
 1885 0478 A7000000 	 .4byte .LASF36
 1886 047c 06       	 .byte 0x6
 1887 047d 6D       	 .byte 0x6d
 1888 047e 05       	 .byte 0x5
 1889 047f 56020000 	 .4byte 0x256
 1890 0483 92040000 	 .4byte 0x492
 1891 0487 07       	 .uleb128 0x7
 1892 0488 D3020000 	 .4byte 0x2d3
 1893 048c 07       	 .uleb128 0x7
 1894 048d 43020000 	 .4byte 0x243
 1895 0491 00       	 .byte 0
 1896 0492 19       	 .uleb128 0x19
 1897 0493 8A020000 	 .4byte .LASF37
 1898 0497 06       	 .byte 0x6
 1899 0498 73       	 .byte 0x73
 1900 0499 08       	 .byte 0x8
 1901 049a 43020000 	 .4byte 0x243
 1902 049e B2040000 	 .4byte 0x4b2
 1903 04a2 07       	 .uleb128 0x7
 1904 04a3 B2040000 	 .4byte 0x4b2
 1905 04a7 07       	 .uleb128 0x7
 1906 04a8 D3020000 	 .4byte 0x2d3
 1907 04ac 07       	 .uleb128 0x7
 1908 04ad 43020000 	 .4byte 0x243
 1909 04b1 00       	 .byte 0
 1910 04b2 11       	 .uleb128 0x11
 1911 04b3 04       	 .byte 0x4
 1912 04b4 B8040000 	 .4byte 0x4b8
 1913 04b8 0B       	 .uleb128 0xb
 1914 04b9 04       	 .byte 0x4
 1915 04ba 07       	 .byte 0x7
 1916 04bb 89010000 	 .4byte .LASF38
ARM GAS   			page 44


 1917 04bf 13       	 .uleb128 0x13
 1918 04c0 B8040000 	 .4byte 0x4b8
 1919 04c4 19       	 .uleb128 0x19
 1920 04c5 0C010000 	 .4byte .LASF39
 1921 04c9 06       	 .byte 0x6
 1922 04ca 6F       	 .byte 0x6f
 1923 04cb 05       	 .byte 0x5
 1924 04cc 56020000 	 .4byte 0x256
 1925 04d0 E4040000 	 .4byte 0x4e4
 1926 04d4 07       	 .uleb128 0x7
 1927 04d5 B2040000 	 .4byte 0x4b2
 1928 04d9 07       	 .uleb128 0x7
 1929 04da D3020000 	 .4byte 0x2d3
 1930 04de 07       	 .uleb128 0x7
 1931 04df 43020000 	 .4byte 0x243
 1932 04e3 00       	 .byte 0
 1933 04e4 1B       	 .uleb128 0x1b
 1934 04e5 13010000 	 .4byte .LASF40
 1935 04e9 06       	 .byte 0x6
 1936 04ea 8F       	 .byte 0x8f
 1937 04eb 06       	 .byte 0x6
 1938 04ec 05050000 	 .4byte 0x505
 1939 04f0 07       	 .uleb128 0x7
 1940 04f1 A1020000 	 .4byte 0x2a1
 1941 04f5 07       	 .uleb128 0x7
 1942 04f6 43020000 	 .4byte 0x243
 1943 04fa 07       	 .uleb128 0x7
 1944 04fb 43020000 	 .4byte 0x243
 1945 04ff 07       	 .uleb128 0x7
 1946 0500 75030000 	 .4byte 0x375
 1947 0504 00       	 .byte 0
 1948 0505 1C       	 .uleb128 0x1c
 1949 0506 50010000 	 .4byte .LASF89
 1950 050a 06       	 .byte 0x6
 1951 050b 90       	 .byte 0x90
 1952 050c 05       	 .byte 0x5
 1953 050d 56020000 	 .4byte 0x256
 1954 0511 1B       	 .uleb128 0x1b
 1955 0512 42010000 	 .4byte .LASF41
 1956 0516 06       	 .byte 0x6
 1957 0517 9F       	 .byte 0x9f
 1958 0518 06       	 .byte 0x6
 1959 0519 23050000 	 .4byte 0x523
 1960 051d 07       	 .uleb128 0x7
 1961 051e 4F020000 	 .4byte 0x24f
 1962 0522 00       	 .byte 0
 1963 0523 19       	 .uleb128 0x19
 1964 0524 BF000000 	 .4byte .LASF42
 1965 0528 06       	 .byte 0x6
 1966 0529 A0       	 .byte 0xa0
 1967 052a 08       	 .byte 0x8
 1968 052b CE030000 	 .4byte 0x3ce
 1969 052f 3E050000 	 .4byte 0x53e
 1970 0533 07       	 .uleb128 0x7
 1971 0534 D3020000 	 .4byte 0x2d3
 1972 0538 07       	 .uleb128 0x7
 1973 0539 3E050000 	 .4byte 0x53e
ARM GAS   			page 45


 1974 053d 00       	 .byte 0
 1975 053e 11       	 .uleb128 0x11
 1976 053f 04       	 .byte 0x4
 1977 0540 C1020000 	 .4byte 0x2c1
 1978 0544 19       	 .uleb128 0x19
 1979 0545 D6000000 	 .4byte .LASF43
 1980 0549 06       	 .byte 0x6
 1981 054a AB       	 .byte 0xab
 1982 054b 06       	 .byte 0x6
 1983 054c 8C020000 	 .4byte 0x28c
 1984 0550 64050000 	 .4byte 0x564
 1985 0554 07       	 .uleb128 0x7
 1986 0555 D3020000 	 .4byte 0x2d3
 1987 0559 07       	 .uleb128 0x7
 1988 055a 3E050000 	 .4byte 0x53e
 1989 055e 07       	 .uleb128 0x7
 1990 055f 56020000 	 .4byte 0x256
 1991 0563 00       	 .byte 0
 1992 0564 19       	 .uleb128 0x19
 1993 0565 0A050000 	 .4byte .LASF44
 1994 0569 06       	 .byte 0x6
 1995 056a AD       	 .byte 0xad
 1996 056b 0F       	 .byte 0xf
 1997 056c 93020000 	 .4byte 0x293
 1998 0570 84050000 	 .4byte 0x584
 1999 0574 07       	 .uleb128 0x7
 2000 0575 D3020000 	 .4byte 0x2d3
 2001 0579 07       	 .uleb128 0x7
 2002 057a 3E050000 	 .4byte 0x53e
 2003 057e 07       	 .uleb128 0x7
 2004 057f 56020000 	 .4byte 0x256
 2005 0583 00       	 .byte 0
 2006 0584 19       	 .uleb128 0x19
 2007 0585 21050000 	 .4byte .LASF45
 2008 0589 06       	 .byte 0x6
 2009 058a BF       	 .byte 0xbf
 2010 058b 05       	 .byte 0x5
 2011 058c 56020000 	 .4byte 0x256
 2012 0590 9A050000 	 .4byte 0x59a
 2013 0594 07       	 .uleb128 0x7
 2014 0595 D3020000 	 .4byte 0x2d3
 2015 0599 00       	 .byte 0
 2016 059a 19       	 .uleb128 0x19
 2017 059b 57000000 	 .4byte .LASF46
 2018 059f 06       	 .byte 0x6
 2019 05a0 75       	 .byte 0x75
 2020 05a1 08       	 .byte 0x8
 2021 05a2 43020000 	 .4byte 0x243
 2022 05a6 BA050000 	 .4byte 0x5ba
 2023 05aa 07       	 .uleb128 0x7
 2024 05ab C1020000 	 .4byte 0x2c1
 2025 05af 07       	 .uleb128 0x7
 2026 05b0 BA050000 	 .4byte 0x5ba
 2027 05b4 07       	 .uleb128 0x7
 2028 05b5 43020000 	 .4byte 0x243
 2029 05b9 00       	 .byte 0
 2030 05ba 11       	 .uleb128 0x11
ARM GAS   			page 46


 2031 05bb 04       	 .byte 0x4
 2032 05bc BF040000 	 .4byte 0x4bf
 2033 05c0 19       	 .uleb128 0x19
 2034 05c1 24030000 	 .4byte .LASF47
 2035 05c5 06       	 .byte 0x6
 2036 05c6 71       	 .byte 0x71
 2037 05c7 05       	 .byte 0x5
 2038 05c8 56020000 	 .4byte 0x256
 2039 05cc DB050000 	 .4byte 0x5db
 2040 05d0 07       	 .uleb128 0x7
 2041 05d1 C1020000 	 .4byte 0x2c1
 2042 05d5 07       	 .uleb128 0x7
 2043 05d6 B8040000 	 .4byte 0x4b8
 2044 05da 00       	 .byte 0
 2045 05db 1D       	 .uleb128 0x1d
 2046 05dc 77010000 	 .4byte .LASF48
 2047 05e0 06       	 .byte 0x6
 2048 05e1 0C01     	 .2byte 0x10c
 2049 05e3 09       	 .byte 0x9
 2050 05e4 69030000 	 .4byte 0x369
 2051 05e8 F7050000 	 .4byte 0x5f7
 2052 05ec 07       	 .uleb128 0x7
 2053 05ed 5D020000 	 .4byte 0x25d
 2054 05f1 07       	 .uleb128 0x7
 2055 05f2 5D020000 	 .4byte 0x25d
 2056 05f6 00       	 .byte 0
 2057 05f7 1D       	 .uleb128 0x1d
 2058 05f8 05000000 	 .4byte .LASF49
 2059 05fc 06       	 .byte 0x6
 2060 05fd 0701     	 .2byte 0x107
 2061 05ff 0B       	 .byte 0xb
 2062 0600 5D020000 	 .4byte 0x25d
 2063 0604 0E060000 	 .4byte 0x60e
 2064 0608 07       	 .uleb128 0x7
 2065 0609 D3020000 	 .4byte 0x2d3
 2066 060d 00       	 .byte 0
 2067 060e 1D       	 .uleb128 0x1d
 2068 060f 12030000 	 .4byte .LASF50
 2069 0613 06       	 .byte 0x6
 2070 0614 0D01     	 .2byte 0x10d
 2071 0616 0B       	 .byte 0xb
 2072 0617 5D020000 	 .4byte 0x25d
 2073 061b 2F060000 	 .4byte 0x62f
 2074 061f 07       	 .uleb128 0x7
 2075 0620 D3020000 	 .4byte 0x2d3
 2076 0624 07       	 .uleb128 0x7
 2077 0625 3E050000 	 .4byte 0x53e
 2078 0629 07       	 .uleb128 0x7
 2079 062a 56020000 	 .4byte 0x256
 2080 062e 00       	 .byte 0
 2081 062f 1D       	 .uleb128 0x1d
 2082 0630 8A040000 	 .4byte .LASF51
 2083 0634 06       	 .byte 0x6
 2084 0635 1101     	 .2byte 0x111
 2085 0637 14       	 .byte 0x14
 2086 0638 9A020000 	 .4byte 0x29a
 2087 063c 50060000 	 .4byte 0x650
ARM GAS   			page 47


 2088 0640 07       	 .uleb128 0x7
 2089 0641 D3020000 	 .4byte 0x2d3
 2090 0645 07       	 .uleb128 0x7
 2091 0646 3E050000 	 .4byte 0x53e
 2092 064a 07       	 .uleb128 0x7
 2093 064b 56020000 	 .4byte 0x256
 2094 064f 00       	 .byte 0
 2095 0650 19       	 .uleb128 0x19
 2096 0651 C6000000 	 .4byte .LASF52
 2097 0655 06       	 .byte 0x6
 2098 0656 A3       	 .byte 0xa3
 2099 0657 07       	 .byte 0x7
 2100 0658 6B060000 	 .4byte 0x66b
 2101 065c 6B060000 	 .4byte 0x66b
 2102 0660 07       	 .uleb128 0x7
 2103 0661 D3020000 	 .4byte 0x2d3
 2104 0665 07       	 .uleb128 0x7
 2105 0666 3E050000 	 .4byte 0x53e
 2106 066a 00       	 .byte 0
 2107 066b 0B       	 .uleb128 0xb
 2108 066c 04       	 .byte 0x4
 2109 066d 04       	 .byte 0x4
 2110 066e 7B020000 	 .4byte .LASF53
 2111 0672 1D       	 .uleb128 0x1d
 2112 0673 F1020000 	 .4byte .LASF54
 2113 0677 06       	 .byte 0x6
 2114 0678 4401     	 .2byte 0x144
 2115 067a 14       	 .byte 0x14
 2116 067b 64020000 	 .4byte 0x264
 2117 067f 8E060000 	 .4byte 0x68e
 2118 0683 07       	 .uleb128 0x7
 2119 0684 D3020000 	 .4byte 0x2d3
 2120 0688 07       	 .uleb128 0x7
 2121 0689 3E050000 	 .4byte 0x53e
 2122 068d 00       	 .byte 0
 2123 068e 05       	 .uleb128 0x5
 2124 068f 07       	 .byte 0x7
 2125 0690 27       	 .byte 0x27
 2126 0691 0C       	 .byte 0xc
 2127 0692 A2030000 	 .4byte 0x3a2
 2128 0696 05       	 .uleb128 0x5
 2129 0697 07       	 .byte 0x7
 2130 0698 33       	 .byte 0x33
 2131 0699 0C       	 .byte 0xc
 2132 069a 01030000 	 .4byte 0x301
 2133 069e 05       	 .uleb128 0x5
 2134 069f 07       	 .byte 0x7
 2135 06a0 34       	 .byte 0x34
 2136 06a1 0C       	 .byte 0xc
 2137 06a2 35030000 	 .4byte 0x335
 2138 06a6 05       	 .uleb128 0x5
 2139 06a7 07       	 .byte 0x7
 2140 06a8 36       	 .byte 0x36
 2141 06a9 0C       	 .byte 0xc
 2142 06aa 32010000 	 .4byte 0x132
 2143 06ae 05       	 .uleb128 0x5
 2144 06af 07       	 .byte 0x7
ARM GAS   			page 48


 2145 06b0 36       	 .byte 0x36
 2146 06b1 0C       	 .byte 0xc
 2147 06b2 4C010000 	 .4byte 0x14c
 2148 06b6 05       	 .uleb128 0x5
 2149 06b7 07       	 .byte 0x7
 2150 06b8 36       	 .byte 0x36
 2151 06b9 0C       	 .byte 0xc
 2152 06ba 66010000 	 .4byte 0x166
 2153 06be 05       	 .uleb128 0x5
 2154 06bf 07       	 .byte 0x7
 2155 06c0 36       	 .byte 0x36
 2156 06c1 0C       	 .byte 0xc
 2157 06c2 80010000 	 .4byte 0x180
 2158 06c6 05       	 .uleb128 0x5
 2159 06c7 07       	 .byte 0x7
 2160 06c8 36       	 .byte 0x36
 2161 06c9 0C       	 .byte 0xc
 2162 06ca 9A010000 	 .4byte 0x19a
 2163 06ce 05       	 .uleb128 0x5
 2164 06cf 07       	 .byte 0x7
 2165 06d0 37       	 .byte 0x37
 2166 06d1 0C       	 .byte 0xc
 2167 06d2 B8030000 	 .4byte 0x3b8
 2168 06d6 05       	 .uleb128 0x5
 2169 06d7 07       	 .byte 0x7
 2170 06d8 38       	 .byte 0x38
 2171 06d9 0C       	 .byte 0xc
 2172 06da D5030000 	 .4byte 0x3d5
 2173 06de 05       	 .uleb128 0x5
 2174 06df 07       	 .byte 0x7
 2175 06e0 39       	 .byte 0x39
 2176 06e1 0C       	 .byte 0xc
 2177 06e2 EB030000 	 .4byte 0x3eb
 2178 06e6 05       	 .uleb128 0x5
 2179 06e7 07       	 .byte 0x7
 2180 06e8 3A       	 .byte 0x3a
 2181 06e9 0C       	 .byte 0xc
 2182 06ea 01040000 	 .4byte 0x401
 2183 06ee 05       	 .uleb128 0x5
 2184 06ef 07       	 .byte 0x7
 2185 06f0 3C       	 .byte 0x3c
 2186 06f1 0C       	 .byte 0xc
 2187 06f2 27020000 	 .4byte 0x227
 2188 06f6 05       	 .uleb128 0x5
 2189 06f7 07       	 .byte 0x7
 2190 06f8 3C       	 .byte 0x3c
 2191 06f9 0C       	 .byte 0xc
 2192 06fa B4010000 	 .4byte 0x1b4
 2193 06fe 05       	 .uleb128 0x5
 2194 06ff 07       	 .byte 0x7
 2195 0700 3C       	 .byte 0x3c
 2196 0701 0C       	 .byte 0xc
 2197 0702 2B040000 	 .4byte 0x42b
 2198 0706 05       	 .uleb128 0x5
 2199 0707 07       	 .byte 0x7
 2200 0708 3E       	 .byte 0x3e
 2201 0709 0C       	 .byte 0xc
ARM GAS   			page 49


 2202 070a 46040000 	 .4byte 0x446
 2203 070e 05       	 .uleb128 0x5
 2204 070f 07       	 .byte 0x7
 2205 0710 40       	 .byte 0x40
 2206 0711 0C       	 .byte 0xc
 2207 0712 5C040000 	 .4byte 0x45c
 2208 0716 05       	 .uleb128 0x5
 2209 0717 07       	 .byte 0x7
 2210 0718 43       	 .byte 0x43
 2211 0719 0C       	 .byte 0xc
 2212 071a 77040000 	 .4byte 0x477
 2213 071e 05       	 .uleb128 0x5
 2214 071f 07       	 .byte 0x7
 2215 0720 44       	 .byte 0x44
 2216 0721 0C       	 .byte 0xc
 2217 0722 92040000 	 .4byte 0x492
 2218 0726 05       	 .uleb128 0x5
 2219 0727 07       	 .byte 0x7
 2220 0728 45       	 .byte 0x45
 2221 0729 0C       	 .byte 0xc
 2222 072a C4040000 	 .4byte 0x4c4
 2223 072e 05       	 .uleb128 0x5
 2224 072f 07       	 .byte 0x7
 2225 0730 47       	 .byte 0x47
 2226 0731 0C       	 .byte 0xc
 2227 0732 E4040000 	 .4byte 0x4e4
 2228 0736 05       	 .uleb128 0x5
 2229 0737 07       	 .byte 0x7
 2230 0738 48       	 .byte 0x48
 2231 0739 0C       	 .byte 0xc
 2232 073a 05050000 	 .4byte 0x505
 2233 073e 05       	 .uleb128 0x5
 2234 073f 07       	 .byte 0x7
 2235 0740 4A       	 .byte 0x4a
 2236 0741 0C       	 .byte 0xc
 2237 0742 11050000 	 .4byte 0x511
 2238 0746 05       	 .uleb128 0x5
 2239 0747 07       	 .byte 0x7
 2240 0748 4B       	 .byte 0x4b
 2241 0749 0C       	 .byte 0xc
 2242 074a 23050000 	 .4byte 0x523
 2243 074e 05       	 .uleb128 0x5
 2244 074f 07       	 .byte 0x7
 2245 0750 4C       	 .byte 0x4c
 2246 0751 0C       	 .byte 0xc
 2247 0752 44050000 	 .4byte 0x544
 2248 0756 05       	 .uleb128 0x5
 2249 0757 07       	 .byte 0x7
 2250 0758 4D       	 .byte 0x4d
 2251 0759 0C       	 .byte 0xc
 2252 075a 64050000 	 .4byte 0x564
 2253 075e 05       	 .uleb128 0x5
 2254 075f 07       	 .byte 0x7
 2255 0760 4E       	 .byte 0x4e
 2256 0761 0C       	 .byte 0xc
 2257 0762 84050000 	 .4byte 0x584
 2258 0766 05       	 .uleb128 0x5
ARM GAS   			page 50


 2259 0767 07       	 .byte 0x7
 2260 0768 50       	 .byte 0x50
 2261 0769 0C       	 .byte 0xc
 2262 076a 9A050000 	 .4byte 0x59a
 2263 076e 05       	 .uleb128 0x5
 2264 076f 07       	 .byte 0x7
 2265 0770 51       	 .byte 0x51
 2266 0771 0C       	 .byte 0xc
 2267 0772 C0050000 	 .4byte 0x5c0
 2268 0776 0A       	 .uleb128 0xa
 2269 0777 5C020000 	 .4byte .LASF55
 2270 077b 08       	 .byte 0x8
 2271 077c 28       	 .byte 0x28
 2272 077d 1B       	 .byte 0x1b
 2273 077e A3020000 	 .4byte 0x2a3
 2274 0782 0A       	 .uleb128 0xa
 2275 0783 4F000000 	 .4byte .LASF56
 2276 0787 08       	 .byte 0x8
 2277 0788 63       	 .byte 0x63
 2278 0789 18       	 .byte 0x18
 2279 078a 76070000 	 .4byte 0x776
 2280 078e 14       	 .uleb128 0x14
 2281 078f 14       	 .byte 0x14
 2282 0790 01       	 .byte 0x1
 2283 0791 5E       	 .byte 0x5e
 2284 0792 10       	 .byte 0x10
 2285 0793 F9020000 	 .4byte .LASF57
 2286 0797 DD070000 	 .4byte 0x7dd
 2287 079b 15       	 .uleb128 0x15
 2288 079c 48010000 	 .4byte .LASF58
 2289 07a0 01       	 .byte 0x1
 2290 07a1 5F       	 .byte 0x5f
 2291 07a2 0D       	 .byte 0xd
 2292 07a3 C1020000 	 .4byte 0x2c1
 2293 07a7 00       	 .byte 0
 2294 07a8 15       	 .uleb128 0x15
 2295 07a9 6B020000 	 .4byte .LASF59
 2296 07ad 01       	 .byte 0x1
 2297 07ae 60       	 .byte 0x60
 2298 07af 0D       	 .byte 0xd
 2299 07b0 4F020000 	 .4byte 0x24f
 2300 07b4 04       	 .byte 0x4
 2301 07b5 16       	 .uleb128 0x16
 2302 07b6 436E7400 	 .ascii "Cnt\000"
 2303 07ba 01       	 .byte 0x1
 2304 07bb 61       	 .byte 0x61
 2305 07bc 0D       	 .byte 0xd
 2306 07bd 4F020000 	 .4byte 0x24f
 2307 07c1 08       	 .byte 0x8
 2308 07c2 15       	 .uleb128 0x15
 2309 07c3 93020000 	 .4byte .LASF60
 2310 07c7 01       	 .byte 0x1
 2311 07c8 63       	 .byte 0x63
 2312 07c9 09       	 .byte 0x9
 2313 07ca 56020000 	 .4byte 0x256
 2314 07ce 0C       	 .byte 0xc
 2315 07cf 15       	 .uleb128 0x15
ARM GAS   			page 51


 2316 07d0 12050000 	 .4byte .LASF61
 2317 07d4 01       	 .byte 0x1
 2318 07d5 65       	 .byte 0x65
 2319 07d6 0C       	 .byte 0xc
 2320 07d7 4F020000 	 .4byte 0x24f
 2321 07db 10       	 .byte 0x10
 2322 07dc 00       	 .byte 0
 2323 07dd 0A       	 .uleb128 0xa
 2324 07de B5010000 	 .4byte .LASF62
 2325 07e2 01       	 .byte 0x1
 2326 07e3 66       	 .byte 0x66
 2327 07e4 03       	 .byte 0x3
 2328 07e5 8E070000 	 .4byte 0x78e
 2329 07e9 1E       	 .uleb128 0x1e
 2330 07ea AD000000 	 .4byte .LASF66
 2331 07ee 01       	 .byte 0x1
 2332 07ef F901     	 .2byte 0x1f9
 2333 07f1 05       	 .byte 0x5
 2334 07f2 56020000 	 .4byte 0x256
 2335 07f6 00000000 	 .4byte .LFB11
 2336 07fa 32000000 	 .4byte .LFE11-.LFB11
 2337 07fe 01       	 .uleb128 0x1
 2338 07ff 9C       	 .byte 0x9c
 2339 0800 44080000 	 .4byte 0x844
 2340 0804 1F       	 .uleb128 0x1f
 2341 0805 7D010000 	 .4byte .LASF63
 2342 0809 01       	 .byte 0x1
 2343 080a F901     	 .2byte 0x1f9
 2344 080c 20       	 .byte 0x20
 2345 080d 4F020000 	 .4byte 0x24f
 2346 0811 02       	 .uleb128 0x2
 2347 0812 91       	 .byte 0x91
 2348 0813 5C       	 .sleb128 -36
 2349 0814 1F       	 .uleb128 0x1f
 2350 0815 93040000 	 .4byte .LASF64
 2351 0819 01       	 .byte 0x1
 2352 081a F901     	 .2byte 0x1f9
 2353 081c 3A       	 .byte 0x3a
 2354 081d D3020000 	 .4byte 0x2d3
 2355 0821 02       	 .uleb128 0x2
 2356 0822 91       	 .byte 0x91
 2357 0823 74       	 .sleb128 -12
 2358 0824 20       	 .uleb128 0x20
 2359 0825 21       	 .uleb128 0x21
 2360 0826 7200     	 .ascii "r\000"
 2361 0828 01       	 .byte 0x1
 2362 0829 FA01     	 .2byte 0x1fa
 2363 082b 07       	 .byte 0x7
 2364 082c 56020000 	 .4byte 0x256
 2365 0830 02       	 .uleb128 0x2
 2366 0831 91       	 .byte 0x91
 2367 0832 64       	 .sleb128 -28
 2368 0833 22       	 .uleb128 0x22
 2369 0834 AF020000 	 .4byte .LASF65
 2370 0838 01       	 .byte 0x1
 2371 0839 FB01     	 .2byte 0x1fb
 2372 083b 0B       	 .byte 0xb
ARM GAS   			page 52


 2373 083c 82070000 	 .4byte 0x782
 2374 0840 02       	 .uleb128 0x2
 2375 0841 91       	 .byte 0x91
 2376 0842 60       	 .sleb128 -32
 2377 0843 00       	 .byte 0
 2378 0844 1E       	 .uleb128 0x1e
 2379 0845 0B000000 	 .4byte .LASF67
 2380 0849 01       	 .byte 0x1
 2381 084a 4B01     	 .2byte 0x14b
 2382 084c 05       	 .byte 0x5
 2383 084d 56020000 	 .4byte 0x256
 2384 0851 00000000 	 .4byte .LFB10
 2385 0855 AC030000 	 .4byte .LFE10-.LFB10
 2386 0859 01       	 .uleb128 0x1
 2387 085a 9C       	 .byte 0x9c
 2388 085b 35090000 	 .4byte 0x935
 2389 085f 1F       	 .uleb128 0x1f
 2390 0860 7D010000 	 .4byte .LASF63
 2391 0864 01       	 .byte 0x1
 2392 0865 4B01     	 .2byte 0x14b
 2393 0867 21       	 .byte 0x21
 2394 0868 4F020000 	 .4byte 0x24f
 2395 086c 03       	 .uleb128 0x3
 2396 086d 91       	 .byte 0x91
 2397 086e 847F     	 .sleb128 -124
 2398 0870 1F       	 .uleb128 0x1f
 2399 0871 93040000 	 .4byte .LASF64
 2400 0875 01       	 .byte 0x1
 2401 0876 4B01     	 .2byte 0x14b
 2402 0878 3B       	 .byte 0x3b
 2403 0879 D3020000 	 .4byte 0x2d3
 2404 087d 03       	 .uleb128 0x3
 2405 087e 91       	 .byte 0x91
 2406 087f 807F     	 .sleb128 -128
 2407 0881 1F       	 .uleb128 0x1f
 2408 0882 9F020000 	 .4byte .LASF68
 2409 0886 01       	 .byte 0x1
 2410 0887 4B01     	 .2byte 0x14b
 2411 0889 4E       	 .byte 0x4e
 2412 088a 35090000 	 .4byte 0x935
 2413 088e 03       	 .uleb128 0x3
 2414 088f 91       	 .byte 0x91
 2415 0890 FC7E     	 .sleb128 -132
 2416 0892 21       	 .uleb128 0x21
 2417 0893 6300     	 .ascii "c\000"
 2418 0895 01       	 .byte 0x1
 2419 0896 4C01     	 .2byte 0x14c
 2420 0898 08       	 .byte 0x8
 2421 0899 C7020000 	 .4byte 0x2c7
 2422 089d 02       	 .uleb128 0x2
 2423 089e 91       	 .byte 0x91
 2424 089f 77       	 .sleb128 -9
 2425 08a0 22       	 .uleb128 0x22
 2426 08a1 01010000 	 .4byte .LASF69
 2427 08a5 01       	 .byte 0x1
 2428 08a6 4D01     	 .2byte 0x14d
 2429 08a8 1A       	 .byte 0x1a
ARM GAS   			page 53


 2430 08a9 DD070000 	 .4byte 0x7dd
 2431 08ad 02       	 .uleb128 0x2
 2432 08ae 91       	 .byte 0x91
 2433 08af 48       	 .sleb128 -56
 2434 08b0 21       	 .uleb128 0x21
 2435 08b1 7600     	 .ascii "v\000"
 2436 08b3 01       	 .byte 0x1
 2437 08b4 4E01     	 .2byte 0x14e
 2438 08b6 07       	 .byte 0x7
 2439 08b7 56020000 	 .4byte 0x256
 2440 08bb 02       	 .uleb128 0x2
 2441 08bc 91       	 .byte 0x91
 2442 08bd 70       	 .sleb128 -16
 2443 08be 22       	 .uleb128 0x22
 2444 08bf 1A030000 	 .4byte .LASF70
 2445 08c3 01       	 .byte 0x1
 2446 08c4 4F01     	 .2byte 0x14f
 2447 08c6 0C       	 .byte 0xc
 2448 08c7 4F020000 	 .4byte 0x24f
 2449 08cb 02       	 .uleb128 0x2
 2450 08cc 91       	 .byte 0x91
 2451 08cd 6C       	 .sleb128 -20
 2452 08ce 22       	 .uleb128 0x22
 2453 08cf 43000000 	 .4byte .LASF71
 2454 08d3 01       	 .byte 0x1
 2455 08d4 5001     	 .2byte 0x150
 2456 08d6 0C       	 .byte 0xc
 2457 08d7 4F020000 	 .4byte 0x24f
 2458 08db 02       	 .uleb128 0x2
 2459 08dc 91       	 .byte 0x91
 2460 08dd 68       	 .sleb128 -24
 2461 08de 22       	 .uleb128 0x22
 2462 08df A3010000 	 .4byte .LASF72
 2463 08e3 01       	 .byte 0x1
 2464 08e4 5101     	 .2byte 0x151
 2465 08e6 0C       	 .byte 0xc
 2466 08e7 4F020000 	 .4byte 0x24f
 2467 08eb 02       	 .uleb128 0x2
 2468 08ec 91       	 .byte 0x91
 2469 08ed 64       	 .sleb128 -28
 2470 08ee 22       	 .uleb128 0x22
 2471 08ef 81020000 	 .4byte .LASF73
 2472 08f3 01       	 .byte 0x1
 2473 08f4 5201     	 .2byte 0x152
 2474 08f6 08       	 .byte 0x8
 2475 08f7 3B090000 	 .4byte 0x93b
 2476 08fb 03       	 .uleb128 0x3
 2477 08fc 91       	 .byte 0x91
 2478 08fd 887F     	 .sleb128 -120
 2479 08ff 23       	 .uleb128 0x23
 2480 0900 4C020000 	 .4byte .LBB7
 2481 0904 26000000 	 .4byte .LBE7-.LBB7
 2482 0908 1C090000 	 .4byte 0x91c
 2483 090c 21       	 .uleb128 0x21
 2484 090d 633000   	 .ascii "c0\000"
 2485 0910 01       	 .byte 0x1
 2486 0911 9E01     	 .2byte 0x19e
ARM GAS   			page 54


 2487 0913 0E       	 .byte 0xe
 2488 0914 C7020000 	 .4byte 0x2c7
 2489 0918 02       	 .uleb128 0x2
 2490 0919 91       	 .byte 0x91
 2491 091a 5F       	 .sleb128 -33
 2492 091b 00       	 .byte 0
 2493 091c 24       	 .uleb128 0x24
 2494 091d E4020000 	 .4byte .LBB8
 2495 0921 3E000000 	 .4byte .LBE8-.LBB8
 2496 0925 21       	 .uleb128 0x21
 2497 0926 7300     	 .ascii "s\000"
 2498 0928 01       	 .byte 0x1
 2499 0929 B301     	 .2byte 0x1b3
 2500 092b 18       	 .byte 0x18
 2501 092c D3020000 	 .4byte 0x2d3
 2502 0930 02       	 .uleb128 0x2
 2503 0931 91       	 .byte 0x91
 2504 0932 60       	 .sleb128 -32
 2505 0933 00       	 .byte 0
 2506 0934 00       	 .byte 0
 2507 0935 11       	 .uleb128 0x11
 2508 0936 04       	 .byte 0x4
 2509 0937 82070000 	 .4byte 0x782
 2510 093b 25       	 .uleb128 0x25
 2511 093c C7020000 	 .4byte 0x2c7
 2512 0940 4B090000 	 .4byte 0x94b
 2513 0944 26       	 .uleb128 0x26
 2514 0945 4F020000 	 .4byte 0x24f
 2515 0949 3F       	 .byte 0x3f
 2516 094a 00       	 .byte 0
 2517 094b 27       	 .uleb128 0x27
 2518 094c 26010000 	 .4byte .LASF78
 2519 0950 01       	 .byte 0x1
 2520 0951 EC       	 .byte 0xec
 2521 0952 0D       	 .byte 0xd
 2522 0953 00000000 	 .4byte .LFB9
 2523 0957 4A010000 	 .4byte .LFE9-.LFB9
 2524 095b 01       	 .uleb128 0x1
 2525 095c 9C       	 .byte 0x9c
 2526 095d D8090000 	 .4byte 0x9d8
 2527 0961 28       	 .uleb128 0x28
 2528 0962 F5000000 	 .4byte .LASF74
 2529 0966 01       	 .byte 0x1
 2530 0967 EC       	 .byte 0xec
 2531 0968 30       	 .byte 0x30
 2532 0969 D8090000 	 .4byte 0x9d8
 2533 096d 02       	 .uleb128 0x2
 2534 096e 91       	 .byte 0x91
 2535 096f 6C       	 .sleb128 -20
 2536 0970 29       	 .uleb128 0x29
 2537 0971 7600     	 .ascii "v\000"
 2538 0973 01       	 .byte 0x1
 2539 0974 EC       	 .byte 0xec
 2540 0975 41       	 .byte 0x41
 2541 0976 56020000 	 .4byte 0x256
 2542 097a 02       	 .uleb128 0x2
 2543 097b 91       	 .byte 0x91
ARM GAS   			page 55


 2544 097c 68       	 .sleb128 -24
 2545 097d 28       	 .uleb128 0x28
 2546 097e 00000000 	 .4byte .LASF75
 2547 0982 01       	 .byte 0x1
 2548 0983 EC       	 .byte 0xec
 2549 0984 4D       	 .byte 0x4d
 2550 0985 4F020000 	 .4byte 0x24f
 2551 0989 02       	 .uleb128 0x2
 2552 098a 91       	 .byte 0x91
 2553 098b 64       	 .sleb128 -28
 2554 098c 28       	 .uleb128 0x28
 2555 098d 1A030000 	 .4byte .LASF70
 2556 0991 01       	 .byte 0x1
 2557 0992 EC       	 .byte 0xec
 2558 0993 5C       	 .byte 0x5c
 2559 0994 4F020000 	 .4byte 0x24f
 2560 0998 02       	 .uleb128 0x2
 2561 0999 91       	 .byte 0x91
 2562 099a 60       	 .sleb128 -32
 2563 099b 28       	 .uleb128 0x28
 2564 099c A3010000 	 .4byte .LASF72
 2565 09a0 01       	 .byte 0x1
 2566 09a1 EC       	 .byte 0xec
 2567 09a2 70       	 .byte 0x70
 2568 09a3 4F020000 	 .4byte 0x24f
 2569 09a7 02       	 .uleb128 0x2
 2570 09a8 91       	 .byte 0x91
 2571 09a9 00       	 .sleb128 0
 2572 09aa 28       	 .uleb128 0x28
 2573 09ab 43000000 	 .4byte .LASF71
 2574 09af 01       	 .byte 0x1
 2575 09b0 EC       	 .byte 0xec
 2576 09b1 85       	 .byte 0x85
 2577 09b2 4F020000 	 .4byte 0x24f
 2578 09b6 02       	 .uleb128 0x2
 2579 09b7 91       	 .byte 0x91
 2580 09b8 04       	 .sleb128 4
 2581 09b9 2A       	 .uleb128 0x2a
 2582 09ba 36050000 	 .4byte .LASF76
 2583 09be 01       	 .byte 0x1
 2584 09bf ED       	 .byte 0xed
 2585 09c0 0C       	 .byte 0xc
 2586 09c1 4F020000 	 .4byte 0x24f
 2587 09c5 02       	 .uleb128 0x2
 2588 09c6 91       	 .byte 0x91
 2589 09c7 74       	 .sleb128 -12
 2590 09c8 2A       	 .uleb128 0x2a
 2591 09c9 CC010000 	 .4byte .LASF77
 2592 09cd 01       	 .byte 0x1
 2593 09ce EE       	 .byte 0xee
 2594 09cf 07       	 .byte 0x7
 2595 09d0 56020000 	 .4byte 0x256
 2596 09d4 02       	 .uleb128 0x2
 2597 09d5 91       	 .byte 0x91
 2598 09d6 70       	 .sleb128 -16
 2599 09d7 00       	 .byte 0
 2600 09d8 11       	 .uleb128 0x11
ARM GAS   			page 56


 2601 09d9 04       	 .byte 0x4
 2602 09da DD070000 	 .4byte 0x7dd
 2603 09de 27       	 .uleb128 0x27
 2604 09df 68030000 	 .4byte .LASF79
 2605 09e3 01       	 .byte 0x1
 2606 09e4 92       	 .byte 0x92
 2607 09e5 0D       	 .byte 0xd
 2608 09e6 00000000 	 .4byte .LFB8
 2609 09ea 54010000 	 .4byte .LFE8-.LFB8
 2610 09ee 01       	 .uleb128 0x1
 2611 09ef 9C       	 .byte 0x9c
 2612 09f0 A80A0000 	 .4byte 0xaa8
 2613 09f4 28       	 .uleb128 0x28
 2614 09f5 F5000000 	 .4byte .LASF74
 2615 09f9 01       	 .byte 0x1
 2616 09fa 92       	 .byte 0x92
 2617 09fb 35       	 .byte 0x35
 2618 09fc D8090000 	 .4byte 0x9d8
 2619 0a00 02       	 .uleb128 0x2
 2620 0a01 91       	 .byte 0x91
 2621 0a02 5C       	 .sleb128 -36
 2622 0a03 29       	 .uleb128 0x29
 2623 0a04 7600     	 .ascii "v\000"
 2624 0a06 01       	 .byte 0x1
 2625 0a07 92       	 .byte 0x92
 2626 0a08 4B       	 .byte 0x4b
 2627 0a09 4F020000 	 .4byte 0x24f
 2628 0a0d 02       	 .uleb128 0x2
 2629 0a0e 91       	 .byte 0x91
 2630 0a0f 58       	 .sleb128 -40
 2631 0a10 28       	 .uleb128 0x28
 2632 0a11 00000000 	 .4byte .LASF75
 2633 0a15 01       	 .byte 0x1
 2634 0a16 92       	 .byte 0x92
 2635 0a17 57       	 .byte 0x57
 2636 0a18 4F020000 	 .4byte 0x24f
 2637 0a1c 02       	 .uleb128 0x2
 2638 0a1d 91       	 .byte 0x91
 2639 0a1e 54       	 .sleb128 -44
 2640 0a1f 28       	 .uleb128 0x28
 2641 0a20 1A030000 	 .4byte .LASF70
 2642 0a24 01       	 .byte 0x1
 2643 0a25 92       	 .byte 0x92
 2644 0a26 66       	 .byte 0x66
 2645 0a27 4F020000 	 .4byte 0x24f
 2646 0a2b 02       	 .uleb128 0x2
 2647 0a2c 91       	 .byte 0x91
 2648 0a2d 50       	 .sleb128 -48
 2649 0a2e 28       	 .uleb128 0x28
 2650 0a2f A3010000 	 .4byte .LASF72
 2651 0a33 01       	 .byte 0x1
 2652 0a34 92       	 .byte 0x92
 2653 0a35 7A       	 .byte 0x7a
 2654 0a36 4F020000 	 .4byte 0x24f
 2655 0a3a 02       	 .uleb128 0x2
 2656 0a3b 91       	 .byte 0x91
 2657 0a3c 00       	 .sleb128 0
ARM GAS   			page 57


 2658 0a3d 28       	 .uleb128 0x28
 2659 0a3e 43000000 	 .4byte .LASF71
 2660 0a42 01       	 .byte 0x1
 2661 0a43 92       	 .byte 0x92
 2662 0a44 8F       	 .byte 0x8f
 2663 0a45 4F020000 	 .4byte 0x24f
 2664 0a49 02       	 .uleb128 0x2
 2665 0a4a 91       	 .byte 0x91
 2666 0a4b 04       	 .sleb128 4
 2667 0a4c 2A       	 .uleb128 0x2a
 2668 0a4d BE020000 	 .4byte .LASF80
 2669 0a51 01       	 .byte 0x1
 2670 0a52 93       	 .byte 0x93
 2671 0a53 15       	 .byte 0x15
 2672 0a54 B80A0000 	 .4byte 0xab8
 2673 0a58 05       	 .uleb128 0x5
 2674 0a59 03       	 .byte 0x3
 2675 0a5a 00000000 	 .4byte _ZZL14_PrintUnsignedP22SEGGER_RTT_PRINTF_DESCjjjjjE5_aV2C
 2676 0a5e 2B       	 .uleb128 0x2b
 2677 0a5f 44697600 	 .ascii "Div\000"
 2678 0a63 01       	 .byte 0x1
 2679 0a64 94       	 .byte 0x94
 2680 0a65 0C       	 .byte 0xc
 2681 0a66 4F020000 	 .4byte 0x24f
 2682 0a6a 02       	 .uleb128 0x2
 2683 0a6b 91       	 .byte 0x91
 2684 0a6c 64       	 .sleb128 -28
 2685 0a6d 2A       	 .uleb128 0x2a
 2686 0a6e 3D000000 	 .4byte .LASF81
 2687 0a72 01       	 .byte 0x1
 2688 0a73 95       	 .byte 0x95
 2689 0a74 0C       	 .byte 0xc
 2690 0a75 4F020000 	 .4byte 0x24f
 2691 0a79 02       	 .uleb128 0x2
 2692 0a7a 91       	 .byte 0x91
 2693 0a7b 74       	 .sleb128 -12
 2694 0a7c 2A       	 .uleb128 0x2a
 2695 0a7d CC010000 	 .4byte .LASF77
 2696 0a81 01       	 .byte 0x1
 2697 0a82 96       	 .byte 0x96
 2698 0a83 0C       	 .byte 0xc
 2699 0a84 4F020000 	 .4byte 0x24f
 2700 0a88 02       	 .uleb128 0x2
 2701 0a89 91       	 .byte 0x91
 2702 0a8a 70       	 .sleb128 -16
 2703 0a8b 2A       	 .uleb128 0x2a
 2704 0a8c 36050000 	 .4byte .LASF76
 2705 0a90 01       	 .byte 0x1
 2706 0a91 97       	 .byte 0x97
 2707 0a92 0C       	 .byte 0xc
 2708 0a93 4F020000 	 .4byte 0x24f
 2709 0a97 02       	 .uleb128 0x2
 2710 0a98 91       	 .byte 0x91
 2711 0a99 6C       	 .sleb128 -20
 2712 0a9a 2B       	 .uleb128 0x2b
 2713 0a9b 6300     	 .ascii "c\000"
 2714 0a9d 01       	 .byte 0x1
ARM GAS   			page 58


 2715 0a9e 98       	 .byte 0x98
 2716 0a9f 08       	 .byte 0x8
 2717 0aa0 C7020000 	 .4byte 0x2c7
 2718 0aa4 02       	 .uleb128 0x2
 2719 0aa5 91       	 .byte 0x91
 2720 0aa6 6B       	 .sleb128 -21
 2721 0aa7 00       	 .byte 0
 2722 0aa8 25       	 .uleb128 0x25
 2723 0aa9 CE020000 	 .4byte 0x2ce
 2724 0aad B80A0000 	 .4byte 0xab8
 2725 0ab1 26       	 .uleb128 0x26
 2726 0ab2 4F020000 	 .4byte 0x24f
 2727 0ab6 0F       	 .byte 0xf
 2728 0ab7 00       	 .byte 0
 2729 0ab8 13       	 .uleb128 0x13
 2730 0ab9 A80A0000 	 .4byte 0xaa8
 2731 0abd 2C       	 .uleb128 0x2c
 2732 0abe FF040000 	 .4byte .LASF90
 2733 0ac2 01       	 .byte 0x1
 2734 0ac3 79       	 .byte 0x79
 2735 0ac4 0D       	 .byte 0xd
 2736 0ac5 00000000 	 .4byte .LFB7
 2737 0ac9 86000000 	 .4byte .LFE7-.LFB7
 2738 0acd 01       	 .uleb128 0x1
 2739 0ace 9C       	 .byte 0x9c
 2740 0acf 29       	 .uleb128 0x29
 2741 0ad0 7000     	 .ascii "p\000"
 2742 0ad2 01       	 .byte 0x1
 2743 0ad3 79       	 .byte 0x79
 2744 0ad4 31       	 .byte 0x31
 2745 0ad5 D8090000 	 .4byte 0x9d8
 2746 0ad9 02       	 .uleb128 0x2
 2747 0ada 91       	 .byte 0x91
 2748 0adb 6C       	 .sleb128 -20
 2749 0adc 29       	 .uleb128 0x29
 2750 0add 6300     	 .ascii "c\000"
 2751 0adf 01       	 .byte 0x1
 2752 0ae0 79       	 .byte 0x79
 2753 0ae1 39       	 .byte 0x39
 2754 0ae2 C7020000 	 .4byte 0x2c7
 2755 0ae6 02       	 .uleb128 0x2
 2756 0ae7 91       	 .byte 0x91
 2757 0ae8 6B       	 .sleb128 -21
 2758 0ae9 2B       	 .uleb128 0x2b
 2759 0aea 436E7400 	 .ascii "Cnt\000"
 2760 0aee 01       	 .byte 0x1
 2761 0aef 7A       	 .byte 0x7a
 2762 0af0 0C       	 .byte 0xc
 2763 0af1 4F020000 	 .4byte 0x24f
 2764 0af5 02       	 .uleb128 0x2
 2765 0af6 91       	 .byte 0x91
 2766 0af7 74       	 .sleb128 -12
 2767 0af8 00       	 .byte 0
 2768 0af9 00       	 .byte 0
 2769              	 .section .debug_abbrev,"",%progbits
 2770              	.Ldebug_abbrev0:
 2771 0000 01       	 .uleb128 0x1
ARM GAS   			page 59


 2772 0001 11       	 .uleb128 0x11
 2773 0002 01       	 .byte 0x1
 2774 0003 25       	 .uleb128 0x25
 2775 0004 0E       	 .uleb128 0xe
 2776 0005 13       	 .uleb128 0x13
 2777 0006 0B       	 .uleb128 0xb
 2778 0007 03       	 .uleb128 0x3
 2779 0008 0E       	 .uleb128 0xe
 2780 0009 1B       	 .uleb128 0x1b
 2781 000a 0E       	 .uleb128 0xe
 2782 000b 55       	 .uleb128 0x55
 2783 000c 17       	 .uleb128 0x17
 2784 000d 11       	 .uleb128 0x11
 2785 000e 01       	 .uleb128 0x1
 2786 000f 10       	 .uleb128 0x10
 2787 0010 17       	 .uleb128 0x17
 2788 0011 00       	 .byte 0
 2789 0012 00       	 .byte 0
 2790 0013 02       	 .uleb128 0x2
 2791 0014 39       	 .uleb128 0x39
 2792 0015 01       	 .byte 0x1
 2793 0016 03       	 .uleb128 0x3
 2794 0017 08       	 .uleb128 0x8
 2795 0018 3A       	 .uleb128 0x3a
 2796 0019 0B       	 .uleb128 0xb
 2797 001a 3B       	 .uleb128 0x3b
 2798 001b 0B       	 .uleb128 0xb
 2799 001c 01       	 .uleb128 0x1
 2800 001d 13       	 .uleb128 0x13
 2801 001e 00       	 .byte 0
 2802 001f 00       	 .byte 0
 2803 0020 03       	 .uleb128 0x3
 2804 0021 39       	 .uleb128 0x39
 2805 0022 00       	 .byte 0
 2806 0023 03       	 .uleb128 0x3
 2807 0024 0E       	 .uleb128 0xe
 2808 0025 3A       	 .uleb128 0x3a
 2809 0026 0B       	 .uleb128 0xb
 2810 0027 3B       	 .uleb128 0x3b
 2811 0028 05       	 .uleb128 0x5
 2812 0029 39       	 .uleb128 0x39
 2813 002a 0B       	 .uleb128 0xb
 2814 002b 8901     	 .uleb128 0x89
 2815 002d 19       	 .uleb128 0x19
 2816 002e 00       	 .byte 0
 2817 002f 00       	 .byte 0
 2818 0030 04       	 .uleb128 0x4
 2819 0031 3A       	 .uleb128 0x3a
 2820 0032 00       	 .byte 0
 2821 0033 3A       	 .uleb128 0x3a
 2822 0034 0B       	 .uleb128 0xb
 2823 0035 3B       	 .uleb128 0x3b
 2824 0036 05       	 .uleb128 0x5
 2825 0037 39       	 .uleb128 0x39
 2826 0038 0B       	 .uleb128 0xb
 2827 0039 18       	 .uleb128 0x18
 2828 003a 13       	 .uleb128 0x13
ARM GAS   			page 60


 2829 003b 00       	 .byte 0
 2830 003c 00       	 .byte 0
 2831 003d 05       	 .uleb128 0x5
 2832 003e 08       	 .uleb128 0x8
 2833 003f 00       	 .byte 0
 2834 0040 3A       	 .uleb128 0x3a
 2835 0041 0B       	 .uleb128 0xb
 2836 0042 3B       	 .uleb128 0x3b
 2837 0043 0B       	 .uleb128 0xb
 2838 0044 39       	 .uleb128 0x39
 2839 0045 0B       	 .uleb128 0xb
 2840 0046 18       	 .uleb128 0x18
 2841 0047 13       	 .uleb128 0x13
 2842 0048 00       	 .byte 0
 2843 0049 00       	 .byte 0
 2844 004a 06       	 .uleb128 0x6
 2845 004b 2E       	 .uleb128 0x2e
 2846 004c 01       	 .byte 0x1
 2847 004d 3F       	 .uleb128 0x3f
 2848 004e 19       	 .uleb128 0x19
 2849 004f 03       	 .uleb128 0x3
 2850 0050 08       	 .uleb128 0x8
 2851 0051 3A       	 .uleb128 0x3a
 2852 0052 0B       	 .uleb128 0xb
 2853 0053 3B       	 .uleb128 0x3b
 2854 0054 0B       	 .uleb128 0xb
 2855 0055 39       	 .uleb128 0x39
 2856 0056 0B       	 .uleb128 0xb
 2857 0057 6E       	 .uleb128 0x6e
 2858 0058 0E       	 .uleb128 0xe
 2859 0059 49       	 .uleb128 0x49
 2860 005a 13       	 .uleb128 0x13
 2861 005b 3C       	 .uleb128 0x3c
 2862 005c 19       	 .uleb128 0x19
 2863 005d 01       	 .uleb128 0x1
 2864 005e 13       	 .uleb128 0x13
 2865 005f 00       	 .byte 0
 2866 0060 00       	 .byte 0
 2867 0061 07       	 .uleb128 0x7
 2868 0062 05       	 .uleb128 0x5
 2869 0063 00       	 .byte 0
 2870 0064 49       	 .uleb128 0x49
 2871 0065 13       	 .uleb128 0x13
 2872 0066 00       	 .byte 0
 2873 0067 00       	 .byte 0
 2874 0068 08       	 .uleb128 0x8
 2875 0069 2E       	 .uleb128 0x2e
 2876 006a 01       	 .byte 0x1
 2877 006b 3F       	 .uleb128 0x3f
 2878 006c 19       	 .uleb128 0x19
 2879 006d 03       	 .uleb128 0x3
 2880 006e 08       	 .uleb128 0x8
 2881 006f 3A       	 .uleb128 0x3a
 2882 0070 0B       	 .uleb128 0xb
 2883 0071 3B       	 .uleb128 0x3b
 2884 0072 0B       	 .uleb128 0xb
 2885 0073 39       	 .uleb128 0x39
ARM GAS   			page 61


 2886 0074 0B       	 .uleb128 0xb
 2887 0075 6E       	 .uleb128 0x6e
 2888 0076 0E       	 .uleb128 0xe
 2889 0077 49       	 .uleb128 0x49
 2890 0078 13       	 .uleb128 0x13
 2891 0079 3C       	 .uleb128 0x3c
 2892 007a 19       	 .uleb128 0x19
 2893 007b 00       	 .byte 0
 2894 007c 00       	 .byte 0
 2895 007d 09       	 .uleb128 0x9
 2896 007e 39       	 .uleb128 0x39
 2897 007f 01       	 .byte 0x1
 2898 0080 03       	 .uleb128 0x3
 2899 0081 0E       	 .uleb128 0xe
 2900 0082 3A       	 .uleb128 0x3a
 2901 0083 0B       	 .uleb128 0xb
 2902 0084 3B       	 .uleb128 0x3b
 2903 0085 05       	 .uleb128 0x5
 2904 0086 39       	 .uleb128 0x39
 2905 0087 0B       	 .uleb128 0xb
 2906 0088 01       	 .uleb128 0x1
 2907 0089 13       	 .uleb128 0x13
 2908 008a 00       	 .byte 0
 2909 008b 00       	 .byte 0
 2910 008c 0A       	 .uleb128 0xa
 2911 008d 16       	 .uleb128 0x16
 2912 008e 00       	 .byte 0
 2913 008f 03       	 .uleb128 0x3
 2914 0090 0E       	 .uleb128 0xe
 2915 0091 3A       	 .uleb128 0x3a
 2916 0092 0B       	 .uleb128 0xb
 2917 0093 3B       	 .uleb128 0x3b
 2918 0094 0B       	 .uleb128 0xb
 2919 0095 39       	 .uleb128 0x39
 2920 0096 0B       	 .uleb128 0xb
 2921 0097 49       	 .uleb128 0x49
 2922 0098 13       	 .uleb128 0x13
 2923 0099 00       	 .byte 0
 2924 009a 00       	 .byte 0
 2925 009b 0B       	 .uleb128 0xb
 2926 009c 24       	 .uleb128 0x24
 2927 009d 00       	 .byte 0
 2928 009e 0B       	 .uleb128 0xb
 2929 009f 0B       	 .uleb128 0xb
 2930 00a0 3E       	 .uleb128 0x3e
 2931 00a1 0B       	 .uleb128 0xb
 2932 00a2 03       	 .uleb128 0x3
 2933 00a3 0E       	 .uleb128 0xe
 2934 00a4 00       	 .byte 0
 2935 00a5 00       	 .byte 0
 2936 00a6 0C       	 .uleb128 0xc
 2937 00a7 24       	 .uleb128 0x24
 2938 00a8 00       	 .byte 0
 2939 00a9 0B       	 .uleb128 0xb
 2940 00aa 0B       	 .uleb128 0xb
 2941 00ab 3E       	 .uleb128 0x3e
 2942 00ac 0B       	 .uleb128 0xb
ARM GAS   			page 62


 2943 00ad 03       	 .uleb128 0x3
 2944 00ae 08       	 .uleb128 0x8
 2945 00af 00       	 .byte 0
 2946 00b0 00       	 .byte 0
 2947 00b1 0D       	 .uleb128 0xd
 2948 00b2 3B       	 .uleb128 0x3b
 2949 00b3 00       	 .byte 0
 2950 00b4 03       	 .uleb128 0x3
 2951 00b5 0E       	 .uleb128 0xe
 2952 00b6 00       	 .byte 0
 2953 00b7 00       	 .byte 0
 2954 00b8 0E       	 .uleb128 0xe
 2955 00b9 0F       	 .uleb128 0xf
 2956 00ba 00       	 .byte 0
 2957 00bb 0B       	 .uleb128 0xb
 2958 00bc 0B       	 .uleb128 0xb
 2959 00bd 00       	 .byte 0
 2960 00be 00       	 .byte 0
 2961 00bf 0F       	 .uleb128 0xf
 2962 00c0 13       	 .uleb128 0x13
 2963 00c1 01       	 .byte 0x1
 2964 00c2 03       	 .uleb128 0x3
 2965 00c3 0E       	 .uleb128 0xe
 2966 00c4 0B       	 .uleb128 0xb
 2967 00c5 0B       	 .uleb128 0xb
 2968 00c6 3A       	 .uleb128 0x3a
 2969 00c7 0B       	 .uleb128 0xb
 2970 00c8 3B       	 .uleb128 0x3b
 2971 00c9 0B       	 .uleb128 0xb
 2972 00ca 01       	 .uleb128 0x1
 2973 00cb 13       	 .uleb128 0x13
 2974 00cc 00       	 .byte 0
 2975 00cd 00       	 .byte 0
 2976 00ce 10       	 .uleb128 0x10
 2977 00cf 0D       	 .uleb128 0xd
 2978 00d0 00       	 .byte 0
 2979 00d1 03       	 .uleb128 0x3
 2980 00d2 0E       	 .uleb128 0xe
 2981 00d3 49       	 .uleb128 0x49
 2982 00d4 13       	 .uleb128 0x13
 2983 00d5 38       	 .uleb128 0x38
 2984 00d6 0B       	 .uleb128 0xb
 2985 00d7 34       	 .uleb128 0x34
 2986 00d8 19       	 .uleb128 0x19
 2987 00d9 00       	 .byte 0
 2988 00da 00       	 .byte 0
 2989 00db 11       	 .uleb128 0x11
 2990 00dc 0F       	 .uleb128 0xf
 2991 00dd 00       	 .byte 0
 2992 00de 0B       	 .uleb128 0xb
 2993 00df 0B       	 .uleb128 0xb
 2994 00e0 49       	 .uleb128 0x49
 2995 00e1 13       	 .uleb128 0x13
 2996 00e2 00       	 .byte 0
 2997 00e3 00       	 .byte 0
 2998 00e4 12       	 .uleb128 0x12
 2999 00e5 15       	 .uleb128 0x15
ARM GAS   			page 63


 3000 00e6 00       	 .byte 0
 3001 00e7 00       	 .byte 0
 3002 00e8 00       	 .byte 0
 3003 00e9 13       	 .uleb128 0x13
 3004 00ea 26       	 .uleb128 0x26
 3005 00eb 00       	 .byte 0
 3006 00ec 49       	 .uleb128 0x49
 3007 00ed 13       	 .uleb128 0x13
 3008 00ee 00       	 .byte 0
 3009 00ef 00       	 .byte 0
 3010 00f0 14       	 .uleb128 0x14
 3011 00f1 13       	 .uleb128 0x13
 3012 00f2 01       	 .byte 0x1
 3013 00f3 0B       	 .uleb128 0xb
 3014 00f4 0B       	 .uleb128 0xb
 3015 00f5 3A       	 .uleb128 0x3a
 3016 00f6 0B       	 .uleb128 0xb
 3017 00f7 3B       	 .uleb128 0x3b
 3018 00f8 0B       	 .uleb128 0xb
 3019 00f9 39       	 .uleb128 0x39
 3020 00fa 0B       	 .uleb128 0xb
 3021 00fb 6E       	 .uleb128 0x6e
 3022 00fc 0E       	 .uleb128 0xe
 3023 00fd 01       	 .uleb128 0x1
 3024 00fe 13       	 .uleb128 0x13
 3025 00ff 00       	 .byte 0
 3026 0100 00       	 .byte 0
 3027 0101 15       	 .uleb128 0x15
 3028 0102 0D       	 .uleb128 0xd
 3029 0103 00       	 .byte 0
 3030 0104 03       	 .uleb128 0x3
 3031 0105 0E       	 .uleb128 0xe
 3032 0106 3A       	 .uleb128 0x3a
 3033 0107 0B       	 .uleb128 0xb
 3034 0108 3B       	 .uleb128 0x3b
 3035 0109 0B       	 .uleb128 0xb
 3036 010a 39       	 .uleb128 0x39
 3037 010b 0B       	 .uleb128 0xb
 3038 010c 49       	 .uleb128 0x49
 3039 010d 13       	 .uleb128 0x13
 3040 010e 38       	 .uleb128 0x38
 3041 010f 0B       	 .uleb128 0xb
 3042 0110 00       	 .byte 0
 3043 0111 00       	 .byte 0
 3044 0112 16       	 .uleb128 0x16
 3045 0113 0D       	 .uleb128 0xd
 3046 0114 00       	 .byte 0
 3047 0115 03       	 .uleb128 0x3
 3048 0116 08       	 .uleb128 0x8
 3049 0117 3A       	 .uleb128 0x3a
 3050 0118 0B       	 .uleb128 0xb
 3051 0119 3B       	 .uleb128 0x3b
 3052 011a 0B       	 .uleb128 0xb
 3053 011b 39       	 .uleb128 0x39
 3054 011c 0B       	 .uleb128 0xb
 3055 011d 49       	 .uleb128 0x49
 3056 011e 13       	 .uleb128 0x13
ARM GAS   			page 64


 3057 011f 38       	 .uleb128 0x38
 3058 0120 0B       	 .uleb128 0xb
 3059 0121 00       	 .byte 0
 3060 0122 00       	 .byte 0
 3061 0123 17       	 .uleb128 0x17
 3062 0124 15       	 .uleb128 0x15
 3063 0125 01       	 .byte 0x1
 3064 0126 49       	 .uleb128 0x49
 3065 0127 13       	 .uleb128 0x13
 3066 0128 01       	 .uleb128 0x1
 3067 0129 13       	 .uleb128 0x13
 3068 012a 00       	 .byte 0
 3069 012b 00       	 .byte 0
 3070 012c 18       	 .uleb128 0x18
 3071 012d 26       	 .uleb128 0x26
 3072 012e 00       	 .byte 0
 3073 012f 00       	 .byte 0
 3074 0130 00       	 .byte 0
 3075 0131 19       	 .uleb128 0x19
 3076 0132 2E       	 .uleb128 0x2e
 3077 0133 01       	 .byte 0x1
 3078 0134 3F       	 .uleb128 0x3f
 3079 0135 19       	 .uleb128 0x19
 3080 0136 03       	 .uleb128 0x3
 3081 0137 0E       	 .uleb128 0xe
 3082 0138 3A       	 .uleb128 0x3a
 3083 0139 0B       	 .uleb128 0xb
 3084 013a 3B       	 .uleb128 0x3b
 3085 013b 0B       	 .uleb128 0xb
 3086 013c 39       	 .uleb128 0x39
 3087 013d 0B       	 .uleb128 0xb
 3088 013e 49       	 .uleb128 0x49
 3089 013f 13       	 .uleb128 0x13
 3090 0140 3C       	 .uleb128 0x3c
 3091 0141 19       	 .uleb128 0x19
 3092 0142 01       	 .uleb128 0x1
 3093 0143 13       	 .uleb128 0x13
 3094 0144 00       	 .byte 0
 3095 0145 00       	 .byte 0
 3096 0146 1A       	 .uleb128 0x1a
 3097 0147 2E       	 .uleb128 0x2e
 3098 0148 01       	 .byte 0x1
 3099 0149 3F       	 .uleb128 0x3f
 3100 014a 19       	 .uleb128 0x19
 3101 014b 03       	 .uleb128 0x3
 3102 014c 08       	 .uleb128 0x8
 3103 014d 3A       	 .uleb128 0x3a
 3104 014e 0B       	 .uleb128 0xb
 3105 014f 3B       	 .uleb128 0x3b
 3106 0150 0B       	 .uleb128 0xb
 3107 0151 39       	 .uleb128 0x39
 3108 0152 0B       	 .uleb128 0xb
 3109 0153 49       	 .uleb128 0x49
 3110 0154 13       	 .uleb128 0x13
 3111 0155 3C       	 .uleb128 0x3c
 3112 0156 19       	 .uleb128 0x19
 3113 0157 01       	 .uleb128 0x1
ARM GAS   			page 65


 3114 0158 13       	 .uleb128 0x13
 3115 0159 00       	 .byte 0
 3116 015a 00       	 .byte 0
 3117 015b 1B       	 .uleb128 0x1b
 3118 015c 2E       	 .uleb128 0x2e
 3119 015d 01       	 .byte 0x1
 3120 015e 3F       	 .uleb128 0x3f
 3121 015f 19       	 .uleb128 0x19
 3122 0160 03       	 .uleb128 0x3
 3123 0161 0E       	 .uleb128 0xe
 3124 0162 3A       	 .uleb128 0x3a
 3125 0163 0B       	 .uleb128 0xb
 3126 0164 3B       	 .uleb128 0x3b
 3127 0165 0B       	 .uleb128 0xb
 3128 0166 39       	 .uleb128 0x39
 3129 0167 0B       	 .uleb128 0xb
 3130 0168 3C       	 .uleb128 0x3c
 3131 0169 19       	 .uleb128 0x19
 3132 016a 01       	 .uleb128 0x1
 3133 016b 13       	 .uleb128 0x13
 3134 016c 00       	 .byte 0
 3135 016d 00       	 .byte 0
 3136 016e 1C       	 .uleb128 0x1c
 3137 016f 2E       	 .uleb128 0x2e
 3138 0170 00       	 .byte 0
 3139 0171 3F       	 .uleb128 0x3f
 3140 0172 19       	 .uleb128 0x19
 3141 0173 03       	 .uleb128 0x3
 3142 0174 0E       	 .uleb128 0xe
 3143 0175 3A       	 .uleb128 0x3a
 3144 0176 0B       	 .uleb128 0xb
 3145 0177 3B       	 .uleb128 0x3b
 3146 0178 0B       	 .uleb128 0xb
 3147 0179 39       	 .uleb128 0x39
 3148 017a 0B       	 .uleb128 0xb
 3149 017b 49       	 .uleb128 0x49
 3150 017c 13       	 .uleb128 0x13
 3151 017d 3C       	 .uleb128 0x3c
 3152 017e 19       	 .uleb128 0x19
 3153 017f 00       	 .byte 0
 3154 0180 00       	 .byte 0
 3155 0181 1D       	 .uleb128 0x1d
 3156 0182 2E       	 .uleb128 0x2e
 3157 0183 01       	 .byte 0x1
 3158 0184 3F       	 .uleb128 0x3f
 3159 0185 19       	 .uleb128 0x19
 3160 0186 03       	 .uleb128 0x3
 3161 0187 0E       	 .uleb128 0xe
 3162 0188 3A       	 .uleb128 0x3a
 3163 0189 0B       	 .uleb128 0xb
 3164 018a 3B       	 .uleb128 0x3b
 3165 018b 05       	 .uleb128 0x5
 3166 018c 39       	 .uleb128 0x39
 3167 018d 0B       	 .uleb128 0xb
 3168 018e 49       	 .uleb128 0x49
 3169 018f 13       	 .uleb128 0x13
 3170 0190 3C       	 .uleb128 0x3c
ARM GAS   			page 66


 3171 0191 19       	 .uleb128 0x19
 3172 0192 01       	 .uleb128 0x1
 3173 0193 13       	 .uleb128 0x13
 3174 0194 00       	 .byte 0
 3175 0195 00       	 .byte 0
 3176 0196 1E       	 .uleb128 0x1e
 3177 0197 2E       	 .uleb128 0x2e
 3178 0198 01       	 .byte 0x1
 3179 0199 3F       	 .uleb128 0x3f
 3180 019a 19       	 .uleb128 0x19
 3181 019b 03       	 .uleb128 0x3
 3182 019c 0E       	 .uleb128 0xe
 3183 019d 3A       	 .uleb128 0x3a
 3184 019e 0B       	 .uleb128 0xb
 3185 019f 3B       	 .uleb128 0x3b
 3186 01a0 05       	 .uleb128 0x5
 3187 01a1 39       	 .uleb128 0x39
 3188 01a2 0B       	 .uleb128 0xb
 3189 01a3 49       	 .uleb128 0x49
 3190 01a4 13       	 .uleb128 0x13
 3191 01a5 11       	 .uleb128 0x11
 3192 01a6 01       	 .uleb128 0x1
 3193 01a7 12       	 .uleb128 0x12
 3194 01a8 06       	 .uleb128 0x6
 3195 01a9 40       	 .uleb128 0x40
 3196 01aa 18       	 .uleb128 0x18
 3197 01ab 9642     	 .uleb128 0x2116
 3198 01ad 19       	 .uleb128 0x19
 3199 01ae 01       	 .uleb128 0x1
 3200 01af 13       	 .uleb128 0x13
 3201 01b0 00       	 .byte 0
 3202 01b1 00       	 .byte 0
 3203 01b2 1F       	 .uleb128 0x1f
 3204 01b3 05       	 .uleb128 0x5
 3205 01b4 00       	 .byte 0
 3206 01b5 03       	 .uleb128 0x3
 3207 01b6 0E       	 .uleb128 0xe
 3208 01b7 3A       	 .uleb128 0x3a
 3209 01b8 0B       	 .uleb128 0xb
 3210 01b9 3B       	 .uleb128 0x3b
 3211 01ba 05       	 .uleb128 0x5
 3212 01bb 39       	 .uleb128 0x39
 3213 01bc 0B       	 .uleb128 0xb
 3214 01bd 49       	 .uleb128 0x49
 3215 01be 13       	 .uleb128 0x13
 3216 01bf 02       	 .uleb128 0x2
 3217 01c0 18       	 .uleb128 0x18
 3218 01c1 00       	 .byte 0
 3219 01c2 00       	 .byte 0
 3220 01c3 20       	 .uleb128 0x20
 3221 01c4 18       	 .uleb128 0x18
 3222 01c5 00       	 .byte 0
 3223 01c6 00       	 .byte 0
 3224 01c7 00       	 .byte 0
 3225 01c8 21       	 .uleb128 0x21
 3226 01c9 34       	 .uleb128 0x34
 3227 01ca 00       	 .byte 0
ARM GAS   			page 67


 3228 01cb 03       	 .uleb128 0x3
 3229 01cc 08       	 .uleb128 0x8
 3230 01cd 3A       	 .uleb128 0x3a
 3231 01ce 0B       	 .uleb128 0xb
 3232 01cf 3B       	 .uleb128 0x3b
 3233 01d0 05       	 .uleb128 0x5
 3234 01d1 39       	 .uleb128 0x39
 3235 01d2 0B       	 .uleb128 0xb
 3236 01d3 49       	 .uleb128 0x49
 3237 01d4 13       	 .uleb128 0x13
 3238 01d5 02       	 .uleb128 0x2
 3239 01d6 18       	 .uleb128 0x18
 3240 01d7 00       	 .byte 0
 3241 01d8 00       	 .byte 0
 3242 01d9 22       	 .uleb128 0x22
 3243 01da 34       	 .uleb128 0x34
 3244 01db 00       	 .byte 0
 3245 01dc 03       	 .uleb128 0x3
 3246 01dd 0E       	 .uleb128 0xe
 3247 01de 3A       	 .uleb128 0x3a
 3248 01df 0B       	 .uleb128 0xb
 3249 01e0 3B       	 .uleb128 0x3b
 3250 01e1 05       	 .uleb128 0x5
 3251 01e2 39       	 .uleb128 0x39
 3252 01e3 0B       	 .uleb128 0xb
 3253 01e4 49       	 .uleb128 0x49
 3254 01e5 13       	 .uleb128 0x13
 3255 01e6 02       	 .uleb128 0x2
 3256 01e7 18       	 .uleb128 0x18
 3257 01e8 00       	 .byte 0
 3258 01e9 00       	 .byte 0
 3259 01ea 23       	 .uleb128 0x23
 3260 01eb 0B       	 .uleb128 0xb
 3261 01ec 01       	 .byte 0x1
 3262 01ed 11       	 .uleb128 0x11
 3263 01ee 01       	 .uleb128 0x1
 3264 01ef 12       	 .uleb128 0x12
 3265 01f0 06       	 .uleb128 0x6
 3266 01f1 01       	 .uleb128 0x1
 3267 01f2 13       	 .uleb128 0x13
 3268 01f3 00       	 .byte 0
 3269 01f4 00       	 .byte 0
 3270 01f5 24       	 .uleb128 0x24
 3271 01f6 0B       	 .uleb128 0xb
 3272 01f7 01       	 .byte 0x1
 3273 01f8 11       	 .uleb128 0x11
 3274 01f9 01       	 .uleb128 0x1
 3275 01fa 12       	 .uleb128 0x12
 3276 01fb 06       	 .uleb128 0x6
 3277 01fc 00       	 .byte 0
 3278 01fd 00       	 .byte 0
 3279 01fe 25       	 .uleb128 0x25
 3280 01ff 01       	 .uleb128 0x1
 3281 0200 01       	 .byte 0x1
 3282 0201 49       	 .uleb128 0x49
 3283 0202 13       	 .uleb128 0x13
 3284 0203 01       	 .uleb128 0x1
ARM GAS   			page 68


 3285 0204 13       	 .uleb128 0x13
 3286 0205 00       	 .byte 0
 3287 0206 00       	 .byte 0
 3288 0207 26       	 .uleb128 0x26
 3289 0208 21       	 .uleb128 0x21
 3290 0209 00       	 .byte 0
 3291 020a 49       	 .uleb128 0x49
 3292 020b 13       	 .uleb128 0x13
 3293 020c 2F       	 .uleb128 0x2f
 3294 020d 0B       	 .uleb128 0xb
 3295 020e 00       	 .byte 0
 3296 020f 00       	 .byte 0
 3297 0210 27       	 .uleb128 0x27
 3298 0211 2E       	 .uleb128 0x2e
 3299 0212 01       	 .byte 0x1
 3300 0213 03       	 .uleb128 0x3
 3301 0214 0E       	 .uleb128 0xe
 3302 0215 3A       	 .uleb128 0x3a
 3303 0216 0B       	 .uleb128 0xb
 3304 0217 3B       	 .uleb128 0x3b
 3305 0218 0B       	 .uleb128 0xb
 3306 0219 39       	 .uleb128 0x39
 3307 021a 0B       	 .uleb128 0xb
 3308 021b 11       	 .uleb128 0x11
 3309 021c 01       	 .uleb128 0x1
 3310 021d 12       	 .uleb128 0x12
 3311 021e 06       	 .uleb128 0x6
 3312 021f 40       	 .uleb128 0x40
 3313 0220 18       	 .uleb128 0x18
 3314 0221 9642     	 .uleb128 0x2116
 3315 0223 19       	 .uleb128 0x19
 3316 0224 01       	 .uleb128 0x1
 3317 0225 13       	 .uleb128 0x13
 3318 0226 00       	 .byte 0
 3319 0227 00       	 .byte 0
 3320 0228 28       	 .uleb128 0x28
 3321 0229 05       	 .uleb128 0x5
 3322 022a 00       	 .byte 0
 3323 022b 03       	 .uleb128 0x3
 3324 022c 0E       	 .uleb128 0xe
 3325 022d 3A       	 .uleb128 0x3a
 3326 022e 0B       	 .uleb128 0xb
 3327 022f 3B       	 .uleb128 0x3b
 3328 0230 0B       	 .uleb128 0xb
 3329 0231 39       	 .uleb128 0x39
 3330 0232 0B       	 .uleb128 0xb
 3331 0233 49       	 .uleb128 0x49
 3332 0234 13       	 .uleb128 0x13
 3333 0235 02       	 .uleb128 0x2
 3334 0236 18       	 .uleb128 0x18
 3335 0237 00       	 .byte 0
 3336 0238 00       	 .byte 0
 3337 0239 29       	 .uleb128 0x29
 3338 023a 05       	 .uleb128 0x5
 3339 023b 00       	 .byte 0
 3340 023c 03       	 .uleb128 0x3
 3341 023d 08       	 .uleb128 0x8
ARM GAS   			page 69


 3342 023e 3A       	 .uleb128 0x3a
 3343 023f 0B       	 .uleb128 0xb
 3344 0240 3B       	 .uleb128 0x3b
 3345 0241 0B       	 .uleb128 0xb
 3346 0242 39       	 .uleb128 0x39
 3347 0243 0B       	 .uleb128 0xb
 3348 0244 49       	 .uleb128 0x49
 3349 0245 13       	 .uleb128 0x13
 3350 0246 02       	 .uleb128 0x2
 3351 0247 18       	 .uleb128 0x18
 3352 0248 00       	 .byte 0
 3353 0249 00       	 .byte 0
 3354 024a 2A       	 .uleb128 0x2a
 3355 024b 34       	 .uleb128 0x34
 3356 024c 00       	 .byte 0
 3357 024d 03       	 .uleb128 0x3
 3358 024e 0E       	 .uleb128 0xe
 3359 024f 3A       	 .uleb128 0x3a
 3360 0250 0B       	 .uleb128 0xb
 3361 0251 3B       	 .uleb128 0x3b
 3362 0252 0B       	 .uleb128 0xb
 3363 0253 39       	 .uleb128 0x39
 3364 0254 0B       	 .uleb128 0xb
 3365 0255 49       	 .uleb128 0x49
 3366 0256 13       	 .uleb128 0x13
 3367 0257 02       	 .uleb128 0x2
 3368 0258 18       	 .uleb128 0x18
 3369 0259 00       	 .byte 0
 3370 025a 00       	 .byte 0
 3371 025b 2B       	 .uleb128 0x2b
 3372 025c 34       	 .uleb128 0x34
 3373 025d 00       	 .byte 0
 3374 025e 03       	 .uleb128 0x3
 3375 025f 08       	 .uleb128 0x8
 3376 0260 3A       	 .uleb128 0x3a
 3377 0261 0B       	 .uleb128 0xb
 3378 0262 3B       	 .uleb128 0x3b
 3379 0263 0B       	 .uleb128 0xb
 3380 0264 39       	 .uleb128 0x39
 3381 0265 0B       	 .uleb128 0xb
 3382 0266 49       	 .uleb128 0x49
 3383 0267 13       	 .uleb128 0x13
 3384 0268 02       	 .uleb128 0x2
 3385 0269 18       	 .uleb128 0x18
 3386 026a 00       	 .byte 0
 3387 026b 00       	 .byte 0
 3388 026c 2C       	 .uleb128 0x2c
 3389 026d 2E       	 .uleb128 0x2e
 3390 026e 01       	 .byte 0x1
 3391 026f 03       	 .uleb128 0x3
 3392 0270 0E       	 .uleb128 0xe
 3393 0271 3A       	 .uleb128 0x3a
 3394 0272 0B       	 .uleb128 0xb
 3395 0273 3B       	 .uleb128 0x3b
 3396 0274 0B       	 .uleb128 0xb
 3397 0275 39       	 .uleb128 0x39
 3398 0276 0B       	 .uleb128 0xb
ARM GAS   			page 70


 3399 0277 11       	 .uleb128 0x11
 3400 0278 01       	 .uleb128 0x1
 3401 0279 12       	 .uleb128 0x12
 3402 027a 06       	 .uleb128 0x6
 3403 027b 40       	 .uleb128 0x40
 3404 027c 18       	 .uleb128 0x18
 3405 027d 9642     	 .uleb128 0x2116
 3406 027f 19       	 .uleb128 0x19
 3407 0280 00       	 .byte 0
 3408 0281 00       	 .byte 0
 3409 0282 00       	 .byte 0
 3410              	 .section .debug_aranges,"",%progbits
 3411 0000 3C000000 	 .4byte 0x3c
 3412 0004 0200     	 .2byte 0x2
 3413 0006 00000000 	 .4byte .Ldebug_info0
 3414 000a 04       	 .byte 0x4
 3415 000b 00       	 .byte 0
 3416 000c 0000     	 .2byte 0
 3417 000e 0000     	 .2byte 0
 3418 0010 00000000 	 .4byte .LFB7
 3419 0014 86000000 	 .4byte .LFE7-.LFB7
 3420 0018 00000000 	 .4byte .LFB8
 3421 001c 54010000 	 .4byte .LFE8-.LFB8
 3422 0020 00000000 	 .4byte .LFB9
 3423 0024 4A010000 	 .4byte .LFE9-.LFB9
 3424 0028 00000000 	 .4byte .LFB10
 3425 002c AC030000 	 .4byte .LFE10-.LFB10
 3426 0030 00000000 	 .4byte .LFB11
 3427 0034 32000000 	 .4byte .LFE11-.LFB11
 3428 0038 00000000 	 .4byte 0
 3429 003c 00000000 	 .4byte 0
 3430              	 .section .debug_ranges,"",%progbits
 3431              	.Ldebug_ranges0:
 3432 0000 00000000 	 .4byte .LFB7
 3433 0004 86000000 	 .4byte .LFE7
 3434 0008 00000000 	 .4byte .LFB8
 3435 000c 54010000 	 .4byte .LFE8
 3436 0010 00000000 	 .4byte .LFB9
 3437 0014 4A010000 	 .4byte .LFE9
 3438 0018 00000000 	 .4byte .LFB10
 3439 001c AC030000 	 .4byte .LFE10
 3440 0020 00000000 	 .4byte .LFB11
 3441 0024 32000000 	 .4byte .LFE11
 3442 0028 00000000 	 .4byte 0
 3443 002c 00000000 	 .4byte 0
 3444              	 .section .debug_line,"",%progbits
 3445              	.Ldebug_line0:
 3446 0000 FA050000 	 .section .debug_str,"MS",%progbits,1
 3446      03006702 
 3446      00000201 
 3446      FB0E0D00 
 3446      01010101 
 3447              	.LASF75:
 3448 0000 42617365 	 .ascii "Base\000"
 3448      00
 3449              	.LASF49:
 3450 0005 61746F6C 	 .ascii "atoll\000"
ARM GAS   			page 71


 3450      6C00
 3451              	.LASF67:
 3452 000b 53454747 	 .ascii "SEGGER_RTT_vprintf\000"
 3452      45525F52 
 3452      54545F76 
 3452      7072696E 
 3452      746600
 3453              	.LASF19:
 3454 001e 71756F74 	 .ascii "quot\000"
 3454      00
 3455              	.LASF20:
 3456 0023 73697A65 	 .ascii "size_t\000"
 3456      5F7400
 3457              	.LASF5:
 3458 002a 5F5F6378 	 .ascii "__cxx11\000"
 3458      78313100 
 3459              	.LASF6:
 3460 0032 5F5A5374 	 .ascii "_ZSt3divll\000"
 3460      33646976 
 3460      6C6C00
 3461              	.LASF81:
 3462 003d 44696769 	 .ascii "Digit\000"
 3462      7400
 3463              	.LASF71:
 3464 0043 466F726D 	 .ascii "FormatFlags\000"
 3464      6174466C 
 3464      61677300 
 3465              	.LASF56:
 3466 004f 76615F6C 	 .ascii "va_list\000"
 3466      69737400 
 3467              	.LASF46:
 3468 0057 77637374 	 .ascii "wcstombs\000"
 3468      6F6D6273 
 3468      00
 3469              	.LASF25:
 3470 0060 376C6C64 	 .ascii "7lldiv_t\000"
 3470      69765F74 
 3470      00
 3471              	.LASF17:
 3472 0069 6C6F6E67 	 .ascii "long long unsigned int\000"
 3472      206C6F6E 
 3472      6720756E 
 3472      7369676E 
 3472      65642069 
 3473              	.LASF28:
 3474 0080 61746578 	 .ascii "atexit\000"
 3474      697400
 3475              	.LASF21:
 3476 0087 6469765F 	 .ascii "div_t\000"
 3476      7400
 3477              	.LASF9:
 3478 008d 6C6F6E67 	 .ascii "long long int\000"
 3478      206C6F6E 
 3478      6720696E 
 3478      7400
 3479              	.LASF11:
 3480 009b 7369676E 	 .ascii "signed char\000"
ARM GAS   			page 72


 3480      65642063 
 3480      68617200 
 3481              	.LASF36:
 3482 00a7 6D626C65 	 .ascii "mblen\000"
 3482      6E00
 3483              	.LASF66:
 3484 00ad 53454747 	 .ascii "SEGGER_RTT_printf\000"
 3484      45525F52 
 3484      54545F70 
 3484      72696E74 
 3484      6600
 3485              	.LASF42:
 3486 00bf 73747274 	 .ascii "strtod\000"
 3486      6F6400
 3487              	.LASF52:
 3488 00c6 73747274 	 .ascii "strtof\000"
 3488      6F6600
 3489              	.LASF15:
 3490 00cd 6C6F6E67 	 .ascii "long int\000"
 3490      20696E74 
 3490      00
 3491              	.LASF43:
 3492 00d6 73747274 	 .ascii "strtol\000"
 3492      6F6C00
 3493              	.LASF87:
 3494 00dd 5F5F7661 	 .ascii "__va_list\000"
 3494      5F6C6973 
 3494      7400
 3495              	.LASF24:
 3496 00e7 6C646976 	 .ascii "ldiv_t\000"
 3496      5F7400
 3497              	.LASF30:
 3498 00ee 646F7562 	 .ascii "double\000"
 3498      6C6500
 3499              	.LASF74:
 3500 00f5 70427566 	 .ascii "pBufferDesc\000"
 3500      66657244 
 3500      65736300 
 3501              	.LASF69:
 3502 0101 42756666 	 .ascii "BufferDesc\000"
 3502      65724465 
 3502      736300
 3503              	.LASF39:
 3504 010c 6D62746F 	 .ascii "mbtowc\000"
 3504      776300
 3505              	.LASF40:
 3506 0113 71736F72 	 .ascii "qsort\000"
 3506      7400
 3507              	.LASF8:
 3508 0119 756E7369 	 .ascii "unsigned int\000"
 3508      676E6564 
 3508      20696E74 
 3508      00
 3509              	.LASF78:
 3510 0126 5F507269 	 .ascii "_PrintInt\000"
 3510      6E74496E 
 3510      7400
ARM GAS   			page 73


 3511              	.LASF16:
 3512 0130 6C6F6E67 	 .ascii "long unsigned int\000"
 3512      20756E73 
 3512      69676E65 
 3512      6420696E 
 3512      7400
 3513              	.LASF41:
 3514 0142 7372616E 	 .ascii "srand\000"
 3514      6400
 3515              	.LASF58:
 3516 0148 70427566 	 .ascii "pBuffer\000"
 3516      66657200 
 3517              	.LASF89:
 3518 0150 72616E64 	 .ascii "rand\000"
 3518      00
 3519              	.LASF22:
 3520 0155 35646976 	 .ascii "5div_t\000"
 3520      5F7400
 3521              	.LASF14:
 3522 015c 73686F72 	 .ascii "short unsigned int\000"
 3522      7420756E 
 3522      7369676E 
 3522      65642069 
 3522      6E7400
 3523              	.LASF33:
 3524 016f 62736561 	 .ascii "bsearch\000"
 3524      72636800 
 3525              	.LASF48:
 3526 0177 6C6C6469 	 .ascii "lldiv\000"
 3526      7600
 3527              	.LASF63:
 3528 017d 42756666 	 .ascii "BufferIndex\000"
 3528      6572496E 
 3528      64657800 
 3529              	.LASF38:
 3530 0189 77636861 	 .ascii "wchar_t\000"
 3530      725F7400 
 3531              	.LASF86:
 3532 0191 6465636C 	 .ascii "decltype(nullptr)\000"
 3532      74797065 
 3532      286E756C 
 3532      6C707472 
 3532      2900
 3533              	.LASF72:
 3534 01a3 4669656C 	 .ascii "FieldWidth\000"
 3534      64576964 
 3534      746800
 3535              	.LASF34:
 3536 01ae 67657465 	 .ascii "getenv\000"
 3536      6E7600
 3537              	.LASF62:
 3538 01b5 53454747 	 .ascii "SEGGER_RTT_PRINTF_DESC\000"
 3538      45525F52 
 3538      54545F50 
 3538      52494E54 
 3538      465F4445 
 3539              	.LASF77:
ARM GAS   			page 74


 3540 01cc 4E756D62 	 .ascii "Number\000"
 3540      657200
 3541              	.LASF10:
 3542 01d3 6C6F6E67 	 .ascii "long double\000"
 3542      20646F75 
 3542      626C6500 
 3543              	.LASF83:
 3544 01df 433A5C55 	 .ascii "C:\\Users\\niels\\Documents\\Elektrotechniek\\Jaar "
 3544      73657273 
 3544      5C6E6965 
 3544      6C735C44 
 3544      6F63756D 
 3545 020d 325C4543 	 .ascii "2\\ECS\\ECSL\\software\\STM32\\STM32Basis\\Segger\\"
 3545      535C4543 
 3545      534C5C73 
 3545      6F667477 
 3545      6172655C 
 3546 0239 53656767 	 .ascii "Segger_RTT\\RTT\\SEGGER_RTT_printf.c\000"
 3546      65725F52 
 3546      54545C52 
 3546      54545C53 
 3546      45474745 
 3547              	.LASF55:
 3548 025c 5F5F676E 	 .ascii "__gnuc_va_list\000"
 3548      75635F76 
 3548      615F6C69 
 3548      737400
 3549              	.LASF59:
 3550 026b 42756666 	 .ascii "BufferSize\000"
 3550      65725369 
 3550      7A6500
 3551              	.LASF35:
 3552 0276 6C646976 	 .ascii "ldiv\000"
 3552      00
 3553              	.LASF53:
 3554 027b 666C6F61 	 .ascii "float\000"
 3554      7400
 3555              	.LASF73:
 3556 0281 61634275 	 .ascii "acBuffer\000"
 3556      66666572 
 3556      00
 3557              	.LASF37:
 3558 028a 6D627374 	 .ascii "mbstowcs\000"
 3558      6F776373 
 3558      00
 3559              	.LASF60:
 3560 0293 52657475 	 .ascii "ReturnValue\000"
 3560      726E5661 
 3560      6C756500 
 3561              	.LASF68:
 3562 029f 70506172 	 .ascii "pParamList\000"
 3562      616D4C69 
 3562      737400
 3563              	.LASF29:
 3564 02aa 61746F66 	 .ascii "atof\000"
 3564      00
 3565              	.LASF65:
ARM GAS   			page 75


 3566 02af 50617261 	 .ascii "ParamList\000"
 3566      6D4C6973 
 3566      7400
 3567              	.LASF31:
 3568 02b9 61746F69 	 .ascii "atoi\000"
 3568      00
 3569              	.LASF80:
 3570 02be 5F615632 	 .ascii "_aV2C\000"
 3570      4300
 3571              	.LASF32:
 3572 02c4 61746F6C 	 .ascii "atol\000"
 3572      00
 3573              	.LASF12:
 3574 02c9 756E7369 	 .ascii "unsigned char\000"
 3574      676E6564 
 3574      20636861 
 3574      7200
 3575              	.LASF23:
 3576 02d7 366C6469 	 .ascii "6ldiv_t\000"
 3576      765F7400 
 3577              	.LASF26:
 3578 02df 6C6C6469 	 .ascii "lldiv_t\000"
 3578      765F7400 
 3579              	.LASF13:
 3580 02e7 73686F72 	 .ascii "short int\000"
 3580      7420696E 
 3580      7400
 3581              	.LASF54:
 3582 02f1 73747274 	 .ascii "strtold\000"
 3582      6F6C6400 
 3583              	.LASF57:
 3584 02f9 32325345 	 .ascii "22SEGGER_RTT_PRINTF_DESC\000"
 3584      47474552 
 3584      5F525454 
 3584      5F505249 
 3584      4E54465F 
 3585              	.LASF50:
 3586 0312 73747274 	 .ascii "strtoll\000"
 3586      6F6C6C00 
 3587              	.LASF70:
 3588 031a 4E756D44 	 .ascii "NumDigits\000"
 3588      69676974 
 3588      7300
 3589              	.LASF47:
 3590 0324 7763746F 	 .ascii "wctomb\000"
 3590      6D6200
 3591              	.LASF2:
 3592 032b 5F5A5374 	 .ascii "_ZSt3absd\000"
 3592      33616273 
 3592      6400
 3593              	.LASF0:
 3594 0335 5F5A5374 	 .ascii "_ZSt3abse\000"
 3594      33616273 
 3594      6500
 3595              	.LASF1:
 3596 033f 5F5A5374 	 .ascii "_ZSt3absf\000"
 3596      33616273 
ARM GAS   			page 76


 3596      6600
 3597              	.LASF7:
 3598 0349 5F5A4E39 	 .ascii "_ZN9__gnu_cxx3divExx\000"
 3598      5F5F676E 
 3598      755F6378 
 3598      78336469 
 3598      76457878 
 3599              	.LASF4:
 3600 035e 5F5A5374 	 .ascii "_ZSt3absl\000"
 3600      33616273 
 3600      6C00
 3601              	.LASF79:
 3602 0368 5F507269 	 .ascii "_PrintUnsigned\000"
 3602      6E74556E 
 3602      7369676E 
 3602      656400
 3603              	.LASF3:
 3604 0377 5F5A5374 	 .ascii "_ZSt3absx\000"
 3604      33616273 
 3604      7800
 3605              	.LASF82:
 3606 0381 474E5520 	 .ascii "GNU C++14 10.3.1 20210824 (release) -mcpu=cortex-m4"
 3606      432B2B31 
 3606      34203130 
 3606      2E332E31 
 3606      20323032 
 3607 03b4 202D6D66 	 .ascii " -mfloat-abi=hard -mfpu=fpv4-sp-d16 -mfix-cortex-m3"
 3607      6C6F6174 
 3607      2D616269 
 3607      3D686172 
 3607      64202D6D 
 3608 03e7 2D6C6472 	 .ascii "-ldrd -mthumb -mno-unaligned-access -mapcs-frame -m"
 3608      64202D6D 
 3608      7468756D 
 3608      62202D6D 
 3608      6E6F2D75 
 3609 041a 61726368 	 .ascii "arch=armv7e-m+fp -g -g -O0 -fsingle-precision-const"
 3609      3D61726D 
 3609      7637652D 
 3609      6D2B6670 
 3609      202D6720 
 3610 044d 616E7420 	 .ascii "ant -funsigned-char -ffunction-sections -fdata-sect"
 3610      2D66756E 
 3610      7369676E 
 3610      65642D63 
 3610      68617220 
 3611 0480 696F6E73 	 .ascii "ions\000"
 3611      00
 3612              	.LASF18:
 3613 0485 63686172 	 .ascii "char\000"
 3613      00
 3614              	.LASF51:
 3615 048a 73747274 	 .ascii "strtoull\000"
 3615      6F756C6C 
 3615      00
 3616              	.LASF64:
 3617 0493 73466F72 	 .ascii "sFormat\000"
ARM GAS   			page 77


 3617      6D617400 
 3618              	.LASF84:
 3619 049b 433A5C55 	 .ascii "C:\\Users\\niels\\DOCUME~1\\ELEKTR~1\\JAAR2~1\\ECS\\"
 3619      73657273 
 3619      5C6E6965 
 3619      6C735C44 
 3619      4F43554D 
 3620 04c8 4543534C 	 .ascii "ECSL\\software\\STM32\\PRACTI~1\\CLion\\Debug\\SEGG"
 3620      5C736F66 
 3620      74776172 
 3620      655C5354 
 3620      4D33325C 
 3621 04f5 45527E31 	 .ascii "ER~1\000"
 3621      00
 3622              	.LASF88:
 3623 04fa 5F5F6170 	 .ascii "__ap\000"
 3623      00
 3624              	.LASF90:
 3625 04ff 5F53746F 	 .ascii "_StoreChar\000"
 3625      72654368 
 3625      617200
 3626              	.LASF44:
 3627 050a 73747274 	 .ascii "strtoul\000"
 3627      6F756C00 
 3628              	.LASF61:
 3629 0512 52545442 	 .ascii "RTTBufferIndex\000"
 3629      75666665 
 3629      72496E64 
 3629      657800
 3630              	.LASF45:
 3631 0521 73797374 	 .ascii "system\000"
 3631      656D00
 3632              	.LASF27:
 3633 0528 5F5F636F 	 .ascii "__compar_fn_t\000"
 3633      6D706172 
 3633      5F666E5F 
 3633      7400
 3634              	.LASF76:
 3635 0536 57696474 	 .ascii "Width\000"
 3635      6800
 3636              	.LASF85:
 3637 053c 5F5F676E 	 .ascii "__gnu_cxx\000"
 3637      755F6378 
 3637      7800
 3638              	 .ident "GCC: (GNU Arm Embedded Toolchain 10.3-2021.10) 10.3.1 20210824 (release)"
