ARM GAS   			page 1


   1              	 .cpu cortex-m4
   2              	 .arch armv7e-m
   3              	 .fpu fpv4-sp-d16
   4              	 .eabi_attribute 27,1
   5              	 .eabi_attribute 28,1
   6              	 .eabi_attribute 20,1
   7              	 .eabi_attribute 21,1
   8              	 .eabi_attribute 23,3
   9              	 .eabi_attribute 24,1
  10              	 .eabi_attribute 25,1
  11              	 .eabi_attribute 26,1
  12              	 .eabi_attribute 30,6
  13              	 .eabi_attribute 34,0
  14              	 .eabi_attribute 18,4
  15              	 .file "SEGGER_RTT_printf.c"
  16              	 .text
  17              	.Ltext0:
  18              	 .cfi_sections .debug_frame
  19              	 .section .text._ZL10_StoreCharP22SEGGER_RTT_PRINTF_DESCc,"ax",%progbits
  20              	 .align 1
  21              	 .syntax unified
  22              	 .thumb
  23              	 .thumb_func
  24              	 .type _ZL10_StoreCharP22SEGGER_RTT_PRINTF_DESCc,%function
  25              	_ZL10_StoreCharP22SEGGER_RTT_PRINTF_DESCc:
  26              	 .fnstart
  27              	.LFB7:
  28              	 .file 1 "C:\\Users\\niels\\Documents\\Elektrotechniek\\Jaar 2\\ECS\\ECSL\\software\\STM32\\STM32Basis\\Segger\\Segger_RTT\\RTT\\SEGGER_RTT_printf.c"
   1:C:\Users\niels\Documents\Elektrotechniek\Jaar 2\ECS\ECSL\software\STM32\STM32Basis\Segger\Segger_RTT\RTT\SEGGER_RTT_printf.c **** /*********************************************************************
   2:C:\Users\niels\Documents\Elektrotechniek\Jaar 2\ECS\ECSL\software\STM32\STM32Basis\Segger\Segger_RTT\RTT\SEGGER_RTT_printf.c **** *                    SEGGER Microcontroller GmbH                     *
   3:C:\Users\niels\Documents\Elektrotechniek\Jaar 2\ECS\ECSL\software\STM32\STM32Basis\Segger\Segger_RTT\RTT\SEGGER_RTT_printf.c **** *                        The Embedded Experts                        *
   4:C:\Users\niels\Documents\Elektrotechniek\Jaar 2\ECS\ECSL\software\STM32\STM32Basis\Segger\Segger_RTT\RTT\SEGGER_RTT_printf.c **** **********************************************************************
   5:C:\Users\niels\Documents\Elektrotechniek\Jaar 2\ECS\ECSL\software\STM32\STM32Basis\Segger\Segger_RTT\RTT\SEGGER_RTT_printf.c **** *                                                                    *
   6:C:\Users\niels\Documents\Elektrotechniek\Jaar 2\ECS\ECSL\software\STM32\STM32Basis\Segger\Segger_RTT\RTT\SEGGER_RTT_printf.c **** *            (c) 1995 - 2018 SEGGER Microcontroller GmbH             *
   7:C:\Users\niels\Documents\Elektrotechniek\Jaar 2\ECS\ECSL\software\STM32\STM32Basis\Segger\Segger_RTT\RTT\SEGGER_RTT_printf.c **** *                                                                    *
   8:C:\Users\niels\Documents\Elektrotechniek\Jaar 2\ECS\ECSL\software\STM32\STM32Basis\Segger\Segger_RTT\RTT\SEGGER_RTT_printf.c **** *       www.segger.com     Support: support@segger.com               *
   9:C:\Users\niels\Documents\Elektrotechniek\Jaar 2\ECS\ECSL\software\STM32\STM32Basis\Segger\Segger_RTT\RTT\SEGGER_RTT_printf.c **** *                                                                    *
  10:C:\Users\niels\Documents\Elektrotechniek\Jaar 2\ECS\ECSL\software\STM32\STM32Basis\Segger\Segger_RTT\RTT\SEGGER_RTT_printf.c **** **********************************************************************
  11:C:\Users\niels\Documents\Elektrotechniek\Jaar 2\ECS\ECSL\software\STM32\STM32Basis\Segger\Segger_RTT\RTT\SEGGER_RTT_printf.c **** *                                                                    *
  12:C:\Users\niels\Documents\Elektrotechniek\Jaar 2\ECS\ECSL\software\STM32\STM32Basis\Segger\Segger_RTT\RTT\SEGGER_RTT_printf.c **** *       SEGGER RTT * Real Time Transfer for embedded targets         *
  13:C:\Users\niels\Documents\Elektrotechniek\Jaar 2\ECS\ECSL\software\STM32\STM32Basis\Segger\Segger_RTT\RTT\SEGGER_RTT_printf.c **** *                                                                    *
  14:C:\Users\niels\Documents\Elektrotechniek\Jaar 2\ECS\ECSL\software\STM32\STM32Basis\Segger\Segger_RTT\RTT\SEGGER_RTT_printf.c **** **********************************************************************
  15:C:\Users\niels\Documents\Elektrotechniek\Jaar 2\ECS\ECSL\software\STM32\STM32Basis\Segger\Segger_RTT\RTT\SEGGER_RTT_printf.c **** *                                                                    *
  16:C:\Users\niels\Documents\Elektrotechniek\Jaar 2\ECS\ECSL\software\STM32\STM32Basis\Segger\Segger_RTT\RTT\SEGGER_RTT_printf.c **** * All rights reserved.                                               *
  17:C:\Users\niels\Documents\Elektrotechniek\Jaar 2\ECS\ECSL\software\STM32\STM32Basis\Segger\Segger_RTT\RTT\SEGGER_RTT_printf.c **** *                                                                    *
  18:C:\Users\niels\Documents\Elektrotechniek\Jaar 2\ECS\ECSL\software\STM32\STM32Basis\Segger\Segger_RTT\RTT\SEGGER_RTT_printf.c **** * SEGGER strongly recommends to not make any changes                 *
  19:C:\Users\niels\Documents\Elektrotechniek\Jaar 2\ECS\ECSL\software\STM32\STM32Basis\Segger\Segger_RTT\RTT\SEGGER_RTT_printf.c **** * to or modify the source code of this software in order to stay     *
  20:C:\Users\niels\Documents\Elektrotechniek\Jaar 2\ECS\ECSL\software\STM32\STM32Basis\Segger\Segger_RTT\RTT\SEGGER_RTT_printf.c **** * compatible with the RTT protocol and J-Link.                       *
  21:C:\Users\niels\Documents\Elektrotechniek\Jaar 2\ECS\ECSL\software\STM32\STM32Basis\Segger\Segger_RTT\RTT\SEGGER_RTT_printf.c **** *                                                                    *
  22:C:\Users\niels\Documents\Elektrotechniek\Jaar 2\ECS\ECSL\software\STM32\STM32Basis\Segger\Segger_RTT\RTT\SEGGER_RTT_printf.c **** * Redistribution and use in source and binary forms, with or         *
  23:C:\Users\niels\Documents\Elektrotechniek\Jaar 2\ECS\ECSL\software\STM32\STM32Basis\Segger\Segger_RTT\RTT\SEGGER_RTT_printf.c **** * without modification, are permitted provided that the following    *
  24:C:\Users\niels\Documents\Elektrotechniek\Jaar 2\ECS\ECSL\software\STM32\STM32Basis\Segger\Segger_RTT\RTT\SEGGER_RTT_printf.c **** * conditions are met:                                                *
  25:C:\Users\niels\Documents\Elektrotechniek\Jaar 2\ECS\ECSL\software\STM32\STM32Basis\Segger\Segger_RTT\RTT\SEGGER_RTT_printf.c **** *                                                                    *
  26:C:\Users\niels\Documents\Elektrotechniek\Jaar 2\ECS\ECSL\software\STM32\STM32Basis\Segger\Segger_RTT\RTT\SEGGER_RTT_printf.c **** * o Redistributions of source code must retain the above copyright   *
  27:C:\Users\niels\Documents\Elektrotechniek\Jaar 2\ECS\ECSL\software\STM32\STM32Basis\Segger\Segger_RTT\RTT\SEGGER_RTT_printf.c **** *   notice, this list of conditions and the following disclaimer.    *
  28:C:\Users\niels\Documents\Elektrotechniek\Jaar 2\ECS\ECSL\software\STM32\STM32Basis\Segger\Segger_RTT\RTT\SEGGER_RTT_printf.c **** *                                                                    *
  29:C:\Users\niels\Documents\Elektrotechniek\Jaar 2\ECS\ECSL\software\STM32\STM32Basis\Segger\Segger_RTT\RTT\SEGGER_RTT_printf.c **** * o Redistributions in binary form must reproduce the above          *
ARM GAS   			page 2


  30:C:\Users\niels\Documents\Elektrotechniek\Jaar 2\ECS\ECSL\software\STM32\STM32Basis\Segger\Segger_RTT\RTT\SEGGER_RTT_printf.c **** *   copyright notice, this list of conditions and the following      *
  31:C:\Users\niels\Documents\Elektrotechniek\Jaar 2\ECS\ECSL\software\STM32\STM32Basis\Segger\Segger_RTT\RTT\SEGGER_RTT_printf.c **** *   disclaimer in the documentation and/or other materials provided  *
  32:C:\Users\niels\Documents\Elektrotechniek\Jaar 2\ECS\ECSL\software\STM32\STM32Basis\Segger\Segger_RTT\RTT\SEGGER_RTT_printf.c **** *   with the distribution.                                           *
  33:C:\Users\niels\Documents\Elektrotechniek\Jaar 2\ECS\ECSL\software\STM32\STM32Basis\Segger\Segger_RTT\RTT\SEGGER_RTT_printf.c **** *                                                                    *
  34:C:\Users\niels\Documents\Elektrotechniek\Jaar 2\ECS\ECSL\software\STM32\STM32Basis\Segger\Segger_RTT\RTT\SEGGER_RTT_printf.c **** * o Neither the name of SEGGER Microcontroller GmbH         *
  35:C:\Users\niels\Documents\Elektrotechniek\Jaar 2\ECS\ECSL\software\STM32\STM32Basis\Segger\Segger_RTT\RTT\SEGGER_RTT_printf.c **** *   nor the names of its contributors may be used to endorse or      *
  36:C:\Users\niels\Documents\Elektrotechniek\Jaar 2\ECS\ECSL\software\STM32\STM32Basis\Segger\Segger_RTT\RTT\SEGGER_RTT_printf.c **** *   promote products derived from this software without specific     *
  37:C:\Users\niels\Documents\Elektrotechniek\Jaar 2\ECS\ECSL\software\STM32\STM32Basis\Segger\Segger_RTT\RTT\SEGGER_RTT_printf.c **** *   prior written permission.                                        *
  38:C:\Users\niels\Documents\Elektrotechniek\Jaar 2\ECS\ECSL\software\STM32\STM32Basis\Segger\Segger_RTT\RTT\SEGGER_RTT_printf.c **** *                                                                    *
  39:C:\Users\niels\Documents\Elektrotechniek\Jaar 2\ECS\ECSL\software\STM32\STM32Basis\Segger\Segger_RTT\RTT\SEGGER_RTT_printf.c **** * THIS SOFTWARE IS PROVIDED BY THE COPYRIGHT HOLDERS AND             *
  40:C:\Users\niels\Documents\Elektrotechniek\Jaar 2\ECS\ECSL\software\STM32\STM32Basis\Segger\Segger_RTT\RTT\SEGGER_RTT_printf.c **** * CONTRIBUTORS "AS IS" AND ANY EXPRESS OR IMPLIED WARRANTIES,        *
  41:C:\Users\niels\Documents\Elektrotechniek\Jaar 2\ECS\ECSL\software\STM32\STM32Basis\Segger\Segger_RTT\RTT\SEGGER_RTT_printf.c **** * INCLUDING, BUT NOT LIMITED TO, THE IMPLIED WARRANTIES OF           *
  42:C:\Users\niels\Documents\Elektrotechniek\Jaar 2\ECS\ECSL\software\STM32\STM32Basis\Segger\Segger_RTT\RTT\SEGGER_RTT_printf.c **** * MERCHANTABILITY AND FITNESS FOR A PARTICULAR PURPOSE ARE           *
  43:C:\Users\niels\Documents\Elektrotechniek\Jaar 2\ECS\ECSL\software\STM32\STM32Basis\Segger\Segger_RTT\RTT\SEGGER_RTT_printf.c **** * DISCLAIMED. IN NO EVENT SHALL SEGGER Microcontroller BE LIABLE FOR *
  44:C:\Users\niels\Documents\Elektrotechniek\Jaar 2\ECS\ECSL\software\STM32\STM32Basis\Segger\Segger_RTT\RTT\SEGGER_RTT_printf.c **** * ANY DIRECT, INDIRECT, INCIDENTAL, SPECIAL, EXEMPLARY, OR           *
  45:C:\Users\niels\Documents\Elektrotechniek\Jaar 2\ECS\ECSL\software\STM32\STM32Basis\Segger\Segger_RTT\RTT\SEGGER_RTT_printf.c **** * CONSEQUENTIAL DAMAGES (INCLUDING, BUT NOT LIMITED TO, PROCUREMENT  *
  46:C:\Users\niels\Documents\Elektrotechniek\Jaar 2\ECS\ECSL\software\STM32\STM32Basis\Segger\Segger_RTT\RTT\SEGGER_RTT_printf.c **** * OF SUBSTITUTE GOODS OR SERVICES; LOSS OF USE, DATA, OR PROFITS;    *
  47:C:\Users\niels\Documents\Elektrotechniek\Jaar 2\ECS\ECSL\software\STM32\STM32Basis\Segger\Segger_RTT\RTT\SEGGER_RTT_printf.c **** * OR BUSINESS INTERRUPTION) HOWEVER CAUSED AND ON ANY THEORY OF      *
  48:C:\Users\niels\Documents\Elektrotechniek\Jaar 2\ECS\ECSL\software\STM32\STM32Basis\Segger\Segger_RTT\RTT\SEGGER_RTT_printf.c **** * LIABILITY, WHETHER IN CONTRACT, STRICT LIABILITY, OR TORT          *
  49:C:\Users\niels\Documents\Elektrotechniek\Jaar 2\ECS\ECSL\software\STM32\STM32Basis\Segger\Segger_RTT\RTT\SEGGER_RTT_printf.c **** * (INCLUDING NEGLIGENCE OR OTHERWISE) ARISING IN ANY WAY OUT OF THE  *
  50:C:\Users\niels\Documents\Elektrotechniek\Jaar 2\ECS\ECSL\software\STM32\STM32Basis\Segger\Segger_RTT\RTT\SEGGER_RTT_printf.c **** * USE OF THIS SOFTWARE, EVEN IF ADVISED OF THE POSSIBILITY OF SUCH   *
  51:C:\Users\niels\Documents\Elektrotechniek\Jaar 2\ECS\ECSL\software\STM32\STM32Basis\Segger\Segger_RTT\RTT\SEGGER_RTT_printf.c **** * DAMAGE.                                                            *
  52:C:\Users\niels\Documents\Elektrotechniek\Jaar 2\ECS\ECSL\software\STM32\STM32Basis\Segger\Segger_RTT\RTT\SEGGER_RTT_printf.c **** *                                                                    *
  53:C:\Users\niels\Documents\Elektrotechniek\Jaar 2\ECS\ECSL\software\STM32\STM32Basis\Segger\Segger_RTT\RTT\SEGGER_RTT_printf.c **** **********************************************************************
  54:C:\Users\niels\Documents\Elektrotechniek\Jaar 2\ECS\ECSL\software\STM32\STM32Basis\Segger\Segger_RTT\RTT\SEGGER_RTT_printf.c **** *                                                                    *
  55:C:\Users\niels\Documents\Elektrotechniek\Jaar 2\ECS\ECSL\software\STM32\STM32Basis\Segger\Segger_RTT\RTT\SEGGER_RTT_printf.c **** *       RTT version: 6.34h                                           *
  56:C:\Users\niels\Documents\Elektrotechniek\Jaar 2\ECS\ECSL\software\STM32\STM32Basis\Segger\Segger_RTT\RTT\SEGGER_RTT_printf.c **** *                                                                    *
  57:C:\Users\niels\Documents\Elektrotechniek\Jaar 2\ECS\ECSL\software\STM32\STM32Basis\Segger\Segger_RTT\RTT\SEGGER_RTT_printf.c **** **********************************************************************
  58:C:\Users\niels\Documents\Elektrotechniek\Jaar 2\ECS\ECSL\software\STM32\STM32Basis\Segger\Segger_RTT\RTT\SEGGER_RTT_printf.c **** ---------------------------END-OF-HEADER------------------------------
  59:C:\Users\niels\Documents\Elektrotechniek\Jaar 2\ECS\ECSL\software\STM32\STM32Basis\Segger\Segger_RTT\RTT\SEGGER_RTT_printf.c **** File    : SEGGER_RTT_printf.c
  60:C:\Users\niels\Documents\Elektrotechniek\Jaar 2\ECS\ECSL\software\STM32\STM32Basis\Segger\Segger_RTT\RTT\SEGGER_RTT_printf.c **** Purpose : Replacement for printf to write formatted data via RTT
  61:C:\Users\niels\Documents\Elektrotechniek\Jaar 2\ECS\ECSL\software\STM32\STM32Basis\Segger\Segger_RTT\RTT\SEGGER_RTT_printf.c **** Revision: $Rev: 12489 $
  62:C:\Users\niels\Documents\Elektrotechniek\Jaar 2\ECS\ECSL\software\STM32\STM32Basis\Segger\Segger_RTT\RTT\SEGGER_RTT_printf.c **** ----------------------------------------------------------------------
  63:C:\Users\niels\Documents\Elektrotechniek\Jaar 2\ECS\ECSL\software\STM32\STM32Basis\Segger\Segger_RTT\RTT\SEGGER_RTT_printf.c **** */
  64:C:\Users\niels\Documents\Elektrotechniek\Jaar 2\ECS\ECSL\software\STM32\STM32Basis\Segger\Segger_RTT\RTT\SEGGER_RTT_printf.c **** #include "SEGGER_RTT.h"
  65:C:\Users\niels\Documents\Elektrotechniek\Jaar 2\ECS\ECSL\software\STM32\STM32Basis\Segger\Segger_RTT\RTT\SEGGER_RTT_printf.c **** #include "SEGGER_RTT_Conf.h"
  66:C:\Users\niels\Documents\Elektrotechniek\Jaar 2\ECS\ECSL\software\STM32\STM32Basis\Segger\Segger_RTT\RTT\SEGGER_RTT_printf.c **** 
  67:C:\Users\niels\Documents\Elektrotechniek\Jaar 2\ECS\ECSL\software\STM32\STM32Basis\Segger\Segger_RTT\RTT\SEGGER_RTT_printf.c **** /*********************************************************************
  68:C:\Users\niels\Documents\Elektrotechniek\Jaar 2\ECS\ECSL\software\STM32\STM32Basis\Segger\Segger_RTT\RTT\SEGGER_RTT_printf.c **** *
  69:C:\Users\niels\Documents\Elektrotechniek\Jaar 2\ECS\ECSL\software\STM32\STM32Basis\Segger\Segger_RTT\RTT\SEGGER_RTT_printf.c **** *       Defines, configurable
  70:C:\Users\niels\Documents\Elektrotechniek\Jaar 2\ECS\ECSL\software\STM32\STM32Basis\Segger\Segger_RTT\RTT\SEGGER_RTT_printf.c **** *
  71:C:\Users\niels\Documents\Elektrotechniek\Jaar 2\ECS\ECSL\software\STM32\STM32Basis\Segger\Segger_RTT\RTT\SEGGER_RTT_printf.c **** **********************************************************************
  72:C:\Users\niels\Documents\Elektrotechniek\Jaar 2\ECS\ECSL\software\STM32\STM32Basis\Segger\Segger_RTT\RTT\SEGGER_RTT_printf.c **** */
  73:C:\Users\niels\Documents\Elektrotechniek\Jaar 2\ECS\ECSL\software\STM32\STM32Basis\Segger\Segger_RTT\RTT\SEGGER_RTT_printf.c **** 
  74:C:\Users\niels\Documents\Elektrotechniek\Jaar 2\ECS\ECSL\software\STM32\STM32Basis\Segger\Segger_RTT\RTT\SEGGER_RTT_printf.c **** #ifndef SEGGER_RTT_PRINTF_BUFFER_SIZE
  75:C:\Users\niels\Documents\Elektrotechniek\Jaar 2\ECS\ECSL\software\STM32\STM32Basis\Segger\Segger_RTT\RTT\SEGGER_RTT_printf.c ****   #define SEGGER_RTT_PRINTF_BUFFER_SIZE (64)
  76:C:\Users\niels\Documents\Elektrotechniek\Jaar 2\ECS\ECSL\software\STM32\STM32Basis\Segger\Segger_RTT\RTT\SEGGER_RTT_printf.c **** #endif
  77:C:\Users\niels\Documents\Elektrotechniek\Jaar 2\ECS\ECSL\software\STM32\STM32Basis\Segger\Segger_RTT\RTT\SEGGER_RTT_printf.c **** 
  78:C:\Users\niels\Documents\Elektrotechniek\Jaar 2\ECS\ECSL\software\STM32\STM32Basis\Segger\Segger_RTT\RTT\SEGGER_RTT_printf.c **** #include <stdlib.h>
  79:C:\Users\niels\Documents\Elektrotechniek\Jaar 2\ECS\ECSL\software\STM32\STM32Basis\Segger\Segger_RTT\RTT\SEGGER_RTT_printf.c **** #include <stdarg.h>
  80:C:\Users\niels\Documents\Elektrotechniek\Jaar 2\ECS\ECSL\software\STM32\STM32Basis\Segger\Segger_RTT\RTT\SEGGER_RTT_printf.c **** 
  81:C:\Users\niels\Documents\Elektrotechniek\Jaar 2\ECS\ECSL\software\STM32\STM32Basis\Segger\Segger_RTT\RTT\SEGGER_RTT_printf.c **** 
  82:C:\Users\niels\Documents\Elektrotechniek\Jaar 2\ECS\ECSL\software\STM32\STM32Basis\Segger\Segger_RTT\RTT\SEGGER_RTT_printf.c **** #define FORMAT_FLAG_LEFT_JUSTIFY   (1u << 0)
  83:C:\Users\niels\Documents\Elektrotechniek\Jaar 2\ECS\ECSL\software\STM32\STM32Basis\Segger\Segger_RTT\RTT\SEGGER_RTT_printf.c **** #define FORMAT_FLAG_PAD_ZERO       (1u << 1)
  84:C:\Users\niels\Documents\Elektrotechniek\Jaar 2\ECS\ECSL\software\STM32\STM32Basis\Segger\Segger_RTT\RTT\SEGGER_RTT_printf.c **** #define FORMAT_FLAG_PRINT_SIGN     (1u << 2)
  85:C:\Users\niels\Documents\Elektrotechniek\Jaar 2\ECS\ECSL\software\STM32\STM32Basis\Segger\Segger_RTT\RTT\SEGGER_RTT_printf.c **** #define FORMAT_FLAG_ALTERNATE      (1u << 3)
  86:C:\Users\niels\Documents\Elektrotechniek\Jaar 2\ECS\ECSL\software\STM32\STM32Basis\Segger\Segger_RTT\RTT\SEGGER_RTT_printf.c **** 
ARM GAS   			page 3


  87:C:\Users\niels\Documents\Elektrotechniek\Jaar 2\ECS\ECSL\software\STM32\STM32Basis\Segger\Segger_RTT\RTT\SEGGER_RTT_printf.c **** /*********************************************************************
  88:C:\Users\niels\Documents\Elektrotechniek\Jaar 2\ECS\ECSL\software\STM32\STM32Basis\Segger\Segger_RTT\RTT\SEGGER_RTT_printf.c **** *
  89:C:\Users\niels\Documents\Elektrotechniek\Jaar 2\ECS\ECSL\software\STM32\STM32Basis\Segger\Segger_RTT\RTT\SEGGER_RTT_printf.c **** *       Types
  90:C:\Users\niels\Documents\Elektrotechniek\Jaar 2\ECS\ECSL\software\STM32\STM32Basis\Segger\Segger_RTT\RTT\SEGGER_RTT_printf.c **** *
  91:C:\Users\niels\Documents\Elektrotechniek\Jaar 2\ECS\ECSL\software\STM32\STM32Basis\Segger\Segger_RTT\RTT\SEGGER_RTT_printf.c **** **********************************************************************
  92:C:\Users\niels\Documents\Elektrotechniek\Jaar 2\ECS\ECSL\software\STM32\STM32Basis\Segger\Segger_RTT\RTT\SEGGER_RTT_printf.c **** */
  93:C:\Users\niels\Documents\Elektrotechniek\Jaar 2\ECS\ECSL\software\STM32\STM32Basis\Segger\Segger_RTT\RTT\SEGGER_RTT_printf.c **** 
  94:C:\Users\niels\Documents\Elektrotechniek\Jaar 2\ECS\ECSL\software\STM32\STM32Basis\Segger\Segger_RTT\RTT\SEGGER_RTT_printf.c **** typedef struct {
  95:C:\Users\niels\Documents\Elektrotechniek\Jaar 2\ECS\ECSL\software\STM32\STM32Basis\Segger\Segger_RTT\RTT\SEGGER_RTT_printf.c ****   char*     pBuffer;
  96:C:\Users\niels\Documents\Elektrotechniek\Jaar 2\ECS\ECSL\software\STM32\STM32Basis\Segger\Segger_RTT\RTT\SEGGER_RTT_printf.c ****   unsigned  BufferSize;
  97:C:\Users\niels\Documents\Elektrotechniek\Jaar 2\ECS\ECSL\software\STM32\STM32Basis\Segger\Segger_RTT\RTT\SEGGER_RTT_printf.c ****   unsigned  Cnt;
  98:C:\Users\niels\Documents\Elektrotechniek\Jaar 2\ECS\ECSL\software\STM32\STM32Basis\Segger\Segger_RTT\RTT\SEGGER_RTT_printf.c **** 
  99:C:\Users\niels\Documents\Elektrotechniek\Jaar 2\ECS\ECSL\software\STM32\STM32Basis\Segger\Segger_RTT\RTT\SEGGER_RTT_printf.c ****   int   ReturnValue;
 100:C:\Users\niels\Documents\Elektrotechniek\Jaar 2\ECS\ECSL\software\STM32\STM32Basis\Segger\Segger_RTT\RTT\SEGGER_RTT_printf.c **** 
 101:C:\Users\niels\Documents\Elektrotechniek\Jaar 2\ECS\ECSL\software\STM32\STM32Basis\Segger\Segger_RTT\RTT\SEGGER_RTT_printf.c ****   unsigned RTTBufferIndex;
 102:C:\Users\niels\Documents\Elektrotechniek\Jaar 2\ECS\ECSL\software\STM32\STM32Basis\Segger\Segger_RTT\RTT\SEGGER_RTT_printf.c **** } SEGGER_RTT_PRINTF_DESC;
 103:C:\Users\niels\Documents\Elektrotechniek\Jaar 2\ECS\ECSL\software\STM32\STM32Basis\Segger\Segger_RTT\RTT\SEGGER_RTT_printf.c **** 
 104:C:\Users\niels\Documents\Elektrotechniek\Jaar 2\ECS\ECSL\software\STM32\STM32Basis\Segger\Segger_RTT\RTT\SEGGER_RTT_printf.c **** /*********************************************************************
 105:C:\Users\niels\Documents\Elektrotechniek\Jaar 2\ECS\ECSL\software\STM32\STM32Basis\Segger\Segger_RTT\RTT\SEGGER_RTT_printf.c **** *
 106:C:\Users\niels\Documents\Elektrotechniek\Jaar 2\ECS\ECSL\software\STM32\STM32Basis\Segger\Segger_RTT\RTT\SEGGER_RTT_printf.c **** *       Function prototypes
 107:C:\Users\niels\Documents\Elektrotechniek\Jaar 2\ECS\ECSL\software\STM32\STM32Basis\Segger\Segger_RTT\RTT\SEGGER_RTT_printf.c **** *
 108:C:\Users\niels\Documents\Elektrotechniek\Jaar 2\ECS\ECSL\software\STM32\STM32Basis\Segger\Segger_RTT\RTT\SEGGER_RTT_printf.c **** **********************************************************************
 109:C:\Users\niels\Documents\Elektrotechniek\Jaar 2\ECS\ECSL\software\STM32\STM32Basis\Segger\Segger_RTT\RTT\SEGGER_RTT_printf.c **** */
 110:C:\Users\niels\Documents\Elektrotechniek\Jaar 2\ECS\ECSL\software\STM32\STM32Basis\Segger\Segger_RTT\RTT\SEGGER_RTT_printf.c **** 
 111:C:\Users\niels\Documents\Elektrotechniek\Jaar 2\ECS\ECSL\software\STM32\STM32Basis\Segger\Segger_RTT\RTT\SEGGER_RTT_printf.c **** /*********************************************************************
 112:C:\Users\niels\Documents\Elektrotechniek\Jaar 2\ECS\ECSL\software\STM32\STM32Basis\Segger\Segger_RTT\RTT\SEGGER_RTT_printf.c **** *
 113:C:\Users\niels\Documents\Elektrotechniek\Jaar 2\ECS\ECSL\software\STM32\STM32Basis\Segger\Segger_RTT\RTT\SEGGER_RTT_printf.c **** *       Static code
 114:C:\Users\niels\Documents\Elektrotechniek\Jaar 2\ECS\ECSL\software\STM32\STM32Basis\Segger\Segger_RTT\RTT\SEGGER_RTT_printf.c **** *
 115:C:\Users\niels\Documents\Elektrotechniek\Jaar 2\ECS\ECSL\software\STM32\STM32Basis\Segger\Segger_RTT\RTT\SEGGER_RTT_printf.c **** **********************************************************************
 116:C:\Users\niels\Documents\Elektrotechniek\Jaar 2\ECS\ECSL\software\STM32\STM32Basis\Segger\Segger_RTT\RTT\SEGGER_RTT_printf.c **** */
 117:C:\Users\niels\Documents\Elektrotechniek\Jaar 2\ECS\ECSL\software\STM32\STM32Basis\Segger\Segger_RTT\RTT\SEGGER_RTT_printf.c **** /*********************************************************************
 118:C:\Users\niels\Documents\Elektrotechniek\Jaar 2\ECS\ECSL\software\STM32\STM32Basis\Segger\Segger_RTT\RTT\SEGGER_RTT_printf.c **** *
 119:C:\Users\niels\Documents\Elektrotechniek\Jaar 2\ECS\ECSL\software\STM32\STM32Basis\Segger\Segger_RTT\RTT\SEGGER_RTT_printf.c **** *       _StoreChar
 120:C:\Users\niels\Documents\Elektrotechniek\Jaar 2\ECS\ECSL\software\STM32\STM32Basis\Segger\Segger_RTT\RTT\SEGGER_RTT_printf.c **** */
 121:C:\Users\niels\Documents\Elektrotechniek\Jaar 2\ECS\ECSL\software\STM32\STM32Basis\Segger\Segger_RTT\RTT\SEGGER_RTT_printf.c **** static void _StoreChar(SEGGER_RTT_PRINTF_DESC * p, char c) {
  29              	 .loc 1 121 60
  30              	 .cfi_startproc
  31              	 
  32              	 
  33 0000 80B5     	 push {r7,lr}
  34              	 .save {r7,lr}
  35              	 .cfi_def_cfa_offset 8
  36              	 .cfi_offset 7,-8
  37              	 .cfi_offset 14,-4
  38              	 .pad #16
  39 0002 84B0     	 sub sp,sp,#16
  40              	 .cfi_def_cfa_offset 24
  41              	 .setfp r7,sp,#0
  42 0004 00AF     	 add r7,sp,#0
  43              	 .cfi_def_cfa_register 7
  44 0006 7860     	 str r0,[r7,#4]
  45 0008 0B46     	 mov r3,r1
  46 000a FB70     	 strb r3,[r7,#3]
 122:C:\Users\niels\Documents\Elektrotechniek\Jaar 2\ECS\ECSL\software\STM32\STM32Basis\Segger\Segger_RTT\RTT\SEGGER_RTT_printf.c ****   unsigned Cnt;
 123:C:\Users\niels\Documents\Elektrotechniek\Jaar 2\ECS\ECSL\software\STM32\STM32Basis\Segger\Segger_RTT\RTT\SEGGER_RTT_printf.c **** 
 124:C:\Users\niels\Documents\Elektrotechniek\Jaar 2\ECS\ECSL\software\STM32\STM32Basis\Segger\Segger_RTT\RTT\SEGGER_RTT_printf.c ****   Cnt = p->Cnt;
  47              	 .loc 1 124 7
ARM GAS   			page 4


  48 000c 7B68     	 ldr r3,[r7,#4]
  49 000e 9B68     	 ldr r3,[r3,#8]
  50 0010 FB60     	 str r3,[r7,#12]
 125:C:\Users\niels\Documents\Elektrotechniek\Jaar 2\ECS\ECSL\software\STM32\STM32Basis\Segger\Segger_RTT\RTT\SEGGER_RTT_printf.c ****   if ((Cnt + 1u) <= p->BufferSize) {
  51              	 .loc 1 125 12
  52 0012 FB68     	 ldr r3,[r7,#12]
  53 0014 5A1C     	 adds r2,r3,#1
  54              	 .loc 1 125 24
  55 0016 7B68     	 ldr r3,[r7,#4]
  56 0018 5B68     	 ldr r3,[r3,#4]
  57              	 .loc 1 125 3
  58 001a 9A42     	 cmp r2,r3
  59 001c 0ED8     	 bhi .L2
 126:C:\Users\niels\Documents\Elektrotechniek\Jaar 2\ECS\ECSL\software\STM32\STM32Basis\Segger\Segger_RTT\RTT\SEGGER_RTT_printf.c ****     *(p->pBuffer + Cnt) = c;
  60              	 .loc 1 126 10
  61 001e 7B68     	 ldr r3,[r7,#4]
  62 0020 1A68     	 ldr r2,[r3]
  63              	 .loc 1 126 18
  64 0022 FB68     	 ldr r3,[r7,#12]
  65 0024 1344     	 add r3,r3,r2
  66              	 .loc 1 126 25
  67 0026 FA78     	 ldrb r2,[r7,#3]
  68 0028 1A70     	 strb r2,[r3]
 127:C:\Users\niels\Documents\Elektrotechniek\Jaar 2\ECS\ECSL\software\STM32\STM32Basis\Segger\Segger_RTT\RTT\SEGGER_RTT_printf.c ****     p->Cnt = Cnt + 1u;
  69              	 .loc 1 127 18
  70 002a FB68     	 ldr r3,[r7,#12]
  71 002c 5A1C     	 adds r2,r3,#1
  72              	 .loc 1 127 12
  73 002e 7B68     	 ldr r3,[r7,#4]
  74 0030 9A60     	 str r2,[r3,#8]
 128:C:\Users\niels\Documents\Elektrotechniek\Jaar 2\ECS\ECSL\software\STM32\STM32Basis\Segger\Segger_RTT\RTT\SEGGER_RTT_printf.c ****     p->ReturnValue++;
  75              	 .loc 1 128 8
  76 0032 7B68     	 ldr r3,[r7,#4]
  77 0034 DB68     	 ldr r3,[r3,#12]
  78              	 .loc 1 128 19
  79 0036 5A1C     	 adds r2,r3,#1
  80 0038 7B68     	 ldr r3,[r7,#4]
  81 003a DA60     	 str r2,[r3,#12]
  82              	.L2:
 129:C:\Users\niels\Documents\Elektrotechniek\Jaar 2\ECS\ECSL\software\STM32\STM32Basis\Segger\Segger_RTT\RTT\SEGGER_RTT_printf.c ****   }
 130:C:\Users\niels\Documents\Elektrotechniek\Jaar 2\ECS\ECSL\software\STM32\STM32Basis\Segger\Segger_RTT\RTT\SEGGER_RTT_printf.c ****   //
 131:C:\Users\niels\Documents\Elektrotechniek\Jaar 2\ECS\ECSL\software\STM32\STM32Basis\Segger\Segger_RTT\RTT\SEGGER_RTT_printf.c ****   // Write part of string, when the buffer is full
 132:C:\Users\niels\Documents\Elektrotechniek\Jaar 2\ECS\ECSL\software\STM32\STM32Basis\Segger\Segger_RTT\RTT\SEGGER_RTT_printf.c ****   //
 133:C:\Users\niels\Documents\Elektrotechniek\Jaar 2\ECS\ECSL\software\STM32\STM32Basis\Segger\Segger_RTT\RTT\SEGGER_RTT_printf.c ****   if (p->Cnt == p->BufferSize) {
  83              	 .loc 1 133 10
  84 003c 7B68     	 ldr r3,[r7,#4]
  85 003e 9A68     	 ldr r2,[r3,#8]
  86              	 .loc 1 133 20
  87 0040 7B68     	 ldr r3,[r7,#4]
  88 0042 5B68     	 ldr r3,[r3,#4]
  89              	 .loc 1 133 3
  90 0044 9A42     	 cmp r2,r3
  91 0046 1AD1     	 bne .L5
 134:C:\Users\niels\Documents\Elektrotechniek\Jaar 2\ECS\ECSL\software\STM32\STM32Basis\Segger\Segger_RTT\RTT\SEGGER_RTT_printf.c ****     if (SEGGER_RTT_Write(p->RTTBufferIndex, p->pBuffer, p->Cnt) != p->Cnt) {
  92              	 .loc 1 134 25
  93 0048 7B68     	 ldr r3,[r7,#4]
  94 004a 1869     	 ldr r0,[r3,#16]
ARM GAS   			page 5


  95              	 .loc 1 134 48
  96 004c 7B68     	 ldr r3,[r7,#4]
  97 004e 1968     	 ldr r1,[r3]
  98              	 .loc 1 134 25
  99 0050 7B68     	 ldr r3,[r7,#4]
 100 0052 9B68     	 ldr r3,[r3,#8]
 101 0054 1A46     	 mov r2,r3
 102 0056 FFF7FEFF 	 bl SEGGER_RTT_Write
 103 005a 0246     	 mov r2,r0
 104              	 .loc 1 134 71
 105 005c 7B68     	 ldr r3,[r7,#4]
 106 005e 9B68     	 ldr r3,[r3,#8]
 107              	 .loc 1 134 65
 108 0060 9A42     	 cmp r2,r3
 109 0062 14BF     	 ite ne
 110 0064 0123     	 movne r3,#1
 111 0066 0023     	 moveq r3,#0
 112 0068 DBB2     	 uxtb r3,r3
 113              	 .loc 1 134 5
 114 006a 002B     	 cmp r3,#0
 115 006c 04D0     	 beq .L4
 135:C:\Users\niels\Documents\Elektrotechniek\Jaar 2\ECS\ECSL\software\STM32\STM32Basis\Segger\Segger_RTT\RTT\SEGGER_RTT_printf.c ****       p->ReturnValue = -1;
 116              	 .loc 1 135 22
 117 006e 7B68     	 ldr r3,[r7,#4]
 118 0070 4FF0FF32 	 mov r2,#-1
 119 0074 DA60     	 str r2,[r3,#12]
 136:C:\Users\niels\Documents\Elektrotechniek\Jaar 2\ECS\ECSL\software\STM32\STM32Basis\Segger\Segger_RTT\RTT\SEGGER_RTT_printf.c ****     } else {
 137:C:\Users\niels\Documents\Elektrotechniek\Jaar 2\ECS\ECSL\software\STM32\STM32Basis\Segger\Segger_RTT\RTT\SEGGER_RTT_printf.c ****       p->Cnt = 0u;
 138:C:\Users\niels\Documents\Elektrotechniek\Jaar 2\ECS\ECSL\software\STM32\STM32Basis\Segger\Segger_RTT\RTT\SEGGER_RTT_printf.c ****     }
 139:C:\Users\niels\Documents\Elektrotechniek\Jaar 2\ECS\ECSL\software\STM32\STM32Basis\Segger\Segger_RTT\RTT\SEGGER_RTT_printf.c ****   }
 140:C:\Users\niels\Documents\Elektrotechniek\Jaar 2\ECS\ECSL\software\STM32\STM32Basis\Segger\Segger_RTT\RTT\SEGGER_RTT_printf.c **** }
 120              	 .loc 1 140 1
 121 0076 02E0     	 b .L5
 122              	.L4:
 137:C:\Users\niels\Documents\Elektrotechniek\Jaar 2\ECS\ECSL\software\STM32\STM32Basis\Segger\Segger_RTT\RTT\SEGGER_RTT_printf.c ****     }
 123              	 .loc 1 137 14
 124 0078 7B68     	 ldr r3,[r7,#4]
 125 007a 0022     	 movs r2,#0
 126 007c 9A60     	 str r2,[r3,#8]
 127              	.L5:
 128              	 .loc 1 140 1
 129 007e 00BF     	 nop
 130 0080 1037     	 adds r7,r7,#16
 131              	 .cfi_def_cfa_offset 8
 132 0082 BD46     	 mov sp,r7
 133              	 .cfi_def_cfa_register 13
 134              	 
 135 0084 80BD     	 pop {r7,pc}
 136              	 .cfi_endproc
 137              	.LFE7:
 138              	 .fnend
 139              	 .size _ZL10_StoreCharP22SEGGER_RTT_PRINTF_DESCc,.-_ZL10_StoreCharP22SEGGER_RTT_PRINTF_DESCc
 140              	 .section .rodata._ZZL14_PrintUnsignedP22SEGGER_RTT_PRINTF_DESCjjjjjE5_aV2C,"a"
 141              	 .align 2
 142              	 .type _ZZL14_PrintUnsignedP22SEGGER_RTT_PRINTF_DESCjjjjjE5_aV2C,%object
 143              	 .size _ZZL14_PrintUnsignedP22SEGGER_RTT_PRINTF_DESCjjjjjE5_aV2C,16
 144              	_ZZL14_PrintUnsignedP22SEGGER_RTT_PRINTF_DESCjjjjjE5_aV2C:
ARM GAS   			page 6


 145 0000 30313233 	 .ascii "0123456789ABCDEF"
 145      34353637 
 145      38394142 
 145      43444546 
 146              	 .section .text._ZL14_PrintUnsignedP22SEGGER_RTT_PRINTF_DESCjjjjj,"ax",%progbits
 147              	 .align 1
 148              	 .syntax unified
 149              	 .thumb
 150              	 .thumb_func
 151              	 .type _ZL14_PrintUnsignedP22SEGGER_RTT_PRINTF_DESCjjjjj,%function
 152              	_ZL14_PrintUnsignedP22SEGGER_RTT_PRINTF_DESCjjjjj:
 153              	 .fnstart
 154              	.LFB8:
 141:C:\Users\niels\Documents\Elektrotechniek\Jaar 2\ECS\ECSL\software\STM32\STM32Basis\Segger\Segger_RTT\RTT\SEGGER_RTT_printf.c **** 
 142:C:\Users\niels\Documents\Elektrotechniek\Jaar 2\ECS\ECSL\software\STM32\STM32Basis\Segger\Segger_RTT\RTT\SEGGER_RTT_printf.c **** /*********************************************************************
 143:C:\Users\niels\Documents\Elektrotechniek\Jaar 2\ECS\ECSL\software\STM32\STM32Basis\Segger\Segger_RTT\RTT\SEGGER_RTT_printf.c **** *
 144:C:\Users\niels\Documents\Elektrotechniek\Jaar 2\ECS\ECSL\software\STM32\STM32Basis\Segger\Segger_RTT\RTT\SEGGER_RTT_printf.c **** *       _PrintUnsigned
 145:C:\Users\niels\Documents\Elektrotechniek\Jaar 2\ECS\ECSL\software\STM32\STM32Basis\Segger\Segger_RTT\RTT\SEGGER_RTT_printf.c **** */
 146:C:\Users\niels\Documents\Elektrotechniek\Jaar 2\ECS\ECSL\software\STM32\STM32Basis\Segger\Segger_RTT\RTT\SEGGER_RTT_printf.c **** static void _PrintUnsigned(SEGGER_RTT_PRINTF_DESC * pBufferDesc, unsigned v, unsigned Base, unsigne
 155              	 .loc 1 146 156
 156              	 .cfi_startproc
 157              	 
 158              	 
 159 0000 80B5     	 push {r7,lr}
 160              	 .save {r7,lr}
 161              	 .cfi_def_cfa_offset 8
 162              	 .cfi_offset 7,-8
 163              	 .cfi_offset 14,-4
 164              	 .pad #40
 165 0002 8AB0     	 sub sp,sp,#40
 166              	 .cfi_def_cfa_offset 48
 167              	 .setfp r7,sp,#0
 168 0004 00AF     	 add r7,sp,#0
 169              	 .cfi_def_cfa_register 7
 170 0006 F860     	 str r0,[r7,#12]
 171 0008 B960     	 str r1,[r7,#8]
 172 000a 7A60     	 str r2,[r7,#4]
 173 000c 3B60     	 str r3,[r7]
 147:C:\Users\niels\Documents\Elektrotechniek\Jaar 2\ECS\ECSL\software\STM32\STM32Basis\Segger\Segger_RTT\RTT\SEGGER_RTT_printf.c ****   static const char _aV2C[16] = {'0', '1', '2', '3', '4', '5', '6', '7', '8', '9', 'A', 'B', 'C', '
 148:C:\Users\niels\Documents\Elektrotechniek\Jaar 2\ECS\ECSL\software\STM32\STM32Basis\Segger\Segger_RTT\RTT\SEGGER_RTT_printf.c ****   unsigned Div;
 149:C:\Users\niels\Documents\Elektrotechniek\Jaar 2\ECS\ECSL\software\STM32\STM32Basis\Segger\Segger_RTT\RTT\SEGGER_RTT_printf.c ****   unsigned Digit;
 150:C:\Users\niels\Documents\Elektrotechniek\Jaar 2\ECS\ECSL\software\STM32\STM32Basis\Segger\Segger_RTT\RTT\SEGGER_RTT_printf.c ****   unsigned Number;
 151:C:\Users\niels\Documents\Elektrotechniek\Jaar 2\ECS\ECSL\software\STM32\STM32Basis\Segger\Segger_RTT\RTT\SEGGER_RTT_printf.c ****   unsigned Width;
 152:C:\Users\niels\Documents\Elektrotechniek\Jaar 2\ECS\ECSL\software\STM32\STM32Basis\Segger\Segger_RTT\RTT\SEGGER_RTT_printf.c ****   char c;
 153:C:\Users\niels\Documents\Elektrotechniek\Jaar 2\ECS\ECSL\software\STM32\STM32Basis\Segger\Segger_RTT\RTT\SEGGER_RTT_printf.c **** 
 154:C:\Users\niels\Documents\Elektrotechniek\Jaar 2\ECS\ECSL\software\STM32\STM32Basis\Segger\Segger_RTT\RTT\SEGGER_RTT_printf.c ****   Number = v;
 174              	 .loc 1 154 10
 175 000e BB68     	 ldr r3,[r7,#8]
 176 0010 3B62     	 str r3,[r7,#32]
 155:C:\Users\niels\Documents\Elektrotechniek\Jaar 2\ECS\ECSL\software\STM32\STM32Basis\Segger\Segger_RTT\RTT\SEGGER_RTT_printf.c ****   Digit = 1u;
 177              	 .loc 1 155 9
 178 0012 0123     	 movs r3,#1
 179 0014 7B62     	 str r3,[r7,#36]
 156:C:\Users\niels\Documents\Elektrotechniek\Jaar 2\ECS\ECSL\software\STM32\STM32Basis\Segger\Segger_RTT\RTT\SEGGER_RTT_printf.c ****   //
 157:C:\Users\niels\Documents\Elektrotechniek\Jaar 2\ECS\ECSL\software\STM32\STM32Basis\Segger\Segger_RTT\RTT\SEGGER_RTT_printf.c ****   // Get actual field width
 158:C:\Users\niels\Documents\Elektrotechniek\Jaar 2\ECS\ECSL\software\STM32\STM32Basis\Segger\Segger_RTT\RTT\SEGGER_RTT_printf.c ****   //
 159:C:\Users\niels\Documents\Elektrotechniek\Jaar 2\ECS\ECSL\software\STM32\STM32Basis\Segger\Segger_RTT\RTT\SEGGER_RTT_printf.c ****   Width = 1u;
ARM GAS   			page 7


 180              	 .loc 1 159 9
 181 0016 0123     	 movs r3,#1
 182 0018 FB61     	 str r3,[r7,#28]
 183              	.L8:
 160:C:\Users\niels\Documents\Elektrotechniek\Jaar 2\ECS\ECSL\software\STM32\STM32Basis\Segger\Segger_RTT\RTT\SEGGER_RTT_printf.c ****   while (Number >= Base) {
 184              	 .loc 1 160 17
 185 001a 3A6A     	 ldr r2,[r7,#32]
 186 001c 7B68     	 ldr r3,[r7,#4]
 187 001e 9A42     	 cmp r2,r3
 188 0020 08D3     	 bcc .L7
 161:C:\Users\niels\Documents\Elektrotechniek\Jaar 2\ECS\ECSL\software\STM32\STM32Basis\Segger\Segger_RTT\RTT\SEGGER_RTT_printf.c ****     Number = (Number / Base);
 189              	 .loc 1 161 12
 190 0022 3A6A     	 ldr r2,[r7,#32]
 191 0024 7B68     	 ldr r3,[r7,#4]
 192 0026 B2FBF3F3 	 udiv r3,r2,r3
 193 002a 3B62     	 str r3,[r7,#32]
 162:C:\Users\niels\Documents\Elektrotechniek\Jaar 2\ECS\ECSL\software\STM32\STM32Basis\Segger\Segger_RTT\RTT\SEGGER_RTT_printf.c ****     Width++;
 194              	 .loc 1 162 10
 195 002c FB69     	 ldr r3,[r7,#28]
 196 002e 0133     	 adds r3,r3,#1
 197 0030 FB61     	 str r3,[r7,#28]
 160:C:\Users\niels\Documents\Elektrotechniek\Jaar 2\ECS\ECSL\software\STM32\STM32Basis\Segger\Segger_RTT\RTT\SEGGER_RTT_printf.c ****   while (Number >= Base) {
 198              	 .loc 1 160 3
 199 0032 F2E7     	 b .L8
 200              	.L7:
 163:C:\Users\niels\Documents\Elektrotechniek\Jaar 2\ECS\ECSL\software\STM32\STM32Basis\Segger\Segger_RTT\RTT\SEGGER_RTT_printf.c ****   }
 164:C:\Users\niels\Documents\Elektrotechniek\Jaar 2\ECS\ECSL\software\STM32\STM32Basis\Segger\Segger_RTT\RTT\SEGGER_RTT_printf.c ****   if (NumDigits > Width) {
 201              	 .loc 1 164 3
 202 0034 3A68     	 ldr r2,[r7]
 203 0036 FB69     	 ldr r3,[r7,#28]
 204 0038 9A42     	 cmp r2,r3
 205 003a 01D9     	 bls .L9
 165:C:\Users\niels\Documents\Elektrotechniek\Jaar 2\ECS\ECSL\software\STM32\STM32Basis\Segger\Segger_RTT\RTT\SEGGER_RTT_printf.c ****     Width = NumDigits;
 206              	 .loc 1 165 11
 207 003c 3B68     	 ldr r3,[r7]
 208 003e FB61     	 str r3,[r7,#28]
 209              	.L9:
 166:C:\Users\niels\Documents\Elektrotechniek\Jaar 2\ECS\ECSL\software\STM32\STM32Basis\Segger\Segger_RTT\RTT\SEGGER_RTT_printf.c ****   }
 167:C:\Users\niels\Documents\Elektrotechniek\Jaar 2\ECS\ECSL\software\STM32\STM32Basis\Segger\Segger_RTT\RTT\SEGGER_RTT_printf.c ****   //
 168:C:\Users\niels\Documents\Elektrotechniek\Jaar 2\ECS\ECSL\software\STM32\STM32Basis\Segger\Segger_RTT\RTT\SEGGER_RTT_printf.c ****   // Print leading chars if necessary
 169:C:\Users\niels\Documents\Elektrotechniek\Jaar 2\ECS\ECSL\software\STM32\STM32Basis\Segger\Segger_RTT\RTT\SEGGER_RTT_printf.c ****   //
 170:C:\Users\niels\Documents\Elektrotechniek\Jaar 2\ECS\ECSL\software\STM32\STM32Basis\Segger\Segger_RTT\RTT\SEGGER_RTT_printf.c ****   if ((FormatFlags & FORMAT_FLAG_LEFT_JUSTIFY) == 0u) {
 210              	 .loc 1 170 20
 211 0040 7B6B     	 ldr r3,[r7,#52]
 212 0042 03F00103 	 and r3,r3,#1
 213              	 .loc 1 170 3
 214 0046 002B     	 cmp r3,#0
 215 0048 24D1     	 bne .L10
 171:C:\Users\niels\Documents\Elektrotechniek\Jaar 2\ECS\ECSL\software\STM32\STM32Basis\Segger\Segger_RTT\RTT\SEGGER_RTT_printf.c ****     if (FieldWidth != 0u) {
 216              	 .loc 1 171 5
 217 004a 3B6B     	 ldr r3,[r7,#48]
 218 004c 002B     	 cmp r3,#0
 219 004e 21D0     	 beq .L10
 172:C:\Users\niels\Documents\Elektrotechniek\Jaar 2\ECS\ECSL\software\STM32\STM32Basis\Segger\Segger_RTT\RTT\SEGGER_RTT_printf.c ****       if (((FormatFlags & FORMAT_FLAG_PAD_ZERO) == FORMAT_FLAG_PAD_ZERO) && (NumDigits == 0u)) {
 220              	 .loc 1 172 25
 221 0050 7B6B     	 ldr r3,[r7,#52]
 222 0052 03F00203 	 and r3,r3,#2
ARM GAS   			page 8


 223              	 .loc 1 172 7
 224 0056 002B     	 cmp r3,#0
 225 0058 05D0     	 beq .L11
 226              	 .loc 1 172 74 discriminator 1
 227 005a 3B68     	 ldr r3,[r7]
 228 005c 002B     	 cmp r3,#0
 229 005e 02D1     	 bne .L11
 173:C:\Users\niels\Documents\Elektrotechniek\Jaar 2\ECS\ECSL\software\STM32\STM32Basis\Segger\Segger_RTT\RTT\SEGGER_RTT_printf.c ****         c = '0';
 230              	 .loc 1 173 11
 231 0060 3023     	 movs r3,#48
 232 0062 FB76     	 strb r3,[r7,#27]
 233 0064 01E0     	 b .L15
 234              	.L11:
 174:C:\Users\niels\Documents\Elektrotechniek\Jaar 2\ECS\ECSL\software\STM32\STM32Basis\Segger\Segger_RTT\RTT\SEGGER_RTT_printf.c ****       } else {
 175:C:\Users\niels\Documents\Elektrotechniek\Jaar 2\ECS\ECSL\software\STM32\STM32Basis\Segger\Segger_RTT\RTT\SEGGER_RTT_printf.c ****         c = ' ';
 235              	 .loc 1 175 11
 236 0066 2023     	 movs r3,#32
 237 0068 FB76     	 strb r3,[r7,#27]
 238              	.L15:
 176:C:\Users\niels\Documents\Elektrotechniek\Jaar 2\ECS\ECSL\software\STM32\STM32Basis\Segger\Segger_RTT\RTT\SEGGER_RTT_printf.c ****       }
 177:C:\Users\niels\Documents\Elektrotechniek\Jaar 2\ECS\ECSL\software\STM32\STM32Basis\Segger\Segger_RTT\RTT\SEGGER_RTT_printf.c ****       while ((FieldWidth != 0u) && (Width < FieldWidth)) {
 239              	 .loc 1 177 33
 240 006a 3B6B     	 ldr r3,[r7,#48]
 241 006c 002B     	 cmp r3,#0
 242 006e 11D0     	 beq .L10
 243              	 .loc 1 177 33 is_stmt 0 discriminator 1
 244 0070 FA69     	 ldr r2,[r7,#28]
 245 0072 3B6B     	 ldr r3,[r7,#48]
 246 0074 9A42     	 cmp r2,r3
 247 0076 0DD2     	 bcs .L10
 178:C:\Users\niels\Documents\Elektrotechniek\Jaar 2\ECS\ECSL\software\STM32\STM32Basis\Segger\Segger_RTT\RTT\SEGGER_RTT_printf.c ****         FieldWidth--;
 248              	 .loc 1 178 19 is_stmt 1
 249 0078 3B6B     	 ldr r3,[r7,#48]
 250 007a 013B     	 subs r3,r3,#1
 251 007c 3B63     	 str r3,[r7,#48]
 179:C:\Users\niels\Documents\Elektrotechniek\Jaar 2\ECS\ECSL\software\STM32\STM32Basis\Segger\Segger_RTT\RTT\SEGGER_RTT_printf.c ****         _StoreChar(pBufferDesc, c);
 252              	 .loc 1 179 19
 253 007e FB7E     	 ldrb r3,[r7,#27]
 254 0080 1946     	 mov r1,r3
 255 0082 F868     	 ldr r0,[r7,#12]
 256 0084 FFF7FEFF 	 bl _ZL10_StoreCharP22SEGGER_RTT_PRINTF_DESCc
 180:C:\Users\niels\Documents\Elektrotechniek\Jaar 2\ECS\ECSL\software\STM32\STM32Basis\Segger\Segger_RTT\RTT\SEGGER_RTT_printf.c ****         if (pBufferDesc->ReturnValue < 0) {
 257              	 .loc 1 180 26
 258 0088 FB68     	 ldr r3,[r7,#12]
 259 008a DB68     	 ldr r3,[r3,#12]
 260              	 .loc 1 180 9
 261 008c 002B     	 cmp r3,#0
 262 008e 00DB     	 blt .L27
 177:C:\Users\niels\Documents\Elektrotechniek\Jaar 2\ECS\ECSL\software\STM32\STM32Basis\Segger\Segger_RTT\RTT\SEGGER_RTT_printf.c ****         FieldWidth--;
 263              	 .loc 1 177 7
 264 0090 EBE7     	 b .L15
 265              	.L27:
 181:C:\Users\niels\Documents\Elektrotechniek\Jaar 2\ECS\ECSL\software\STM32\STM32Basis\Segger\Segger_RTT\RTT\SEGGER_RTT_printf.c ****           break;
 266              	 .loc 1 181 11
 267 0092 00BF     	 nop
 268              	.L10:
 182:C:\Users\niels\Documents\Elektrotechniek\Jaar 2\ECS\ECSL\software\STM32\STM32Basis\Segger\Segger_RTT\RTT\SEGGER_RTT_printf.c ****         }
ARM GAS   			page 9


 183:C:\Users\niels\Documents\Elektrotechniek\Jaar 2\ECS\ECSL\software\STM32\STM32Basis\Segger\Segger_RTT\RTT\SEGGER_RTT_printf.c ****       }
 184:C:\Users\niels\Documents\Elektrotechniek\Jaar 2\ECS\ECSL\software\STM32\STM32Basis\Segger\Segger_RTT\RTT\SEGGER_RTT_printf.c ****     }
 185:C:\Users\niels\Documents\Elektrotechniek\Jaar 2\ECS\ECSL\software\STM32\STM32Basis\Segger\Segger_RTT\RTT\SEGGER_RTT_printf.c ****   }
 186:C:\Users\niels\Documents\Elektrotechniek\Jaar 2\ECS\ECSL\software\STM32\STM32Basis\Segger\Segger_RTT\RTT\SEGGER_RTT_printf.c ****   if (pBufferDesc->ReturnValue >= 0) {
 269              	 .loc 1 186 20
 270 0094 FB68     	 ldr r3,[r7,#12]
 271 0096 DB68     	 ldr r3,[r3,#12]
 272              	 .loc 1 186 3
 273 0098 002B     	 cmp r3,#0
 274 009a 54DB     	 blt .L28
 275              	.L20:
 187:C:\Users\niels\Documents\Elektrotechniek\Jaar 2\ECS\ECSL\software\STM32\STM32Basis\Segger\Segger_RTT\RTT\SEGGER_RTT_printf.c ****     //
 188:C:\Users\niels\Documents\Elektrotechniek\Jaar 2\ECS\ECSL\software\STM32\STM32Basis\Segger\Segger_RTT\RTT\SEGGER_RTT_printf.c ****     // Compute Digit.
 189:C:\Users\niels\Documents\Elektrotechniek\Jaar 2\ECS\ECSL\software\STM32\STM32Basis\Segger\Segger_RTT\RTT\SEGGER_RTT_printf.c ****     // Loop until Digit has the value of the highest digit required.
 190:C:\Users\niels\Documents\Elektrotechniek\Jaar 2\ECS\ECSL\software\STM32\STM32Basis\Segger\Segger_RTT\RTT\SEGGER_RTT_printf.c ****     // Example: If the output is 345 (Base 10), loop 2 times until Digit is 100.
 191:C:\Users\niels\Documents\Elektrotechniek\Jaar 2\ECS\ECSL\software\STM32\STM32Basis\Segger\Segger_RTT\RTT\SEGGER_RTT_printf.c ****     //
 192:C:\Users\niels\Documents\Elektrotechniek\Jaar 2\ECS\ECSL\software\STM32\STM32Basis\Segger\Segger_RTT\RTT\SEGGER_RTT_printf.c ****     while (1) {
 193:C:\Users\niels\Documents\Elektrotechniek\Jaar 2\ECS\ECSL\software\STM32\STM32Basis\Segger\Segger_RTT\RTT\SEGGER_RTT_printf.c ****       if (NumDigits > 1u) {       // User specified a min number of digits to print? => Make sure w
 276              	 .loc 1 193 7
 277 009c 3B68     	 ldr r3,[r7]
 278 009e 012B     	 cmp r3,#1
 279 00a0 03D9     	 bls .L17
 194:C:\Users\niels\Documents\Elektrotechniek\Jaar 2\ECS\ECSL\software\STM32\STM32Basis\Segger\Segger_RTT\RTT\SEGGER_RTT_printf.c ****         NumDigits--;
 280              	 .loc 1 194 18
 281 00a2 3B68     	 ldr r3,[r7]
 282 00a4 013B     	 subs r3,r3,#1
 283 00a6 3B60     	 str r3,[r7]
 284 00a8 09E0     	 b .L18
 285              	.L17:
 195:C:\Users\niels\Documents\Elektrotechniek\Jaar 2\ECS\ECSL\software\STM32\STM32Basis\Segger\Segger_RTT\RTT\SEGGER_RTT_printf.c ****       } else {
 196:C:\Users\niels\Documents\Elektrotechniek\Jaar 2\ECS\ECSL\software\STM32\STM32Basis\Segger\Segger_RTT\RTT\SEGGER_RTT_printf.c ****         Div = v / Digit;
 286              	 .loc 1 196 13
 287 00aa BA68     	 ldr r2,[r7,#8]
 288 00ac 7B6A     	 ldr r3,[r7,#36]
 289 00ae B2FBF3F3 	 udiv r3,r2,r3
 290 00b2 7B61     	 str r3,[r7,#20]
 197:C:\Users\niels\Documents\Elektrotechniek\Jaar 2\ECS\ECSL\software\STM32\STM32Basis\Segger\Segger_RTT\RTT\SEGGER_RTT_printf.c ****         if (Div < Base) {        // Is our divider big enough to extract the highest digit from val
 291              	 .loc 1 197 9
 292 00b4 7A69     	 ldr r2,[r7,#20]
 293 00b6 7B68     	 ldr r3,[r7,#4]
 294 00b8 9A42     	 cmp r2,r3
 295 00ba 00D2     	 bcs .L18
 198:C:\Users\niels\Documents\Elektrotechniek\Jaar 2\ECS\ECSL\software\STM32\STM32Basis\Segger\Segger_RTT\RTT\SEGGER_RTT_printf.c ****           break;
 296              	 .loc 1 198 11
 297 00bc 05E0     	 b .L19
 298              	.L18:
 199:C:\Users\niels\Documents\Elektrotechniek\Jaar 2\ECS\ECSL\software\STM32\STM32Basis\Segger\Segger_RTT\RTT\SEGGER_RTT_printf.c ****         }
 200:C:\Users\niels\Documents\Elektrotechniek\Jaar 2\ECS\ECSL\software\STM32\STM32Basis\Segger\Segger_RTT\RTT\SEGGER_RTT_printf.c ****       }
 201:C:\Users\niels\Documents\Elektrotechniek\Jaar 2\ECS\ECSL\software\STM32\STM32Basis\Segger\Segger_RTT\RTT\SEGGER_RTT_printf.c ****       Digit *= Base;
 299              	 .loc 1 201 13
 300 00be 7B6A     	 ldr r3,[r7,#36]
 301 00c0 7A68     	 ldr r2,[r7,#4]
 302 00c2 02FB03F3 	 mul r3,r2,r3
 303 00c6 7B62     	 str r3,[r7,#36]
 193:C:\Users\niels\Documents\Elektrotechniek\Jaar 2\ECS\ECSL\software\STM32\STM32Basis\Segger\Segger_RTT\RTT\SEGGER_RTT_printf.c ****         NumDigits--;
 304              	 .loc 1 193 7
 305 00c8 E8E7     	 b .L20
ARM GAS   			page 10


 306              	.L19:
 202:C:\Users\niels\Documents\Elektrotechniek\Jaar 2\ECS\ECSL\software\STM32\STM32Basis\Segger\Segger_RTT\RTT\SEGGER_RTT_printf.c ****     }
 203:C:\Users\niels\Documents\Elektrotechniek\Jaar 2\ECS\ECSL\software\STM32\STM32Basis\Segger\Segger_RTT\RTT\SEGGER_RTT_printf.c ****     //
 204:C:\Users\niels\Documents\Elektrotechniek\Jaar 2\ECS\ECSL\software\STM32\STM32Basis\Segger\Segger_RTT\RTT\SEGGER_RTT_printf.c ****     // Output digits
 205:C:\Users\niels\Documents\Elektrotechniek\Jaar 2\ECS\ECSL\software\STM32\STM32Basis\Segger\Segger_RTT\RTT\SEGGER_RTT_printf.c ****     //
 206:C:\Users\niels\Documents\Elektrotechniek\Jaar 2\ECS\ECSL\software\STM32\STM32Basis\Segger\Segger_RTT\RTT\SEGGER_RTT_printf.c ****     do {
 207:C:\Users\niels\Documents\Elektrotechniek\Jaar 2\ECS\ECSL\software\STM32\STM32Basis\Segger\Segger_RTT\RTT\SEGGER_RTT_printf.c ****       Div = v / Digit;
 307              	 .loc 1 207 11
 308 00ca BA68     	 ldr r2,[r7,#8]
 309 00cc 7B6A     	 ldr r3,[r7,#36]
 310 00ce B2FBF3F3 	 udiv r3,r2,r3
 311 00d2 7B61     	 str r3,[r7,#20]
 208:C:\Users\niels\Documents\Elektrotechniek\Jaar 2\ECS\ECSL\software\STM32\STM32Basis\Segger\Segger_RTT\RTT\SEGGER_RTT_printf.c ****       v -= Div * Digit;
 312              	 .loc 1 208 16
 313 00d4 7B69     	 ldr r3,[r7,#20]
 314 00d6 7A6A     	 ldr r2,[r7,#36]
 315 00d8 02FB03F3 	 mul r3,r2,r3
 316              	 .loc 1 208 9
 317 00dc BA68     	 ldr r2,[r7,#8]
 318 00de D31A     	 subs r3,r2,r3
 319 00e0 BB60     	 str r3,[r7,#8]
 209:C:\Users\niels\Documents\Elektrotechniek\Jaar 2\ECS\ECSL\software\STM32\STM32Basis\Segger\Segger_RTT\RTT\SEGGER_RTT_printf.c ****       _StoreChar(pBufferDesc, _aV2C[Div]);
 320              	 .loc 1 209 40
 321 00e2 1B4A     	 ldr r2,.L31
 322 00e4 7B69     	 ldr r3,[r7,#20]
 323 00e6 1344     	 add r3,r3,r2
 324 00e8 1B78     	 ldrb r3,[r3]
 325              	 .loc 1 209 17
 326 00ea 1946     	 mov r1,r3
 327 00ec F868     	 ldr r0,[r7,#12]
 328 00ee FFF7FEFF 	 bl _ZL10_StoreCharP22SEGGER_RTT_PRINTF_DESCc
 210:C:\Users\niels\Documents\Elektrotechniek\Jaar 2\ECS\ECSL\software\STM32\STM32Basis\Segger\Segger_RTT\RTT\SEGGER_RTT_printf.c ****       if (pBufferDesc->ReturnValue < 0) {
 329              	 .loc 1 210 24
 330 00f2 FB68     	 ldr r3,[r7,#12]
 331 00f4 DB68     	 ldr r3,[r3,#12]
 332              	 .loc 1 210 7
 333 00f6 002B     	 cmp r3,#0
 334 00f8 08DB     	 blt .L29
 211:C:\Users\niels\Documents\Elektrotechniek\Jaar 2\ECS\ECSL\software\STM32\STM32Basis\Segger\Segger_RTT\RTT\SEGGER_RTT_printf.c ****         break;
 212:C:\Users\niels\Documents\Elektrotechniek\Jaar 2\ECS\ECSL\software\STM32\STM32Basis\Segger\Segger_RTT\RTT\SEGGER_RTT_printf.c ****       }
 213:C:\Users\niels\Documents\Elektrotechniek\Jaar 2\ECS\ECSL\software\STM32\STM32Basis\Segger\Segger_RTT\RTT\SEGGER_RTT_printf.c ****       Digit /= Base;
 335              	 .loc 1 213 13
 336 00fa 7A6A     	 ldr r2,[r7,#36]
 337 00fc 7B68     	 ldr r3,[r7,#4]
 338 00fe B2FBF3F3 	 udiv r3,r2,r3
 339 0102 7B62     	 str r3,[r7,#36]
 214:C:\Users\niels\Documents\Elektrotechniek\Jaar 2\ECS\ECSL\software\STM32\STM32Basis\Segger\Segger_RTT\RTT\SEGGER_RTT_printf.c ****     } while (Digit);
 340              	 .loc 1 214 14
 341 0104 7B6A     	 ldr r3,[r7,#36]
 342 0106 002B     	 cmp r3,#0
 343 0108 01D0     	 beq .L22
 206:C:\Users\niels\Documents\Elektrotechniek\Jaar 2\ECS\ECSL\software\STM32\STM32Basis\Segger\Segger_RTT\RTT\SEGGER_RTT_printf.c ****       Div = v / Digit;
 344              	 .loc 1 206 5
 345 010a DEE7     	 b .L19
 346              	.L29:
 211:C:\Users\niels\Documents\Elektrotechniek\Jaar 2\ECS\ECSL\software\STM32\STM32Basis\Segger\Segger_RTT\RTT\SEGGER_RTT_printf.c ****         break;
 347              	 .loc 1 211 9
ARM GAS   			page 11


 348 010c 00BF     	 nop
 349              	.L22:
 215:C:\Users\niels\Documents\Elektrotechniek\Jaar 2\ECS\ECSL\software\STM32\STM32Basis\Segger\Segger_RTT\RTT\SEGGER_RTT_printf.c ****     //
 216:C:\Users\niels\Documents\Elektrotechniek\Jaar 2\ECS\ECSL\software\STM32\STM32Basis\Segger\Segger_RTT\RTT\SEGGER_RTT_printf.c ****     // Print trailing spaces if necessary
 217:C:\Users\niels\Documents\Elektrotechniek\Jaar 2\ECS\ECSL\software\STM32\STM32Basis\Segger\Segger_RTT\RTT\SEGGER_RTT_printf.c ****     //
 218:C:\Users\niels\Documents\Elektrotechniek\Jaar 2\ECS\ECSL\software\STM32\STM32Basis\Segger\Segger_RTT\RTT\SEGGER_RTT_printf.c ****     if ((FormatFlags & FORMAT_FLAG_LEFT_JUSTIFY) == FORMAT_FLAG_LEFT_JUSTIFY) {
 350              	 .loc 1 218 22
 351 010e 7B6B     	 ldr r3,[r7,#52]
 352 0110 03F00103 	 and r3,r3,#1
 353              	 .loc 1 218 5
 354 0114 002B     	 cmp r3,#0
 355 0116 16D0     	 beq .L28
 219:C:\Users\niels\Documents\Elektrotechniek\Jaar 2\ECS\ECSL\software\STM32\STM32Basis\Segger\Segger_RTT\RTT\SEGGER_RTT_printf.c ****       if (FieldWidth != 0u) {
 356              	 .loc 1 219 7
 357 0118 3B6B     	 ldr r3,[r7,#48]
 358 011a 002B     	 cmp r3,#0
 359 011c 13D0     	 beq .L28
 360              	.L25:
 220:C:\Users\niels\Documents\Elektrotechniek\Jaar 2\ECS\ECSL\software\STM32\STM32Basis\Segger\Segger_RTT\RTT\SEGGER_RTT_printf.c ****         while ((FieldWidth != 0u) && (Width < FieldWidth)) {
 361              	 .loc 1 220 35
 362 011e 3B6B     	 ldr r3,[r7,#48]
 363 0120 002B     	 cmp r3,#0
 364 0122 10D0     	 beq .L28
 365              	 .loc 1 220 35 is_stmt 0 discriminator 1
 366 0124 FA69     	 ldr r2,[r7,#28]
 367 0126 3B6B     	 ldr r3,[r7,#48]
 368 0128 9A42     	 cmp r2,r3
 369 012a 0CD2     	 bcs .L28
 221:C:\Users\niels\Documents\Elektrotechniek\Jaar 2\ECS\ECSL\software\STM32\STM32Basis\Segger\Segger_RTT\RTT\SEGGER_RTT_printf.c ****           FieldWidth--;
 370              	 .loc 1 221 21 is_stmt 1
 371 012c 3B6B     	 ldr r3,[r7,#48]
 372 012e 013B     	 subs r3,r3,#1
 373 0130 3B63     	 str r3,[r7,#48]
 222:C:\Users\niels\Documents\Elektrotechniek\Jaar 2\ECS\ECSL\software\STM32\STM32Basis\Segger\Segger_RTT\RTT\SEGGER_RTT_printf.c ****           _StoreChar(pBufferDesc, ' ');
 374              	 .loc 1 222 21
 375 0132 2021     	 movs r1,#32
 376 0134 F868     	 ldr r0,[r7,#12]
 377 0136 FFF7FEFF 	 bl _ZL10_StoreCharP22SEGGER_RTT_PRINTF_DESCc
 223:C:\Users\niels\Documents\Elektrotechniek\Jaar 2\ECS\ECSL\software\STM32\STM32Basis\Segger\Segger_RTT\RTT\SEGGER_RTT_printf.c ****           if (pBufferDesc->ReturnValue < 0) {
 378              	 .loc 1 223 28
 379 013a FB68     	 ldr r3,[r7,#12]
 380 013c DB68     	 ldr r3,[r3,#12]
 381              	 .loc 1 223 11
 382 013e 002B     	 cmp r3,#0
 383 0140 00DB     	 blt .L30
 220:C:\Users\niels\Documents\Elektrotechniek\Jaar 2\ECS\ECSL\software\STM32\STM32Basis\Segger\Segger_RTT\RTT\SEGGER_RTT_printf.c ****           FieldWidth--;
 384              	 .loc 1 220 9
 385 0142 ECE7     	 b .L25
 386              	.L30:
 224:C:\Users\niels\Documents\Elektrotechniek\Jaar 2\ECS\ECSL\software\STM32\STM32Basis\Segger\Segger_RTT\RTT\SEGGER_RTT_printf.c ****             break;
 387              	 .loc 1 224 13
 388 0144 00BF     	 nop
 389              	.L28:
 225:C:\Users\niels\Documents\Elektrotechniek\Jaar 2\ECS\ECSL\software\STM32\STM32Basis\Segger\Segger_RTT\RTT\SEGGER_RTT_printf.c ****           }
 226:C:\Users\niels\Documents\Elektrotechniek\Jaar 2\ECS\ECSL\software\STM32\STM32Basis\Segger\Segger_RTT\RTT\SEGGER_RTT_printf.c ****         }
 227:C:\Users\niels\Documents\Elektrotechniek\Jaar 2\ECS\ECSL\software\STM32\STM32Basis\Segger\Segger_RTT\RTT\SEGGER_RTT_printf.c ****       }
 228:C:\Users\niels\Documents\Elektrotechniek\Jaar 2\ECS\ECSL\software\STM32\STM32Basis\Segger\Segger_RTT\RTT\SEGGER_RTT_printf.c ****     }
ARM GAS   			page 12


 229:C:\Users\niels\Documents\Elektrotechniek\Jaar 2\ECS\ECSL\software\STM32\STM32Basis\Segger\Segger_RTT\RTT\SEGGER_RTT_printf.c ****   }
 230:C:\Users\niels\Documents\Elektrotechniek\Jaar 2\ECS\ECSL\software\STM32\STM32Basis\Segger\Segger_RTT\RTT\SEGGER_RTT_printf.c **** }
 390              	 .loc 1 230 1
 391 0146 00BF     	 nop
 392 0148 2837     	 adds r7,r7,#40
 393              	 .cfi_def_cfa_offset 8
 394 014a BD46     	 mov sp,r7
 395              	 .cfi_def_cfa_register 13
 396              	 
 397 014c 80BD     	 pop {r7,pc}
 398              	.L32:
 399 014e 00BF     	 .align 2
 400              	.L31:
 401 0150 00000000 	 .word _ZZL14_PrintUnsignedP22SEGGER_RTT_PRINTF_DESCjjjjjE5_aV2C
 402              	 .cfi_endproc
 403              	.LFE8:
 404              	 .fnend
 405              	 .size _ZL14_PrintUnsignedP22SEGGER_RTT_PRINTF_DESCjjjjj,.-_ZL14_PrintUnsignedP22SEGGER_RTT_PRINTF_DESCjjjjj
 406              	 .section .text._ZL9_PrintIntP22SEGGER_RTT_PRINTF_DESCijjjj,"ax",%progbits
 407              	 .align 1
 408              	 .syntax unified
 409              	 .thumb
 410              	 .thumb_func
 411              	 .type _ZL9_PrintIntP22SEGGER_RTT_PRINTF_DESCijjjj,%function
 412              	_ZL9_PrintIntP22SEGGER_RTT_PRINTF_DESCijjjj:
 413              	 .fnstart
 414              	.LFB9:
 231:C:\Users\niels\Documents\Elektrotechniek\Jaar 2\ECS\ECSL\software\STM32\STM32Basis\Segger\Segger_RTT\RTT\SEGGER_RTT_printf.c **** 
 232:C:\Users\niels\Documents\Elektrotechniek\Jaar 2\ECS\ECSL\software\STM32\STM32Basis\Segger\Segger_RTT\RTT\SEGGER_RTT_printf.c **** /*********************************************************************
 233:C:\Users\niels\Documents\Elektrotechniek\Jaar 2\ECS\ECSL\software\STM32\STM32Basis\Segger\Segger_RTT\RTT\SEGGER_RTT_printf.c **** *
 234:C:\Users\niels\Documents\Elektrotechniek\Jaar 2\ECS\ECSL\software\STM32\STM32Basis\Segger\Segger_RTT\RTT\SEGGER_RTT_printf.c **** *       _PrintInt
 235:C:\Users\niels\Documents\Elektrotechniek\Jaar 2\ECS\ECSL\software\STM32\STM32Basis\Segger\Segger_RTT\RTT\SEGGER_RTT_printf.c **** */
 236:C:\Users\niels\Documents\Elektrotechniek\Jaar 2\ECS\ECSL\software\STM32\STM32Basis\Segger\Segger_RTT\RTT\SEGGER_RTT_printf.c **** static void _PrintInt(SEGGER_RTT_PRINTF_DESC * pBufferDesc, int v, unsigned Base, unsigned NumDigit
 415              	 .loc 1 236 146
 416              	 .cfi_startproc
 417              	 
 418              	 
 419 0000 80B5     	 push {r7,lr}
 420              	 .save {r7,lr}
 421              	 .cfi_def_cfa_offset 8
 422              	 .cfi_offset 7,-8
 423              	 .cfi_offset 14,-4
 424              	 .pad #32
 425 0002 88B0     	 sub sp,sp,#32
 426              	 .cfi_def_cfa_offset 40
 427              	 .setfp r7,sp,#8
 428 0004 02AF     	 add r7,sp,#8
 429              	 .cfi_def_cfa 7,32
 430 0006 F860     	 str r0,[r7,#12]
 431 0008 B960     	 str r1,[r7,#8]
 432 000a 7A60     	 str r2,[r7,#4]
 433 000c 3B60     	 str r3,[r7]
 237:C:\Users\niels\Documents\Elektrotechniek\Jaar 2\ECS\ECSL\software\STM32\STM32Basis\Segger\Segger_RTT\RTT\SEGGER_RTT_printf.c ****   unsigned Width;
 238:C:\Users\niels\Documents\Elektrotechniek\Jaar 2\ECS\ECSL\software\STM32\STM32Basis\Segger\Segger_RTT\RTT\SEGGER_RTT_printf.c ****   int Number;
 239:C:\Users\niels\Documents\Elektrotechniek\Jaar 2\ECS\ECSL\software\STM32\STM32Basis\Segger\Segger_RTT\RTT\SEGGER_RTT_printf.c **** 
 240:C:\Users\niels\Documents\Elektrotechniek\Jaar 2\ECS\ECSL\software\STM32\STM32Basis\Segger\Segger_RTT\RTT\SEGGER_RTT_printf.c ****   Number = (v < 0) ? -v : v;
 434              	 .loc 1 240 10
ARM GAS   			page 13


 435 000e BB68     	 ldr r3,[r7,#8]
 436 0010 002B     	 cmp r3,#0
 437 0012 B8BF     	 it lt
 438 0014 5B42     	 rsblt r3,r3,#0
 439 0016 3B61     	 str r3,[r7,#16]
 241:C:\Users\niels\Documents\Elektrotechniek\Jaar 2\ECS\ECSL\software\STM32\STM32Basis\Segger\Segger_RTT\RTT\SEGGER_RTT_printf.c **** 
 242:C:\Users\niels\Documents\Elektrotechniek\Jaar 2\ECS\ECSL\software\STM32\STM32Basis\Segger\Segger_RTT\RTT\SEGGER_RTT_printf.c ****   //
 243:C:\Users\niels\Documents\Elektrotechniek\Jaar 2\ECS\ECSL\software\STM32\STM32Basis\Segger\Segger_RTT\RTT\SEGGER_RTT_printf.c ****   // Get actual field width
 244:C:\Users\niels\Documents\Elektrotechniek\Jaar 2\ECS\ECSL\software\STM32\STM32Basis\Segger\Segger_RTT\RTT\SEGGER_RTT_printf.c ****   //
 245:C:\Users\niels\Documents\Elektrotechniek\Jaar 2\ECS\ECSL\software\STM32\STM32Basis\Segger\Segger_RTT\RTT\SEGGER_RTT_printf.c ****   Width = 1u;
 440              	 .loc 1 245 9
 441 0018 0123     	 movs r3,#1
 442 001a 7B61     	 str r3,[r7,#20]
 443              	.L35:
 246:C:\Users\niels\Documents\Elektrotechniek\Jaar 2\ECS\ECSL\software\STM32\STM32Basis\Segger\Segger_RTT\RTT\SEGGER_RTT_printf.c ****   while (Number >= (int)Base) {
 444              	 .loc 1 246 20
 445 001c 7B68     	 ldr r3,[r7,#4]
 446              	 .loc 1 246 17
 447 001e 3A69     	 ldr r2,[r7,#16]
 448 0020 9A42     	 cmp r2,r3
 449 0022 08DB     	 blt .L34
 247:C:\Users\niels\Documents\Elektrotechniek\Jaar 2\ECS\ECSL\software\STM32\STM32Basis\Segger\Segger_RTT\RTT\SEGGER_RTT_printf.c ****     Number = (Number / (int)Base);
 450              	 .loc 1 247 24
 451 0024 7B68     	 ldr r3,[r7,#4]
 452              	 .loc 1 247 12
 453 0026 3A69     	 ldr r2,[r7,#16]
 454 0028 92FBF3F3 	 sdiv r3,r2,r3
 455 002c 3B61     	 str r3,[r7,#16]
 248:C:\Users\niels\Documents\Elektrotechniek\Jaar 2\ECS\ECSL\software\STM32\STM32Basis\Segger\Segger_RTT\RTT\SEGGER_RTT_printf.c ****     Width++;
 456              	 .loc 1 248 10
 457 002e 7B69     	 ldr r3,[r7,#20]
 458 0030 0133     	 adds r3,r3,#1
 459 0032 7B61     	 str r3,[r7,#20]
 246:C:\Users\niels\Documents\Elektrotechniek\Jaar 2\ECS\ECSL\software\STM32\STM32Basis\Segger\Segger_RTT\RTT\SEGGER_RTT_printf.c ****   while (Number >= (int)Base) {
 460              	 .loc 1 246 3
 461 0034 F2E7     	 b .L35
 462              	.L34:
 249:C:\Users\niels\Documents\Elektrotechniek\Jaar 2\ECS\ECSL\software\STM32\STM32Basis\Segger\Segger_RTT\RTT\SEGGER_RTT_printf.c ****   }
 250:C:\Users\niels\Documents\Elektrotechniek\Jaar 2\ECS\ECSL\software\STM32\STM32Basis\Segger\Segger_RTT\RTT\SEGGER_RTT_printf.c ****   if (NumDigits > Width) {
 463              	 .loc 1 250 3
 464 0036 3A68     	 ldr r2,[r7]
 465 0038 7B69     	 ldr r3,[r7,#20]
 466 003a 9A42     	 cmp r2,r3
 467 003c 01D9     	 bls .L36
 251:C:\Users\niels\Documents\Elektrotechniek\Jaar 2\ECS\ECSL\software\STM32\STM32Basis\Segger\Segger_RTT\RTT\SEGGER_RTT_printf.c ****     Width = NumDigits;
 468              	 .loc 1 251 11
 469 003e 3B68     	 ldr r3,[r7]
 470 0040 7B61     	 str r3,[r7,#20]
 471              	.L36:
 252:C:\Users\niels\Documents\Elektrotechniek\Jaar 2\ECS\ECSL\software\STM32\STM32Basis\Segger\Segger_RTT\RTT\SEGGER_RTT_printf.c ****   }
 253:C:\Users\niels\Documents\Elektrotechniek\Jaar 2\ECS\ECSL\software\STM32\STM32Basis\Segger\Segger_RTT\RTT\SEGGER_RTT_printf.c ****   if ((FieldWidth > 0u) && ((v < 0) || ((FormatFlags & FORMAT_FLAG_PRINT_SIGN) == FORMAT_FLAG_PRINT
 472              	 .loc 1 253 3
 473 0042 3B6A     	 ldr r3,[r7,#32]
 474 0044 002B     	 cmp r3,#0
 475 0046 0AD0     	 beq .L37
 476              	 .loc 1 253 25 discriminator 1
 477 0048 BB68     	 ldr r3,[r7,#8]
ARM GAS   			page 14


 478 004a 002B     	 cmp r3,#0
 479 004c 04DB     	 blt .L38
 480              	 .loc 1 253 54 discriminator 2
 481 004e 7B6A     	 ldr r3,[r7,#36]
 482 0050 03F00403 	 and r3,r3,#4
 483              	 .loc 1 253 37 discriminator 2
 484 0054 002B     	 cmp r3,#0
 485 0056 02D0     	 beq .L37
 486              	.L38:
 254:C:\Users\niels\Documents\Elektrotechniek\Jaar 2\ECS\ECSL\software\STM32\STM32Basis\Segger\Segger_RTT\RTT\SEGGER_RTT_printf.c ****     FieldWidth--;
 487              	 .loc 1 254 15
 488 0058 3B6A     	 ldr r3,[r7,#32]
 489 005a 013B     	 subs r3,r3,#1
 490 005c 3B62     	 str r3,[r7,#32]
 491              	.L37:
 255:C:\Users\niels\Documents\Elektrotechniek\Jaar 2\ECS\ECSL\software\STM32\STM32Basis\Segger\Segger_RTT\RTT\SEGGER_RTT_printf.c ****   }
 256:C:\Users\niels\Documents\Elektrotechniek\Jaar 2\ECS\ECSL\software\STM32\STM32Basis\Segger\Segger_RTT\RTT\SEGGER_RTT_printf.c **** 
 257:C:\Users\niels\Documents\Elektrotechniek\Jaar 2\ECS\ECSL\software\STM32\STM32Basis\Segger\Segger_RTT\RTT\SEGGER_RTT_printf.c ****   //
 258:C:\Users\niels\Documents\Elektrotechniek\Jaar 2\ECS\ECSL\software\STM32\STM32Basis\Segger\Segger_RTT\RTT\SEGGER_RTT_printf.c ****   // Print leading spaces if necessary
 259:C:\Users\niels\Documents\Elektrotechniek\Jaar 2\ECS\ECSL\software\STM32\STM32Basis\Segger\Segger_RTT\RTT\SEGGER_RTT_printf.c ****   //
 260:C:\Users\niels\Documents\Elektrotechniek\Jaar 2\ECS\ECSL\software\STM32\STM32Basis\Segger\Segger_RTT\RTT\SEGGER_RTT_printf.c ****   if ((((FormatFlags & FORMAT_FLAG_PAD_ZERO) == 0u) || (NumDigits != 0u)) && ((FormatFlags & FORMAT
 492              	 .loc 1 260 22
 493 005e 7B6A     	 ldr r3,[r7,#36]
 494 0060 03F00203 	 and r3,r3,#2
 495              	 .loc 1 260 3
 496 0064 002B     	 cmp r3,#0
 497 0066 02D0     	 beq .L39
 498              	 .loc 1 260 53 discriminator 2
 499 0068 3B68     	 ldr r3,[r7]
 500 006a 002B     	 cmp r3,#0
 501 006c 1BD0     	 beq .L40
 502              	.L39:
 503              	 .loc 1 260 92 discriminator 3
 504 006e 7B6A     	 ldr r3,[r7,#36]
 505 0070 03F00103 	 and r3,r3,#1
 506              	 .loc 1 260 75 discriminator 3
 507 0074 002B     	 cmp r3,#0
 508 0076 16D1     	 bne .L40
 261:C:\Users\niels\Documents\Elektrotechniek\Jaar 2\ECS\ECSL\software\STM32\STM32Basis\Segger\Segger_RTT\RTT\SEGGER_RTT_printf.c ****     if (FieldWidth != 0u) {
 509              	 .loc 1 261 5
 510 0078 3B6A     	 ldr r3,[r7,#32]
 511 007a 002B     	 cmp r3,#0
 512 007c 13D0     	 beq .L40
 513              	.L43:
 262:C:\Users\niels\Documents\Elektrotechniek\Jaar 2\ECS\ECSL\software\STM32\STM32Basis\Segger\Segger_RTT\RTT\SEGGER_RTT_printf.c ****       while ((FieldWidth != 0u) && (Width < FieldWidth)) {
 514              	 .loc 1 262 33
 515 007e 3B6A     	 ldr r3,[r7,#32]
 516 0080 002B     	 cmp r3,#0
 517 0082 10D0     	 beq .L40
 518              	 .loc 1 262 33 is_stmt 0 discriminator 1
 519 0084 7A69     	 ldr r2,[r7,#20]
 520 0086 3B6A     	 ldr r3,[r7,#32]
 521 0088 9A42     	 cmp r2,r3
 522 008a 0CD2     	 bcs .L40
 263:C:\Users\niels\Documents\Elektrotechniek\Jaar 2\ECS\ECSL\software\STM32\STM32Basis\Segger\Segger_RTT\RTT\SEGGER_RTT_printf.c ****         FieldWidth--;
 523              	 .loc 1 263 19 is_stmt 1
 524 008c 3B6A     	 ldr r3,[r7,#32]
ARM GAS   			page 15


 525 008e 013B     	 subs r3,r3,#1
 526 0090 3B62     	 str r3,[r7,#32]
 264:C:\Users\niels\Documents\Elektrotechniek\Jaar 2\ECS\ECSL\software\STM32\STM32Basis\Segger\Segger_RTT\RTT\SEGGER_RTT_printf.c ****         _StoreChar(pBufferDesc, ' ');
 527              	 .loc 1 264 19
 528 0092 2021     	 movs r1,#32
 529 0094 F868     	 ldr r0,[r7,#12]
 530 0096 FFF7FEFF 	 bl _ZL10_StoreCharP22SEGGER_RTT_PRINTF_DESCc
 265:C:\Users\niels\Documents\Elektrotechniek\Jaar 2\ECS\ECSL\software\STM32\STM32Basis\Segger\Segger_RTT\RTT\SEGGER_RTT_printf.c ****         if (pBufferDesc->ReturnValue < 0) {
 531              	 .loc 1 265 26
 532 009a FB68     	 ldr r3,[r7,#12]
 533 009c DB68     	 ldr r3,[r3,#12]
 534              	 .loc 1 265 9
 535 009e 002B     	 cmp r3,#0
 536 00a0 00DB     	 blt .L51
 262:C:\Users\niels\Documents\Elektrotechniek\Jaar 2\ECS\ECSL\software\STM32\STM32Basis\Segger\Segger_RTT\RTT\SEGGER_RTT_printf.c ****         FieldWidth--;
 537              	 .loc 1 262 7
 538 00a2 ECE7     	 b .L43
 539              	.L51:
 266:C:\Users\niels\Documents\Elektrotechniek\Jaar 2\ECS\ECSL\software\STM32\STM32Basis\Segger\Segger_RTT\RTT\SEGGER_RTT_printf.c ****           break;
 540              	 .loc 1 266 11
 541 00a4 00BF     	 nop
 542              	.L40:
 267:C:\Users\niels\Documents\Elektrotechniek\Jaar 2\ECS\ECSL\software\STM32\STM32Basis\Segger\Segger_RTT\RTT\SEGGER_RTT_printf.c ****         }
 268:C:\Users\niels\Documents\Elektrotechniek\Jaar 2\ECS\ECSL\software\STM32\STM32Basis\Segger\Segger_RTT\RTT\SEGGER_RTT_printf.c ****       }
 269:C:\Users\niels\Documents\Elektrotechniek\Jaar 2\ECS\ECSL\software\STM32\STM32Basis\Segger\Segger_RTT\RTT\SEGGER_RTT_printf.c ****     }
 270:C:\Users\niels\Documents\Elektrotechniek\Jaar 2\ECS\ECSL\software\STM32\STM32Basis\Segger\Segger_RTT\RTT\SEGGER_RTT_printf.c ****   }
 271:C:\Users\niels\Documents\Elektrotechniek\Jaar 2\ECS\ECSL\software\STM32\STM32Basis\Segger\Segger_RTT\RTT\SEGGER_RTT_printf.c ****   //
 272:C:\Users\niels\Documents\Elektrotechniek\Jaar 2\ECS\ECSL\software\STM32\STM32Basis\Segger\Segger_RTT\RTT\SEGGER_RTT_printf.c ****   // Print sign if necessary
 273:C:\Users\niels\Documents\Elektrotechniek\Jaar 2\ECS\ECSL\software\STM32\STM32Basis\Segger\Segger_RTT\RTT\SEGGER_RTT_printf.c ****   //
 274:C:\Users\niels\Documents\Elektrotechniek\Jaar 2\ECS\ECSL\software\STM32\STM32Basis\Segger\Segger_RTT\RTT\SEGGER_RTT_printf.c ****   if (pBufferDesc->ReturnValue >= 0) {
 543              	 .loc 1 274 20
 544 00a6 FB68     	 ldr r3,[r7,#12]
 545 00a8 DB68     	 ldr r3,[r3,#12]
 546              	 .loc 1 274 3
 547 00aa 002B     	 cmp r3,#0
 548 00ac 49DB     	 blt .L52
 275:C:\Users\niels\Documents\Elektrotechniek\Jaar 2\ECS\ECSL\software\STM32\STM32Basis\Segger\Segger_RTT\RTT\SEGGER_RTT_printf.c ****     if (v < 0) {
 549              	 .loc 1 275 5
 550 00ae BB68     	 ldr r3,[r7,#8]
 551 00b0 002B     	 cmp r3,#0
 552 00b2 07DA     	 bge .L45
 276:C:\Users\niels\Documents\Elektrotechniek\Jaar 2\ECS\ECSL\software\STM32\STM32Basis\Segger\Segger_RTT\RTT\SEGGER_RTT_printf.c ****       v = -v;
 553              	 .loc 1 276 9
 554 00b4 BB68     	 ldr r3,[r7,#8]
 555 00b6 5B42     	 rsbs r3,r3,#0
 556 00b8 BB60     	 str r3,[r7,#8]
 277:C:\Users\niels\Documents\Elektrotechniek\Jaar 2\ECS\ECSL\software\STM32\STM32Basis\Segger\Segger_RTT\RTT\SEGGER_RTT_printf.c ****       _StoreChar(pBufferDesc, '-');
 557              	 .loc 1 277 17
 558 00ba 2D21     	 movs r1,#45
 559 00bc F868     	 ldr r0,[r7,#12]
 560 00be FFF7FEFF 	 bl _ZL10_StoreCharP22SEGGER_RTT_PRINTF_DESCc
 561 00c2 08E0     	 b .L46
 562              	.L45:
 278:C:\Users\niels\Documents\Elektrotechniek\Jaar 2\ECS\ECSL\software\STM32\STM32Basis\Segger\Segger_RTT\RTT\SEGGER_RTT_printf.c ****     } else if ((FormatFlags & FORMAT_FLAG_PRINT_SIGN) == FORMAT_FLAG_PRINT_SIGN) {
 563              	 .loc 1 278 29
 564 00c4 7B6A     	 ldr r3,[r7,#36]
 565 00c6 03F00403 	 and r3,r3,#4
ARM GAS   			page 16


 566              	 .loc 1 278 12
 567 00ca 002B     	 cmp r3,#0
 568 00cc 03D0     	 beq .L46
 279:C:\Users\niels\Documents\Elektrotechniek\Jaar 2\ECS\ECSL\software\STM32\STM32Basis\Segger\Segger_RTT\RTT\SEGGER_RTT_printf.c ****       _StoreChar(pBufferDesc, '+');
 569              	 .loc 1 279 17
 570 00ce 2B21     	 movs r1,#43
 571 00d0 F868     	 ldr r0,[r7,#12]
 572 00d2 FFF7FEFF 	 bl _ZL10_StoreCharP22SEGGER_RTT_PRINTF_DESCc
 573              	.L46:
 280:C:\Users\niels\Documents\Elektrotechniek\Jaar 2\ECS\ECSL\software\STM32\STM32Basis\Segger\Segger_RTT\RTT\SEGGER_RTT_printf.c ****     } else {
 281:C:\Users\niels\Documents\Elektrotechniek\Jaar 2\ECS\ECSL\software\STM32\STM32Basis\Segger\Segger_RTT\RTT\SEGGER_RTT_printf.c **** 
 282:C:\Users\niels\Documents\Elektrotechniek\Jaar 2\ECS\ECSL\software\STM32\STM32Basis\Segger\Segger_RTT\RTT\SEGGER_RTT_printf.c ****     }
 283:C:\Users\niels\Documents\Elektrotechniek\Jaar 2\ECS\ECSL\software\STM32\STM32Basis\Segger\Segger_RTT\RTT\SEGGER_RTT_printf.c ****     if (pBufferDesc->ReturnValue >= 0) {
 574              	 .loc 1 283 22
 575 00d6 FB68     	 ldr r3,[r7,#12]
 576 00d8 DB68     	 ldr r3,[r3,#12]
 577              	 .loc 1 283 5
 578 00da 002B     	 cmp r3,#0
 579 00dc 31DB     	 blt .L52
 284:C:\Users\niels\Documents\Elektrotechniek\Jaar 2\ECS\ECSL\software\STM32\STM32Basis\Segger\Segger_RTT\RTT\SEGGER_RTT_printf.c ****       //
 285:C:\Users\niels\Documents\Elektrotechniek\Jaar 2\ECS\ECSL\software\STM32\STM32Basis\Segger\Segger_RTT\RTT\SEGGER_RTT_printf.c ****       // Print leading zeros if necessary
 286:C:\Users\niels\Documents\Elektrotechniek\Jaar 2\ECS\ECSL\software\STM32\STM32Basis\Segger\Segger_RTT\RTT\SEGGER_RTT_printf.c ****       //
 287:C:\Users\niels\Documents\Elektrotechniek\Jaar 2\ECS\ECSL\software\STM32\STM32Basis\Segger\Segger_RTT\RTT\SEGGER_RTT_printf.c ****       if (((FormatFlags & FORMAT_FLAG_PAD_ZERO) == FORMAT_FLAG_PAD_ZERO) && ((FormatFlags & FORMAT_
 580              	 .loc 1 287 25
 581 00de 7B6A     	 ldr r3,[r7,#36]
 582 00e0 03F00203 	 and r3,r3,#2
 583              	 .loc 1 287 7
 584 00e4 002B     	 cmp r3,#0
 585 00e6 1ED0     	 beq .L47
 586              	 .loc 1 287 91 discriminator 1
 587 00e8 7B6A     	 ldr r3,[r7,#36]
 588 00ea 03F00103 	 and r3,r3,#1
 589              	 .loc 1 287 74 discriminator 1
 590 00ee 002B     	 cmp r3,#0
 591 00f0 19D1     	 bne .L47
 592              	 .loc 1 287 126 discriminator 2
 593 00f2 3B68     	 ldr r3,[r7]
 594 00f4 002B     	 cmp r3,#0
 595 00f6 16D1     	 bne .L47
 288:C:\Users\niels\Documents\Elektrotechniek\Jaar 2\ECS\ECSL\software\STM32\STM32Basis\Segger\Segger_RTT\RTT\SEGGER_RTT_printf.c ****         if (FieldWidth != 0u) {
 596              	 .loc 1 288 9
 597 00f8 3B6A     	 ldr r3,[r7,#32]
 598 00fa 002B     	 cmp r3,#0
 599 00fc 13D0     	 beq .L47
 600              	.L50:
 289:C:\Users\niels\Documents\Elektrotechniek\Jaar 2\ECS\ECSL\software\STM32\STM32Basis\Segger\Segger_RTT\RTT\SEGGER_RTT_printf.c ****           while ((FieldWidth != 0u) && (Width < FieldWidth)) {
 601              	 .loc 1 289 37
 602 00fe 3B6A     	 ldr r3,[r7,#32]
 603 0100 002B     	 cmp r3,#0
 604 0102 10D0     	 beq .L47
 605              	 .loc 1 289 37 is_stmt 0 discriminator 1
 606 0104 7A69     	 ldr r2,[r7,#20]
 607 0106 3B6A     	 ldr r3,[r7,#32]
 608 0108 9A42     	 cmp r2,r3
 609 010a 0CD2     	 bcs .L47
 290:C:\Users\niels\Documents\Elektrotechniek\Jaar 2\ECS\ECSL\software\STM32\STM32Basis\Segger\Segger_RTT\RTT\SEGGER_RTT_printf.c ****             FieldWidth--;
 610              	 .loc 1 290 23 is_stmt 1
ARM GAS   			page 17


 611 010c 3B6A     	 ldr r3,[r7,#32]
 612 010e 013B     	 subs r3,r3,#1
 613 0110 3B62     	 str r3,[r7,#32]
 291:C:\Users\niels\Documents\Elektrotechniek\Jaar 2\ECS\ECSL\software\STM32\STM32Basis\Segger\Segger_RTT\RTT\SEGGER_RTT_printf.c ****             _StoreChar(pBufferDesc, '0');
 614              	 .loc 1 291 23
 615 0112 3021     	 movs r1,#48
 616 0114 F868     	 ldr r0,[r7,#12]
 617 0116 FFF7FEFF 	 bl _ZL10_StoreCharP22SEGGER_RTT_PRINTF_DESCc
 292:C:\Users\niels\Documents\Elektrotechniek\Jaar 2\ECS\ECSL\software\STM32\STM32Basis\Segger\Segger_RTT\RTT\SEGGER_RTT_printf.c ****             if (pBufferDesc->ReturnValue < 0) {
 618              	 .loc 1 292 30
 619 011a FB68     	 ldr r3,[r7,#12]
 620 011c DB68     	 ldr r3,[r3,#12]
 621              	 .loc 1 292 13
 622 011e 002B     	 cmp r3,#0
 623 0120 00DB     	 blt .L53
 289:C:\Users\niels\Documents\Elektrotechniek\Jaar 2\ECS\ECSL\software\STM32\STM32Basis\Segger\Segger_RTT\RTT\SEGGER_RTT_printf.c ****             FieldWidth--;
 624              	 .loc 1 289 11
 625 0122 ECE7     	 b .L50
 626              	.L53:
 293:C:\Users\niels\Documents\Elektrotechniek\Jaar 2\ECS\ECSL\software\STM32\STM32Basis\Segger\Segger_RTT\RTT\SEGGER_RTT_printf.c ****               break;
 627              	 .loc 1 293 15
 628 0124 00BF     	 nop
 629              	.L47:
 294:C:\Users\niels\Documents\Elektrotechniek\Jaar 2\ECS\ECSL\software\STM32\STM32Basis\Segger\Segger_RTT\RTT\SEGGER_RTT_printf.c ****             }
 295:C:\Users\niels\Documents\Elektrotechniek\Jaar 2\ECS\ECSL\software\STM32\STM32Basis\Segger\Segger_RTT\RTT\SEGGER_RTT_printf.c ****           }
 296:C:\Users\niels\Documents\Elektrotechniek\Jaar 2\ECS\ECSL\software\STM32\STM32Basis\Segger\Segger_RTT\RTT\SEGGER_RTT_printf.c ****         }
 297:C:\Users\niels\Documents\Elektrotechniek\Jaar 2\ECS\ECSL\software\STM32\STM32Basis\Segger\Segger_RTT\RTT\SEGGER_RTT_printf.c ****       }
 298:C:\Users\niels\Documents\Elektrotechniek\Jaar 2\ECS\ECSL\software\STM32\STM32Basis\Segger\Segger_RTT\RTT\SEGGER_RTT_printf.c ****       if (pBufferDesc->ReturnValue >= 0) {
 630              	 .loc 1 298 24
 631 0126 FB68     	 ldr r3,[r7,#12]
 632 0128 DB68     	 ldr r3,[r3,#12]
 633              	 .loc 1 298 7
 634 012a 002B     	 cmp r3,#0
 635 012c 09DB     	 blt .L52
 299:C:\Users\niels\Documents\Elektrotechniek\Jaar 2\ECS\ECSL\software\STM32\STM32Basis\Segger\Segger_RTT\RTT\SEGGER_RTT_printf.c ****         //
 300:C:\Users\niels\Documents\Elektrotechniek\Jaar 2\ECS\ECSL\software\STM32\STM32Basis\Segger\Segger_RTT\RTT\SEGGER_RTT_printf.c ****         // Print number without sign
 301:C:\Users\niels\Documents\Elektrotechniek\Jaar 2\ECS\ECSL\software\STM32\STM32Basis\Segger\Segger_RTT\RTT\SEGGER_RTT_printf.c ****         //
 302:C:\Users\niels\Documents\Elektrotechniek\Jaar 2\ECS\ECSL\software\STM32\STM32Basis\Segger\Segger_RTT\RTT\SEGGER_RTT_printf.c ****         _PrintUnsigned(pBufferDesc, (unsigned)v, Base, NumDigits, FieldWidth, FormatFlags);
 636              	 .loc 1 302 23
 637 012e B968     	 ldr r1,[r7,#8]
 638 0130 7B6A     	 ldr r3,[r7,#36]
 639 0132 0193     	 str r3,[sp,#4]
 640 0134 3B6A     	 ldr r3,[r7,#32]
 641 0136 0093     	 str r3,[sp]
 642 0138 3B68     	 ldr r3,[r7]
 643 013a 7A68     	 ldr r2,[r7,#4]
 644 013c F868     	 ldr r0,[r7,#12]
 645 013e FFF7FEFF 	 bl _ZL14_PrintUnsignedP22SEGGER_RTT_PRINTF_DESCjjjjj
 646              	.L52:
 303:C:\Users\niels\Documents\Elektrotechniek\Jaar 2\ECS\ECSL\software\STM32\STM32Basis\Segger\Segger_RTT\RTT\SEGGER_RTT_printf.c ****       }
 304:C:\Users\niels\Documents\Elektrotechniek\Jaar 2\ECS\ECSL\software\STM32\STM32Basis\Segger\Segger_RTT\RTT\SEGGER_RTT_printf.c ****     }
 305:C:\Users\niels\Documents\Elektrotechniek\Jaar 2\ECS\ECSL\software\STM32\STM32Basis\Segger\Segger_RTT\RTT\SEGGER_RTT_printf.c ****   }
 306:C:\Users\niels\Documents\Elektrotechniek\Jaar 2\ECS\ECSL\software\STM32\STM32Basis\Segger\Segger_RTT\RTT\SEGGER_RTT_printf.c **** }
 647              	 .loc 1 306 1
 648 0142 00BF     	 nop
 649 0144 1837     	 adds r7,r7,#24
 650              	 .cfi_def_cfa_offset 8
ARM GAS   			page 18


 651 0146 BD46     	 mov sp,r7
 652              	 .cfi_def_cfa_register 13
 653              	 
 654 0148 80BD     	 pop {r7,pc}
 655              	 .cfi_endproc
 656              	.LFE9:
 657              	 .fnend
 658              	 .size _ZL9_PrintIntP22SEGGER_RTT_PRINTF_DESCijjjj,.-_ZL9_PrintIntP22SEGGER_RTT_PRINTF_DESCijjjj
 659              	 .section .text.SEGGER_RTT_vprintf,"ax",%progbits
 660              	 .align 1
 661              	 .global SEGGER_RTT_vprintf
 662              	 .syntax unified
 663              	 .thumb
 664              	 .thumb_func
 665              	 .type SEGGER_RTT_vprintf,%function
 666              	SEGGER_RTT_vprintf:
 667              	 .fnstart
 668              	.LFB10:
 307:C:\Users\niels\Documents\Elektrotechniek\Jaar 2\ECS\ECSL\software\STM32\STM32Basis\Segger\Segger_RTT\RTT\SEGGER_RTT_printf.c **** 
 308:C:\Users\niels\Documents\Elektrotechniek\Jaar 2\ECS\ECSL\software\STM32\STM32Basis\Segger\Segger_RTT\RTT\SEGGER_RTT_printf.c **** /*********************************************************************
 309:C:\Users\niels\Documents\Elektrotechniek\Jaar 2\ECS\ECSL\software\STM32\STM32Basis\Segger\Segger_RTT\RTT\SEGGER_RTT_printf.c **** *
 310:C:\Users\niels\Documents\Elektrotechniek\Jaar 2\ECS\ECSL\software\STM32\STM32Basis\Segger\Segger_RTT\RTT\SEGGER_RTT_printf.c **** *       Public code
 311:C:\Users\niels\Documents\Elektrotechniek\Jaar 2\ECS\ECSL\software\STM32\STM32Basis\Segger\Segger_RTT\RTT\SEGGER_RTT_printf.c **** *
 312:C:\Users\niels\Documents\Elektrotechniek\Jaar 2\ECS\ECSL\software\STM32\STM32Basis\Segger\Segger_RTT\RTT\SEGGER_RTT_printf.c **** **********************************************************************
 313:C:\Users\niels\Documents\Elektrotechniek\Jaar 2\ECS\ECSL\software\STM32\STM32Basis\Segger\Segger_RTT\RTT\SEGGER_RTT_printf.c **** */
 314:C:\Users\niels\Documents\Elektrotechniek\Jaar 2\ECS\ECSL\software\STM32\STM32Basis\Segger\Segger_RTT\RTT\SEGGER_RTT_printf.c **** /*********************************************************************
 315:C:\Users\niels\Documents\Elektrotechniek\Jaar 2\ECS\ECSL\software\STM32\STM32Basis\Segger\Segger_RTT\RTT\SEGGER_RTT_printf.c **** *
 316:C:\Users\niels\Documents\Elektrotechniek\Jaar 2\ECS\ECSL\software\STM32\STM32Basis\Segger\Segger_RTT\RTT\SEGGER_RTT_printf.c **** *       SEGGER_RTT_vprintf
 317:C:\Users\niels\Documents\Elektrotechniek\Jaar 2\ECS\ECSL\software\STM32\STM32Basis\Segger\Segger_RTT\RTT\SEGGER_RTT_printf.c **** *
 318:C:\Users\niels\Documents\Elektrotechniek\Jaar 2\ECS\ECSL\software\STM32\STM32Basis\Segger\Segger_RTT\RTT\SEGGER_RTT_printf.c **** *  Function description
 319:C:\Users\niels\Documents\Elektrotechniek\Jaar 2\ECS\ECSL\software\STM32\STM32Basis\Segger\Segger_RTT\RTT\SEGGER_RTT_printf.c **** *    Stores a formatted string in SEGGER RTT control block.
 320:C:\Users\niels\Documents\Elektrotechniek\Jaar 2\ECS\ECSL\software\STM32\STM32Basis\Segger\Segger_RTT\RTT\SEGGER_RTT_printf.c **** *    This data is read by the host.
 321:C:\Users\niels\Documents\Elektrotechniek\Jaar 2\ECS\ECSL\software\STM32\STM32Basis\Segger\Segger_RTT\RTT\SEGGER_RTT_printf.c **** *
 322:C:\Users\niels\Documents\Elektrotechniek\Jaar 2\ECS\ECSL\software\STM32\STM32Basis\Segger\Segger_RTT\RTT\SEGGER_RTT_printf.c **** *  Parameters
 323:C:\Users\niels\Documents\Elektrotechniek\Jaar 2\ECS\ECSL\software\STM32\STM32Basis\Segger\Segger_RTT\RTT\SEGGER_RTT_printf.c **** *    BufferIndex  Index of "Up"-buffer to be used. (e.g. 0 for "Terminal")
 324:C:\Users\niels\Documents\Elektrotechniek\Jaar 2\ECS\ECSL\software\STM32\STM32Basis\Segger\Segger_RTT\RTT\SEGGER_RTT_printf.c **** *    sFormat      Pointer to format string
 325:C:\Users\niels\Documents\Elektrotechniek\Jaar 2\ECS\ECSL\software\STM32\STM32Basis\Segger\Segger_RTT\RTT\SEGGER_RTT_printf.c **** *    pParamList   Pointer to the list of arguments for the format string
 326:C:\Users\niels\Documents\Elektrotechniek\Jaar 2\ECS\ECSL\software\STM32\STM32Basis\Segger\Segger_RTT\RTT\SEGGER_RTT_printf.c **** *
 327:C:\Users\niels\Documents\Elektrotechniek\Jaar 2\ECS\ECSL\software\STM32\STM32Basis\Segger\Segger_RTT\RTT\SEGGER_RTT_printf.c **** *  Return values
 328:C:\Users\niels\Documents\Elektrotechniek\Jaar 2\ECS\ECSL\software\STM32\STM32Basis\Segger\Segger_RTT\RTT\SEGGER_RTT_printf.c **** *    >= 0:  Number of bytes which have been stored in the "Up"-buffer.
 329:C:\Users\niels\Documents\Elektrotechniek\Jaar 2\ECS\ECSL\software\STM32\STM32Basis\Segger\Segger_RTT\RTT\SEGGER_RTT_printf.c **** *     < 0:  Error
 330:C:\Users\niels\Documents\Elektrotechniek\Jaar 2\ECS\ECSL\software\STM32\STM32Basis\Segger\Segger_RTT\RTT\SEGGER_RTT_printf.c **** */
 331:C:\Users\niels\Documents\Elektrotechniek\Jaar 2\ECS\ECSL\software\STM32\STM32Basis\Segger\Segger_RTT\RTT\SEGGER_RTT_printf.c **** int SEGGER_RTT_vprintf(unsigned BufferIndex, const char * sFormat, va_list * pParamList) {
 669              	 .loc 1 331 90
 670              	 .cfi_startproc
 671              	 
 672              	 
 673 0000 80B5     	 push {r7,lr}
 674              	 .save {r7,lr}
 675              	 .cfi_def_cfa_offset 8
 676              	 .cfi_offset 7,-8
 677              	 .cfi_offset 14,-4
 678              	 .pad #136
 679 0002 A2B0     	 sub sp,sp,#136
 680              	 .cfi_def_cfa_offset 144
 681              	 .setfp r7,sp,#8
 682 0004 02AF     	 add r7,sp,#8
ARM GAS   			page 19


 683              	 .cfi_def_cfa 7,136
 684 0006 F860     	 str r0,[r7,#12]
 685 0008 B960     	 str r1,[r7,#8]
 686 000a 7A60     	 str r2,[r7,#4]
 332:C:\Users\niels\Documents\Elektrotechniek\Jaar 2\ECS\ECSL\software\STM32\STM32Basis\Segger\Segger_RTT\RTT\SEGGER_RTT_printf.c ****   char c;
 333:C:\Users\niels\Documents\Elektrotechniek\Jaar 2\ECS\ECSL\software\STM32\STM32Basis\Segger\Segger_RTT\RTT\SEGGER_RTT_printf.c ****   SEGGER_RTT_PRINTF_DESC BufferDesc;
 334:C:\Users\niels\Documents\Elektrotechniek\Jaar 2\ECS\ECSL\software\STM32\STM32Basis\Segger\Segger_RTT\RTT\SEGGER_RTT_printf.c ****   int v;
 335:C:\Users\niels\Documents\Elektrotechniek\Jaar 2\ECS\ECSL\software\STM32\STM32Basis\Segger\Segger_RTT\RTT\SEGGER_RTT_printf.c ****   unsigned NumDigits;
 336:C:\Users\niels\Documents\Elektrotechniek\Jaar 2\ECS\ECSL\software\STM32\STM32Basis\Segger\Segger_RTT\RTT\SEGGER_RTT_printf.c ****   unsigned FormatFlags;
 337:C:\Users\niels\Documents\Elektrotechniek\Jaar 2\ECS\ECSL\software\STM32\STM32Basis\Segger\Segger_RTT\RTT\SEGGER_RTT_printf.c ****   unsigned FieldWidth;
 338:C:\Users\niels\Documents\Elektrotechniek\Jaar 2\ECS\ECSL\software\STM32\STM32Basis\Segger\Segger_RTT\RTT\SEGGER_RTT_printf.c ****   char acBuffer[SEGGER_RTT_PRINTF_BUFFER_SIZE];
 339:C:\Users\niels\Documents\Elektrotechniek\Jaar 2\ECS\ECSL\software\STM32\STM32Basis\Segger\Segger_RTT\RTT\SEGGER_RTT_printf.c **** 
 340:C:\Users\niels\Documents\Elektrotechniek\Jaar 2\ECS\ECSL\software\STM32\STM32Basis\Segger\Segger_RTT\RTT\SEGGER_RTT_printf.c ****   BufferDesc.pBuffer        = acBuffer;
 687              	 .loc 1 340 29
 688 000c 07F11003 	 add r3,r7,#16
 689 0010 3B65     	 str r3,[r7,#80]
 341:C:\Users\niels\Documents\Elektrotechniek\Jaar 2\ECS\ECSL\software\STM32\STM32Basis\Segger\Segger_RTT\RTT\SEGGER_RTT_printf.c ****   BufferDesc.BufferSize     = SEGGER_RTT_PRINTF_BUFFER_SIZE;
 690              	 .loc 1 341 29
 691 0012 4023     	 movs r3,#64
 692 0014 7B65     	 str r3,[r7,#84]
 342:C:\Users\niels\Documents\Elektrotechniek\Jaar 2\ECS\ECSL\software\STM32\STM32Basis\Segger\Segger_RTT\RTT\SEGGER_RTT_printf.c ****   BufferDesc.Cnt            = 0u;
 693              	 .loc 1 342 29
 694 0016 0023     	 movs r3,#0
 695 0018 BB65     	 str r3,[r7,#88]
 343:C:\Users\niels\Documents\Elektrotechniek\Jaar 2\ECS\ECSL\software\STM32\STM32Basis\Segger\Segger_RTT\RTT\SEGGER_RTT_printf.c ****   BufferDesc.RTTBufferIndex = BufferIndex;
 696              	 .loc 1 343 29
 697 001a FB68     	 ldr r3,[r7,#12]
 698 001c 3B66     	 str r3,[r7,#96]
 344:C:\Users\niels\Documents\Elektrotechniek\Jaar 2\ECS\ECSL\software\STM32\STM32Basis\Segger\Segger_RTT\RTT\SEGGER_RTT_printf.c ****   BufferDesc.ReturnValue    = 0;
 699              	 .loc 1 344 29
 700 001e 0023     	 movs r3,#0
 701 0020 FB65     	 str r3,[r7,#92]
 702              	.L88:
 703              	.LBB2:
 345:C:\Users\niels\Documents\Elektrotechniek\Jaar 2\ECS\ECSL\software\STM32\STM32Basis\Segger\Segger_RTT\RTT\SEGGER_RTT_printf.c **** 
 346:C:\Users\niels\Documents\Elektrotechniek\Jaar 2\ECS\ECSL\software\STM32\STM32Basis\Segger\Segger_RTT\RTT\SEGGER_RTT_printf.c ****   do {
 347:C:\Users\niels\Documents\Elektrotechniek\Jaar 2\ECS\ECSL\software\STM32\STM32Basis\Segger\Segger_RTT\RTT\SEGGER_RTT_printf.c ****     c = *sFormat;
 704              	 .loc 1 347 7
 705 0022 BB68     	 ldr r3,[r7,#8]
 706 0024 1B78     	 ldrb r3,[r3]
 707 0026 87F87F30 	 strb r3,[r7,#127]
 348:C:\Users\niels\Documents\Elektrotechniek\Jaar 2\ECS\ECSL\software\STM32\STM32Basis\Segger\Segger_RTT\RTT\SEGGER_RTT_printf.c ****     sFormat++;
 708              	 .loc 1 348 12
 709 002a BB68     	 ldr r3,[r7,#8]
 710 002c 0133     	 adds r3,r3,#1
 711 002e BB60     	 str r3,[r7,#8]
 349:C:\Users\niels\Documents\Elektrotechniek\Jaar 2\ECS\ECSL\software\STM32\STM32Basis\Segger\Segger_RTT\RTT\SEGGER_RTT_printf.c ****     if (c == 0u) {
 712              	 .loc 1 349 5
 713 0030 97F87F30 	 ldrb r3,[r7,#127]
 714 0034 002B     	 cmp r3,#0
 715 0036 00F0A281 	 beq .L93
 716              	.LBB3:
 350:C:\Users\niels\Documents\Elektrotechniek\Jaar 2\ECS\ECSL\software\STM32\STM32Basis\Segger\Segger_RTT\RTT\SEGGER_RTT_printf.c ****       break;
 351:C:\Users\niels\Documents\Elektrotechniek\Jaar 2\ECS\ECSL\software\STM32\STM32Basis\Segger\Segger_RTT\RTT\SEGGER_RTT_printf.c ****     }
 352:C:\Users\niels\Documents\Elektrotechniek\Jaar 2\ECS\ECSL\software\STM32\STM32Basis\Segger\Segger_RTT\RTT\SEGGER_RTT_printf.c ****     if (c == '%') {
 717              	 .loc 1 352 5
 718 003a 97F87F30 	 ldrb r3,[r7,#127]
ARM GAS   			page 20


 719 003e 252B     	 cmp r3,#37
 720 0040 40F09181 	 bne .L57
 721              	.LBB4:
 353:C:\Users\niels\Documents\Elektrotechniek\Jaar 2\ECS\ECSL\software\STM32\STM32Basis\Segger\Segger_RTT\RTT\SEGGER_RTT_printf.c ****       //
 354:C:\Users\niels\Documents\Elektrotechniek\Jaar 2\ECS\ECSL\software\STM32\STM32Basis\Segger\Segger_RTT\RTT\SEGGER_RTT_printf.c ****       // Filter out flags
 355:C:\Users\niels\Documents\Elektrotechniek\Jaar 2\ECS\ECSL\software\STM32\STM32Basis\Segger\Segger_RTT\RTT\SEGGER_RTT_printf.c ****       //
 356:C:\Users\niels\Documents\Elektrotechniek\Jaar 2\ECS\ECSL\software\STM32\STM32Basis\Segger\Segger_RTT\RTT\SEGGER_RTT_printf.c ****       FormatFlags = 0u;
 722              	 .loc 1 356 19
 723 0044 0023     	 movs r3,#0
 724 0046 3B67     	 str r3,[r7,#112]
 357:C:\Users\niels\Documents\Elektrotechniek\Jaar 2\ECS\ECSL\software\STM32\STM32Basis\Segger\Segger_RTT\RTT\SEGGER_RTT_printf.c ****       v = 1;
 725              	 .loc 1 357 9
 726 0048 0123     	 movs r3,#1
 727 004a BB67     	 str r3,[r7,#120]
 728              	.L66:
 358:C:\Users\niels\Documents\Elektrotechniek\Jaar 2\ECS\ECSL\software\STM32\STM32Basis\Segger\Segger_RTT\RTT\SEGGER_RTT_printf.c ****       do {
 359:C:\Users\niels\Documents\Elektrotechniek\Jaar 2\ECS\ECSL\software\STM32\STM32Basis\Segger\Segger_RTT\RTT\SEGGER_RTT_printf.c ****         c = *sFormat;
 729              	 .loc 1 359 11
 730 004c BB68     	 ldr r3,[r7,#8]
 731 004e 1B78     	 ldrb r3,[r3]
 732 0050 87F87F30 	 strb r3,[r7,#127]
 360:C:\Users\niels\Documents\Elektrotechniek\Jaar 2\ECS\ECSL\software\STM32\STM32Basis\Segger\Segger_RTT\RTT\SEGGER_RTT_printf.c ****         switch (c) {
 733              	 .loc 1 360 17
 734 0054 97F87F30 	 ldrb r3,[r7,#127]
 735              	 .loc 1 360 9
 736 0058 233B     	 subs r3,r3,#35
 737 005a 0D2B     	 cmp r3,#13
 738 005c 3ED8     	 bhi .L58
 739 005e 01A2     	 adr r2,.L60
 740 0060 52F823F0 	 ldr pc,[r2,r3,lsl#2]
 741              	 .p2align 2
 742              	.L60:
 743 0064 CD000000 	 .word .L63+1
 744 0068 DD000000 	 .word .L58+1
 745 006c DD000000 	 .word .L58+1
 746 0070 DD000000 	 .word .L58+1
 747 0074 DD000000 	 .word .L58+1
 748 0078 DD000000 	 .word .L58+1
 749 007c DD000000 	 .word .L58+1
 750 0080 DD000000 	 .word .L58+1
 751 0084 BD000000 	 .word .L62+1
 752 0088 DD000000 	 .word .L58+1
 753 008c 9D000000 	 .word .L61+1
 754 0090 DD000000 	 .word .L58+1
 755 0094 DD000000 	 .word .L58+1
 756 0098 AD000000 	 .word .L59+1
 757              	 .p2align 1
 758              	.L61:
 361:C:\Users\niels\Documents\Elektrotechniek\Jaar 2\ECS\ECSL\software\STM32\STM32Basis\Segger\Segger_RTT\RTT\SEGGER_RTT_printf.c ****         case '-': FormatFlags |= FORMAT_FLAG_LEFT_JUSTIFY; sFormat++; break;
 759              	 .loc 1 361 31
 760 009c 3B6F     	 ldr r3,[r7,#112]
 761 009e 43F00103 	 orr r3,r3,#1
 762 00a2 3B67     	 str r3,[r7,#112]
 763              	 .loc 1 361 67
 764 00a4 BB68     	 ldr r3,[r7,#8]
 765 00a6 0133     	 adds r3,r3,#1
 766 00a8 BB60     	 str r3,[r7,#8]
ARM GAS   			page 21


 767              	 .loc 1 361 71
 768 00aa 1AE0     	 b .L64
 769              	.L59:
 362:C:\Users\niels\Documents\Elektrotechniek\Jaar 2\ECS\ECSL\software\STM32\STM32Basis\Segger\Segger_RTT\RTT\SEGGER_RTT_printf.c ****         case '0': FormatFlags |= FORMAT_FLAG_PAD_ZERO;     sFormat++; break;
 770              	 .loc 1 362 31
 771 00ac 3B6F     	 ldr r3,[r7,#112]
 772 00ae 43F00203 	 orr r3,r3,#2
 773 00b2 3B67     	 str r3,[r7,#112]
 774              	 .loc 1 362 67
 775 00b4 BB68     	 ldr r3,[r7,#8]
 776 00b6 0133     	 adds r3,r3,#1
 777 00b8 BB60     	 str r3,[r7,#8]
 778              	 .loc 1 362 71
 779 00ba 12E0     	 b .L64
 780              	.L62:
 363:C:\Users\niels\Documents\Elektrotechniek\Jaar 2\ECS\ECSL\software\STM32\STM32Basis\Segger\Segger_RTT\RTT\SEGGER_RTT_printf.c ****         case '+': FormatFlags |= FORMAT_FLAG_PRINT_SIGN;   sFormat++; break;
 781              	 .loc 1 363 31
 782 00bc 3B6F     	 ldr r3,[r7,#112]
 783 00be 43F00403 	 orr r3,r3,#4
 784 00c2 3B67     	 str r3,[r7,#112]
 785              	 .loc 1 363 67
 786 00c4 BB68     	 ldr r3,[r7,#8]
 787 00c6 0133     	 adds r3,r3,#1
 788 00c8 BB60     	 str r3,[r7,#8]
 789              	 .loc 1 363 71
 790 00ca 0AE0     	 b .L64
 791              	.L63:
 364:C:\Users\niels\Documents\Elektrotechniek\Jaar 2\ECS\ECSL\software\STM32\STM32Basis\Segger\Segger_RTT\RTT\SEGGER_RTT_printf.c ****         case '#': FormatFlags |= FORMAT_FLAG_ALTERNATE;    sFormat++; break;
 792              	 .loc 1 364 31
 793 00cc 3B6F     	 ldr r3,[r7,#112]
 794 00ce 43F00803 	 orr r3,r3,#8
 795 00d2 3B67     	 str r3,[r7,#112]
 796              	 .loc 1 364 67
 797 00d4 BB68     	 ldr r3,[r7,#8]
 798 00d6 0133     	 adds r3,r3,#1
 799 00d8 BB60     	 str r3,[r7,#8]
 800              	 .loc 1 364 71
 801 00da 02E0     	 b .L64
 802              	.L58:
 365:C:\Users\niels\Documents\Elektrotechniek\Jaar 2\ECS\ECSL\software\STM32\STM32Basis\Segger\Segger_RTT\RTT\SEGGER_RTT_printf.c ****         default:  v = 0; break;
 803              	 .loc 1 365 21
 804 00dc 0023     	 movs r3,#0
 805 00de BB67     	 str r3,[r7,#120]
 806              	 .loc 1 365 26
 807 00e0 00BF     	 nop
 808              	.L64:
 366:C:\Users\niels\Documents\Elektrotechniek\Jaar 2\ECS\ECSL\software\STM32\STM32Basis\Segger\Segger_RTT\RTT\SEGGER_RTT_printf.c ****         }
 367:C:\Users\niels\Documents\Elektrotechniek\Jaar 2\ECS\ECSL\software\STM32\STM32Basis\Segger\Segger_RTT\RTT\SEGGER_RTT_printf.c ****       } while (v);
 809              	 .loc 1 367 16
 810 00e2 BB6F     	 ldr r3,[r7,#120]
 811 00e4 002B     	 cmp r3,#0
 812 00e6 00D0     	 beq .L65
 358:C:\Users\niels\Documents\Elektrotechniek\Jaar 2\ECS\ECSL\software\STM32\STM32Basis\Segger\Segger_RTT\RTT\SEGGER_RTT_printf.c ****         c = *sFormat;
 813              	 .loc 1 358 7
 814 00e8 B0E7     	 b .L66
 815              	.L65:
 368:C:\Users\niels\Documents\Elektrotechniek\Jaar 2\ECS\ECSL\software\STM32\STM32Basis\Segger\Segger_RTT\RTT\SEGGER_RTT_printf.c ****       //
ARM GAS   			page 22


 369:C:\Users\niels\Documents\Elektrotechniek\Jaar 2\ECS\ECSL\software\STM32\STM32Basis\Segger\Segger_RTT\RTT\SEGGER_RTT_printf.c ****       // filter out field with
 370:C:\Users\niels\Documents\Elektrotechniek\Jaar 2\ECS\ECSL\software\STM32\STM32Basis\Segger\Segger_RTT\RTT\SEGGER_RTT_printf.c ****       //
 371:C:\Users\niels\Documents\Elektrotechniek\Jaar 2\ECS\ECSL\software\STM32\STM32Basis\Segger\Segger_RTT\RTT\SEGGER_RTT_printf.c ****       FieldWidth = 0u;
 816              	 .loc 1 371 18
 817 00ea 0023     	 movs r3,#0
 818 00ec FB66     	 str r3,[r7,#108]
 819              	.L68:
 372:C:\Users\niels\Documents\Elektrotechniek\Jaar 2\ECS\ECSL\software\STM32\STM32Basis\Segger\Segger_RTT\RTT\SEGGER_RTT_printf.c ****       do {
 373:C:\Users\niels\Documents\Elektrotechniek\Jaar 2\ECS\ECSL\software\STM32\STM32Basis\Segger\Segger_RTT\RTT\SEGGER_RTT_printf.c ****         c = *sFormat;
 820              	 .loc 1 373 11
 821 00ee BB68     	 ldr r3,[r7,#8]
 822 00f0 1B78     	 ldrb r3,[r3]
 823 00f2 87F87F30 	 strb r3,[r7,#127]
 374:C:\Users\niels\Documents\Elektrotechniek\Jaar 2\ECS\ECSL\software\STM32\STM32Basis\Segger\Segger_RTT\RTT\SEGGER_RTT_printf.c ****         if ((c < '0') || (c > '9')) {
 824              	 .loc 1 374 9
 825 00f6 97F87F30 	 ldrb r3,[r7,#127]
 826 00fa 2F2B     	 cmp r3,#47
 827 00fc 12D9     	 bls .L67
 828              	 .loc 1 374 23 discriminator 1
 829 00fe 97F87F30 	 ldrb r3,[r7,#127]
 830 0102 392B     	 cmp r3,#57
 831 0104 0ED8     	 bhi .L67
 375:C:\Users\niels\Documents\Elektrotechniek\Jaar 2\ECS\ECSL\software\STM32\STM32Basis\Segger\Segger_RTT\RTT\SEGGER_RTT_printf.c ****           break;
 376:C:\Users\niels\Documents\Elektrotechniek\Jaar 2\ECS\ECSL\software\STM32\STM32Basis\Segger\Segger_RTT\RTT\SEGGER_RTT_printf.c ****         }
 377:C:\Users\niels\Documents\Elektrotechniek\Jaar 2\ECS\ECSL\software\STM32\STM32Basis\Segger\Segger_RTT\RTT\SEGGER_RTT_printf.c ****         sFormat++;
 832              	 .loc 1 377 16
 833 0106 BB68     	 ldr r3,[r7,#8]
 834 0108 0133     	 adds r3,r3,#1
 835 010a BB60     	 str r3,[r7,#8]
 378:C:\Users\niels\Documents\Elektrotechniek\Jaar 2\ECS\ECSL\software\STM32\STM32Basis\Segger\Segger_RTT\RTT\SEGGER_RTT_printf.c ****         FieldWidth = (FieldWidth * 10u) + ((unsigned)c - '0');
 836              	 .loc 1 378 34
 837 010c FA6E     	 ldr r2,[r7,#108]
 838 010e 1346     	 mov r3,r2
 839 0110 9B00     	 lsls r3,r3,#2
 840 0112 1344     	 add r3,r3,r2
 841 0114 5B00     	 lsls r3,r3,#1
 842 0116 1A46     	 mov r2,r3
 843              	 .loc 1 378 44
 844 0118 97F87F30 	 ldrb r3,[r7,#127]
 845              	 .loc 1 378 41
 846 011c 1344     	 add r3,r3,r2
 847              	 .loc 1 378 20
 848 011e 303B     	 subs r3,r3,#48
 849 0120 FB66     	 str r3,[r7,#108]
 373:C:\Users\niels\Documents\Elektrotechniek\Jaar 2\ECS\ECSL\software\STM32\STM32Basis\Segger\Segger_RTT\RTT\SEGGER_RTT_printf.c ****         if ((c < '0') || (c > '9')) {
 850              	 .loc 1 373 11
 851 0122 E4E7     	 b .L68
 852              	.L67:
 379:C:\Users\niels\Documents\Elektrotechniek\Jaar 2\ECS\ECSL\software\STM32\STM32Basis\Segger\Segger_RTT\RTT\SEGGER_RTT_printf.c ****       } while (1);
 380:C:\Users\niels\Documents\Elektrotechniek\Jaar 2\ECS\ECSL\software\STM32\STM32Basis\Segger\Segger_RTT\RTT\SEGGER_RTT_printf.c **** 
 381:C:\Users\niels\Documents\Elektrotechniek\Jaar 2\ECS\ECSL\software\STM32\STM32Basis\Segger\Segger_RTT\RTT\SEGGER_RTT_printf.c ****       //
 382:C:\Users\niels\Documents\Elektrotechniek\Jaar 2\ECS\ECSL\software\STM32\STM32Basis\Segger\Segger_RTT\RTT\SEGGER_RTT_printf.c ****       // Filter out precision (number of digits to display)
 383:C:\Users\niels\Documents\Elektrotechniek\Jaar 2\ECS\ECSL\software\STM32\STM32Basis\Segger\Segger_RTT\RTT\SEGGER_RTT_printf.c ****       //
 384:C:\Users\niels\Documents\Elektrotechniek\Jaar 2\ECS\ECSL\software\STM32\STM32Basis\Segger\Segger_RTT\RTT\SEGGER_RTT_printf.c ****       NumDigits = 0u;
 853              	 .loc 1 384 17
 854 0124 0023     	 movs r3,#0
 855 0126 7B67     	 str r3,[r7,#116]
ARM GAS   			page 23


 385:C:\Users\niels\Documents\Elektrotechniek\Jaar 2\ECS\ECSL\software\STM32\STM32Basis\Segger\Segger_RTT\RTT\SEGGER_RTT_printf.c ****       c = *sFormat;
 856              	 .loc 1 385 9
 857 0128 BB68     	 ldr r3,[r7,#8]
 858 012a 1B78     	 ldrb r3,[r3]
 859 012c 87F87F30 	 strb r3,[r7,#127]
 386:C:\Users\niels\Documents\Elektrotechniek\Jaar 2\ECS\ECSL\software\STM32\STM32Basis\Segger\Segger_RTT\RTT\SEGGER_RTT_printf.c ****       if (c == '.') {
 860              	 .loc 1 386 7
 861 0130 97F87F30 	 ldrb r3,[r7,#127]
 862 0134 2E2B     	 cmp r3,#46
 863 0136 1DD1     	 bne .L69
 387:C:\Users\niels\Documents\Elektrotechniek\Jaar 2\ECS\ECSL\software\STM32\STM32Basis\Segger\Segger_RTT\RTT\SEGGER_RTT_printf.c ****         sFormat++;
 864              	 .loc 1 387 16
 865 0138 BB68     	 ldr r3,[r7,#8]
 866 013a 0133     	 adds r3,r3,#1
 867 013c BB60     	 str r3,[r7,#8]
 868              	.L70:
 388:C:\Users\niels\Documents\Elektrotechniek\Jaar 2\ECS\ECSL\software\STM32\STM32Basis\Segger\Segger_RTT\RTT\SEGGER_RTT_printf.c ****         do {
 389:C:\Users\niels\Documents\Elektrotechniek\Jaar 2\ECS\ECSL\software\STM32\STM32Basis\Segger\Segger_RTT\RTT\SEGGER_RTT_printf.c ****           c = *sFormat;
 869              	 .loc 1 389 13
 870 013e BB68     	 ldr r3,[r7,#8]
 871 0140 1B78     	 ldrb r3,[r3]
 872 0142 87F87F30 	 strb r3,[r7,#127]
 390:C:\Users\niels\Documents\Elektrotechniek\Jaar 2\ECS\ECSL\software\STM32\STM32Basis\Segger\Segger_RTT\RTT\SEGGER_RTT_printf.c ****           if ((c < '0') || (c > '9')) {
 873              	 .loc 1 390 11
 874 0146 97F87F30 	 ldrb r3,[r7,#127]
 875 014a 2F2B     	 cmp r3,#47
 876 014c 12D9     	 bls .L69
 877              	 .loc 1 390 25 discriminator 1
 878 014e 97F87F30 	 ldrb r3,[r7,#127]
 879 0152 392B     	 cmp r3,#57
 880 0154 0ED8     	 bhi .L69
 391:C:\Users\niels\Documents\Elektrotechniek\Jaar 2\ECS\ECSL\software\STM32\STM32Basis\Segger\Segger_RTT\RTT\SEGGER_RTT_printf.c ****             break;
 392:C:\Users\niels\Documents\Elektrotechniek\Jaar 2\ECS\ECSL\software\STM32\STM32Basis\Segger\Segger_RTT\RTT\SEGGER_RTT_printf.c ****           }
 393:C:\Users\niels\Documents\Elektrotechniek\Jaar 2\ECS\ECSL\software\STM32\STM32Basis\Segger\Segger_RTT\RTT\SEGGER_RTT_printf.c ****           sFormat++;
 881              	 .loc 1 393 18
 882 0156 BB68     	 ldr r3,[r7,#8]
 883 0158 0133     	 adds r3,r3,#1
 884 015a BB60     	 str r3,[r7,#8]
 394:C:\Users\niels\Documents\Elektrotechniek\Jaar 2\ECS\ECSL\software\STM32\STM32Basis\Segger\Segger_RTT\RTT\SEGGER_RTT_printf.c ****           NumDigits = NumDigits * 10u + ((unsigned)c - '0');
 885              	 .loc 1 394 33
 886 015c 7A6F     	 ldr r2,[r7,#116]
 887 015e 1346     	 mov r3,r2
 888 0160 9B00     	 lsls r3,r3,#2
 889 0162 1344     	 add r3,r3,r2
 890 0164 5B00     	 lsls r3,r3,#1
 891 0166 1A46     	 mov r2,r3
 892              	 .loc 1 394 42
 893 0168 97F87F30 	 ldrb r3,[r7,#127]
 894              	 .loc 1 394 39
 895 016c 1344     	 add r3,r3,r2
 896              	 .loc 1 394 21
 897 016e 303B     	 subs r3,r3,#48
 898 0170 7B67     	 str r3,[r7,#116]
 389:C:\Users\niels\Documents\Elektrotechniek\Jaar 2\ECS\ECSL\software\STM32\STM32Basis\Segger\Segger_RTT\RTT\SEGGER_RTT_printf.c ****           if ((c < '0') || (c > '9')) {
 899              	 .loc 1 389 13
 900 0172 E4E7     	 b .L70
 901              	.L69:
ARM GAS   			page 24


 395:C:\Users\niels\Documents\Elektrotechniek\Jaar 2\ECS\ECSL\software\STM32\STM32Basis\Segger\Segger_RTT\RTT\SEGGER_RTT_printf.c ****         } while (1);
 396:C:\Users\niels\Documents\Elektrotechniek\Jaar 2\ECS\ECSL\software\STM32\STM32Basis\Segger\Segger_RTT\RTT\SEGGER_RTT_printf.c ****       }
 397:C:\Users\niels\Documents\Elektrotechniek\Jaar 2\ECS\ECSL\software\STM32\STM32Basis\Segger\Segger_RTT\RTT\SEGGER_RTT_printf.c ****       //
 398:C:\Users\niels\Documents\Elektrotechniek\Jaar 2\ECS\ECSL\software\STM32\STM32Basis\Segger\Segger_RTT\RTT\SEGGER_RTT_printf.c ****       // Filter out length modifier
 399:C:\Users\niels\Documents\Elektrotechniek\Jaar 2\ECS\ECSL\software\STM32\STM32Basis\Segger\Segger_RTT\RTT\SEGGER_RTT_printf.c ****       //
 400:C:\Users\niels\Documents\Elektrotechniek\Jaar 2\ECS\ECSL\software\STM32\STM32Basis\Segger\Segger_RTT\RTT\SEGGER_RTT_printf.c ****       c = *sFormat;
 902              	 .loc 1 400 9
 903 0174 BB68     	 ldr r3,[r7,#8]
 904 0176 1B78     	 ldrb r3,[r3]
 905 0178 87F87F30 	 strb r3,[r7,#127]
 906              	.L73:
 401:C:\Users\niels\Documents\Elektrotechniek\Jaar 2\ECS\ECSL\software\STM32\STM32Basis\Segger\Segger_RTT\RTT\SEGGER_RTT_printf.c ****       do {
 402:C:\Users\niels\Documents\Elektrotechniek\Jaar 2\ECS\ECSL\software\STM32\STM32Basis\Segger\Segger_RTT\RTT\SEGGER_RTT_printf.c ****         if ((c == 'l') || (c == 'h')) {
 907              	 .loc 1 402 9
 908 017c 97F87F30 	 ldrb r3,[r7,#127]
 909 0180 6C2B     	 cmp r3,#108
 910 0182 03D0     	 beq .L71
 911              	 .loc 1 402 24 discriminator 1
 912 0184 97F87F30 	 ldrb r3,[r7,#127]
 913 0188 682B     	 cmp r3,#104
 914 018a 07D1     	 bne .L72
 915              	.L71:
 403:C:\Users\niels\Documents\Elektrotechniek\Jaar 2\ECS\ECSL\software\STM32\STM32Basis\Segger\Segger_RTT\RTT\SEGGER_RTT_printf.c ****           sFormat++;
 916              	 .loc 1 403 18
 917 018c BB68     	 ldr r3,[r7,#8]
 918 018e 0133     	 adds r3,r3,#1
 919 0190 BB60     	 str r3,[r7,#8]
 404:C:\Users\niels\Documents\Elektrotechniek\Jaar 2\ECS\ECSL\software\STM32\STM32Basis\Segger\Segger_RTT\RTT\SEGGER_RTT_printf.c ****           c = *sFormat;
 920              	 .loc 1 404 13
 921 0192 BB68     	 ldr r3,[r7,#8]
 922 0194 1B78     	 ldrb r3,[r3]
 923 0196 87F87F30 	 strb r3,[r7,#127]
 402:C:\Users\niels\Documents\Elektrotechniek\Jaar 2\ECS\ECSL\software\STM32\STM32Basis\Segger\Segger_RTT\RTT\SEGGER_RTT_printf.c ****           sFormat++;
 924              	 .loc 1 402 9
 925 019a EFE7     	 b .L73
 926              	.L72:
 927              	.LBB5:
 405:C:\Users\niels\Documents\Elektrotechniek\Jaar 2\ECS\ECSL\software\STM32\STM32Basis\Segger\Segger_RTT\RTT\SEGGER_RTT_printf.c ****         } else {
 406:C:\Users\niels\Documents\Elektrotechniek\Jaar 2\ECS\ECSL\software\STM32\STM32Basis\Segger\Segger_RTT\RTT\SEGGER_RTT_printf.c ****           break;
 407:C:\Users\niels\Documents\Elektrotechniek\Jaar 2\ECS\ECSL\software\STM32\STM32Basis\Segger\Segger_RTT\RTT\SEGGER_RTT_printf.c ****         }
 408:C:\Users\niels\Documents\Elektrotechniek\Jaar 2\ECS\ECSL\software\STM32\STM32Basis\Segger\Segger_RTT\RTT\SEGGER_RTT_printf.c ****       } while (1);
 409:C:\Users\niels\Documents\Elektrotechniek\Jaar 2\ECS\ECSL\software\STM32\STM32Basis\Segger\Segger_RTT\RTT\SEGGER_RTT_printf.c ****       //
 410:C:\Users\niels\Documents\Elektrotechniek\Jaar 2\ECS\ECSL\software\STM32\STM32Basis\Segger\Segger_RTT\RTT\SEGGER_RTT_printf.c ****       // Handle specifiers
 411:C:\Users\niels\Documents\Elektrotechniek\Jaar 2\ECS\ECSL\software\STM32\STM32Basis\Segger\Segger_RTT\RTT\SEGGER_RTT_printf.c ****       //
 412:C:\Users\niels\Documents\Elektrotechniek\Jaar 2\ECS\ECSL\software\STM32\STM32Basis\Segger\Segger_RTT\RTT\SEGGER_RTT_printf.c ****       switch (c) {
 928              	 .loc 1 412 15
 929 019c 97F87F30 	 ldrb r3,[r7,#127]
 930              	 .loc 1 412 7
 931 01a0 252B     	 cmp r3,#37
 932 01a2 00F0D280 	 beq .L74
 933 01a6 252B     	 cmp r3,#37
 934 01a8 C0F2D680 	 blt .L94
 935 01ac 782B     	 cmp r3,#120
 936 01ae 00F3D380 	 bgt .L94
 937 01b2 582B     	 cmp r3,#88
 938 01b4 C0F2D080 	 blt .L94
 939 01b8 583B     	 subs r3,r3,#88
ARM GAS   			page 25


 940 01ba 202B     	 cmp r3,#32
 941 01bc 00F2CC80 	 bhi .L94
 942 01c0 01A2     	 adr r2,.L77
 943 01c2 52F823F0 	 ldr pc,[r2,r3,lsl#2]
 944 01c6 00BF     	 .p2align 2
 945              	.L77:
 946 01c8 BF020000 	 .word .L76+1
 947 01cc 59030000 	 .word .L94+1
 948 01d0 59030000 	 .word .L94+1
 949 01d4 59030000 	 .word .L94+1
 950 01d8 59030000 	 .word .L94+1
 951 01dc 59030000 	 .word .L94+1
 952 01e0 59030000 	 .word .L94+1
 953 01e4 59030000 	 .word .L94+1
 954 01e8 59030000 	 .word .L94+1
 955 01ec 59030000 	 .word .L94+1
 956 01f0 59030000 	 .word .L94+1
 957 01f4 4D020000 	 .word .L82+1
 958 01f8 73020000 	 .word .L81+1
 959 01fc 59030000 	 .word .L94+1
 960 0200 59030000 	 .word .L94+1
 961 0204 59030000 	 .word .L94+1
 962 0208 59030000 	 .word .L94+1
 963 020c 59030000 	 .word .L94+1
 964 0210 59030000 	 .word .L94+1
 965 0214 59030000 	 .word .L94+1
 966 0218 59030000 	 .word .L94+1
 967 021c 59030000 	 .word .L94+1
 968 0220 59030000 	 .word .L94+1
 969 0224 59030000 	 .word .L94+1
 970 0228 25030000 	 .word .L80+1
 971 022c 59030000 	 .word .L94+1
 972 0230 59030000 	 .word .L94+1
 973 0234 E5020000 	 .word .L79+1
 974 0238 59030000 	 .word .L94+1
 975 023c 99020000 	 .word .L78+1
 976 0240 59030000 	 .word .L94+1
 977 0244 59030000 	 .word .L94+1
 978 0248 BF020000 	 .word .L76+1
 979              	 .p2align 1
 980              	.L82:
 981              	.LBB6:
 982              	.LBB7:
 413:C:\Users\niels\Documents\Elektrotechniek\Jaar 2\ECS\ECSL\software\STM32\STM32Basis\Segger\Segger_RTT\RTT\SEGGER_RTT_printf.c ****       case 'c': {
 414:C:\Users\niels\Documents\Elektrotechniek\Jaar 2\ECS\ECSL\software\STM32\STM32Basis\Segger\Segger_RTT\RTT\SEGGER_RTT_printf.c ****         char c0;
 415:C:\Users\niels\Documents\Elektrotechniek\Jaar 2\ECS\ECSL\software\STM32\STM32Basis\Segger\Segger_RTT\RTT\SEGGER_RTT_printf.c ****         v = va_arg(*pParamList, int);
 983              	 .loc 1 415 11
 984 024c 7B68     	 ldr r3,[r7,#4]
 985 024e 1B68     	 ldr r3,[r3]
 986 0250 191D     	 adds r1,r3,#4
 987 0252 7A68     	 ldr r2,[r7,#4]
 988 0254 1160     	 str r1,[r2]
 989 0256 1B68     	 ldr r3,[r3]
 990 0258 BB67     	 str r3,[r7,#120]
 416:C:\Users\niels\Documents\Elektrotechniek\Jaar 2\ECS\ECSL\software\STM32\STM32Basis\Segger\Segger_RTT\RTT\SEGGER_RTT_printf.c ****         c0 = (char)v;
 991              	 .loc 1 416 12
 992 025a BB6F     	 ldr r3,[r7,#120]
ARM GAS   			page 26


 993 025c 87F86730 	 strb r3,[r7,#103]
 417:C:\Users\niels\Documents\Elektrotechniek\Jaar 2\ECS\ECSL\software\STM32\STM32Basis\Segger\Segger_RTT\RTT\SEGGER_RTT_printf.c ****         _StoreChar(&BufferDesc, c0);
 994              	 .loc 1 417 19
 995 0260 97F86720 	 ldrb r2,[r7,#103]
 996 0264 07F15003 	 add r3,r7,#80
 997 0268 1146     	 mov r1,r2
 998 026a 1846     	 mov r0,r3
 999 026c FFF7FEFF 	 bl _ZL10_StoreCharP22SEGGER_RTT_PRINTF_DESCc
 418:C:\Users\niels\Documents\Elektrotechniek\Jaar 2\ECS\ECSL\software\STM32\STM32Basis\Segger\Segger_RTT\RTT\SEGGER_RTT_printf.c ****         break;
 1000              	 .loc 1 418 9
 1001 0270 75E0     	 b .L83
 1002              	.L81:
 1003              	.LBE7:
 419:C:\Users\niels\Documents\Elektrotechniek\Jaar 2\ECS\ECSL\software\STM32\STM32Basis\Segger\Segger_RTT\RTT\SEGGER_RTT_printf.c ****       }
 420:C:\Users\niels\Documents\Elektrotechniek\Jaar 2\ECS\ECSL\software\STM32\STM32Basis\Segger\Segger_RTT\RTT\SEGGER_RTT_printf.c ****       case 'd':
 421:C:\Users\niels\Documents\Elektrotechniek\Jaar 2\ECS\ECSL\software\STM32\STM32Basis\Segger\Segger_RTT\RTT\SEGGER_RTT_printf.c ****         v = va_arg(*pParamList, int);
 1004              	 .loc 1 421 11
 1005 0272 7B68     	 ldr r3,[r7,#4]
 1006 0274 1B68     	 ldr r3,[r3]
 1007 0276 191D     	 adds r1,r3,#4
 1008 0278 7A68     	 ldr r2,[r7,#4]
 1009 027a 1160     	 str r1,[r2]
 1010 027c 1B68     	 ldr r3,[r3]
 1011 027e BB67     	 str r3,[r7,#120]
 422:C:\Users\niels\Documents\Elektrotechniek\Jaar 2\ECS\ECSL\software\STM32\STM32Basis\Segger\Segger_RTT\RTT\SEGGER_RTT_printf.c ****         _PrintInt(&BufferDesc, v, 10u, NumDigits, FieldWidth, FormatFlags);
 1012              	 .loc 1 422 18
 1013 0280 07F15000 	 add r0,r7,#80
 1014 0284 3B6F     	 ldr r3,[r7,#112]
 1015 0286 0193     	 str r3,[sp,#4]
 1016 0288 FB6E     	 ldr r3,[r7,#108]
 1017 028a 0093     	 str r3,[sp]
 1018 028c 7B6F     	 ldr r3,[r7,#116]
 1019 028e 0A22     	 movs r2,#10
 1020 0290 B96F     	 ldr r1,[r7,#120]
 1021 0292 FFF7FEFF 	 bl _ZL9_PrintIntP22SEGGER_RTT_PRINTF_DESCijjjj
 423:C:\Users\niels\Documents\Elektrotechniek\Jaar 2\ECS\ECSL\software\STM32\STM32Basis\Segger\Segger_RTT\RTT\SEGGER_RTT_printf.c ****         break;
 1022              	 .loc 1 423 9
 1023 0296 62E0     	 b .L83
 1024              	.L78:
 424:C:\Users\niels\Documents\Elektrotechniek\Jaar 2\ECS\ECSL\software\STM32\STM32Basis\Segger\Segger_RTT\RTT\SEGGER_RTT_printf.c ****       case 'u':
 425:C:\Users\niels\Documents\Elektrotechniek\Jaar 2\ECS\ECSL\software\STM32\STM32Basis\Segger\Segger_RTT\RTT\SEGGER_RTT_printf.c ****         v = va_arg(*pParamList, int);
 1025              	 .loc 1 425 11
 1026 0298 7B68     	 ldr r3,[r7,#4]
 1027 029a 1B68     	 ldr r3,[r3]
 1028 029c 191D     	 adds r1,r3,#4
 1029 029e 7A68     	 ldr r2,[r7,#4]
 1030 02a0 1160     	 str r1,[r2]
 1031 02a2 1B68     	 ldr r3,[r3]
 1032 02a4 BB67     	 str r3,[r7,#120]
 426:C:\Users\niels\Documents\Elektrotechniek\Jaar 2\ECS\ECSL\software\STM32\STM32Basis\Segger\Segger_RTT\RTT\SEGGER_RTT_printf.c ****         _PrintUnsigned(&BufferDesc, (unsigned)v, 10u, NumDigits, FieldWidth, FormatFlags);
 1033              	 .loc 1 426 23
 1034 02a6 B96F     	 ldr r1,[r7,#120]
 1035 02a8 07F15000 	 add r0,r7,#80
 1036 02ac 3B6F     	 ldr r3,[r7,#112]
 1037 02ae 0193     	 str r3,[sp,#4]
 1038 02b0 FB6E     	 ldr r3,[r7,#108]
 1039 02b2 0093     	 str r3,[sp]
ARM GAS   			page 27


 1040 02b4 7B6F     	 ldr r3,[r7,#116]
 1041 02b6 0A22     	 movs r2,#10
 1042 02b8 FFF7FEFF 	 bl _ZL14_PrintUnsignedP22SEGGER_RTT_PRINTF_DESCjjjjj
 427:C:\Users\niels\Documents\Elektrotechniek\Jaar 2\ECS\ECSL\software\STM32\STM32Basis\Segger\Segger_RTT\RTT\SEGGER_RTT_printf.c ****         break;
 1043              	 .loc 1 427 9
 1044 02bc 4FE0     	 b .L83
 1045              	.L76:
 428:C:\Users\niels\Documents\Elektrotechniek\Jaar 2\ECS\ECSL\software\STM32\STM32Basis\Segger\Segger_RTT\RTT\SEGGER_RTT_printf.c ****       case 'x':
 429:C:\Users\niels\Documents\Elektrotechniek\Jaar 2\ECS\ECSL\software\STM32\STM32Basis\Segger\Segger_RTT\RTT\SEGGER_RTT_printf.c ****       case 'X':
 430:C:\Users\niels\Documents\Elektrotechniek\Jaar 2\ECS\ECSL\software\STM32\STM32Basis\Segger\Segger_RTT\RTT\SEGGER_RTT_printf.c ****         v = va_arg(*pParamList, int);
 1046              	 .loc 1 430 11
 1047 02be 7B68     	 ldr r3,[r7,#4]
 1048 02c0 1B68     	 ldr r3,[r3]
 1049 02c2 191D     	 adds r1,r3,#4
 1050 02c4 7A68     	 ldr r2,[r7,#4]
 1051 02c6 1160     	 str r1,[r2]
 1052 02c8 1B68     	 ldr r3,[r3]
 1053 02ca BB67     	 str r3,[r7,#120]
 431:C:\Users\niels\Documents\Elektrotechniek\Jaar 2\ECS\ECSL\software\STM32\STM32Basis\Segger\Segger_RTT\RTT\SEGGER_RTT_printf.c ****         _PrintUnsigned(&BufferDesc, (unsigned)v, 16u, NumDigits, FieldWidth, FormatFlags);
 1054              	 .loc 1 431 23
 1055 02cc B96F     	 ldr r1,[r7,#120]
 1056 02ce 07F15000 	 add r0,r7,#80
 1057 02d2 3B6F     	 ldr r3,[r7,#112]
 1058 02d4 0193     	 str r3,[sp,#4]
 1059 02d6 FB6E     	 ldr r3,[r7,#108]
 1060 02d8 0093     	 str r3,[sp]
 1061 02da 7B6F     	 ldr r3,[r7,#116]
 1062 02dc 1022     	 movs r2,#16
 1063 02de FFF7FEFF 	 bl _ZL14_PrintUnsignedP22SEGGER_RTT_PRINTF_DESCjjjjj
 432:C:\Users\niels\Documents\Elektrotechniek\Jaar 2\ECS\ECSL\software\STM32\STM32Basis\Segger\Segger_RTT\RTT\SEGGER_RTT_printf.c ****         break;
 1064              	 .loc 1 432 9
 1065 02e2 3CE0     	 b .L83
 1066              	.L79:
 1067              	.LBB8:
 433:C:\Users\niels\Documents\Elektrotechniek\Jaar 2\ECS\ECSL\software\STM32\STM32Basis\Segger\Segger_RTT\RTT\SEGGER_RTT_printf.c ****       case 's':
 434:C:\Users\niels\Documents\Elektrotechniek\Jaar 2\ECS\ECSL\software\STM32\STM32Basis\Segger\Segger_RTT\RTT\SEGGER_RTT_printf.c ****         {
 435:C:\Users\niels\Documents\Elektrotechniek\Jaar 2\ECS\ECSL\software\STM32\STM32Basis\Segger\Segger_RTT\RTT\SEGGER_RTT_printf.c ****           const char * s = va_arg(*pParamList, const char *);
 1068              	 .loc 1 435 28
 1069 02e4 7B68     	 ldr r3,[r7,#4]
 1070 02e6 1B68     	 ldr r3,[r3]
 1071 02e8 191D     	 adds r1,r3,#4
 1072 02ea 7A68     	 ldr r2,[r7,#4]
 1073 02ec 1160     	 str r1,[r2]
 1074 02ee 1B68     	 ldr r3,[r3]
 1075 02f0 BB66     	 str r3,[r7,#104]
 1076              	.L86:
 436:C:\Users\niels\Documents\Elektrotechniek\Jaar 2\ECS\ECSL\software\STM32\STM32Basis\Segger\Segger_RTT\RTT\SEGGER_RTT_printf.c ****           do {
 437:C:\Users\niels\Documents\Elektrotechniek\Jaar 2\ECS\ECSL\software\STM32\STM32Basis\Segger\Segger_RTT\RTT\SEGGER_RTT_printf.c ****             c = *s;
 1077              	 .loc 1 437 15
 1078 02f2 BB6E     	 ldr r3,[r7,#104]
 1079 02f4 1B78     	 ldrb r3,[r3]
 1080 02f6 87F87F30 	 strb r3,[r7,#127]
 438:C:\Users\niels\Documents\Elektrotechniek\Jaar 2\ECS\ECSL\software\STM32\STM32Basis\Segger\Segger_RTT\RTT\SEGGER_RTT_printf.c ****             s++;
 1081              	 .loc 1 438 14
 1082 02fa BB6E     	 ldr r3,[r7,#104]
 1083 02fc 0133     	 adds r3,r3,#1
 1084 02fe BB66     	 str r3,[r7,#104]
ARM GAS   			page 28


 439:C:\Users\niels\Documents\Elektrotechniek\Jaar 2\ECS\ECSL\software\STM32\STM32Basis\Segger\Segger_RTT\RTT\SEGGER_RTT_printf.c ****             if (c == '\0') {
 1085              	 .loc 1 439 13
 1086 0300 97F87F30 	 ldrb r3,[r7,#127]
 1087 0304 002B     	 cmp r3,#0
 1088 0306 0BD0     	 beq .L95
 440:C:\Users\niels\Documents\Elektrotechniek\Jaar 2\ECS\ECSL\software\STM32\STM32Basis\Segger\Segger_RTT\RTT\SEGGER_RTT_printf.c ****               break;
 441:C:\Users\niels\Documents\Elektrotechniek\Jaar 2\ECS\ECSL\software\STM32\STM32Basis\Segger\Segger_RTT\RTT\SEGGER_RTT_printf.c ****             }
 442:C:\Users\niels\Documents\Elektrotechniek\Jaar 2\ECS\ECSL\software\STM32\STM32Basis\Segger\Segger_RTT\RTT\SEGGER_RTT_printf.c ****            _StoreChar(&BufferDesc, c);
 1089              	 .loc 1 442 22
 1090 0308 97F87F20 	 ldrb r2,[r7,#127]
 1091 030c 07F15003 	 add r3,r7,#80
 1092 0310 1146     	 mov r1,r2
 1093 0312 1846     	 mov r0,r3
 1094 0314 FFF7FEFF 	 bl _ZL10_StoreCharP22SEGGER_RTT_PRINTF_DESCc
 443:C:\Users\niels\Documents\Elektrotechniek\Jaar 2\ECS\ECSL\software\STM32\STM32Basis\Segger\Segger_RTT\RTT\SEGGER_RTT_printf.c ****           } while (BufferDesc.ReturnValue >= 0);
 1095              	 .loc 1 443 31
 1096 0318 FB6D     	 ldr r3,[r7,#92]
 1097              	 .loc 1 443 43
 1098 031a 002B     	 cmp r3,#0
 1099 031c 1EDB     	 blt .L96
 436:C:\Users\niels\Documents\Elektrotechniek\Jaar 2\ECS\ECSL\software\STM32\STM32Basis\Segger\Segger_RTT\RTT\SEGGER_RTT_printf.c ****             c = *s;
 1100              	 .loc 1 436 11
 1101 031e E8E7     	 b .L86
 1102              	.L95:
 440:C:\Users\niels\Documents\Elektrotechniek\Jaar 2\ECS\ECSL\software\STM32\STM32Basis\Segger\Segger_RTT\RTT\SEGGER_RTT_printf.c ****               break;
 1103              	 .loc 1 440 15
 1104 0320 00BF     	 nop
 1105              	.LBE8:
 444:C:\Users\niels\Documents\Elektrotechniek\Jaar 2\ECS\ECSL\software\STM32\STM32Basis\Segger\Segger_RTT\RTT\SEGGER_RTT_printf.c ****         }
 445:C:\Users\niels\Documents\Elektrotechniek\Jaar 2\ECS\ECSL\software\STM32\STM32Basis\Segger\Segger_RTT\RTT\SEGGER_RTT_printf.c ****         break;
 1106              	 .loc 1 445 9
 1107 0322 1BE0     	 b .L96
 1108              	.L80:
 446:C:\Users\niels\Documents\Elektrotechniek\Jaar 2\ECS\ECSL\software\STM32\STM32Basis\Segger\Segger_RTT\RTT\SEGGER_RTT_printf.c ****       case 'p':
 447:C:\Users\niels\Documents\Elektrotechniek\Jaar 2\ECS\ECSL\software\STM32\STM32Basis\Segger\Segger_RTT\RTT\SEGGER_RTT_printf.c ****         v = va_arg(*pParamList, int);
 1109              	 .loc 1 447 11
 1110 0324 7B68     	 ldr r3,[r7,#4]
 1111 0326 1B68     	 ldr r3,[r3]
 1112 0328 191D     	 adds r1,r3,#4
 1113 032a 7A68     	 ldr r2,[r7,#4]
 1114 032c 1160     	 str r1,[r2]
 1115 032e 1B68     	 ldr r3,[r3]
 1116 0330 BB67     	 str r3,[r7,#120]
 448:C:\Users\niels\Documents\Elektrotechniek\Jaar 2\ECS\ECSL\software\STM32\STM32Basis\Segger\Segger_RTT\RTT\SEGGER_RTT_printf.c ****         _PrintUnsigned(&BufferDesc, (unsigned)v, 16u, 8u, 8u, 0u);
 1117              	 .loc 1 448 23
 1118 0332 B96F     	 ldr r1,[r7,#120]
 1119 0334 07F15000 	 add r0,r7,#80
 1120 0338 0023     	 movs r3,#0
 1121 033a 0193     	 str r3,[sp,#4]
 1122 033c 0823     	 movs r3,#8
 1123 033e 0093     	 str r3,[sp]
 1124 0340 0823     	 movs r3,#8
 1125 0342 1022     	 movs r2,#16
 1126 0344 FFF7FEFF 	 bl _ZL14_PrintUnsignedP22SEGGER_RTT_PRINTF_DESCjjjjj
 449:C:\Users\niels\Documents\Elektrotechniek\Jaar 2\ECS\ECSL\software\STM32\STM32Basis\Segger\Segger_RTT\RTT\SEGGER_RTT_printf.c ****         break;
 1127              	 .loc 1 449 9
 1128 0348 09E0     	 b .L83
ARM GAS   			page 29


 1129              	.L74:
 450:C:\Users\niels\Documents\Elektrotechniek\Jaar 2\ECS\ECSL\software\STM32\STM32Basis\Segger\Segger_RTT\RTT\SEGGER_RTT_printf.c ****       case '%':
 451:C:\Users\niels\Documents\Elektrotechniek\Jaar 2\ECS\ECSL\software\STM32\STM32Basis\Segger\Segger_RTT\RTT\SEGGER_RTT_printf.c ****         _StoreChar(&BufferDesc, '%');
 1130              	 .loc 1 451 19
 1131 034a 07F15003 	 add r3,r7,#80
 1132 034e 2521     	 movs r1,#37
 1133 0350 1846     	 mov r0,r3
 1134 0352 FFF7FEFF 	 bl _ZL10_StoreCharP22SEGGER_RTT_PRINTF_DESCc
 452:C:\Users\niels\Documents\Elektrotechniek\Jaar 2\ECS\ECSL\software\STM32\STM32Basis\Segger\Segger_RTT\RTT\SEGGER_RTT_printf.c ****         break;
 1135              	 .loc 1 452 9
 1136 0356 02E0     	 b .L83
 1137              	.L94:
 453:C:\Users\niels\Documents\Elektrotechniek\Jaar 2\ECS\ECSL\software\STM32\STM32Basis\Segger\Segger_RTT\RTT\SEGGER_RTT_printf.c ****       default:
 454:C:\Users\niels\Documents\Elektrotechniek\Jaar 2\ECS\ECSL\software\STM32\STM32Basis\Segger\Segger_RTT\RTT\SEGGER_RTT_printf.c ****         break;
 1138              	 .loc 1 454 9
 1139 0358 00BF     	 nop
 1140 035a 00E0     	 b .L83
 1141              	.L96:
 445:C:\Users\niels\Documents\Elektrotechniek\Jaar 2\ECS\ECSL\software\STM32\STM32Basis\Segger\Segger_RTT\RTT\SEGGER_RTT_printf.c ****       case 'p':
 1142              	 .loc 1 445 9
 1143 035c 00BF     	 nop
 1144              	.L83:
 1145              	.LBE6:
 1146              	.LBE5:
 455:C:\Users\niels\Documents\Elektrotechniek\Jaar 2\ECS\ECSL\software\STM32\STM32Basis\Segger\Segger_RTT\RTT\SEGGER_RTT_printf.c ****       }
 456:C:\Users\niels\Documents\Elektrotechniek\Jaar 2\ECS\ECSL\software\STM32\STM32Basis\Segger\Segger_RTT\RTT\SEGGER_RTT_printf.c ****       sFormat++;
 1147              	 .loc 1 456 14
 1148 035e BB68     	 ldr r3,[r7,#8]
 1149 0360 0133     	 adds r3,r3,#1
 1150 0362 BB60     	 str r3,[r7,#8]
 1151              	.LBE4:
 1152 0364 07E0     	 b .L87
 1153              	.L57:
 457:C:\Users\niels\Documents\Elektrotechniek\Jaar 2\ECS\ECSL\software\STM32\STM32Basis\Segger\Segger_RTT\RTT\SEGGER_RTT_printf.c ****     } else {
 458:C:\Users\niels\Documents\Elektrotechniek\Jaar 2\ECS\ECSL\software\STM32\STM32Basis\Segger\Segger_RTT\RTT\SEGGER_RTT_printf.c ****       _StoreChar(&BufferDesc, c);
 1154              	 .loc 1 458 17
 1155 0366 97F87F20 	 ldrb r2,[r7,#127]
 1156 036a 07F15003 	 add r3,r7,#80
 1157 036e 1146     	 mov r1,r2
 1158 0370 1846     	 mov r0,r3
 1159 0372 FFF7FEFF 	 bl _ZL10_StoreCharP22SEGGER_RTT_PRINTF_DESCc
 1160              	.L87:
 1161              	.LBE3:
 1162              	.LBE2:
 459:C:\Users\niels\Documents\Elektrotechniek\Jaar 2\ECS\ECSL\software\STM32\STM32Basis\Segger\Segger_RTT\RTT\SEGGER_RTT_printf.c ****     }
 460:C:\Users\niels\Documents\Elektrotechniek\Jaar 2\ECS\ECSL\software\STM32\STM32Basis\Segger\Segger_RTT\RTT\SEGGER_RTT_printf.c ****   } while (BufferDesc.ReturnValue >= 0);
 1163              	 .loc 1 460 23
 1164 0376 FB6D     	 ldr r3,[r7,#92]
 1165              	 .loc 1 460 35
 1166 0378 002B     	 cmp r3,#0
 1167 037a 01DB     	 blt .L56
 346:C:\Users\niels\Documents\Elektrotechniek\Jaar 2\ECS\ECSL\software\STM32\STM32Basis\Segger\Segger_RTT\RTT\SEGGER_RTT_printf.c ****     c = *sFormat;
 1168              	 .loc 1 346 3
 1169 037c 51E6     	 b .L88
 1170              	.L93:
 1171              	.LBB9:
 350:C:\Users\niels\Documents\Elektrotechniek\Jaar 2\ECS\ECSL\software\STM32\STM32Basis\Segger\Segger_RTT\RTT\SEGGER_RTT_printf.c ****     }
ARM GAS   			page 30


 1172              	 .loc 1 350 7
 1173 037e 00BF     	 nop
 1174              	.L56:
 1175              	.LBE9:
 461:C:\Users\niels\Documents\Elektrotechniek\Jaar 2\ECS\ECSL\software\STM32\STM32Basis\Segger\Segger_RTT\RTT\SEGGER_RTT_printf.c **** 
 462:C:\Users\niels\Documents\Elektrotechniek\Jaar 2\ECS\ECSL\software\STM32\STM32Basis\Segger\Segger_RTT\RTT\SEGGER_RTT_printf.c ****   if (BufferDesc.ReturnValue > 0) {
 1176              	 .loc 1 462 18
 1177 0380 FB6D     	 ldr r3,[r7,#92]
 1178              	 .loc 1 462 3
 1179 0382 002B     	 cmp r3,#0
 1180 0384 0DDD     	 ble .L89
 463:C:\Users\niels\Documents\Elektrotechniek\Jaar 2\ECS\ECSL\software\STM32\STM32Basis\Segger\Segger_RTT\RTT\SEGGER_RTT_printf.c ****     //
 464:C:\Users\niels\Documents\Elektrotechniek\Jaar 2\ECS\ECSL\software\STM32\STM32Basis\Segger\Segger_RTT\RTT\SEGGER_RTT_printf.c ****     // Write remaining data, if any
 465:C:\Users\niels\Documents\Elektrotechniek\Jaar 2\ECS\ECSL\software\STM32\STM32Basis\Segger\Segger_RTT\RTT\SEGGER_RTT_printf.c ****     //
 466:C:\Users\niels\Documents\Elektrotechniek\Jaar 2\ECS\ECSL\software\STM32\STM32Basis\Segger\Segger_RTT\RTT\SEGGER_RTT_printf.c ****     if (BufferDesc.Cnt != 0u) {
 1181              	 .loc 1 466 20
 1182 0386 BB6D     	 ldr r3,[r7,#88]
 1183              	 .loc 1 466 5
 1184 0388 002B     	 cmp r3,#0
 1185 038a 06D0     	 beq .L90
 467:C:\Users\niels\Documents\Elektrotechniek\Jaar 2\ECS\ECSL\software\STM32\STM32Basis\Segger\Segger_RTT\RTT\SEGGER_RTT_printf.c ****       SEGGER_RTT_Write(BufferIndex, acBuffer, BufferDesc.Cnt);
 1186              	 .loc 1 467 23
 1187 038c BA6D     	 ldr r2,[r7,#88]
 1188 038e 07F11003 	 add r3,r7,#16
 1189 0392 1946     	 mov r1,r3
 1190 0394 F868     	 ldr r0,[r7,#12]
 1191 0396 FFF7FEFF 	 bl SEGGER_RTT_Write
 1192              	.L90:
 468:C:\Users\niels\Documents\Elektrotechniek\Jaar 2\ECS\ECSL\software\STM32\STM32Basis\Segger\Segger_RTT\RTT\SEGGER_RTT_printf.c ****     }
 469:C:\Users\niels\Documents\Elektrotechniek\Jaar 2\ECS\ECSL\software\STM32\STM32Basis\Segger\Segger_RTT\RTT\SEGGER_RTT_printf.c ****     BufferDesc.ReturnValue += (int)BufferDesc.Cnt;
 1193              	 .loc 1 469 28
 1194 039a FB6D     	 ldr r3,[r7,#92]
 1195              	 .loc 1 469 47
 1196 039c BA6D     	 ldr r2,[r7,#88]
 1197              	 .loc 1 469 28
 1198 039e 1344     	 add r3,r3,r2
 1199 03a0 FB65     	 str r3,[r7,#92]
 1200              	.L89:
 470:C:\Users\niels\Documents\Elektrotechniek\Jaar 2\ECS\ECSL\software\STM32\STM32Basis\Segger\Segger_RTT\RTT\SEGGER_RTT_printf.c ****   }
 471:C:\Users\niels\Documents\Elektrotechniek\Jaar 2\ECS\ECSL\software\STM32\STM32Basis\Segger\Segger_RTT\RTT\SEGGER_RTT_printf.c ****   return BufferDesc.ReturnValue;
 1201              	 .loc 1 471 21
 1202 03a2 FB6D     	 ldr r3,[r7,#92]
 472:C:\Users\niels\Documents\Elektrotechniek\Jaar 2\ECS\ECSL\software\STM32\STM32Basis\Segger\Segger_RTT\RTT\SEGGER_RTT_printf.c **** }
 1203              	 .loc 1 472 1
 1204 03a4 1846     	 mov r0,r3
 1205 03a6 8037     	 adds r7,r7,#128
 1206              	 .cfi_def_cfa_offset 8
 1207 03a8 BD46     	 mov sp,r7
 1208              	 .cfi_def_cfa_register 13
 1209              	 
 1210 03aa 80BD     	 pop {r7,pc}
 1211              	 .cfi_endproc
 1212              	.LFE10:
 1213              	 .fnend
 1214              	 .size SEGGER_RTT_vprintf,.-SEGGER_RTT_vprintf
 1215              	 .section .text.SEGGER_RTT_printf,"ax",%progbits
 1216              	 .align 1
ARM GAS   			page 31


 1217              	 .global SEGGER_RTT_printf
 1218              	 .syntax unified
 1219              	 .thumb
 1220              	 .thumb_func
 1221              	 .type SEGGER_RTT_printf,%function
 1222              	SEGGER_RTT_printf:
 1223              	 .fnstart
 1224              	.LFB11:
 473:C:\Users\niels\Documents\Elektrotechniek\Jaar 2\ECS\ECSL\software\STM32\STM32Basis\Segger\Segger_RTT\RTT\SEGGER_RTT_printf.c **** 
 474:C:\Users\niels\Documents\Elektrotechniek\Jaar 2\ECS\ECSL\software\STM32\STM32Basis\Segger\Segger_RTT\RTT\SEGGER_RTT_printf.c **** /*********************************************************************
 475:C:\Users\niels\Documents\Elektrotechniek\Jaar 2\ECS\ECSL\software\STM32\STM32Basis\Segger\Segger_RTT\RTT\SEGGER_RTT_printf.c **** *
 476:C:\Users\niels\Documents\Elektrotechniek\Jaar 2\ECS\ECSL\software\STM32\STM32Basis\Segger\Segger_RTT\RTT\SEGGER_RTT_printf.c **** *       SEGGER_RTT_printf
 477:C:\Users\niels\Documents\Elektrotechniek\Jaar 2\ECS\ECSL\software\STM32\STM32Basis\Segger\Segger_RTT\RTT\SEGGER_RTT_printf.c **** *
 478:C:\Users\niels\Documents\Elektrotechniek\Jaar 2\ECS\ECSL\software\STM32\STM32Basis\Segger\Segger_RTT\RTT\SEGGER_RTT_printf.c **** *  Function description
 479:C:\Users\niels\Documents\Elektrotechniek\Jaar 2\ECS\ECSL\software\STM32\STM32Basis\Segger\Segger_RTT\RTT\SEGGER_RTT_printf.c **** *    Stores a formatted string in SEGGER RTT control block.
 480:C:\Users\niels\Documents\Elektrotechniek\Jaar 2\ECS\ECSL\software\STM32\STM32Basis\Segger\Segger_RTT\RTT\SEGGER_RTT_printf.c **** *    This data is read by the host.
 481:C:\Users\niels\Documents\Elektrotechniek\Jaar 2\ECS\ECSL\software\STM32\STM32Basis\Segger\Segger_RTT\RTT\SEGGER_RTT_printf.c **** *
 482:C:\Users\niels\Documents\Elektrotechniek\Jaar 2\ECS\ECSL\software\STM32\STM32Basis\Segger\Segger_RTT\RTT\SEGGER_RTT_printf.c **** *  Parameters
 483:C:\Users\niels\Documents\Elektrotechniek\Jaar 2\ECS\ECSL\software\STM32\STM32Basis\Segger\Segger_RTT\RTT\SEGGER_RTT_printf.c **** *    BufferIndex  Index of "Up"-buffer to be used. (e.g. 0 for "Terminal")
 484:C:\Users\niels\Documents\Elektrotechniek\Jaar 2\ECS\ECSL\software\STM32\STM32Basis\Segger\Segger_RTT\RTT\SEGGER_RTT_printf.c **** *    sFormat      Pointer to format string, followed by the arguments for conversion
 485:C:\Users\niels\Documents\Elektrotechniek\Jaar 2\ECS\ECSL\software\STM32\STM32Basis\Segger\Segger_RTT\RTT\SEGGER_RTT_printf.c **** *
 486:C:\Users\niels\Documents\Elektrotechniek\Jaar 2\ECS\ECSL\software\STM32\STM32Basis\Segger\Segger_RTT\RTT\SEGGER_RTT_printf.c **** *  Return values
 487:C:\Users\niels\Documents\Elektrotechniek\Jaar 2\ECS\ECSL\software\STM32\STM32Basis\Segger\Segger_RTT\RTT\SEGGER_RTT_printf.c **** *    >= 0:  Number of bytes which have been stored in the "Up"-buffer.
 488:C:\Users\niels\Documents\Elektrotechniek\Jaar 2\ECS\ECSL\software\STM32\STM32Basis\Segger\Segger_RTT\RTT\SEGGER_RTT_printf.c **** *     < 0:  Error
 489:C:\Users\niels\Documents\Elektrotechniek\Jaar 2\ECS\ECSL\software\STM32\STM32Basis\Segger\Segger_RTT\RTT\SEGGER_RTT_printf.c **** *
 490:C:\Users\niels\Documents\Elektrotechniek\Jaar 2\ECS\ECSL\software\STM32\STM32Basis\Segger\Segger_RTT\RTT\SEGGER_RTT_printf.c **** *  Notes
 491:C:\Users\niels\Documents\Elektrotechniek\Jaar 2\ECS\ECSL\software\STM32\STM32Basis\Segger\Segger_RTT\RTT\SEGGER_RTT_printf.c **** *    (1) Conversion specifications have following syntax:
 492:C:\Users\niels\Documents\Elektrotechniek\Jaar 2\ECS\ECSL\software\STM32\STM32Basis\Segger\Segger_RTT\RTT\SEGGER_RTT_printf.c **** *          %[flags][FieldWidth][.Precision]ConversionSpecifier
 493:C:\Users\niels\Documents\Elektrotechniek\Jaar 2\ECS\ECSL\software\STM32\STM32Basis\Segger\Segger_RTT\RTT\SEGGER_RTT_printf.c **** *    (2) Supported flags:
 494:C:\Users\niels\Documents\Elektrotechniek\Jaar 2\ECS\ECSL\software\STM32\STM32Basis\Segger\Segger_RTT\RTT\SEGGER_RTT_printf.c **** *          -: Left justify within the field width
 495:C:\Users\niels\Documents\Elektrotechniek\Jaar 2\ECS\ECSL\software\STM32\STM32Basis\Segger\Segger_RTT\RTT\SEGGER_RTT_printf.c **** *          +: Always print sign extension for signed conversions
 496:C:\Users\niels\Documents\Elektrotechniek\Jaar 2\ECS\ECSL\software\STM32\STM32Basis\Segger\Segger_RTT\RTT\SEGGER_RTT_printf.c **** *          0: Pad with 0 instead of spaces. Ignored when using '-'-flag or precision
 497:C:\Users\niels\Documents\Elektrotechniek\Jaar 2\ECS\ECSL\software\STM32\STM32Basis\Segger\Segger_RTT\RTT\SEGGER_RTT_printf.c **** *        Supported conversion specifiers:
 498:C:\Users\niels\Documents\Elektrotechniek\Jaar 2\ECS\ECSL\software\STM32\STM32Basis\Segger\Segger_RTT\RTT\SEGGER_RTT_printf.c **** *          c: Print the argument as one char
 499:C:\Users\niels\Documents\Elektrotechniek\Jaar 2\ECS\ECSL\software\STM32\STM32Basis\Segger\Segger_RTT\RTT\SEGGER_RTT_printf.c **** *          d: Print the argument as a signed integer
 500:C:\Users\niels\Documents\Elektrotechniek\Jaar 2\ECS\ECSL\software\STM32\STM32Basis\Segger\Segger_RTT\RTT\SEGGER_RTT_printf.c **** *          u: Print the argument as an unsigned integer
 501:C:\Users\niels\Documents\Elektrotechniek\Jaar 2\ECS\ECSL\software\STM32\STM32Basis\Segger\Segger_RTT\RTT\SEGGER_RTT_printf.c **** *          x: Print the argument as an hexadecimal integer
 502:C:\Users\niels\Documents\Elektrotechniek\Jaar 2\ECS\ECSL\software\STM32\STM32Basis\Segger\Segger_RTT\RTT\SEGGER_RTT_printf.c **** *          s: Print the string pointed to by the argument
 503:C:\Users\niels\Documents\Elektrotechniek\Jaar 2\ECS\ECSL\software\STM32\STM32Basis\Segger\Segger_RTT\RTT\SEGGER_RTT_printf.c **** *          p: Print the argument as an 8-digit hexadecimal integer. (Argument shall be a pointer to
 504:C:\Users\niels\Documents\Elektrotechniek\Jaar 2\ECS\ECSL\software\STM32\STM32Basis\Segger\Segger_RTT\RTT\SEGGER_RTT_printf.c **** */
 505:C:\Users\niels\Documents\Elektrotechniek\Jaar 2\ECS\ECSL\software\STM32\STM32Basis\Segger\Segger_RTT\RTT\SEGGER_RTT_printf.c **** int SEGGER_RTT_printf(unsigned BufferIndex, const char * sFormat, ...) {
 1225              	 .loc 1 505 72
 1226              	 .cfi_startproc
 1227              	 
 1228              	 
 1229 0000 0EB4     	 push {r1,r2,r3}
 1230              	 .save {r1,r2,r3}
 1231              	 .cfi_def_cfa_offset 12
 1232              	 .cfi_offset 1,-12
 1233              	 .cfi_offset 2,-8
 1234              	 .cfi_offset 3,-4
 1235 0002 80B5     	 push {r7,lr}
 1236              	 .save {r7,lr}
 1237              	 .cfi_def_cfa_offset 20
 1238              	 .cfi_offset 7,-20
 1239              	 .cfi_offset 14,-16
 1240              	 .pad #20
ARM GAS   			page 32


 1241 0004 85B0     	 sub sp,sp,#20
 1242              	 .cfi_def_cfa_offset 40
 1243              	 .setfp r7,sp,#0
 1244 0006 00AF     	 add r7,sp,#0
 1245              	 .cfi_def_cfa_register 7
 1246 0008 7860     	 str r0,[r7,#4]
 506:C:\Users\niels\Documents\Elektrotechniek\Jaar 2\ECS\ECSL\software\STM32\STM32Basis\Segger\Segger_RTT\RTT\SEGGER_RTT_printf.c ****   int r;
 507:C:\Users\niels\Documents\Elektrotechniek\Jaar 2\ECS\ECSL\software\STM32\STM32Basis\Segger\Segger_RTT\RTT\SEGGER_RTT_printf.c ****   va_list ParamList;
 508:C:\Users\niels\Documents\Elektrotechniek\Jaar 2\ECS\ECSL\software\STM32\STM32Basis\Segger\Segger_RTT\RTT\SEGGER_RTT_printf.c **** 
 509:C:\Users\niels\Documents\Elektrotechniek\Jaar 2\ECS\ECSL\software\STM32\STM32Basis\Segger\Segger_RTT\RTT\SEGGER_RTT_printf.c ****   va_start(ParamList, sFormat);
 1247              	 .loc 1 509 3
 1248 000a 07F12003 	 add r3,r7,#32
 1249 000e BB60     	 str r3,[r7,#8]
 510:C:\Users\niels\Documents\Elektrotechniek\Jaar 2\ECS\ECSL\software\STM32\STM32Basis\Segger\Segger_RTT\RTT\SEGGER_RTT_printf.c ****   r = SEGGER_RTT_vprintf(BufferIndex, sFormat, &ParamList);
 1250              	 .loc 1 510 25
 1251 0010 07F10803 	 add r3,r7,#8
 1252 0014 1A46     	 mov r2,r3
 1253 0016 F969     	 ldr r1,[r7,#28]
 1254 0018 7868     	 ldr r0,[r7,#4]
 1255 001a FFF7FEFF 	 bl SEGGER_RTT_vprintf
 1256 001e 0346     	 mov r3,r0
 1257 0020 FB60     	 str r3,[r7,#12]
 511:C:\Users\niels\Documents\Elektrotechniek\Jaar 2\ECS\ECSL\software\STM32\STM32Basis\Segger\Segger_RTT\RTT\SEGGER_RTT_printf.c ****   va_end(ParamList);
 512:C:\Users\niels\Documents\Elektrotechniek\Jaar 2\ECS\ECSL\software\STM32\STM32Basis\Segger\Segger_RTT\RTT\SEGGER_RTT_printf.c ****   return r;
 1258              	 .loc 1 512 10
 1259 0022 FB68     	 ldr r3,[r7,#12]
 513:C:\Users\niels\Documents\Elektrotechniek\Jaar 2\ECS\ECSL\software\STM32\STM32Basis\Segger\Segger_RTT\RTT\SEGGER_RTT_printf.c **** }
 1260              	 .loc 1 513 1
 1261 0024 1846     	 mov r0,r3
 1262 0026 1437     	 adds r7,r7,#20
 1263              	 .cfi_def_cfa_offset 20
 1264 0028 BD46     	 mov sp,r7
 1265              	 .cfi_def_cfa_register 13
 1266              	 
 1267 002a BDE88040 	 pop {r7,lr}
 1268              	 .cfi_restore 14
 1269              	 .cfi_restore 7
 1270              	 .cfi_def_cfa_offset 12
 1271 002e 03B0     	 add sp,sp,#12
 1272              	 .cfi_restore 3
 1273              	 .cfi_restore 2
 1274              	 .cfi_restore 1
 1275              	 .cfi_def_cfa_offset 0
 1276 0030 7047     	 bx lr
 1277              	 .cfi_endproc
 1278              	.LFE11:
 1279              	 .fnend
 1280              	 .size SEGGER_RTT_printf,.-SEGGER_RTT_printf
 1281              	 .text
 1282              	.Letext0:
 1283              	 .file 2 "c:\\progra~2\\gnuarm~1\\102021~1.10\\arm-none-eabi\\include\\c++\\10.3.1\\cstdlib"
 1284              	 .file 3 "c:\\progra~2\\gnuarm~1\\102021~1.10\\arm-none-eabi\\include\\c++\\10.3.1\\bits\\std_abs.h"
 1285              	 .file 4 "c:\\progra~2\\gnuarm~1\\102021~1.10\\arm-none-eabi\\include\\c++\\10.3.1\\arm-none-eabi\\thumb\\v7e-m+fp\\hard\\bits\\c++config.h"
 1286              	 .file 5 "c:\\progra~2\\gnuarm~1\\102021~1.10\\lib\\gcc\\arm-none-eabi\\10.3.1\\include\\stddef.h"
 1287              	 .file 6 "c:\\progra~2\\gnuarm~1\\102021~1.10\\arm-none-eabi\\include\\stdlib.h"
 1288              	 .file 7 "c:\\progra~2\\gnuarm~1\\102021~1.10\\arm-none-eabi\\include\\c++\\10.3.1\\stdlib.h"
 1289              	 .file 8 "c:\\progra~2\\gnuarm~1\\102021~1.10\\lib\\gcc\\arm-none-eabi\\10.3.1\\include\\stdarg.h"
ARM GAS   			page 33


 1290              	 .file 9 "<built-in>"