ARM GAS   			page 1


   1              	 .cpu cortex-m4
   2              	 .arch armv7e-m
   3              	 .fpu fpv4-sp-d16
   4              	 .eabi_attribute 27,1
   5              	 .eabi_attribute 28,1
   6              	 .eabi_attribute 20,1
   7              	 .eabi_attribute 21,1
   8              	 .eabi_attribute 23,3
   9              	 .eabi_attribute 24,1
  10              	 .eabi_attribute 25,1
  11              	 .eabi_attribute 26,1
  12              	 .eabi_attribute 30,6
  13              	 .eabi_attribute 34,0
  14              	 .eabi_attribute 18,4
  15              	 .file "stdTaak.cpp"
  16              	 .text
  17              	.Ltext0:
  18              	 .cfi_sections .debug_frame
  19              	 .section .rodata._ZL2PI,"a"
  20              	 .align 2
  21              	 .type _ZL2PI,%object
  22              	 .size _ZL2PI,4
  23              	_ZL2PI:
  24 0000 DB0F4940 	 .word 1078530011
  25              	 .section .rodata._ZStL19piecewise_construct,"a"
  26              	 .align 2
  27              	 .type _ZStL19piecewise_construct,%object
  28              	 .size _ZStL19piecewise_construct,1
  29              	_ZStL19piecewise_construct:
  30 0000 00       	 .space 1
  31              	 .section .text._ZL20__gthread_key_deletei,"ax",%progbits
  32              	 .align 1
  33              	 .syntax unified
  34              	 .thumb
  35              	 .thumb_func
  36              	 .type _ZL20__gthread_key_deletei,%function
  37              	_ZL20__gthread_key_deletei:
  38              	.LFB843:
  39              	 .file 1 "c:\\progra~2\\gnuarm~1\\102021~1.10\\arm-none-eabi\\include\\c++\\10.3.1\\arm-none-eabi\\thumb\\v7e-m+fp\\hard\\bits\\gthr-default.h"
   1:c:\progra~2\gnuarm~1\102021~1.10\arm-none-eabi\include\c++\10.3.1\arm-none-eabi\thumb\v7e-m+fp\hard\bits\gthr-default.h **** /* Threads compatibility routines for libgcc2 and libobjc.  */
   2:c:\progra~2\gnuarm~1\102021~1.10\arm-none-eabi\include\c++\10.3.1\arm-none-eabi\thumb\v7e-m+fp\hard\bits\gthr-default.h **** /* Compile this one with gcc.  */
   3:c:\progra~2\gnuarm~1\102021~1.10\arm-none-eabi\include\c++\10.3.1\arm-none-eabi\thumb\v7e-m+fp\hard\bits\gthr-default.h **** /* Copyright (C) 1997-2020 Free Software Foundation, Inc.
   4:c:\progra~2\gnuarm~1\102021~1.10\arm-none-eabi\include\c++\10.3.1\arm-none-eabi\thumb\v7e-m+fp\hard\bits\gthr-default.h **** 
   5:c:\progra~2\gnuarm~1\102021~1.10\arm-none-eabi\include\c++\10.3.1\arm-none-eabi\thumb\v7e-m+fp\hard\bits\gthr-default.h **** This file is part of GCC.
   6:c:\progra~2\gnuarm~1\102021~1.10\arm-none-eabi\include\c++\10.3.1\arm-none-eabi\thumb\v7e-m+fp\hard\bits\gthr-default.h **** 
   7:c:\progra~2\gnuarm~1\102021~1.10\arm-none-eabi\include\c++\10.3.1\arm-none-eabi\thumb\v7e-m+fp\hard\bits\gthr-default.h **** GCC is free software; you can redistribute it and/or modify it under
   8:c:\progra~2\gnuarm~1\102021~1.10\arm-none-eabi\include\c++\10.3.1\arm-none-eabi\thumb\v7e-m+fp\hard\bits\gthr-default.h **** the terms of the GNU General Public License as published by the Free
   9:c:\progra~2\gnuarm~1\102021~1.10\arm-none-eabi\include\c++\10.3.1\arm-none-eabi\thumb\v7e-m+fp\hard\bits\gthr-default.h **** Software Foundation; either version 3, or (at your option) any later
  10:c:\progra~2\gnuarm~1\102021~1.10\arm-none-eabi\include\c++\10.3.1\arm-none-eabi\thumb\v7e-m+fp\hard\bits\gthr-default.h **** version.
  11:c:\progra~2\gnuarm~1\102021~1.10\arm-none-eabi\include\c++\10.3.1\arm-none-eabi\thumb\v7e-m+fp\hard\bits\gthr-default.h **** 
  12:c:\progra~2\gnuarm~1\102021~1.10\arm-none-eabi\include\c++\10.3.1\arm-none-eabi\thumb\v7e-m+fp\hard\bits\gthr-default.h **** GCC is distributed in the hope that it will be useful, but WITHOUT ANY
  13:c:\progra~2\gnuarm~1\102021~1.10\arm-none-eabi\include\c++\10.3.1\arm-none-eabi\thumb\v7e-m+fp\hard\bits\gthr-default.h **** WARRANTY; without even the implied warranty of MERCHANTABILITY or
  14:c:\progra~2\gnuarm~1\102021~1.10\arm-none-eabi\include\c++\10.3.1\arm-none-eabi\thumb\v7e-m+fp\hard\bits\gthr-default.h **** FITNESS FOR A PARTICULAR PURPOSE.  See the GNU General Public License
  15:c:\progra~2\gnuarm~1\102021~1.10\arm-none-eabi\include\c++\10.3.1\arm-none-eabi\thumb\v7e-m+fp\hard\bits\gthr-default.h **** for more details.
  16:c:\progra~2\gnuarm~1\102021~1.10\arm-none-eabi\include\c++\10.3.1\arm-none-eabi\thumb\v7e-m+fp\hard\bits\gthr-default.h **** 
  17:c:\progra~2\gnuarm~1\102021~1.10\arm-none-eabi\include\c++\10.3.1\arm-none-eabi\thumb\v7e-m+fp\hard\bits\gthr-default.h **** Under Section 7 of GPL version 3, you are granted additional
  18:c:\progra~2\gnuarm~1\102021~1.10\arm-none-eabi\include\c++\10.3.1\arm-none-eabi\thumb\v7e-m+fp\hard\bits\gthr-default.h **** permissions described in the GCC Runtime Library Exception, version
ARM GAS   			page 2


  19:c:\progra~2\gnuarm~1\102021~1.10\arm-none-eabi\include\c++\10.3.1\arm-none-eabi\thumb\v7e-m+fp\hard\bits\gthr-default.h **** 3.1, as published by the Free Software Foundation.
  20:c:\progra~2\gnuarm~1\102021~1.10\arm-none-eabi\include\c++\10.3.1\arm-none-eabi\thumb\v7e-m+fp\hard\bits\gthr-default.h **** 
  21:c:\progra~2\gnuarm~1\102021~1.10\arm-none-eabi\include\c++\10.3.1\arm-none-eabi\thumb\v7e-m+fp\hard\bits\gthr-default.h **** You should have received a copy of the GNU General Public License and
  22:c:\progra~2\gnuarm~1\102021~1.10\arm-none-eabi\include\c++\10.3.1\arm-none-eabi\thumb\v7e-m+fp\hard\bits\gthr-default.h **** a copy of the GCC Runtime Library Exception along with this program;
  23:c:\progra~2\gnuarm~1\102021~1.10\arm-none-eabi\include\c++\10.3.1\arm-none-eabi\thumb\v7e-m+fp\hard\bits\gthr-default.h **** see the files COPYING3 and COPYING.RUNTIME respectively.  If not, see
  24:c:\progra~2\gnuarm~1\102021~1.10\arm-none-eabi\include\c++\10.3.1\arm-none-eabi\thumb\v7e-m+fp\hard\bits\gthr-default.h **** <http://www.gnu.org/licenses/>.  */
  25:c:\progra~2\gnuarm~1\102021~1.10\arm-none-eabi\include\c++\10.3.1\arm-none-eabi\thumb\v7e-m+fp\hard\bits\gthr-default.h **** 
  26:c:\progra~2\gnuarm~1\102021~1.10\arm-none-eabi\include\c++\10.3.1\arm-none-eabi\thumb\v7e-m+fp\hard\bits\gthr-default.h **** #ifndef _GLIBCXX_GCC_GTHR_SINGLE_H
  27:c:\progra~2\gnuarm~1\102021~1.10\arm-none-eabi\include\c++\10.3.1\arm-none-eabi\thumb\v7e-m+fp\hard\bits\gthr-default.h **** #define _GLIBCXX_GCC_GTHR_SINGLE_H
  28:c:\progra~2\gnuarm~1\102021~1.10\arm-none-eabi\include\c++\10.3.1\arm-none-eabi\thumb\v7e-m+fp\hard\bits\gthr-default.h **** 
  29:c:\progra~2\gnuarm~1\102021~1.10\arm-none-eabi\include\c++\10.3.1\arm-none-eabi\thumb\v7e-m+fp\hard\bits\gthr-default.h **** /* Just provide compatibility for mutex handling.  */
  30:c:\progra~2\gnuarm~1\102021~1.10\arm-none-eabi\include\c++\10.3.1\arm-none-eabi\thumb\v7e-m+fp\hard\bits\gthr-default.h **** 
  31:c:\progra~2\gnuarm~1\102021~1.10\arm-none-eabi\include\c++\10.3.1\arm-none-eabi\thumb\v7e-m+fp\hard\bits\gthr-default.h **** typedef int __gthread_key_t;
  32:c:\progra~2\gnuarm~1\102021~1.10\arm-none-eabi\include\c++\10.3.1\arm-none-eabi\thumb\v7e-m+fp\hard\bits\gthr-default.h **** typedef int __gthread_once_t;
  33:c:\progra~2\gnuarm~1\102021~1.10\arm-none-eabi\include\c++\10.3.1\arm-none-eabi\thumb\v7e-m+fp\hard\bits\gthr-default.h **** typedef int __gthread_mutex_t;
  34:c:\progra~2\gnuarm~1\102021~1.10\arm-none-eabi\include\c++\10.3.1\arm-none-eabi\thumb\v7e-m+fp\hard\bits\gthr-default.h **** typedef int __gthread_recursive_mutex_t;
  35:c:\progra~2\gnuarm~1\102021~1.10\arm-none-eabi\include\c++\10.3.1\arm-none-eabi\thumb\v7e-m+fp\hard\bits\gthr-default.h **** 
  36:c:\progra~2\gnuarm~1\102021~1.10\arm-none-eabi\include\c++\10.3.1\arm-none-eabi\thumb\v7e-m+fp\hard\bits\gthr-default.h **** #define __GTHREAD_ONCE_INIT 0
  37:c:\progra~2\gnuarm~1\102021~1.10\arm-none-eabi\include\c++\10.3.1\arm-none-eabi\thumb\v7e-m+fp\hard\bits\gthr-default.h **** #define __GTHREAD_MUTEX_INIT 0
  38:c:\progra~2\gnuarm~1\102021~1.10\arm-none-eabi\include\c++\10.3.1\arm-none-eabi\thumb\v7e-m+fp\hard\bits\gthr-default.h **** #define __GTHREAD_MUTEX_INIT_FUNCTION(mx) do {} while (0)
  39:c:\progra~2\gnuarm~1\102021~1.10\arm-none-eabi\include\c++\10.3.1\arm-none-eabi\thumb\v7e-m+fp\hard\bits\gthr-default.h **** #define __GTHREAD_RECURSIVE_MUTEX_INIT 0
  40:c:\progra~2\gnuarm~1\102021~1.10\arm-none-eabi\include\c++\10.3.1\arm-none-eabi\thumb\v7e-m+fp\hard\bits\gthr-default.h **** 
  41:c:\progra~2\gnuarm~1\102021~1.10\arm-none-eabi\include\c++\10.3.1\arm-none-eabi\thumb\v7e-m+fp\hard\bits\gthr-default.h **** #define _GLIBCXX_UNUSED __attribute__((__unused__))
  42:c:\progra~2\gnuarm~1\102021~1.10\arm-none-eabi\include\c++\10.3.1\arm-none-eabi\thumb\v7e-m+fp\hard\bits\gthr-default.h **** 
  43:c:\progra~2\gnuarm~1\102021~1.10\arm-none-eabi\include\c++\10.3.1\arm-none-eabi\thumb\v7e-m+fp\hard\bits\gthr-default.h **** #ifdef _LIBOBJC
  44:c:\progra~2\gnuarm~1\102021~1.10\arm-none-eabi\include\c++\10.3.1\arm-none-eabi\thumb\v7e-m+fp\hard\bits\gthr-default.h **** 
  45:c:\progra~2\gnuarm~1\102021~1.10\arm-none-eabi\include\c++\10.3.1\arm-none-eabi\thumb\v7e-m+fp\hard\bits\gthr-default.h **** /* Thread local storage for a single thread */
  46:c:\progra~2\gnuarm~1\102021~1.10\arm-none-eabi\include\c++\10.3.1\arm-none-eabi\thumb\v7e-m+fp\hard\bits\gthr-default.h **** static void *thread_local_storage = NULL;
  47:c:\progra~2\gnuarm~1\102021~1.10\arm-none-eabi\include\c++\10.3.1\arm-none-eabi\thumb\v7e-m+fp\hard\bits\gthr-default.h **** 
  48:c:\progra~2\gnuarm~1\102021~1.10\arm-none-eabi\include\c++\10.3.1\arm-none-eabi\thumb\v7e-m+fp\hard\bits\gthr-default.h **** /* Backend initialization functions */
  49:c:\progra~2\gnuarm~1\102021~1.10\arm-none-eabi\include\c++\10.3.1\arm-none-eabi\thumb\v7e-m+fp\hard\bits\gthr-default.h **** 
  50:c:\progra~2\gnuarm~1\102021~1.10\arm-none-eabi\include\c++\10.3.1\arm-none-eabi\thumb\v7e-m+fp\hard\bits\gthr-default.h **** /* Initialize the threads subsystem.  */
  51:c:\progra~2\gnuarm~1\102021~1.10\arm-none-eabi\include\c++\10.3.1\arm-none-eabi\thumb\v7e-m+fp\hard\bits\gthr-default.h **** static inline int
  52:c:\progra~2\gnuarm~1\102021~1.10\arm-none-eabi\include\c++\10.3.1\arm-none-eabi\thumb\v7e-m+fp\hard\bits\gthr-default.h **** __gthread_objc_init_thread_system (void)
  53:c:\progra~2\gnuarm~1\102021~1.10\arm-none-eabi\include\c++\10.3.1\arm-none-eabi\thumb\v7e-m+fp\hard\bits\gthr-default.h **** {
  54:c:\progra~2\gnuarm~1\102021~1.10\arm-none-eabi\include\c++\10.3.1\arm-none-eabi\thumb\v7e-m+fp\hard\bits\gthr-default.h ****   /* No thread support available */
  55:c:\progra~2\gnuarm~1\102021~1.10\arm-none-eabi\include\c++\10.3.1\arm-none-eabi\thumb\v7e-m+fp\hard\bits\gthr-default.h ****   return -1;
  56:c:\progra~2\gnuarm~1\102021~1.10\arm-none-eabi\include\c++\10.3.1\arm-none-eabi\thumb\v7e-m+fp\hard\bits\gthr-default.h **** }
  57:c:\progra~2\gnuarm~1\102021~1.10\arm-none-eabi\include\c++\10.3.1\arm-none-eabi\thumb\v7e-m+fp\hard\bits\gthr-default.h **** 
  58:c:\progra~2\gnuarm~1\102021~1.10\arm-none-eabi\include\c++\10.3.1\arm-none-eabi\thumb\v7e-m+fp\hard\bits\gthr-default.h **** /* Close the threads subsystem.  */
  59:c:\progra~2\gnuarm~1\102021~1.10\arm-none-eabi\include\c++\10.3.1\arm-none-eabi\thumb\v7e-m+fp\hard\bits\gthr-default.h **** static inline int
  60:c:\progra~2\gnuarm~1\102021~1.10\arm-none-eabi\include\c++\10.3.1\arm-none-eabi\thumb\v7e-m+fp\hard\bits\gthr-default.h **** __gthread_objc_close_thread_system (void)
  61:c:\progra~2\gnuarm~1\102021~1.10\arm-none-eabi\include\c++\10.3.1\arm-none-eabi\thumb\v7e-m+fp\hard\bits\gthr-default.h **** {
  62:c:\progra~2\gnuarm~1\102021~1.10\arm-none-eabi\include\c++\10.3.1\arm-none-eabi\thumb\v7e-m+fp\hard\bits\gthr-default.h ****   /* No thread support available */
  63:c:\progra~2\gnuarm~1\102021~1.10\arm-none-eabi\include\c++\10.3.1\arm-none-eabi\thumb\v7e-m+fp\hard\bits\gthr-default.h ****   return -1;
  64:c:\progra~2\gnuarm~1\102021~1.10\arm-none-eabi\include\c++\10.3.1\arm-none-eabi\thumb\v7e-m+fp\hard\bits\gthr-default.h **** }
  65:c:\progra~2\gnuarm~1\102021~1.10\arm-none-eabi\include\c++\10.3.1\arm-none-eabi\thumb\v7e-m+fp\hard\bits\gthr-default.h **** 
  66:c:\progra~2\gnuarm~1\102021~1.10\arm-none-eabi\include\c++\10.3.1\arm-none-eabi\thumb\v7e-m+fp\hard\bits\gthr-default.h **** /* Backend thread functions */
  67:c:\progra~2\gnuarm~1\102021~1.10\arm-none-eabi\include\c++\10.3.1\arm-none-eabi\thumb\v7e-m+fp\hard\bits\gthr-default.h **** 
  68:c:\progra~2\gnuarm~1\102021~1.10\arm-none-eabi\include\c++\10.3.1\arm-none-eabi\thumb\v7e-m+fp\hard\bits\gthr-default.h **** /* Create a new thread of execution.  */
  69:c:\progra~2\gnuarm~1\102021~1.10\arm-none-eabi\include\c++\10.3.1\arm-none-eabi\thumb\v7e-m+fp\hard\bits\gthr-default.h **** static inline objc_thread_t
  70:c:\progra~2\gnuarm~1\102021~1.10\arm-none-eabi\include\c++\10.3.1\arm-none-eabi\thumb\v7e-m+fp\hard\bits\gthr-default.h **** __gthread_objc_thread_detach (void (* func)(void *), void * arg _GLIBCXX_UNUSED)
  71:c:\progra~2\gnuarm~1\102021~1.10\arm-none-eabi\include\c++\10.3.1\arm-none-eabi\thumb\v7e-m+fp\hard\bits\gthr-default.h **** {
  72:c:\progra~2\gnuarm~1\102021~1.10\arm-none-eabi\include\c++\10.3.1\arm-none-eabi\thumb\v7e-m+fp\hard\bits\gthr-default.h ****   /* No thread support available */
  73:c:\progra~2\gnuarm~1\102021~1.10\arm-none-eabi\include\c++\10.3.1\arm-none-eabi\thumb\v7e-m+fp\hard\bits\gthr-default.h ****   return NULL;
  74:c:\progra~2\gnuarm~1\102021~1.10\arm-none-eabi\include\c++\10.3.1\arm-none-eabi\thumb\v7e-m+fp\hard\bits\gthr-default.h **** }
  75:c:\progra~2\gnuarm~1\102021~1.10\arm-none-eabi\include\c++\10.3.1\arm-none-eabi\thumb\v7e-m+fp\hard\bits\gthr-default.h **** 
ARM GAS   			page 3


  76:c:\progra~2\gnuarm~1\102021~1.10\arm-none-eabi\include\c++\10.3.1\arm-none-eabi\thumb\v7e-m+fp\hard\bits\gthr-default.h **** /* Set the current thread's priority.  */
  77:c:\progra~2\gnuarm~1\102021~1.10\arm-none-eabi\include\c++\10.3.1\arm-none-eabi\thumb\v7e-m+fp\hard\bits\gthr-default.h **** static inline int
  78:c:\progra~2\gnuarm~1\102021~1.10\arm-none-eabi\include\c++\10.3.1\arm-none-eabi\thumb\v7e-m+fp\hard\bits\gthr-default.h **** __gthread_objc_thread_set_priority (int priority _GLIBCXX_UNUSED)
  79:c:\progra~2\gnuarm~1\102021~1.10\arm-none-eabi\include\c++\10.3.1\arm-none-eabi\thumb\v7e-m+fp\hard\bits\gthr-default.h **** {
  80:c:\progra~2\gnuarm~1\102021~1.10\arm-none-eabi\include\c++\10.3.1\arm-none-eabi\thumb\v7e-m+fp\hard\bits\gthr-default.h ****   /* No thread support available */
  81:c:\progra~2\gnuarm~1\102021~1.10\arm-none-eabi\include\c++\10.3.1\arm-none-eabi\thumb\v7e-m+fp\hard\bits\gthr-default.h ****   return -1;
  82:c:\progra~2\gnuarm~1\102021~1.10\arm-none-eabi\include\c++\10.3.1\arm-none-eabi\thumb\v7e-m+fp\hard\bits\gthr-default.h **** }
  83:c:\progra~2\gnuarm~1\102021~1.10\arm-none-eabi\include\c++\10.3.1\arm-none-eabi\thumb\v7e-m+fp\hard\bits\gthr-default.h **** 
  84:c:\progra~2\gnuarm~1\102021~1.10\arm-none-eabi\include\c++\10.3.1\arm-none-eabi\thumb\v7e-m+fp\hard\bits\gthr-default.h **** /* Return the current thread's priority.  */
  85:c:\progra~2\gnuarm~1\102021~1.10\arm-none-eabi\include\c++\10.3.1\arm-none-eabi\thumb\v7e-m+fp\hard\bits\gthr-default.h **** static inline int
  86:c:\progra~2\gnuarm~1\102021~1.10\arm-none-eabi\include\c++\10.3.1\arm-none-eabi\thumb\v7e-m+fp\hard\bits\gthr-default.h **** __gthread_objc_thread_get_priority (void)
  87:c:\progra~2\gnuarm~1\102021~1.10\arm-none-eabi\include\c++\10.3.1\arm-none-eabi\thumb\v7e-m+fp\hard\bits\gthr-default.h **** {
  88:c:\progra~2\gnuarm~1\102021~1.10\arm-none-eabi\include\c++\10.3.1\arm-none-eabi\thumb\v7e-m+fp\hard\bits\gthr-default.h ****   return OBJC_THREAD_INTERACTIVE_PRIORITY;
  89:c:\progra~2\gnuarm~1\102021~1.10\arm-none-eabi\include\c++\10.3.1\arm-none-eabi\thumb\v7e-m+fp\hard\bits\gthr-default.h **** }
  90:c:\progra~2\gnuarm~1\102021~1.10\arm-none-eabi\include\c++\10.3.1\arm-none-eabi\thumb\v7e-m+fp\hard\bits\gthr-default.h **** 
  91:c:\progra~2\gnuarm~1\102021~1.10\arm-none-eabi\include\c++\10.3.1\arm-none-eabi\thumb\v7e-m+fp\hard\bits\gthr-default.h **** /* Yield our process time to another thread.  */
  92:c:\progra~2\gnuarm~1\102021~1.10\arm-none-eabi\include\c++\10.3.1\arm-none-eabi\thumb\v7e-m+fp\hard\bits\gthr-default.h **** static inline void
  93:c:\progra~2\gnuarm~1\102021~1.10\arm-none-eabi\include\c++\10.3.1\arm-none-eabi\thumb\v7e-m+fp\hard\bits\gthr-default.h **** __gthread_objc_thread_yield (void)
  94:c:\progra~2\gnuarm~1\102021~1.10\arm-none-eabi\include\c++\10.3.1\arm-none-eabi\thumb\v7e-m+fp\hard\bits\gthr-default.h **** {
  95:c:\progra~2\gnuarm~1\102021~1.10\arm-none-eabi\include\c++\10.3.1\arm-none-eabi\thumb\v7e-m+fp\hard\bits\gthr-default.h ****   return;
  96:c:\progra~2\gnuarm~1\102021~1.10\arm-none-eabi\include\c++\10.3.1\arm-none-eabi\thumb\v7e-m+fp\hard\bits\gthr-default.h **** }
  97:c:\progra~2\gnuarm~1\102021~1.10\arm-none-eabi\include\c++\10.3.1\arm-none-eabi\thumb\v7e-m+fp\hard\bits\gthr-default.h **** 
  98:c:\progra~2\gnuarm~1\102021~1.10\arm-none-eabi\include\c++\10.3.1\arm-none-eabi\thumb\v7e-m+fp\hard\bits\gthr-default.h **** /* Terminate the current thread.  */
  99:c:\progra~2\gnuarm~1\102021~1.10\arm-none-eabi\include\c++\10.3.1\arm-none-eabi\thumb\v7e-m+fp\hard\bits\gthr-default.h **** static inline int
 100:c:\progra~2\gnuarm~1\102021~1.10\arm-none-eabi\include\c++\10.3.1\arm-none-eabi\thumb\v7e-m+fp\hard\bits\gthr-default.h **** __gthread_objc_thread_exit (void)
 101:c:\progra~2\gnuarm~1\102021~1.10\arm-none-eabi\include\c++\10.3.1\arm-none-eabi\thumb\v7e-m+fp\hard\bits\gthr-default.h **** {
 102:c:\progra~2\gnuarm~1\102021~1.10\arm-none-eabi\include\c++\10.3.1\arm-none-eabi\thumb\v7e-m+fp\hard\bits\gthr-default.h ****   /* No thread support available */
 103:c:\progra~2\gnuarm~1\102021~1.10\arm-none-eabi\include\c++\10.3.1\arm-none-eabi\thumb\v7e-m+fp\hard\bits\gthr-default.h ****   /* Should we really exit the program */
 104:c:\progra~2\gnuarm~1\102021~1.10\arm-none-eabi\include\c++\10.3.1\arm-none-eabi\thumb\v7e-m+fp\hard\bits\gthr-default.h ****   /* exit (&__objc_thread_exit_status); */
 105:c:\progra~2\gnuarm~1\102021~1.10\arm-none-eabi\include\c++\10.3.1\arm-none-eabi\thumb\v7e-m+fp\hard\bits\gthr-default.h ****   return -1;
 106:c:\progra~2\gnuarm~1\102021~1.10\arm-none-eabi\include\c++\10.3.1\arm-none-eabi\thumb\v7e-m+fp\hard\bits\gthr-default.h **** }
 107:c:\progra~2\gnuarm~1\102021~1.10\arm-none-eabi\include\c++\10.3.1\arm-none-eabi\thumb\v7e-m+fp\hard\bits\gthr-default.h **** 
 108:c:\progra~2\gnuarm~1\102021~1.10\arm-none-eabi\include\c++\10.3.1\arm-none-eabi\thumb\v7e-m+fp\hard\bits\gthr-default.h **** /* Returns an integer value which uniquely describes a thread.  */
 109:c:\progra~2\gnuarm~1\102021~1.10\arm-none-eabi\include\c++\10.3.1\arm-none-eabi\thumb\v7e-m+fp\hard\bits\gthr-default.h **** static inline objc_thread_t
 110:c:\progra~2\gnuarm~1\102021~1.10\arm-none-eabi\include\c++\10.3.1\arm-none-eabi\thumb\v7e-m+fp\hard\bits\gthr-default.h **** __gthread_objc_thread_id (void)
 111:c:\progra~2\gnuarm~1\102021~1.10\arm-none-eabi\include\c++\10.3.1\arm-none-eabi\thumb\v7e-m+fp\hard\bits\gthr-default.h **** {
 112:c:\progra~2\gnuarm~1\102021~1.10\arm-none-eabi\include\c++\10.3.1\arm-none-eabi\thumb\v7e-m+fp\hard\bits\gthr-default.h ****   /* No thread support, use 1.  */
 113:c:\progra~2\gnuarm~1\102021~1.10\arm-none-eabi\include\c++\10.3.1\arm-none-eabi\thumb\v7e-m+fp\hard\bits\gthr-default.h ****   return (objc_thread_t) 1;
 114:c:\progra~2\gnuarm~1\102021~1.10\arm-none-eabi\include\c++\10.3.1\arm-none-eabi\thumb\v7e-m+fp\hard\bits\gthr-default.h **** }
 115:c:\progra~2\gnuarm~1\102021~1.10\arm-none-eabi\include\c++\10.3.1\arm-none-eabi\thumb\v7e-m+fp\hard\bits\gthr-default.h **** 
 116:c:\progra~2\gnuarm~1\102021~1.10\arm-none-eabi\include\c++\10.3.1\arm-none-eabi\thumb\v7e-m+fp\hard\bits\gthr-default.h **** /* Sets the thread's local storage pointer.  */
 117:c:\progra~2\gnuarm~1\102021~1.10\arm-none-eabi\include\c++\10.3.1\arm-none-eabi\thumb\v7e-m+fp\hard\bits\gthr-default.h **** static inline int
 118:c:\progra~2\gnuarm~1\102021~1.10\arm-none-eabi\include\c++\10.3.1\arm-none-eabi\thumb\v7e-m+fp\hard\bits\gthr-default.h **** __gthread_objc_thread_set_data (void *value)
 119:c:\progra~2\gnuarm~1\102021~1.10\arm-none-eabi\include\c++\10.3.1\arm-none-eabi\thumb\v7e-m+fp\hard\bits\gthr-default.h **** {
 120:c:\progra~2\gnuarm~1\102021~1.10\arm-none-eabi\include\c++\10.3.1\arm-none-eabi\thumb\v7e-m+fp\hard\bits\gthr-default.h ****   thread_local_storage = value;
 121:c:\progra~2\gnuarm~1\102021~1.10\arm-none-eabi\include\c++\10.3.1\arm-none-eabi\thumb\v7e-m+fp\hard\bits\gthr-default.h ****   return 0;
 122:c:\progra~2\gnuarm~1\102021~1.10\arm-none-eabi\include\c++\10.3.1\arm-none-eabi\thumb\v7e-m+fp\hard\bits\gthr-default.h **** }
 123:c:\progra~2\gnuarm~1\102021~1.10\arm-none-eabi\include\c++\10.3.1\arm-none-eabi\thumb\v7e-m+fp\hard\bits\gthr-default.h **** 
 124:c:\progra~2\gnuarm~1\102021~1.10\arm-none-eabi\include\c++\10.3.1\arm-none-eabi\thumb\v7e-m+fp\hard\bits\gthr-default.h **** /* Returns the thread's local storage pointer.  */
 125:c:\progra~2\gnuarm~1\102021~1.10\arm-none-eabi\include\c++\10.3.1\arm-none-eabi\thumb\v7e-m+fp\hard\bits\gthr-default.h **** static inline void *
 126:c:\progra~2\gnuarm~1\102021~1.10\arm-none-eabi\include\c++\10.3.1\arm-none-eabi\thumb\v7e-m+fp\hard\bits\gthr-default.h **** __gthread_objc_thread_get_data (void)
 127:c:\progra~2\gnuarm~1\102021~1.10\arm-none-eabi\include\c++\10.3.1\arm-none-eabi\thumb\v7e-m+fp\hard\bits\gthr-default.h **** {
 128:c:\progra~2\gnuarm~1\102021~1.10\arm-none-eabi\include\c++\10.3.1\arm-none-eabi\thumb\v7e-m+fp\hard\bits\gthr-default.h ****   return thread_local_storage;
 129:c:\progra~2\gnuarm~1\102021~1.10\arm-none-eabi\include\c++\10.3.1\arm-none-eabi\thumb\v7e-m+fp\hard\bits\gthr-default.h **** }
 130:c:\progra~2\gnuarm~1\102021~1.10\arm-none-eabi\include\c++\10.3.1\arm-none-eabi\thumb\v7e-m+fp\hard\bits\gthr-default.h **** 
 131:c:\progra~2\gnuarm~1\102021~1.10\arm-none-eabi\include\c++\10.3.1\arm-none-eabi\thumb\v7e-m+fp\hard\bits\gthr-default.h **** /* Backend mutex functions */
 132:c:\progra~2\gnuarm~1\102021~1.10\arm-none-eabi\include\c++\10.3.1\arm-none-eabi\thumb\v7e-m+fp\hard\bits\gthr-default.h **** 
ARM GAS   			page 4


 133:c:\progra~2\gnuarm~1\102021~1.10\arm-none-eabi\include\c++\10.3.1\arm-none-eabi\thumb\v7e-m+fp\hard\bits\gthr-default.h **** /* Allocate a mutex.  */
 134:c:\progra~2\gnuarm~1\102021~1.10\arm-none-eabi\include\c++\10.3.1\arm-none-eabi\thumb\v7e-m+fp\hard\bits\gthr-default.h **** static inline int
 135:c:\progra~2\gnuarm~1\102021~1.10\arm-none-eabi\include\c++\10.3.1\arm-none-eabi\thumb\v7e-m+fp\hard\bits\gthr-default.h **** __gthread_objc_mutex_allocate (objc_mutex_t mutex _GLIBCXX_UNUSED)
 136:c:\progra~2\gnuarm~1\102021~1.10\arm-none-eabi\include\c++\10.3.1\arm-none-eabi\thumb\v7e-m+fp\hard\bits\gthr-default.h **** {
 137:c:\progra~2\gnuarm~1\102021~1.10\arm-none-eabi\include\c++\10.3.1\arm-none-eabi\thumb\v7e-m+fp\hard\bits\gthr-default.h ****   return 0;
 138:c:\progra~2\gnuarm~1\102021~1.10\arm-none-eabi\include\c++\10.3.1\arm-none-eabi\thumb\v7e-m+fp\hard\bits\gthr-default.h **** }
 139:c:\progra~2\gnuarm~1\102021~1.10\arm-none-eabi\include\c++\10.3.1\arm-none-eabi\thumb\v7e-m+fp\hard\bits\gthr-default.h **** 
 140:c:\progra~2\gnuarm~1\102021~1.10\arm-none-eabi\include\c++\10.3.1\arm-none-eabi\thumb\v7e-m+fp\hard\bits\gthr-default.h **** /* Deallocate a mutex.  */
 141:c:\progra~2\gnuarm~1\102021~1.10\arm-none-eabi\include\c++\10.3.1\arm-none-eabi\thumb\v7e-m+fp\hard\bits\gthr-default.h **** static inline int
 142:c:\progra~2\gnuarm~1\102021~1.10\arm-none-eabi\include\c++\10.3.1\arm-none-eabi\thumb\v7e-m+fp\hard\bits\gthr-default.h **** __gthread_objc_mutex_deallocate (objc_mutex_t mutex _GLIBCXX_UNUSED)
 143:c:\progra~2\gnuarm~1\102021~1.10\arm-none-eabi\include\c++\10.3.1\arm-none-eabi\thumb\v7e-m+fp\hard\bits\gthr-default.h **** {
 144:c:\progra~2\gnuarm~1\102021~1.10\arm-none-eabi\include\c++\10.3.1\arm-none-eabi\thumb\v7e-m+fp\hard\bits\gthr-default.h ****   return 0;
 145:c:\progra~2\gnuarm~1\102021~1.10\arm-none-eabi\include\c++\10.3.1\arm-none-eabi\thumb\v7e-m+fp\hard\bits\gthr-default.h **** }
 146:c:\progra~2\gnuarm~1\102021~1.10\arm-none-eabi\include\c++\10.3.1\arm-none-eabi\thumb\v7e-m+fp\hard\bits\gthr-default.h **** 
 147:c:\progra~2\gnuarm~1\102021~1.10\arm-none-eabi\include\c++\10.3.1\arm-none-eabi\thumb\v7e-m+fp\hard\bits\gthr-default.h **** /* Grab a lock on a mutex.  */
 148:c:\progra~2\gnuarm~1\102021~1.10\arm-none-eabi\include\c++\10.3.1\arm-none-eabi\thumb\v7e-m+fp\hard\bits\gthr-default.h **** static inline int
 149:c:\progra~2\gnuarm~1\102021~1.10\arm-none-eabi\include\c++\10.3.1\arm-none-eabi\thumb\v7e-m+fp\hard\bits\gthr-default.h **** __gthread_objc_mutex_lock (objc_mutex_t mutex _GLIBCXX_UNUSED)
 150:c:\progra~2\gnuarm~1\102021~1.10\arm-none-eabi\include\c++\10.3.1\arm-none-eabi\thumb\v7e-m+fp\hard\bits\gthr-default.h **** {
 151:c:\progra~2\gnuarm~1\102021~1.10\arm-none-eabi\include\c++\10.3.1\arm-none-eabi\thumb\v7e-m+fp\hard\bits\gthr-default.h ****   /* There can only be one thread, so we always get the lock */
 152:c:\progra~2\gnuarm~1\102021~1.10\arm-none-eabi\include\c++\10.3.1\arm-none-eabi\thumb\v7e-m+fp\hard\bits\gthr-default.h ****   return 0;
 153:c:\progra~2\gnuarm~1\102021~1.10\arm-none-eabi\include\c++\10.3.1\arm-none-eabi\thumb\v7e-m+fp\hard\bits\gthr-default.h **** }
 154:c:\progra~2\gnuarm~1\102021~1.10\arm-none-eabi\include\c++\10.3.1\arm-none-eabi\thumb\v7e-m+fp\hard\bits\gthr-default.h **** 
 155:c:\progra~2\gnuarm~1\102021~1.10\arm-none-eabi\include\c++\10.3.1\arm-none-eabi\thumb\v7e-m+fp\hard\bits\gthr-default.h **** /* Try to grab a lock on a mutex.  */
 156:c:\progra~2\gnuarm~1\102021~1.10\arm-none-eabi\include\c++\10.3.1\arm-none-eabi\thumb\v7e-m+fp\hard\bits\gthr-default.h **** static inline int
 157:c:\progra~2\gnuarm~1\102021~1.10\arm-none-eabi\include\c++\10.3.1\arm-none-eabi\thumb\v7e-m+fp\hard\bits\gthr-default.h **** __gthread_objc_mutex_trylock (objc_mutex_t mutex _GLIBCXX_UNUSED)
 158:c:\progra~2\gnuarm~1\102021~1.10\arm-none-eabi\include\c++\10.3.1\arm-none-eabi\thumb\v7e-m+fp\hard\bits\gthr-default.h **** {
 159:c:\progra~2\gnuarm~1\102021~1.10\arm-none-eabi\include\c++\10.3.1\arm-none-eabi\thumb\v7e-m+fp\hard\bits\gthr-default.h ****   /* There can only be one thread, so we always get the lock */
 160:c:\progra~2\gnuarm~1\102021~1.10\arm-none-eabi\include\c++\10.3.1\arm-none-eabi\thumb\v7e-m+fp\hard\bits\gthr-default.h ****   return 0;
 161:c:\progra~2\gnuarm~1\102021~1.10\arm-none-eabi\include\c++\10.3.1\arm-none-eabi\thumb\v7e-m+fp\hard\bits\gthr-default.h **** }
 162:c:\progra~2\gnuarm~1\102021~1.10\arm-none-eabi\include\c++\10.3.1\arm-none-eabi\thumb\v7e-m+fp\hard\bits\gthr-default.h **** 
 163:c:\progra~2\gnuarm~1\102021~1.10\arm-none-eabi\include\c++\10.3.1\arm-none-eabi\thumb\v7e-m+fp\hard\bits\gthr-default.h **** /* Unlock the mutex */
 164:c:\progra~2\gnuarm~1\102021~1.10\arm-none-eabi\include\c++\10.3.1\arm-none-eabi\thumb\v7e-m+fp\hard\bits\gthr-default.h **** static inline int
 165:c:\progra~2\gnuarm~1\102021~1.10\arm-none-eabi\include\c++\10.3.1\arm-none-eabi\thumb\v7e-m+fp\hard\bits\gthr-default.h **** __gthread_objc_mutex_unlock (objc_mutex_t mutex _GLIBCXX_UNUSED)
 166:c:\progra~2\gnuarm~1\102021~1.10\arm-none-eabi\include\c++\10.3.1\arm-none-eabi\thumb\v7e-m+fp\hard\bits\gthr-default.h **** {
 167:c:\progra~2\gnuarm~1\102021~1.10\arm-none-eabi\include\c++\10.3.1\arm-none-eabi\thumb\v7e-m+fp\hard\bits\gthr-default.h ****   return 0;
 168:c:\progra~2\gnuarm~1\102021~1.10\arm-none-eabi\include\c++\10.3.1\arm-none-eabi\thumb\v7e-m+fp\hard\bits\gthr-default.h **** }
 169:c:\progra~2\gnuarm~1\102021~1.10\arm-none-eabi\include\c++\10.3.1\arm-none-eabi\thumb\v7e-m+fp\hard\bits\gthr-default.h **** 
 170:c:\progra~2\gnuarm~1\102021~1.10\arm-none-eabi\include\c++\10.3.1\arm-none-eabi\thumb\v7e-m+fp\hard\bits\gthr-default.h **** /* Backend condition mutex functions */
 171:c:\progra~2\gnuarm~1\102021~1.10\arm-none-eabi\include\c++\10.3.1\arm-none-eabi\thumb\v7e-m+fp\hard\bits\gthr-default.h **** 
 172:c:\progra~2\gnuarm~1\102021~1.10\arm-none-eabi\include\c++\10.3.1\arm-none-eabi\thumb\v7e-m+fp\hard\bits\gthr-default.h **** /* Allocate a condition.  */
 173:c:\progra~2\gnuarm~1\102021~1.10\arm-none-eabi\include\c++\10.3.1\arm-none-eabi\thumb\v7e-m+fp\hard\bits\gthr-default.h **** static inline int
 174:c:\progra~2\gnuarm~1\102021~1.10\arm-none-eabi\include\c++\10.3.1\arm-none-eabi\thumb\v7e-m+fp\hard\bits\gthr-default.h **** __gthread_objc_condition_allocate (objc_condition_t condition _GLIBCXX_UNUSED)
 175:c:\progra~2\gnuarm~1\102021~1.10\arm-none-eabi\include\c++\10.3.1\arm-none-eabi\thumb\v7e-m+fp\hard\bits\gthr-default.h **** {
 176:c:\progra~2\gnuarm~1\102021~1.10\arm-none-eabi\include\c++\10.3.1\arm-none-eabi\thumb\v7e-m+fp\hard\bits\gthr-default.h ****   return 0;
 177:c:\progra~2\gnuarm~1\102021~1.10\arm-none-eabi\include\c++\10.3.1\arm-none-eabi\thumb\v7e-m+fp\hard\bits\gthr-default.h **** }
 178:c:\progra~2\gnuarm~1\102021~1.10\arm-none-eabi\include\c++\10.3.1\arm-none-eabi\thumb\v7e-m+fp\hard\bits\gthr-default.h **** 
 179:c:\progra~2\gnuarm~1\102021~1.10\arm-none-eabi\include\c++\10.3.1\arm-none-eabi\thumb\v7e-m+fp\hard\bits\gthr-default.h **** /* Deallocate a condition.  */
 180:c:\progra~2\gnuarm~1\102021~1.10\arm-none-eabi\include\c++\10.3.1\arm-none-eabi\thumb\v7e-m+fp\hard\bits\gthr-default.h **** static inline int
 181:c:\progra~2\gnuarm~1\102021~1.10\arm-none-eabi\include\c++\10.3.1\arm-none-eabi\thumb\v7e-m+fp\hard\bits\gthr-default.h **** __gthread_objc_condition_deallocate (objc_condition_t condition _GLIBCXX_UNUSED)
 182:c:\progra~2\gnuarm~1\102021~1.10\arm-none-eabi\include\c++\10.3.1\arm-none-eabi\thumb\v7e-m+fp\hard\bits\gthr-default.h **** {
 183:c:\progra~2\gnuarm~1\102021~1.10\arm-none-eabi\include\c++\10.3.1\arm-none-eabi\thumb\v7e-m+fp\hard\bits\gthr-default.h ****   return 0;
 184:c:\progra~2\gnuarm~1\102021~1.10\arm-none-eabi\include\c++\10.3.1\arm-none-eabi\thumb\v7e-m+fp\hard\bits\gthr-default.h **** }
 185:c:\progra~2\gnuarm~1\102021~1.10\arm-none-eabi\include\c++\10.3.1\arm-none-eabi\thumb\v7e-m+fp\hard\bits\gthr-default.h **** 
 186:c:\progra~2\gnuarm~1\102021~1.10\arm-none-eabi\include\c++\10.3.1\arm-none-eabi\thumb\v7e-m+fp\hard\bits\gthr-default.h **** /* Wait on the condition */
 187:c:\progra~2\gnuarm~1\102021~1.10\arm-none-eabi\include\c++\10.3.1\arm-none-eabi\thumb\v7e-m+fp\hard\bits\gthr-default.h **** static inline int
 188:c:\progra~2\gnuarm~1\102021~1.10\arm-none-eabi\include\c++\10.3.1\arm-none-eabi\thumb\v7e-m+fp\hard\bits\gthr-default.h **** __gthread_objc_condition_wait (objc_condition_t condition _GLIBCXX_UNUSED,
 189:c:\progra~2\gnuarm~1\102021~1.10\arm-none-eabi\include\c++\10.3.1\arm-none-eabi\thumb\v7e-m+fp\hard\bits\gthr-default.h **** 			       objc_mutex_t mutex _GLIBCXX_UNUSED)
ARM GAS   			page 5


 190:c:\progra~2\gnuarm~1\102021~1.10\arm-none-eabi\include\c++\10.3.1\arm-none-eabi\thumb\v7e-m+fp\hard\bits\gthr-default.h **** {
 191:c:\progra~2\gnuarm~1\102021~1.10\arm-none-eabi\include\c++\10.3.1\arm-none-eabi\thumb\v7e-m+fp\hard\bits\gthr-default.h ****   return 0;
 192:c:\progra~2\gnuarm~1\102021~1.10\arm-none-eabi\include\c++\10.3.1\arm-none-eabi\thumb\v7e-m+fp\hard\bits\gthr-default.h **** }
 193:c:\progra~2\gnuarm~1\102021~1.10\arm-none-eabi\include\c++\10.3.1\arm-none-eabi\thumb\v7e-m+fp\hard\bits\gthr-default.h **** 
 194:c:\progra~2\gnuarm~1\102021~1.10\arm-none-eabi\include\c++\10.3.1\arm-none-eabi\thumb\v7e-m+fp\hard\bits\gthr-default.h **** /* Wake up all threads waiting on this condition.  */
 195:c:\progra~2\gnuarm~1\102021~1.10\arm-none-eabi\include\c++\10.3.1\arm-none-eabi\thumb\v7e-m+fp\hard\bits\gthr-default.h **** static inline int
 196:c:\progra~2\gnuarm~1\102021~1.10\arm-none-eabi\include\c++\10.3.1\arm-none-eabi\thumb\v7e-m+fp\hard\bits\gthr-default.h **** __gthread_objc_condition_broadcast (objc_condition_t condition _GLIBCXX_UNUSED)
 197:c:\progra~2\gnuarm~1\102021~1.10\arm-none-eabi\include\c++\10.3.1\arm-none-eabi\thumb\v7e-m+fp\hard\bits\gthr-default.h **** {
 198:c:\progra~2\gnuarm~1\102021~1.10\arm-none-eabi\include\c++\10.3.1\arm-none-eabi\thumb\v7e-m+fp\hard\bits\gthr-default.h ****   return 0;
 199:c:\progra~2\gnuarm~1\102021~1.10\arm-none-eabi\include\c++\10.3.1\arm-none-eabi\thumb\v7e-m+fp\hard\bits\gthr-default.h **** }
 200:c:\progra~2\gnuarm~1\102021~1.10\arm-none-eabi\include\c++\10.3.1\arm-none-eabi\thumb\v7e-m+fp\hard\bits\gthr-default.h **** 
 201:c:\progra~2\gnuarm~1\102021~1.10\arm-none-eabi\include\c++\10.3.1\arm-none-eabi\thumb\v7e-m+fp\hard\bits\gthr-default.h **** /* Wake up one thread waiting on this condition.  */
 202:c:\progra~2\gnuarm~1\102021~1.10\arm-none-eabi\include\c++\10.3.1\arm-none-eabi\thumb\v7e-m+fp\hard\bits\gthr-default.h **** static inline int
 203:c:\progra~2\gnuarm~1\102021~1.10\arm-none-eabi\include\c++\10.3.1\arm-none-eabi\thumb\v7e-m+fp\hard\bits\gthr-default.h **** __gthread_objc_condition_signal (objc_condition_t condition _GLIBCXX_UNUSED)
 204:c:\progra~2\gnuarm~1\102021~1.10\arm-none-eabi\include\c++\10.3.1\arm-none-eabi\thumb\v7e-m+fp\hard\bits\gthr-default.h **** {
 205:c:\progra~2\gnuarm~1\102021~1.10\arm-none-eabi\include\c++\10.3.1\arm-none-eabi\thumb\v7e-m+fp\hard\bits\gthr-default.h ****   return 0;
 206:c:\progra~2\gnuarm~1\102021~1.10\arm-none-eabi\include\c++\10.3.1\arm-none-eabi\thumb\v7e-m+fp\hard\bits\gthr-default.h **** }
 207:c:\progra~2\gnuarm~1\102021~1.10\arm-none-eabi\include\c++\10.3.1\arm-none-eabi\thumb\v7e-m+fp\hard\bits\gthr-default.h **** 
 208:c:\progra~2\gnuarm~1\102021~1.10\arm-none-eabi\include\c++\10.3.1\arm-none-eabi\thumb\v7e-m+fp\hard\bits\gthr-default.h **** #else /* _LIBOBJC */
 209:c:\progra~2\gnuarm~1\102021~1.10\arm-none-eabi\include\c++\10.3.1\arm-none-eabi\thumb\v7e-m+fp\hard\bits\gthr-default.h **** 
 210:c:\progra~2\gnuarm~1\102021~1.10\arm-none-eabi\include\c++\10.3.1\arm-none-eabi\thumb\v7e-m+fp\hard\bits\gthr-default.h **** static inline int
 211:c:\progra~2\gnuarm~1\102021~1.10\arm-none-eabi\include\c++\10.3.1\arm-none-eabi\thumb\v7e-m+fp\hard\bits\gthr-default.h **** __gthread_active_p (void)
 212:c:\progra~2\gnuarm~1\102021~1.10\arm-none-eabi\include\c++\10.3.1\arm-none-eabi\thumb\v7e-m+fp\hard\bits\gthr-default.h **** {
 213:c:\progra~2\gnuarm~1\102021~1.10\arm-none-eabi\include\c++\10.3.1\arm-none-eabi\thumb\v7e-m+fp\hard\bits\gthr-default.h ****   return 0;
 214:c:\progra~2\gnuarm~1\102021~1.10\arm-none-eabi\include\c++\10.3.1\arm-none-eabi\thumb\v7e-m+fp\hard\bits\gthr-default.h **** }
 215:c:\progra~2\gnuarm~1\102021~1.10\arm-none-eabi\include\c++\10.3.1\arm-none-eabi\thumb\v7e-m+fp\hard\bits\gthr-default.h **** 
 216:c:\progra~2\gnuarm~1\102021~1.10\arm-none-eabi\include\c++\10.3.1\arm-none-eabi\thumb\v7e-m+fp\hard\bits\gthr-default.h **** static inline int
 217:c:\progra~2\gnuarm~1\102021~1.10\arm-none-eabi\include\c++\10.3.1\arm-none-eabi\thumb\v7e-m+fp\hard\bits\gthr-default.h **** __gthread_once (__gthread_once_t *__once _GLIBCXX_UNUSED, void (*__func) (void) _GLIBCXX_UNUSED)
 218:c:\progra~2\gnuarm~1\102021~1.10\arm-none-eabi\include\c++\10.3.1\arm-none-eabi\thumb\v7e-m+fp\hard\bits\gthr-default.h **** {
 219:c:\progra~2\gnuarm~1\102021~1.10\arm-none-eabi\include\c++\10.3.1\arm-none-eabi\thumb\v7e-m+fp\hard\bits\gthr-default.h ****   return 0;
 220:c:\progra~2\gnuarm~1\102021~1.10\arm-none-eabi\include\c++\10.3.1\arm-none-eabi\thumb\v7e-m+fp\hard\bits\gthr-default.h **** }
 221:c:\progra~2\gnuarm~1\102021~1.10\arm-none-eabi\include\c++\10.3.1\arm-none-eabi\thumb\v7e-m+fp\hard\bits\gthr-default.h **** 
 222:c:\progra~2\gnuarm~1\102021~1.10\arm-none-eabi\include\c++\10.3.1\arm-none-eabi\thumb\v7e-m+fp\hard\bits\gthr-default.h **** static inline int _GLIBCXX_UNUSED
 223:c:\progra~2\gnuarm~1\102021~1.10\arm-none-eabi\include\c++\10.3.1\arm-none-eabi\thumb\v7e-m+fp\hard\bits\gthr-default.h **** __gthread_key_create (__gthread_key_t *__key _GLIBCXX_UNUSED, void (*__func) (void *) _GLIBCXX_UNUS
 224:c:\progra~2\gnuarm~1\102021~1.10\arm-none-eabi\include\c++\10.3.1\arm-none-eabi\thumb\v7e-m+fp\hard\bits\gthr-default.h **** {
 225:c:\progra~2\gnuarm~1\102021~1.10\arm-none-eabi\include\c++\10.3.1\arm-none-eabi\thumb\v7e-m+fp\hard\bits\gthr-default.h ****   return 0;
 226:c:\progra~2\gnuarm~1\102021~1.10\arm-none-eabi\include\c++\10.3.1\arm-none-eabi\thumb\v7e-m+fp\hard\bits\gthr-default.h **** }
 227:c:\progra~2\gnuarm~1\102021~1.10\arm-none-eabi\include\c++\10.3.1\arm-none-eabi\thumb\v7e-m+fp\hard\bits\gthr-default.h **** 
 228:c:\progra~2\gnuarm~1\102021~1.10\arm-none-eabi\include\c++\10.3.1\arm-none-eabi\thumb\v7e-m+fp\hard\bits\gthr-default.h **** static int _GLIBCXX_UNUSED
 229:c:\progra~2\gnuarm~1\102021~1.10\arm-none-eabi\include\c++\10.3.1\arm-none-eabi\thumb\v7e-m+fp\hard\bits\gthr-default.h **** __gthread_key_delete (__gthread_key_t __key _GLIBCXX_UNUSED)
 230:c:\progra~2\gnuarm~1\102021~1.10\arm-none-eabi\include\c++\10.3.1\arm-none-eabi\thumb\v7e-m+fp\hard\bits\gthr-default.h **** {
  40              	 .loc 1 230 1
  41              	 .cfi_startproc
  42              	 
  43              	 
  44              	 
  45 0000 80B4     	 push {r7}
  46              	 .cfi_def_cfa_offset 4
  47              	 .cfi_offset 7,-4
  48 0002 83B0     	 sub sp,sp,#12
  49              	 .cfi_def_cfa_offset 16
  50 0004 00AF     	 add r7,sp,#0
  51              	 .cfi_def_cfa_register 7
  52 0006 7860     	 str r0,[r7,#4]
 231:c:\progra~2\gnuarm~1\102021~1.10\arm-none-eabi\include\c++\10.3.1\arm-none-eabi\thumb\v7e-m+fp\hard\bits\gthr-default.h ****   return 0;
  53              	 .loc 1 231 10
  54 0008 0023     	 movs r3,#0
ARM GAS   			page 6


 232:c:\progra~2\gnuarm~1\102021~1.10\arm-none-eabi\include\c++\10.3.1\arm-none-eabi\thumb\v7e-m+fp\hard\bits\gthr-default.h **** }
  55              	 .loc 1 232 1
  56 000a 1846     	 mov r0,r3
  57 000c 0C37     	 adds r7,r7,#12
  58              	 .cfi_def_cfa_offset 4
  59 000e BD46     	 mov sp,r7
  60              	 .cfi_def_cfa_register 13
  61              	 
  62 0010 5DF8047B 	 ldr r7,[sp],#4
  63              	 .cfi_restore 7
  64              	 .cfi_def_cfa_offset 0
  65 0014 7047     	 bx lr
  66              	 .cfi_endproc
  67              	.LFE843:
  68              	 .size _ZL20__gthread_key_deletei,.-_ZL20__gthread_key_deletei
  69              	 .section .text._ZN12cpp_freertos6Thread9GetHandleEv,"axG",%progbits,_ZN12cpp_freertos6Thread9GetHandleEv,comdat
  70              	 .align 1
  71              	 .weak _ZN12cpp_freertos6Thread9GetHandleEv
  72              	 .syntax unified
  73              	 .thumb
  74              	 .thumb_func
  75              	 .type _ZN12cpp_freertos6Thread9GetHandleEv,%function
  76              	_ZN12cpp_freertos6Thread9GetHandleEv:
  77              	.LFB1210:
  78              	 .file 2 "C:/Users/niels/DOCUME~1/ELEKTR~1/JAAR2~1/ECS/ECSL/software/STM32/STM32B~1/HAL/GEMEEN~1/THIRD_~1/FREERT~1.0/C__~1/Source/include/thread.hpp"
   1:C:/Users/niels/DOCUME~1/ELEKTR~1/JAAR2~1/ECS/ECSL/software/STM32/STM32B~1/HAL/GEMEEN~1/THIRD_~1/FREERT~1.0/C__~1/Source/include\thread.hpp ****  /****************************************************************************
   2:C:/Users/niels/DOCUME~1/ELEKTR~1/JAAR2~1/ECS/ECSL/software/STM32/STM32B~1/HAL/GEMEEN~1/THIRD_~1/FREERT~1.0/C__~1/Source/include\thread.hpp ****  *
   3:C:/Users/niels/DOCUME~1/ELEKTR~1/JAAR2~1/ECS/ECSL/software/STM32/STM32B~1/HAL/GEMEEN~1/THIRD_~1/FREERT~1.0/C__~1/Source/include\thread.hpp ****  *  Copyright (c) 2016, Michael Becker (michael.f.becker@gmail.com)
   4:C:/Users/niels/DOCUME~1/ELEKTR~1/JAAR2~1/ECS/ECSL/software/STM32/STM32B~1/HAL/GEMEEN~1/THIRD_~1/FREERT~1.0/C__~1/Source/include\thread.hpp ****  *
   5:C:/Users/niels/DOCUME~1/ELEKTR~1/JAAR2~1/ECS/ECSL/software/STM32/STM32B~1/HAL/GEMEEN~1/THIRD_~1/FREERT~1.0/C__~1/Source/include\thread.hpp ****  *  This file is part of the FreeRTOS C++ Wrappers project.
   6:C:/Users/niels/DOCUME~1/ELEKTR~1/JAAR2~1/ECS/ECSL/software/STM32/STM32B~1/HAL/GEMEEN~1/THIRD_~1/FREERT~1.0/C__~1/Source/include\thread.hpp ****  *
   7:C:/Users/niels/DOCUME~1/ELEKTR~1/JAAR2~1/ECS/ECSL/software/STM32/STM32B~1/HAL/GEMEEN~1/THIRD_~1/FREERT~1.0/C__~1/Source/include\thread.hpp ****  *  The FreeRTOS C++ Wrappers project is free software: you can redistribute
   8:C:/Users/niels/DOCUME~1/ELEKTR~1/JAAR2~1/ECS/ECSL/software/STM32/STM32B~1/HAL/GEMEEN~1/THIRD_~1/FREERT~1.0/C__~1/Source/include\thread.hpp ****  *  it and/or modify it under the terms of the GNU General Public License as
   9:C:/Users/niels/DOCUME~1/ELEKTR~1/JAAR2~1/ECS/ECSL/software/STM32/STM32B~1/HAL/GEMEEN~1/THIRD_~1/FREERT~1.0/C__~1/Source/include\thread.hpp ****  *  published by the Free Software Foundation, either version 2
  10:C:/Users/niels/DOCUME~1/ELEKTR~1/JAAR2~1/ECS/ECSL/software/STM32/STM32B~1/HAL/GEMEEN~1/THIRD_~1/FREERT~1.0/C__~1/Source/include\thread.hpp ****  *  of the License, or (at your option) any later version.
  11:C:/Users/niels/DOCUME~1/ELEKTR~1/JAAR2~1/ECS/ECSL/software/STM32/STM32B~1/HAL/GEMEEN~1/THIRD_~1/FREERT~1.0/C__~1/Source/include\thread.hpp ****  *
  12:C:/Users/niels/DOCUME~1/ELEKTR~1/JAAR2~1/ECS/ECSL/software/STM32/STM32B~1/HAL/GEMEEN~1/THIRD_~1/FREERT~1.0/C__~1/Source/include\thread.hpp ****  *  The FreeRTOS C++ Wrappers project is distributed in the hope that it will
  13:C:/Users/niels/DOCUME~1/ELEKTR~1/JAAR2~1/ECS/ECSL/software/STM32/STM32B~1/HAL/GEMEEN~1/THIRD_~1/FREERT~1.0/C__~1/Source/include\thread.hpp ****  *  be useful, but WITHOUT ANY WARRANTY; without even the implied warranty of
  14:C:/Users/niels/DOCUME~1/ELEKTR~1/JAAR2~1/ECS/ECSL/software/STM32/STM32B~1/HAL/GEMEEN~1/THIRD_~1/FREERT~1.0/C__~1/Source/include\thread.hpp ****  *  MERCHANTABILITY or FITNESS FOR A PARTICULAR PURPOSE.  See the
  15:C:/Users/niels/DOCUME~1/ELEKTR~1/JAAR2~1/ECS/ECSL/software/STM32/STM32B~1/HAL/GEMEEN~1/THIRD_~1/FREERT~1.0/C__~1/Source/include\thread.hpp ****  *  GNU General Public License for more details.
  16:C:/Users/niels/DOCUME~1/ELEKTR~1/JAAR2~1/ECS/ECSL/software/STM32/STM32B~1/HAL/GEMEEN~1/THIRD_~1/FREERT~1.0/C__~1/Source/include\thread.hpp ****  *
  17:C:/Users/niels/DOCUME~1/ELEKTR~1/JAAR2~1/ECS/ECSL/software/STM32/STM32B~1/HAL/GEMEEN~1/THIRD_~1/FREERT~1.0/C__~1/Source/include\thread.hpp ****  *  You should have received a copy of the GNU General Public License
  18:C:/Users/niels/DOCUME~1/ELEKTR~1/JAAR2~1/ECS/ECSL/software/STM32/STM32B~1/HAL/GEMEEN~1/THIRD_~1/FREERT~1.0/C__~1/Source/include\thread.hpp ****  *  along with the FreeRTOS C++ Wrappers project.
  19:C:/Users/niels/DOCUME~1/ELEKTR~1/JAAR2~1/ECS/ECSL/software/STM32/STM32B~1/HAL/GEMEEN~1/THIRD_~1/FREERT~1.0/C__~1/Source/include\thread.hpp ****  *  If not, see <http://www.gnu.org/licenses/>.
  20:C:/Users/niels/DOCUME~1/ELEKTR~1/JAAR2~1/ECS/ECSL/software/STM32/STM32B~1/HAL/GEMEEN~1/THIRD_~1/FREERT~1.0/C__~1/Source/include\thread.hpp ****  *
  21:C:/Users/niels/DOCUME~1/ELEKTR~1/JAAR2~1/ECS/ECSL/software/STM32/STM32B~1/HAL/GEMEEN~1/THIRD_~1/FREERT~1.0/C__~1/Source/include\thread.hpp ****  ***************************************************************************/
  22:C:/Users/niels/DOCUME~1/ELEKTR~1/JAAR2~1/ECS/ECSL/software/STM32/STM32B~1/HAL/GEMEEN~1/THIRD_~1/FREERT~1.0/C__~1/Source/include\thread.hpp **** #ifndef THREAD_HPP_
  23:C:/Users/niels/DOCUME~1/ELEKTR~1/JAAR2~1/ECS/ECSL/software/STM32/STM32B~1/HAL/GEMEEN~1/THIRD_~1/FREERT~1.0/C__~1/Source/include\thread.hpp **** #define THREAD_HPP_
  24:C:/Users/niels/DOCUME~1/ELEKTR~1/JAAR2~1/ECS/ECSL/software/STM32/STM32B~1/HAL/GEMEEN~1/THIRD_~1/FREERT~1.0/C__~1/Source/include\thread.hpp **** 
  25:C:/Users/niels/DOCUME~1/ELEKTR~1/JAAR2~1/ECS/ECSL/software/STM32/STM32B~1/HAL/GEMEEN~1/THIRD_~1/FREERT~1.0/C__~1/Source/include\thread.hpp **** #include <exception>
  26:C:/Users/niels/DOCUME~1/ELEKTR~1/JAAR2~1/ECS/ECSL/software/STM32/STM32B~1/HAL/GEMEEN~1/THIRD_~1/FREERT~1.0/C__~1/Source/include\thread.hpp **** #include <string>
  27:C:/Users/niels/DOCUME~1/ELEKTR~1/JAAR2~1/ECS/ECSL/software/STM32/STM32B~1/HAL/GEMEEN~1/THIRD_~1/FREERT~1.0/C__~1/Source/include\thread.hpp **** #include "FreeRTOS.h"
  28:C:/Users/niels/DOCUME~1/ELEKTR~1/JAAR2~1/ECS/ECSL/software/STM32/STM32B~1/HAL/GEMEEN~1/THIRD_~1/FREERT~1.0/C__~1/Source/include\thread.hpp **** #include "task.h"
  29:C:/Users/niels/DOCUME~1/ELEKTR~1/JAAR2~1/ECS/ECSL/software/STM32/STM32B~1/HAL/GEMEEN~1/THIRD_~1/FREERT~1.0/C__~1/Source/include\thread.hpp **** #include "mutex.hpp"
  30:C:/Users/niels/DOCUME~1/ELEKTR~1/JAAR2~1/ECS/ECSL/software/STM32/STM32B~1/HAL/GEMEEN~1/THIRD_~1/FREERT~1.0/C__~1/Source/include\thread.hpp **** 
  31:C:/Users/niels/DOCUME~1/ELEKTR~1/JAAR2~1/ECS/ECSL/software/STM32/STM32B~1/HAL/GEMEEN~1/THIRD_~1/FREERT~1.0/C__~1/Source/include\thread.hpp **** namespace cpp_freertos {
  32:C:/Users/niels/DOCUME~1/ELEKTR~1/JAAR2~1/ECS/ECSL/software/STM32/STM32B~1/HAL/GEMEEN~1/THIRD_~1/FREERT~1.0/C__~1/Source/include\thread.hpp **** 
ARM GAS   			page 7


  33:C:/Users/niels/DOCUME~1/ELEKTR~1/JAAR2~1/ECS/ECSL/software/STM32/STM32B~1/HAL/GEMEEN~1/THIRD_~1/FREERT~1.0/C__~1/Source/include\thread.hpp **** 
  34:C:/Users/niels/DOCUME~1/ELEKTR~1/JAAR2~1/ECS/ECSL/software/STM32/STM32B~1/HAL/GEMEEN~1/THIRD_~1/FREERT~1.0/C__~1/Source/include\thread.hpp **** /**
  35:C:/Users/niels/DOCUME~1/ELEKTR~1/JAAR2~1/ECS/ECSL/software/STM32/STM32B~1/HAL/GEMEEN~1/THIRD_~1/FREERT~1.0/C__~1/Source/include\thread.hpp ****  *  Wrapper class around FreeRTOS's implementation of a task.
  36:C:/Users/niels/DOCUME~1/ELEKTR~1/JAAR2~1/ECS/ECSL/software/STM32/STM32B~1/HAL/GEMEEN~1/THIRD_~1/FREERT~1.0/C__~1/Source/include\thread.hpp ****  *
  37:C:/Users/niels/DOCUME~1/ELEKTR~1/JAAR2~1/ECS/ECSL/software/STM32/STM32B~1/HAL/GEMEEN~1/THIRD_~1/FREERT~1.0/C__~1/Source/include\thread.hpp ****  *  This is an abstract base class.
  38:C:/Users/niels/DOCUME~1/ELEKTR~1/JAAR2~1/ECS/ECSL/software/STM32/STM32B~1/HAL/GEMEEN~1/THIRD_~1/FREERT~1.0/C__~1/Source/include\thread.hpp ****  *  To use this, you need to subclass it. All of your threads should
  39:C:/Users/niels/DOCUME~1/ELEKTR~1/JAAR2~1/ECS/ECSL/software/STM32/STM32B~1/HAL/GEMEEN~1/THIRD_~1/FREERT~1.0/C__~1/Source/include\thread.hpp ****  *  be derived from the Thread class. Then implement the virtual Run
  40:C:/Users/niels/DOCUME~1/ELEKTR~1/JAAR2~1/ECS/ECSL/software/STM32/STM32B~1/HAL/GEMEEN~1/THIRD_~1/FREERT~1.0/C__~1/Source/include\thread.hpp ****  *  function. This is a similar design to Java threading.
  41:C:/Users/niels/DOCUME~1/ELEKTR~1/JAAR2~1/ECS/ECSL/software/STM32/STM32B~1/HAL/GEMEEN~1/THIRD_~1/FREERT~1.0/C__~1/Source/include\thread.hpp ****  */
  42:C:/Users/niels/DOCUME~1/ELEKTR~1/JAAR2~1/ECS/ECSL/software/STM32/STM32B~1/HAL/GEMEEN~1/THIRD_~1/FREERT~1.0/C__~1/Source/include\thread.hpp **** class Thread {
  43:C:/Users/niels/DOCUME~1/ELEKTR~1/JAAR2~1/ECS/ECSL/software/STM32/STM32B~1/HAL/GEMEEN~1/THIRD_~1/FREERT~1.0/C__~1/Source/include\thread.hpp **** 
  44:C:/Users/niels/DOCUME~1/ELEKTR~1/JAAR2~1/ECS/ECSL/software/STM32/STM32B~1/HAL/GEMEEN~1/THIRD_~1/FREERT~1.0/C__~1/Source/include\thread.hpp ****     /////////////////////////////////////////////////////////////////////////
  45:C:/Users/niels/DOCUME~1/ELEKTR~1/JAAR2~1/ECS/ECSL/software/STM32/STM32B~1/HAL/GEMEEN~1/THIRD_~1/FREERT~1.0/C__~1/Source/include\thread.hpp ****     //
  46:C:/Users/niels/DOCUME~1/ELEKTR~1/JAAR2~1/ECS/ECSL/software/STM32/STM32B~1/HAL/GEMEEN~1/THIRD_~1/FREERT~1.0/C__~1/Source/include\thread.hpp ****     //  Public API
  47:C:/Users/niels/DOCUME~1/ELEKTR~1/JAAR2~1/ECS/ECSL/software/STM32/STM32B~1/HAL/GEMEEN~1/THIRD_~1/FREERT~1.0/C__~1/Source/include\thread.hpp ****     //  Available from anywhere. Many of these require a Thread reference
  48:C:/Users/niels/DOCUME~1/ELEKTR~1/JAAR2~1/ECS/ECSL/software/STM32/STM32B~1/HAL/GEMEEN~1/THIRD_~1/FREERT~1.0/C__~1/Source/include\thread.hpp ****     //  if they are operating on a thread.
  49:C:/Users/niels/DOCUME~1/ELEKTR~1/JAAR2~1/ECS/ECSL/software/STM32/STM32B~1/HAL/GEMEEN~1/THIRD_~1/FREERT~1.0/C__~1/Source/include\thread.hpp ****     //
  50:C:/Users/niels/DOCUME~1/ELEKTR~1/JAAR2~1/ECS/ECSL/software/STM32/STM32B~1/HAL/GEMEEN~1/THIRD_~1/FREERT~1.0/C__~1/Source/include\thread.hpp ****     /////////////////////////////////////////////////////////////////////////
  51:C:/Users/niels/DOCUME~1/ELEKTR~1/JAAR2~1/ECS/ECSL/software/STM32/STM32B~1/HAL/GEMEEN~1/THIRD_~1/FREERT~1.0/C__~1/Source/include\thread.hpp ****     public:
  52:C:/Users/niels/DOCUME~1/ELEKTR~1/JAAR2~1/ECS/ECSL/software/STM32/STM32B~1/HAL/GEMEEN~1/THIRD_~1/FREERT~1.0/C__~1/Source/include\thread.hpp ****         /**
  53:C:/Users/niels/DOCUME~1/ELEKTR~1/JAAR2~1/ECS/ECSL/software/STM32/STM32B~1/HAL/GEMEEN~1/THIRD_~1/FREERT~1.0/C__~1/Source/include\thread.hpp ****          *  Constructor to create a named thread.
  54:C:/Users/niels/DOCUME~1/ELEKTR~1/JAAR2~1/ECS/ECSL/software/STM32/STM32B~1/HAL/GEMEEN~1/THIRD_~1/FREERT~1.0/C__~1/Source/include\thread.hpp ****          *
  55:C:/Users/niels/DOCUME~1/ELEKTR~1/JAAR2~1/ECS/ECSL/software/STM32/STM32B~1/HAL/GEMEEN~1/THIRD_~1/FREERT~1.0/C__~1/Source/include\thread.hpp ****          *  @param Name Name of the thread. Only useful for debugging.
  56:C:/Users/niels/DOCUME~1/ELEKTR~1/JAAR2~1/ECS/ECSL/software/STM32/STM32B~1/HAL/GEMEEN~1/THIRD_~1/FREERT~1.0/C__~1/Source/include\thread.hpp ****          *  @param StackDepth Number of "words" allocated for the Thread stack.
  57:C:/Users/niels/DOCUME~1/ELEKTR~1/JAAR2~1/ECS/ECSL/software/STM32/STM32B~1/HAL/GEMEEN~1/THIRD_~1/FREERT~1.0/C__~1/Source/include\thread.hpp ****          *  @param Priority FreeRTOS priority of this Thread.
  58:C:/Users/niels/DOCUME~1/ELEKTR~1/JAAR2~1/ECS/ECSL/software/STM32/STM32B~1/HAL/GEMEEN~1/THIRD_~1/FREERT~1.0/C__~1/Source/include\thread.hpp ****          */
  59:C:/Users/niels/DOCUME~1/ELEKTR~1/JAAR2~1/ECS/ECSL/software/STM32/STM32B~1/HAL/GEMEEN~1/THIRD_~1/FREERT~1.0/C__~1/Source/include\thread.hpp ****         Thread(const std::string &Name,
  60:C:/Users/niels/DOCUME~1/ELEKTR~1/JAAR2~1/ECS/ECSL/software/STM32/STM32B~1/HAL/GEMEEN~1/THIRD_~1/FREERT~1.0/C__~1/Source/include\thread.hpp ****                uint16_t StackDepth,
  61:C:/Users/niels/DOCUME~1/ELEKTR~1/JAAR2~1/ECS/ECSL/software/STM32/STM32B~1/HAL/GEMEEN~1/THIRD_~1/FREERT~1.0/C__~1/Source/include\thread.hpp ****                UBaseType_t Priority);
  62:C:/Users/niels/DOCUME~1/ELEKTR~1/JAAR2~1/ECS/ECSL/software/STM32/STM32B~1/HAL/GEMEEN~1/THIRD_~1/FREERT~1.0/C__~1/Source/include\thread.hpp **** 
  63:C:/Users/niels/DOCUME~1/ELEKTR~1/JAAR2~1/ECS/ECSL/software/STM32/STM32B~1/HAL/GEMEEN~1/THIRD_~1/FREERT~1.0/C__~1/Source/include\thread.hpp ****         /**
  64:C:/Users/niels/DOCUME~1/ELEKTR~1/JAAR2~1/ECS/ECSL/software/STM32/STM32B~1/HAL/GEMEEN~1/THIRD_~1/FREERT~1.0/C__~1/Source/include\thread.hpp ****          *  Constructor to create an unnamed thread.
  65:C:/Users/niels/DOCUME~1/ELEKTR~1/JAAR2~1/ECS/ECSL/software/STM32/STM32B~1/HAL/GEMEEN~1/THIRD_~1/FREERT~1.0/C__~1/Source/include\thread.hpp ****          *
  66:C:/Users/niels/DOCUME~1/ELEKTR~1/JAAR2~1/ECS/ECSL/software/STM32/STM32B~1/HAL/GEMEEN~1/THIRD_~1/FREERT~1.0/C__~1/Source/include\thread.hpp ****          *  @param StackDepth Number of "words" allocated for the Thread stack.
  67:C:/Users/niels/DOCUME~1/ELEKTR~1/JAAR2~1/ECS/ECSL/software/STM32/STM32B~1/HAL/GEMEEN~1/THIRD_~1/FREERT~1.0/C__~1/Source/include\thread.hpp ****          *  @param Priority FreeRTOS priority of this Thread.
  68:C:/Users/niels/DOCUME~1/ELEKTR~1/JAAR2~1/ECS/ECSL/software/STM32/STM32B~1/HAL/GEMEEN~1/THIRD_~1/FREERT~1.0/C__~1/Source/include\thread.hpp ****          */
  69:C:/Users/niels/DOCUME~1/ELEKTR~1/JAAR2~1/ECS/ECSL/software/STM32/STM32B~1/HAL/GEMEEN~1/THIRD_~1/FREERT~1.0/C__~1/Source/include\thread.hpp ****         Thread( uint16_t StackDepth,
  70:C:/Users/niels/DOCUME~1/ELEKTR~1/JAAR2~1/ECS/ECSL/software/STM32/STM32B~1/HAL/GEMEEN~1/THIRD_~1/FREERT~1.0/C__~1/Source/include\thread.hpp ****                 UBaseType_t Priority);
  71:C:/Users/niels/DOCUME~1/ELEKTR~1/JAAR2~1/ECS/ECSL/software/STM32/STM32B~1/HAL/GEMEEN~1/THIRD_~1/FREERT~1.0/C__~1/Source/include\thread.hpp **** 
  72:C:/Users/niels/DOCUME~1/ELEKTR~1/JAAR2~1/ECS/ECSL/software/STM32/STM32B~1/HAL/GEMEEN~1/THIRD_~1/FREERT~1.0/C__~1/Source/include\thread.hpp ****         /**
  73:C:/Users/niels/DOCUME~1/ELEKTR~1/JAAR2~1/ECS/ECSL/software/STM32/STM32B~1/HAL/GEMEEN~1/THIRD_~1/FREERT~1.0/C__~1/Source/include\thread.hpp ****          *  Starts a thread.
  74:C:/Users/niels/DOCUME~1/ELEKTR~1/JAAR2~1/ECS/ECSL/software/STM32/STM32B~1/HAL/GEMEEN~1/THIRD_~1/FREERT~1.0/C__~1/Source/include\thread.hpp ****          *
  75:C:/Users/niels/DOCUME~1/ELEKTR~1/JAAR2~1/ECS/ECSL/software/STM32/STM32B~1/HAL/GEMEEN~1/THIRD_~1/FREERT~1.0/C__~1/Source/include\thread.hpp ****          *  This is the API call that actually starts the thread running. 
  76:C:/Users/niels/DOCUME~1/ELEKTR~1/JAAR2~1/ECS/ECSL/software/STM32/STM32B~1/HAL/GEMEEN~1/THIRD_~1/FREERT~1.0/C__~1/Source/include\thread.hpp ****          *  It creates a backing FreeRTOS task. By separating object creation 
  77:C:/Users/niels/DOCUME~1/ELEKTR~1/JAAR2~1/ECS/ECSL/software/STM32/STM32B~1/HAL/GEMEEN~1/THIRD_~1/FREERT~1.0/C__~1/Source/include\thread.hpp ****          *  from starting the Thread, it solves the pure virtual fuction call 
  78:C:/Users/niels/DOCUME~1/ELEKTR~1/JAAR2~1/ECS/ECSL/software/STM32/STM32B~1/HAL/GEMEEN~1/THIRD_~1/FREERT~1.0/C__~1/Source/include\thread.hpp ****          *  failure case. If we attempt to automatically call xTaskCreate 
  79:C:/Users/niels/DOCUME~1/ELEKTR~1/JAAR2~1/ECS/ECSL/software/STM32/STM32B~1/HAL/GEMEEN~1/THIRD_~1/FREERT~1.0/C__~1/Source/include\thread.hpp ****          *  from the base class constructor, in certain conditions the task 
  80:C:/Users/niels/DOCUME~1/ELEKTR~1/JAAR2~1/ECS/ECSL/software/STM32/STM32B~1/HAL/GEMEEN~1/THIRD_~1/FREERT~1.0/C__~1/Source/include\thread.hpp ****          *  starts to run "before" the derived class is constructed! So we 
  81:C:/Users/niels/DOCUME~1/ELEKTR~1/JAAR2~1/ECS/ECSL/software/STM32/STM32B~1/HAL/GEMEEN~1/THIRD_~1/FREERT~1.0/C__~1/Source/include\thread.hpp ****          *  don't do that anymore.
  82:C:/Users/niels/DOCUME~1/ELEKTR~1/JAAR2~1/ECS/ECSL/software/STM32/STM32B~1/HAL/GEMEEN~1/THIRD_~1/FREERT~1.0/C__~1/Source/include\thread.hpp ****          *
  83:C:/Users/niels/DOCUME~1/ELEKTR~1/JAAR2~1/ECS/ECSL/software/STM32/STM32B~1/HAL/GEMEEN~1/THIRD_~1/FREERT~1.0/C__~1/Source/include\thread.hpp ****          *  This may be called from your ctor once you have completed 
  84:C:/Users/niels/DOCUME~1/ELEKTR~1/JAAR2~1/ECS/ECSL/software/STM32/STM32B~1/HAL/GEMEEN~1/THIRD_~1/FREERT~1.0/C__~1/Source/include\thread.hpp ****          *  your objects construction (so as the last step). 
  85:C:/Users/niels/DOCUME~1/ELEKTR~1/JAAR2~1/ECS/ECSL/software/STM32/STM32B~1/HAL/GEMEEN~1/THIRD_~1/FREERT~1.0/C__~1/Source/include\thread.hpp ****          *
  86:C:/Users/niels/DOCUME~1/ELEKTR~1/JAAR2~1/ECS/ECSL/software/STM32/STM32B~1/HAL/GEMEEN~1/THIRD_~1/FREERT~1.0/C__~1/Source/include\thread.hpp ****          *  This should only be called once ever! 
  87:C:/Users/niels/DOCUME~1/ELEKTR~1/JAAR2~1/ECS/ECSL/software/STM32/STM32B~1/HAL/GEMEEN~1/THIRD_~1/FREERT~1.0/C__~1/Source/include\thread.hpp ****          */
  88:C:/Users/niels/DOCUME~1/ELEKTR~1/JAAR2~1/ECS/ECSL/software/STM32/STM32B~1/HAL/GEMEEN~1/THIRD_~1/FREERT~1.0/C__~1/Source/include\thread.hpp ****         bool Start();
  89:C:/Users/niels/DOCUME~1/ELEKTR~1/JAAR2~1/ECS/ECSL/software/STM32/STM32B~1/HAL/GEMEEN~1/THIRD_~1/FREERT~1.0/C__~1/Source/include\thread.hpp **** 
ARM GAS   			page 8


  90:C:/Users/niels/DOCUME~1/ELEKTR~1/JAAR2~1/ECS/ECSL/software/STM32/STM32B~1/HAL/GEMEEN~1/THIRD_~1/FREERT~1.0/C__~1/Source/include\thread.hpp **** 
  91:C:/Users/niels/DOCUME~1/ELEKTR~1/JAAR2~1/ECS/ECSL/software/STM32/STM32B~1/HAL/GEMEEN~1/THIRD_~1/FREERT~1.0/C__~1/Source/include\thread.hpp ****         /**
  92:C:/Users/niels/DOCUME~1/ELEKTR~1/JAAR2~1/ECS/ECSL/software/STM32/STM32B~1/HAL/GEMEEN~1/THIRD_~1/FREERT~1.0/C__~1/Source/include\thread.hpp ****          *  Our destructor, if FreeRTOS is configured to allow task deletion.
  93:C:/Users/niels/DOCUME~1/ELEKTR~1/JAAR2~1/ECS/ECSL/software/STM32/STM32B~1/HAL/GEMEEN~1/THIRD_~1/FREERT~1.0/C__~1/Source/include\thread.hpp ****          */
  94:C:/Users/niels/DOCUME~1/ELEKTR~1/JAAR2~1/ECS/ECSL/software/STM32/STM32B~1/HAL/GEMEEN~1/THIRD_~1/FREERT~1.0/C__~1/Source/include\thread.hpp ****         virtual ~Thread();
  95:C:/Users/niels/DOCUME~1/ELEKTR~1/JAAR2~1/ECS/ECSL/software/STM32/STM32B~1/HAL/GEMEEN~1/THIRD_~1/FREERT~1.0/C__~1/Source/include\thread.hpp **** 
  96:C:/Users/niels/DOCUME~1/ELEKTR~1/JAAR2~1/ECS/ECSL/software/STM32/STM32B~1/HAL/GEMEEN~1/THIRD_~1/FREERT~1.0/C__~1/Source/include\thread.hpp ****         /**
  97:C:/Users/niels/DOCUME~1/ELEKTR~1/JAAR2~1/ECS/ECSL/software/STM32/STM32B~1/HAL/GEMEEN~1/THIRD_~1/FREERT~1.0/C__~1/Source/include\thread.hpp ****          *  Accessor to get the thread's backing task handle.
  98:C:/Users/niels/DOCUME~1/ELEKTR~1/JAAR2~1/ECS/ECSL/software/STM32/STM32B~1/HAL/GEMEEN~1/THIRD_~1/FREERT~1.0/C__~1/Source/include\thread.hpp ****          *  There is no setter, on purpose.
  99:C:/Users/niels/DOCUME~1/ELEKTR~1/JAAR2~1/ECS/ECSL/software/STM32/STM32B~1/HAL/GEMEEN~1/THIRD_~1/FREERT~1.0/C__~1/Source/include\thread.hpp ****          *
 100:C:/Users/niels/DOCUME~1/ELEKTR~1/JAAR2~1/ECS/ECSL/software/STM32/STM32B~1/HAL/GEMEEN~1/THIRD_~1/FREERT~1.0/C__~1/Source/include\thread.hpp ****          *  @return FreeRTOS task handle.
 101:C:/Users/niels/DOCUME~1/ELEKTR~1/JAAR2~1/ECS/ECSL/software/STM32/STM32B~1/HAL/GEMEEN~1/THIRD_~1/FREERT~1.0/C__~1/Source/include\thread.hpp ****          */
 102:C:/Users/niels/DOCUME~1/ELEKTR~1/JAAR2~1/ECS/ECSL/software/STM32/STM32B~1/HAL/GEMEEN~1/THIRD_~1/FREERT~1.0/C__~1/Source/include\thread.hpp ****         inline TaskHandle_t GetHandle()
  79              	 .loc 2 102 29
  80              	 .cfi_startproc
  81              	 
  82              	 
  83              	 
  84 0000 80B4     	 push {r7}
  85              	 .cfi_def_cfa_offset 4
  86              	 .cfi_offset 7,-4
  87 0002 83B0     	 sub sp,sp,#12
  88              	 .cfi_def_cfa_offset 16
  89 0004 00AF     	 add r7,sp,#0
  90              	 .cfi_def_cfa_register 7
  91 0006 7860     	 str r0,[r7,#4]
 103:C:/Users/niels/DOCUME~1/ELEKTR~1/JAAR2~1/ECS/ECSL/software/STM32/STM32B~1/HAL/GEMEEN~1/THIRD_~1/FREERT~1.0/C__~1/Source/include\thread.hpp ****         {
 104:C:/Users/niels/DOCUME~1/ELEKTR~1/JAAR2~1/ECS/ECSL/software/STM32/STM32B~1/HAL/GEMEEN~1/THIRD_~1/FREERT~1.0/C__~1/Source/include\thread.hpp ****             return handle;
  92              	 .loc 2 104 20
  93 0008 7B68     	 ldr r3,[r7,#4]
  94 000a 5B68     	 ldr r3,[r3,#4]
 105:C:/Users/niels/DOCUME~1/ELEKTR~1/JAAR2~1/ECS/ECSL/software/STM32/STM32B~1/HAL/GEMEEN~1/THIRD_~1/FREERT~1.0/C__~1/Source/include\thread.hpp ****         }
  95              	 .loc 2 105 9
  96 000c 1846     	 mov r0,r3
  97 000e 0C37     	 adds r7,r7,#12
  98              	 .cfi_def_cfa_offset 4
  99 0010 BD46     	 mov sp,r7
 100              	 .cfi_def_cfa_register 13
 101              	 
 102 0012 5DF8047B 	 ldr r7,[sp],#4
 103              	 .cfi_restore 7
 104              	 .cfi_def_cfa_offset 0
 105 0016 7047     	 bx lr
 106              	 .cfi_endproc
 107              	.LFE1210:
 108              	 .size _ZN12cpp_freertos6Thread9GetHandleEv,.-_ZN12cpp_freertos6Thread9GetHandleEv
 109              	 .section .text._ZN12cpp_freertos6Thread11GetPriorityEv,"axG",%progbits,_ZN12cpp_freertos6Thread11GetPriorityEv,comdat
 110              	 .align 1
 111              	 .weak _ZN12cpp_freertos6Thread11GetPriorityEv
 112              	 .syntax unified
 113              	 .thumb
 114              	 .thumb_func
 115              	 .type _ZN12cpp_freertos6Thread11GetPriorityEv,%function
 116              	_ZN12cpp_freertos6Thread11GetPriorityEv:
 117              	.LFB1217:
 106:C:/Users/niels/DOCUME~1/ELEKTR~1/JAAR2~1/ECS/ECSL/software/STM32/STM32B~1/HAL/GEMEEN~1/THIRD_~1/FREERT~1.0/C__~1/Source/include\thread.hpp **** 
 107:C:/Users/niels/DOCUME~1/ELEKTR~1/JAAR2~1/ECS/ECSL/software/STM32/STM32B~1/HAL/GEMEEN~1/THIRD_~1/FREERT~1.0/C__~1/Source/include\thread.hpp ****         /**
ARM GAS   			page 9


 108:C:/Users/niels/DOCUME~1/ELEKTR~1/JAAR2~1/ECS/ECSL/software/STM32/STM32B~1/HAL/GEMEEN~1/THIRD_~1/FREERT~1.0/C__~1/Source/include\thread.hpp ****          *  Yield the scheduler.
 109:C:/Users/niels/DOCUME~1/ELEKTR~1/JAAR2~1/ECS/ECSL/software/STM32/STM32B~1/HAL/GEMEEN~1/THIRD_~1/FREERT~1.0/C__~1/Source/include\thread.hpp ****          */
 110:C:/Users/niels/DOCUME~1/ELEKTR~1/JAAR2~1/ECS/ECSL/software/STM32/STM32B~1/HAL/GEMEEN~1/THIRD_~1/FREERT~1.0/C__~1/Source/include\thread.hpp ****         static inline void Yield()
 111:C:/Users/niels/DOCUME~1/ELEKTR~1/JAAR2~1/ECS/ECSL/software/STM32/STM32B~1/HAL/GEMEEN~1/THIRD_~1/FREERT~1.0/C__~1/Source/include\thread.hpp ****         {
 112:C:/Users/niels/DOCUME~1/ELEKTR~1/JAAR2~1/ECS/ECSL/software/STM32/STM32B~1/HAL/GEMEEN~1/THIRD_~1/FREERT~1.0/C__~1/Source/include\thread.hpp ****             taskYIELD();
 113:C:/Users/niels/DOCUME~1/ELEKTR~1/JAAR2~1/ECS/ECSL/software/STM32/STM32B~1/HAL/GEMEEN~1/THIRD_~1/FREERT~1.0/C__~1/Source/include\thread.hpp ****         }
 114:C:/Users/niels/DOCUME~1/ELEKTR~1/JAAR2~1/ECS/ECSL/software/STM32/STM32B~1/HAL/GEMEEN~1/THIRD_~1/FREERT~1.0/C__~1/Source/include\thread.hpp **** 
 115:C:/Users/niels/DOCUME~1/ELEKTR~1/JAAR2~1/ECS/ECSL/software/STM32/STM32B~1/HAL/GEMEEN~1/THIRD_~1/FREERT~1.0/C__~1/Source/include\thread.hpp ****         /**
 116:C:/Users/niels/DOCUME~1/ELEKTR~1/JAAR2~1/ECS/ECSL/software/STM32/STM32B~1/HAL/GEMEEN~1/THIRD_~1/FREERT~1.0/C__~1/Source/include\thread.hpp ****          *  Start the scheduler.
 117:C:/Users/niels/DOCUME~1/ELEKTR~1/JAAR2~1/ECS/ECSL/software/STM32/STM32B~1/HAL/GEMEEN~1/THIRD_~1/FREERT~1.0/C__~1/Source/include\thread.hpp ****          *
 118:C:/Users/niels/DOCUME~1/ELEKTR~1/JAAR2~1/ECS/ECSL/software/STM32/STM32B~1/HAL/GEMEEN~1/THIRD_~1/FREERT~1.0/C__~1/Source/include\thread.hpp ****          *  @note You need to use this call. Do NOT directly call 
 119:C:/Users/niels/DOCUME~1/ELEKTR~1/JAAR2~1/ECS/ECSL/software/STM32/STM32B~1/HAL/GEMEEN~1/THIRD_~1/FREERT~1.0/C__~1/Source/include\thread.hpp ****          *  vTaskStartScheduler while using this library.
 120:C:/Users/niels/DOCUME~1/ELEKTR~1/JAAR2~1/ECS/ECSL/software/STM32/STM32B~1/HAL/GEMEEN~1/THIRD_~1/FREERT~1.0/C__~1/Source/include\thread.hpp ****          */
 121:C:/Users/niels/DOCUME~1/ELEKTR~1/JAAR2~1/ECS/ECSL/software/STM32/STM32B~1/HAL/GEMEEN~1/THIRD_~1/FREERT~1.0/C__~1/Source/include\thread.hpp ****         static inline void StartScheduler()
 122:C:/Users/niels/DOCUME~1/ELEKTR~1/JAAR2~1/ECS/ECSL/software/STM32/STM32B~1/HAL/GEMEEN~1/THIRD_~1/FREERT~1.0/C__~1/Source/include\thread.hpp ****         {
 123:C:/Users/niels/DOCUME~1/ELEKTR~1/JAAR2~1/ECS/ECSL/software/STM32/STM32B~1/HAL/GEMEEN~1/THIRD_~1/FREERT~1.0/C__~1/Source/include\thread.hpp ****             SchedulerActive = true;
 124:C:/Users/niels/DOCUME~1/ELEKTR~1/JAAR2~1/ECS/ECSL/software/STM32/STM32B~1/HAL/GEMEEN~1/THIRD_~1/FREERT~1.0/C__~1/Source/include\thread.hpp ****             vTaskStartScheduler();
 125:C:/Users/niels/DOCUME~1/ELEKTR~1/JAAR2~1/ECS/ECSL/software/STM32/STM32B~1/HAL/GEMEEN~1/THIRD_~1/FREERT~1.0/C__~1/Source/include\thread.hpp ****         }
 126:C:/Users/niels/DOCUME~1/ELEKTR~1/JAAR2~1/ECS/ECSL/software/STM32/STM32B~1/HAL/GEMEEN~1/THIRD_~1/FREERT~1.0/C__~1/Source/include\thread.hpp **** 
 127:C:/Users/niels/DOCUME~1/ELEKTR~1/JAAR2~1/ECS/ECSL/software/STM32/STM32B~1/HAL/GEMEEN~1/THIRD_~1/FREERT~1.0/C__~1/Source/include\thread.hpp ****         /**
 128:C:/Users/niels/DOCUME~1/ELEKTR~1/JAAR2~1/ECS/ECSL/software/STM32/STM32B~1/HAL/GEMEEN~1/THIRD_~1/FREERT~1.0/C__~1/Source/include\thread.hpp ****          *  End the scheduler.
 129:C:/Users/niels/DOCUME~1/ELEKTR~1/JAAR2~1/ECS/ECSL/software/STM32/STM32B~1/HAL/GEMEEN~1/THIRD_~1/FREERT~1.0/C__~1/Source/include\thread.hpp ****          *
 130:C:/Users/niels/DOCUME~1/ELEKTR~1/JAAR2~1/ECS/ECSL/software/STM32/STM32B~1/HAL/GEMEEN~1/THIRD_~1/FREERT~1.0/C__~1/Source/include\thread.hpp ****          *  @note Please see the FreeRTOS documentation regarding constraints
 131:C:/Users/niels/DOCUME~1/ELEKTR~1/JAAR2~1/ECS/ECSL/software/STM32/STM32B~1/HAL/GEMEEN~1/THIRD_~1/FREERT~1.0/C__~1/Source/include\thread.hpp ****          *  with the implementation of this.
 132:C:/Users/niels/DOCUME~1/ELEKTR~1/JAAR2~1/ECS/ECSL/software/STM32/STM32B~1/HAL/GEMEEN~1/THIRD_~1/FREERT~1.0/C__~1/Source/include\thread.hpp ****          *
 133:C:/Users/niels/DOCUME~1/ELEKTR~1/JAAR2~1/ECS/ECSL/software/STM32/STM32B~1/HAL/GEMEEN~1/THIRD_~1/FREERT~1.0/C__~1/Source/include\thread.hpp ****          *  @note You need to use this call. Do NOT directly call 
 134:C:/Users/niels/DOCUME~1/ELEKTR~1/JAAR2~1/ECS/ECSL/software/STM32/STM32B~1/HAL/GEMEEN~1/THIRD_~1/FREERT~1.0/C__~1/Source/include\thread.hpp ****          *  vTaskEndScheduler while using this library.
 135:C:/Users/niels/DOCUME~1/ELEKTR~1/JAAR2~1/ECS/ECSL/software/STM32/STM32B~1/HAL/GEMEEN~1/THIRD_~1/FREERT~1.0/C__~1/Source/include\thread.hpp ****          */
 136:C:/Users/niels/DOCUME~1/ELEKTR~1/JAAR2~1/ECS/ECSL/software/STM32/STM32B~1/HAL/GEMEEN~1/THIRD_~1/FREERT~1.0/C__~1/Source/include\thread.hpp ****         static inline void EndScheduler()
 137:C:/Users/niels/DOCUME~1/ELEKTR~1/JAAR2~1/ECS/ECSL/software/STM32/STM32B~1/HAL/GEMEEN~1/THIRD_~1/FREERT~1.0/C__~1/Source/include\thread.hpp ****         {
 138:C:/Users/niels/DOCUME~1/ELEKTR~1/JAAR2~1/ECS/ECSL/software/STM32/STM32B~1/HAL/GEMEEN~1/THIRD_~1/FREERT~1.0/C__~1/Source/include\thread.hpp ****             vTaskEndScheduler();
 139:C:/Users/niels/DOCUME~1/ELEKTR~1/JAAR2~1/ECS/ECSL/software/STM32/STM32B~1/HAL/GEMEEN~1/THIRD_~1/FREERT~1.0/C__~1/Source/include\thread.hpp ****             SchedulerActive = false;
 140:C:/Users/niels/DOCUME~1/ELEKTR~1/JAAR2~1/ECS/ECSL/software/STM32/STM32B~1/HAL/GEMEEN~1/THIRD_~1/FREERT~1.0/C__~1/Source/include\thread.hpp ****         }
 141:C:/Users/niels/DOCUME~1/ELEKTR~1/JAAR2~1/ECS/ECSL/software/STM32/STM32B~1/HAL/GEMEEN~1/THIRD_~1/FREERT~1.0/C__~1/Source/include\thread.hpp **** 
 142:C:/Users/niels/DOCUME~1/ELEKTR~1/JAAR2~1/ECS/ECSL/software/STM32/STM32B~1/HAL/GEMEEN~1/THIRD_~1/FREERT~1.0/C__~1/Source/include\thread.hpp **** #if (INCLUDE_vTaskSuspend == 1)
 143:C:/Users/niels/DOCUME~1/ELEKTR~1/JAAR2~1/ECS/ECSL/software/STM32/STM32B~1/HAL/GEMEEN~1/THIRD_~1/FREERT~1.0/C__~1/Source/include\thread.hpp ****         /**
 144:C:/Users/niels/DOCUME~1/ELEKTR~1/JAAR2~1/ECS/ECSL/software/STM32/STM32B~1/HAL/GEMEEN~1/THIRD_~1/FREERT~1.0/C__~1/Source/include\thread.hpp ****          *  Suspend this thread.
 145:C:/Users/niels/DOCUME~1/ELEKTR~1/JAAR2~1/ECS/ECSL/software/STM32/STM32B~1/HAL/GEMEEN~1/THIRD_~1/FREERT~1.0/C__~1/Source/include\thread.hpp ****          *
 146:C:/Users/niels/DOCUME~1/ELEKTR~1/JAAR2~1/ECS/ECSL/software/STM32/STM32B~1/HAL/GEMEEN~1/THIRD_~1/FREERT~1.0/C__~1/Source/include\thread.hpp ****          *  @note While a Thread can Suspend() itself, it cannot Resume() 
 147:C:/Users/niels/DOCUME~1/ELEKTR~1/JAAR2~1/ECS/ECSL/software/STM32/STM32B~1/HAL/GEMEEN~1/THIRD_~1/FREERT~1.0/C__~1/Source/include\thread.hpp ****          *  itself, becauseit's suspended.
 148:C:/Users/niels/DOCUME~1/ELEKTR~1/JAAR2~1/ECS/ECSL/software/STM32/STM32B~1/HAL/GEMEEN~1/THIRD_~1/FREERT~1.0/C__~1/Source/include\thread.hpp ****          */
 149:C:/Users/niels/DOCUME~1/ELEKTR~1/JAAR2~1/ECS/ECSL/software/STM32/STM32B~1/HAL/GEMEEN~1/THIRD_~1/FREERT~1.0/C__~1/Source/include\thread.hpp ****         inline void Suspend()
 150:C:/Users/niels/DOCUME~1/ELEKTR~1/JAAR2~1/ECS/ECSL/software/STM32/STM32B~1/HAL/GEMEEN~1/THIRD_~1/FREERT~1.0/C__~1/Source/include\thread.hpp ****         {
 151:C:/Users/niels/DOCUME~1/ELEKTR~1/JAAR2~1/ECS/ECSL/software/STM32/STM32B~1/HAL/GEMEEN~1/THIRD_~1/FREERT~1.0/C__~1/Source/include\thread.hpp ****             vTaskSuspend(GetHandle());
 152:C:/Users/niels/DOCUME~1/ELEKTR~1/JAAR2~1/ECS/ECSL/software/STM32/STM32B~1/HAL/GEMEEN~1/THIRD_~1/FREERT~1.0/C__~1/Source/include\thread.hpp ****         }
 153:C:/Users/niels/DOCUME~1/ELEKTR~1/JAAR2~1/ECS/ECSL/software/STM32/STM32B~1/HAL/GEMEEN~1/THIRD_~1/FREERT~1.0/C__~1/Source/include\thread.hpp **** 
 154:C:/Users/niels/DOCUME~1/ELEKTR~1/JAAR2~1/ECS/ECSL/software/STM32/STM32B~1/HAL/GEMEEN~1/THIRD_~1/FREERT~1.0/C__~1/Source/include\thread.hpp ****         /**
 155:C:/Users/niels/DOCUME~1/ELEKTR~1/JAAR2~1/ECS/ECSL/software/STM32/STM32B~1/HAL/GEMEEN~1/THIRD_~1/FREERT~1.0/C__~1/Source/include\thread.hpp ****          *  Resume a specific thread.
 156:C:/Users/niels/DOCUME~1/ELEKTR~1/JAAR2~1/ECS/ECSL/software/STM32/STM32B~1/HAL/GEMEEN~1/THIRD_~1/FREERT~1.0/C__~1/Source/include\thread.hpp ****          */
 157:C:/Users/niels/DOCUME~1/ELEKTR~1/JAAR2~1/ECS/ECSL/software/STM32/STM32B~1/HAL/GEMEEN~1/THIRD_~1/FREERT~1.0/C__~1/Source/include\thread.hpp ****         inline void Resume()
 158:C:/Users/niels/DOCUME~1/ELEKTR~1/JAAR2~1/ECS/ECSL/software/STM32/STM32B~1/HAL/GEMEEN~1/THIRD_~1/FREERT~1.0/C__~1/Source/include\thread.hpp ****         {
 159:C:/Users/niels/DOCUME~1/ELEKTR~1/JAAR2~1/ECS/ECSL/software/STM32/STM32B~1/HAL/GEMEEN~1/THIRD_~1/FREERT~1.0/C__~1/Source/include\thread.hpp ****             vTaskResume(GetHandle());
 160:C:/Users/niels/DOCUME~1/ELEKTR~1/JAAR2~1/ECS/ECSL/software/STM32/STM32B~1/HAL/GEMEEN~1/THIRD_~1/FREERT~1.0/C__~1/Source/include\thread.hpp ****         }
 161:C:/Users/niels/DOCUME~1/ELEKTR~1/JAAR2~1/ECS/ECSL/software/STM32/STM32B~1/HAL/GEMEEN~1/THIRD_~1/FREERT~1.0/C__~1/Source/include\thread.hpp **** #endif
 162:C:/Users/niels/DOCUME~1/ELEKTR~1/JAAR2~1/ECS/ECSL/software/STM32/STM32B~1/HAL/GEMEEN~1/THIRD_~1/FREERT~1.0/C__~1/Source/include\thread.hpp **** 
 163:C:/Users/niels/DOCUME~1/ELEKTR~1/JAAR2~1/ECS/ECSL/software/STM32/STM32B~1/HAL/GEMEEN~1/THIRD_~1/FREERT~1.0/C__~1/Source/include\thread.hpp **** #if (INCLUDE_xTaskResumeFromISR == 1)
 164:C:/Users/niels/DOCUME~1/ELEKTR~1/JAAR2~1/ECS/ECSL/software/STM32/STM32B~1/HAL/GEMEEN~1/THIRD_~1/FREERT~1.0/C__~1/Source/include\thread.hpp ****         /**
ARM GAS   			page 10


 165:C:/Users/niels/DOCUME~1/ELEKTR~1/JAAR2~1/ECS/ECSL/software/STM32/STM32B~1/HAL/GEMEEN~1/THIRD_~1/FREERT~1.0/C__~1/Source/include\thread.hpp ****          *  Resume a specific thread from ISR context.
 166:C:/Users/niels/DOCUME~1/ELEKTR~1/JAAR2~1/ECS/ECSL/software/STM32/STM32B~1/HAL/GEMEEN~1/THIRD_~1/FREERT~1.0/C__~1/Source/include\thread.hpp ****          */
 167:C:/Users/niels/DOCUME~1/ELEKTR~1/JAAR2~1/ECS/ECSL/software/STM32/STM32B~1/HAL/GEMEEN~1/THIRD_~1/FREERT~1.0/C__~1/Source/include\thread.hpp ****         inline void ResumeFromISR()
 168:C:/Users/niels/DOCUME~1/ELEKTR~1/JAAR2~1/ECS/ECSL/software/STM32/STM32B~1/HAL/GEMEEN~1/THIRD_~1/FREERT~1.0/C__~1/Source/include\thread.hpp ****         {
 169:C:/Users/niels/DOCUME~1/ELEKTR~1/JAAR2~1/ECS/ECSL/software/STM32/STM32B~1/HAL/GEMEEN~1/THIRD_~1/FREERT~1.0/C__~1/Source/include\thread.hpp ****             xTaskResumeFromISR(GetHandle());
 170:C:/Users/niels/DOCUME~1/ELEKTR~1/JAAR2~1/ECS/ECSL/software/STM32/STM32B~1/HAL/GEMEEN~1/THIRD_~1/FREERT~1.0/C__~1/Source/include\thread.hpp ****         }
 171:C:/Users/niels/DOCUME~1/ELEKTR~1/JAAR2~1/ECS/ECSL/software/STM32/STM32B~1/HAL/GEMEEN~1/THIRD_~1/FREERT~1.0/C__~1/Source/include\thread.hpp **** #endif
 172:C:/Users/niels/DOCUME~1/ELEKTR~1/JAAR2~1/ECS/ECSL/software/STM32/STM32B~1/HAL/GEMEEN~1/THIRD_~1/FREERT~1.0/C__~1/Source/include\thread.hpp **** 
 173:C:/Users/niels/DOCUME~1/ELEKTR~1/JAAR2~1/ECS/ECSL/software/STM32/STM32B~1/HAL/GEMEEN~1/THIRD_~1/FREERT~1.0/C__~1/Source/include\thread.hpp **** #if (INCLUDE_uxTaskPriorityGet == 1)
 174:C:/Users/niels/DOCUME~1/ELEKTR~1/JAAR2~1/ECS/ECSL/software/STM32/STM32B~1/HAL/GEMEEN~1/THIRD_~1/FREERT~1.0/C__~1/Source/include\thread.hpp ****         /**
 175:C:/Users/niels/DOCUME~1/ELEKTR~1/JAAR2~1/ECS/ECSL/software/STM32/STM32B~1/HAL/GEMEEN~1/THIRD_~1/FREERT~1.0/C__~1/Source/include\thread.hpp ****          *  Get the priority of this Thread.
 176:C:/Users/niels/DOCUME~1/ELEKTR~1/JAAR2~1/ECS/ECSL/software/STM32/STM32B~1/HAL/GEMEEN~1/THIRD_~1/FREERT~1.0/C__~1/Source/include\thread.hpp ****          *
 177:C:/Users/niels/DOCUME~1/ELEKTR~1/JAAR2~1/ECS/ECSL/software/STM32/STM32B~1/HAL/GEMEEN~1/THIRD_~1/FREERT~1.0/C__~1/Source/include\thread.hpp ****          *  @return Priority at the time this was called.
 178:C:/Users/niels/DOCUME~1/ELEKTR~1/JAAR2~1/ECS/ECSL/software/STM32/STM32B~1/HAL/GEMEEN~1/THIRD_~1/FREERT~1.0/C__~1/Source/include\thread.hpp ****          */
 179:C:/Users/niels/DOCUME~1/ELEKTR~1/JAAR2~1/ECS/ECSL/software/STM32/STM32B~1/HAL/GEMEEN~1/THIRD_~1/FREERT~1.0/C__~1/Source/include\thread.hpp ****         inline UBaseType_t GetPriority()
 118              	 .loc 2 179 28
 119              	 .cfi_startproc
 120              	 
 121              	 
 122 0000 80B5     	 push {r7,lr}
 123              	 .cfi_def_cfa_offset 8
 124              	 .cfi_offset 7,-8
 125              	 .cfi_offset 14,-4
 126 0002 82B0     	 sub sp,sp,#8
 127              	 .cfi_def_cfa_offset 16
 128 0004 00AF     	 add r7,sp,#0
 129              	 .cfi_def_cfa_register 7
 130 0006 7860     	 str r0,[r7,#4]
 180:C:/Users/niels/DOCUME~1/ELEKTR~1/JAAR2~1/ECS/ECSL/software/STM32/STM32B~1/HAL/GEMEEN~1/THIRD_~1/FREERT~1.0/C__~1/Source/include\thread.hpp ****         {
 181:C:/Users/niels/DOCUME~1/ELEKTR~1/JAAR2~1/ECS/ECSL/software/STM32/STM32B~1/HAL/GEMEEN~1/THIRD_~1/FREERT~1.0/C__~1/Source/include\thread.hpp ****             return (uxTaskPriorityGet(GetHandle()));
 131              	 .loc 2 181 38
 132 0008 7868     	 ldr r0,[r7,#4]
 133 000a FFF7FEFF 	 bl _ZN12cpp_freertos6Thread9GetHandleEv
 134 000e 0346     	 mov r3,r0
 135 0010 1846     	 mov r0,r3
 136 0012 FFF7FEFF 	 bl uxTaskPriorityGet
 137 0016 0346     	 mov r3,r0
 182:C:/Users/niels/DOCUME~1/ELEKTR~1/JAAR2~1/ECS/ECSL/software/STM32/STM32B~1/HAL/GEMEEN~1/THIRD_~1/FREERT~1.0/C__~1/Source/include\thread.hpp ****         }
 138              	 .loc 2 182 9
 139 0018 1846     	 mov r0,r3
 140 001a 0837     	 adds r7,r7,#8
 141              	 .cfi_def_cfa_offset 8
 142 001c BD46     	 mov sp,r7
 143              	 .cfi_def_cfa_register 13
 144              	 
 145 001e 80BD     	 pop {r7,pc}
 146              	 .cfi_endproc
 147              	.LFE1217:
 148              	 .size _ZN12cpp_freertos6Thread11GetPriorityEv,.-_ZN12cpp_freertos6Thread11GetPriorityEv
 149              	 .section .text._ZN12cpp_freertos6Thread5DelayEm,"axG",%progbits,_ZN12cpp_freertos6Thread5DelayEm,comdat
 150              	 .align 1
 151              	 .weak _ZN12cpp_freertos6Thread5DelayEm
 152              	 .syntax unified
 153              	 .thumb
 154              	 .thumb_func
 155              	 .type _ZN12cpp_freertos6Thread5DelayEm,%function
 156              	_ZN12cpp_freertos6Thread5DelayEm:
ARM GAS   			page 11


 157              	.LFB1221:
 183:C:/Users/niels/DOCUME~1/ELEKTR~1/JAAR2~1/ECS/ECSL/software/STM32/STM32B~1/HAL/GEMEEN~1/THIRD_~1/FREERT~1.0/C__~1/Source/include\thread.hpp **** 
 184:C:/Users/niels/DOCUME~1/ELEKTR~1/JAAR2~1/ECS/ECSL/software/STM32/STM32B~1/HAL/GEMEEN~1/THIRD_~1/FREERT~1.0/C__~1/Source/include\thread.hpp ****         /**
 185:C:/Users/niels/DOCUME~1/ELEKTR~1/JAAR2~1/ECS/ECSL/software/STM32/STM32B~1/HAL/GEMEEN~1/THIRD_~1/FREERT~1.0/C__~1/Source/include\thread.hpp ****          *  Get the priority of this Thread from ISR context.
 186:C:/Users/niels/DOCUME~1/ELEKTR~1/JAAR2~1/ECS/ECSL/software/STM32/STM32B~1/HAL/GEMEEN~1/THIRD_~1/FREERT~1.0/C__~1/Source/include\thread.hpp ****          *
 187:C:/Users/niels/DOCUME~1/ELEKTR~1/JAAR2~1/ECS/ECSL/software/STM32/STM32B~1/HAL/GEMEEN~1/THIRD_~1/FREERT~1.0/C__~1/Source/include\thread.hpp ****          *  @return Priority at the time this was called.
 188:C:/Users/niels/DOCUME~1/ELEKTR~1/JAAR2~1/ECS/ECSL/software/STM32/STM32B~1/HAL/GEMEEN~1/THIRD_~1/FREERT~1.0/C__~1/Source/include\thread.hpp ****          */
 189:C:/Users/niels/DOCUME~1/ELEKTR~1/JAAR2~1/ECS/ECSL/software/STM32/STM32B~1/HAL/GEMEEN~1/THIRD_~1/FREERT~1.0/C__~1/Source/include\thread.hpp ****         inline UBaseType_t GetPriorityFromISR()
 190:C:/Users/niels/DOCUME~1/ELEKTR~1/JAAR2~1/ECS/ECSL/software/STM32/STM32B~1/HAL/GEMEEN~1/THIRD_~1/FREERT~1.0/C__~1/Source/include\thread.hpp ****         {
 191:C:/Users/niels/DOCUME~1/ELEKTR~1/JAAR2~1/ECS/ECSL/software/STM32/STM32B~1/HAL/GEMEEN~1/THIRD_~1/FREERT~1.0/C__~1/Source/include\thread.hpp ****             return (uxTaskPriorityGetFromISR(GetHandle()));
 192:C:/Users/niels/DOCUME~1/ELEKTR~1/JAAR2~1/ECS/ECSL/software/STM32/STM32B~1/HAL/GEMEEN~1/THIRD_~1/FREERT~1.0/C__~1/Source/include\thread.hpp ****         }
 193:C:/Users/niels/DOCUME~1/ELEKTR~1/JAAR2~1/ECS/ECSL/software/STM32/STM32B~1/HAL/GEMEEN~1/THIRD_~1/FREERT~1.0/C__~1/Source/include\thread.hpp **** #endif
 194:C:/Users/niels/DOCUME~1/ELEKTR~1/JAAR2~1/ECS/ECSL/software/STM32/STM32B~1/HAL/GEMEEN~1/THIRD_~1/FREERT~1.0/C__~1/Source/include\thread.hpp **** 
 195:C:/Users/niels/DOCUME~1/ELEKTR~1/JAAR2~1/ECS/ECSL/software/STM32/STM32B~1/HAL/GEMEEN~1/THIRD_~1/FREERT~1.0/C__~1/Source/include\thread.hpp **** 
 196:C:/Users/niels/DOCUME~1/ELEKTR~1/JAAR2~1/ECS/ECSL/software/STM32/STM32B~1/HAL/GEMEEN~1/THIRD_~1/FREERT~1.0/C__~1/Source/include\thread.hpp **** #if (INCLUDE_vTaskPrioritySet == 1)
 197:C:/Users/niels/DOCUME~1/ELEKTR~1/JAAR2~1/ECS/ECSL/software/STM32/STM32B~1/HAL/GEMEEN~1/THIRD_~1/FREERT~1.0/C__~1/Source/include\thread.hpp ****         /**
 198:C:/Users/niels/DOCUME~1/ELEKTR~1/JAAR2~1/ECS/ECSL/software/STM32/STM32B~1/HAL/GEMEEN~1/THIRD_~1/FREERT~1.0/C__~1/Source/include\thread.hpp ****          *  Set the priority of this thread.
 199:C:/Users/niels/DOCUME~1/ELEKTR~1/JAAR2~1/ECS/ECSL/software/STM32/STM32B~1/HAL/GEMEEN~1/THIRD_~1/FREERT~1.0/C__~1/Source/include\thread.hpp ****          *
 200:C:/Users/niels/DOCUME~1/ELEKTR~1/JAAR2~1/ECS/ECSL/software/STM32/STM32B~1/HAL/GEMEEN~1/THIRD_~1/FREERT~1.0/C__~1/Source/include\thread.hpp ****          *  @param NewPriority The thread's new priority.
 201:C:/Users/niels/DOCUME~1/ELEKTR~1/JAAR2~1/ECS/ECSL/software/STM32/STM32B~1/HAL/GEMEEN~1/THIRD_~1/FREERT~1.0/C__~1/Source/include\thread.hpp ****          */
 202:C:/Users/niels/DOCUME~1/ELEKTR~1/JAAR2~1/ECS/ECSL/software/STM32/STM32B~1/HAL/GEMEEN~1/THIRD_~1/FREERT~1.0/C__~1/Source/include\thread.hpp ****         inline void SetPriority(UBaseType_t NewPriority)
 203:C:/Users/niels/DOCUME~1/ELEKTR~1/JAAR2~1/ECS/ECSL/software/STM32/STM32B~1/HAL/GEMEEN~1/THIRD_~1/FREERT~1.0/C__~1/Source/include\thread.hpp ****         {
 204:C:/Users/niels/DOCUME~1/ELEKTR~1/JAAR2~1/ECS/ECSL/software/STM32/STM32B~1/HAL/GEMEEN~1/THIRD_~1/FREERT~1.0/C__~1/Source/include\thread.hpp ****             Priority = NewPriority;
 205:C:/Users/niels/DOCUME~1/ELEKTR~1/JAAR2~1/ECS/ECSL/software/STM32/STM32B~1/HAL/GEMEEN~1/THIRD_~1/FREERT~1.0/C__~1/Source/include\thread.hpp ****             vTaskPrioritySet(GetHandle(), NewPriority);
 206:C:/Users/niels/DOCUME~1/ELEKTR~1/JAAR2~1/ECS/ECSL/software/STM32/STM32B~1/HAL/GEMEEN~1/THIRD_~1/FREERT~1.0/C__~1/Source/include\thread.hpp ****         }
 207:C:/Users/niels/DOCUME~1/ELEKTR~1/JAAR2~1/ECS/ECSL/software/STM32/STM32B~1/HAL/GEMEEN~1/THIRD_~1/FREERT~1.0/C__~1/Source/include\thread.hpp **** #endif
 208:C:/Users/niels/DOCUME~1/ELEKTR~1/JAAR2~1/ECS/ECSL/software/STM32/STM32B~1/HAL/GEMEEN~1/THIRD_~1/FREERT~1.0/C__~1/Source/include\thread.hpp **** 
 209:C:/Users/niels/DOCUME~1/ELEKTR~1/JAAR2~1/ECS/ECSL/software/STM32/STM32B~1/HAL/GEMEEN~1/THIRD_~1/FREERT~1.0/C__~1/Source/include\thread.hpp ****         /**
 210:C:/Users/niels/DOCUME~1/ELEKTR~1/JAAR2~1/ECS/ECSL/software/STM32/STM32B~1/HAL/GEMEEN~1/THIRD_~1/FREERT~1.0/C__~1/Source/include\thread.hpp ****          *  Get the name of this thread.
 211:C:/Users/niels/DOCUME~1/ELEKTR~1/JAAR2~1/ECS/ECSL/software/STM32/STM32B~1/HAL/GEMEEN~1/THIRD_~1/FREERT~1.0/C__~1/Source/include\thread.hpp ****          *
 212:C:/Users/niels/DOCUME~1/ELEKTR~1/JAAR2~1/ECS/ECSL/software/STM32/STM32B~1/HAL/GEMEEN~1/THIRD_~1/FREERT~1.0/C__~1/Source/include\thread.hpp ****          *  @return a C++ string with the name of the task.
 213:C:/Users/niels/DOCUME~1/ELEKTR~1/JAAR2~1/ECS/ECSL/software/STM32/STM32B~1/HAL/GEMEEN~1/THIRD_~1/FREERT~1.0/C__~1/Source/include\thread.hpp ****          */
 214:C:/Users/niels/DOCUME~1/ELEKTR~1/JAAR2~1/ECS/ECSL/software/STM32/STM32B~1/HAL/GEMEEN~1/THIRD_~1/FREERT~1.0/C__~1/Source/include\thread.hpp ****         inline std::string GetName()
 215:C:/Users/niels/DOCUME~1/ELEKTR~1/JAAR2~1/ECS/ECSL/software/STM32/STM32B~1/HAL/GEMEEN~1/THIRD_~1/FREERT~1.0/C__~1/Source/include\thread.hpp ****         {
 216:C:/Users/niels/DOCUME~1/ELEKTR~1/JAAR2~1/ECS/ECSL/software/STM32/STM32B~1/HAL/GEMEEN~1/THIRD_~1/FREERT~1.0/C__~1/Source/include\thread.hpp ****             return Name;
 217:C:/Users/niels/DOCUME~1/ELEKTR~1/JAAR2~1/ECS/ECSL/software/STM32/STM32B~1/HAL/GEMEEN~1/THIRD_~1/FREERT~1.0/C__~1/Source/include\thread.hpp ****         }
 218:C:/Users/niels/DOCUME~1/ELEKTR~1/JAAR2~1/ECS/ECSL/software/STM32/STM32B~1/HAL/GEMEEN~1/THIRD_~1/FREERT~1.0/C__~1/Source/include\thread.hpp **** 
 219:C:/Users/niels/DOCUME~1/ELEKTR~1/JAAR2~1/ECS/ECSL/software/STM32/STM32B~1/HAL/GEMEEN~1/THIRD_~1/FREERT~1.0/C__~1/Source/include\thread.hpp **** 
 220:C:/Users/niels/DOCUME~1/ELEKTR~1/JAAR2~1/ECS/ECSL/software/STM32/STM32B~1/HAL/GEMEEN~1/THIRD_~1/FREERT~1.0/C__~1/Source/include\thread.hpp ****     /////////////////////////////////////////////////////////////////////////
 221:C:/Users/niels/DOCUME~1/ELEKTR~1/JAAR2~1/ECS/ECSL/software/STM32/STM32B~1/HAL/GEMEEN~1/THIRD_~1/FREERT~1.0/C__~1/Source/include\thread.hpp ****     //
 222:C:/Users/niels/DOCUME~1/ELEKTR~1/JAAR2~1/ECS/ECSL/software/STM32/STM32B~1/HAL/GEMEEN~1/THIRD_~1/FREERT~1.0/C__~1/Source/include\thread.hpp ****     //  Protected API
 223:C:/Users/niels/DOCUME~1/ELEKTR~1/JAAR2~1/ECS/ECSL/software/STM32/STM32B~1/HAL/GEMEEN~1/THIRD_~1/FREERT~1.0/C__~1/Source/include\thread.hpp ****     //  Available from inside your Thread implementation.
 224:C:/Users/niels/DOCUME~1/ELEKTR~1/JAAR2~1/ECS/ECSL/software/STM32/STM32B~1/HAL/GEMEEN~1/THIRD_~1/FREERT~1.0/C__~1/Source/include\thread.hpp ****     //  You should make sure that you are only calling these methods
 225:C:/Users/niels/DOCUME~1/ELEKTR~1/JAAR2~1/ECS/ECSL/software/STM32/STM32B~1/HAL/GEMEEN~1/THIRD_~1/FREERT~1.0/C__~1/Source/include\thread.hpp ****     //  from within your Run() method, or that your Run() method is on the
 226:C:/Users/niels/DOCUME~1/ELEKTR~1/JAAR2~1/ECS/ECSL/software/STM32/STM32B~1/HAL/GEMEEN~1/THIRD_~1/FREERT~1.0/C__~1/Source/include\thread.hpp ****     //  callstack.
 227:C:/Users/niels/DOCUME~1/ELEKTR~1/JAAR2~1/ECS/ECSL/software/STM32/STM32B~1/HAL/GEMEEN~1/THIRD_~1/FREERT~1.0/C__~1/Source/include\thread.hpp ****     //
 228:C:/Users/niels/DOCUME~1/ELEKTR~1/JAAR2~1/ECS/ECSL/software/STM32/STM32B~1/HAL/GEMEEN~1/THIRD_~1/FREERT~1.0/C__~1/Source/include\thread.hpp ****     /////////////////////////////////////////////////////////////////////////
 229:C:/Users/niels/DOCUME~1/ELEKTR~1/JAAR2~1/ECS/ECSL/software/STM32/STM32B~1/HAL/GEMEEN~1/THIRD_~1/FREERT~1.0/C__~1/Source/include\thread.hpp ****     protected:
 230:C:/Users/niels/DOCUME~1/ELEKTR~1/JAAR2~1/ECS/ECSL/software/STM32/STM32B~1/HAL/GEMEEN~1/THIRD_~1/FREERT~1.0/C__~1/Source/include\thread.hpp ****         /**
 231:C:/Users/niels/DOCUME~1/ELEKTR~1/JAAR2~1/ECS/ECSL/software/STM32/STM32B~1/HAL/GEMEEN~1/THIRD_~1/FREERT~1.0/C__~1/Source/include\thread.hpp ****          *  Implementation of your actual thread code.
 232:C:/Users/niels/DOCUME~1/ELEKTR~1/JAAR2~1/ECS/ECSL/software/STM32/STM32B~1/HAL/GEMEEN~1/THIRD_~1/FREERT~1.0/C__~1/Source/include\thread.hpp ****          *  You must override this function.
 233:C:/Users/niels/DOCUME~1/ELEKTR~1/JAAR2~1/ECS/ECSL/software/STM32/STM32B~1/HAL/GEMEEN~1/THIRD_~1/FREERT~1.0/C__~1/Source/include\thread.hpp ****          *  @note If INCLUDE_vTaskDelete is defined, then you may return from
 234:C:/Users/niels/DOCUME~1/ELEKTR~1/JAAR2~1/ECS/ECSL/software/STM32/STM32B~1/HAL/GEMEEN~1/THIRD_~1/FREERT~1.0/C__~1/Source/include\thread.hpp ****          *  your Run method. This will cause the task to be deleted from
 235:C:/Users/niels/DOCUME~1/ELEKTR~1/JAAR2~1/ECS/ECSL/software/STM32/STM32B~1/HAL/GEMEEN~1/THIRD_~1/FREERT~1.0/C__~1/Source/include\thread.hpp ****          *  FreeRTOS, however you are still responsible to delete the
 236:C:/Users/niels/DOCUME~1/ELEKTR~1/JAAR2~1/ECS/ECSL/software/STM32/STM32B~1/HAL/GEMEEN~1/THIRD_~1/FREERT~1.0/C__~1/Source/include\thread.hpp ****          *  task object. If this is not defined, then retuning from your Run()
 237:C:/Users/niels/DOCUME~1/ELEKTR~1/JAAR2~1/ECS/ECSL/software/STM32/STM32B~1/HAL/GEMEEN~1/THIRD_~1/FREERT~1.0/C__~1/Source/include\thread.hpp ****          *  method will result in an assert.
 238:C:/Users/niels/DOCUME~1/ELEKTR~1/JAAR2~1/ECS/ECSL/software/STM32/STM32B~1/HAL/GEMEEN~1/THIRD_~1/FREERT~1.0/C__~1/Source/include\thread.hpp ****          */
ARM GAS   			page 12


 239:C:/Users/niels/DOCUME~1/ELEKTR~1/JAAR2~1/ECS/ECSL/software/STM32/STM32B~1/HAL/GEMEEN~1/THIRD_~1/FREERT~1.0/C__~1/Source/include\thread.hpp ****         virtual void Run() = 0;
 240:C:/Users/niels/DOCUME~1/ELEKTR~1/JAAR2~1/ECS/ECSL/software/STM32/STM32B~1/HAL/GEMEEN~1/THIRD_~1/FREERT~1.0/C__~1/Source/include\thread.hpp **** 
 241:C:/Users/niels/DOCUME~1/ELEKTR~1/JAAR2~1/ECS/ECSL/software/STM32/STM32B~1/HAL/GEMEEN~1/THIRD_~1/FREERT~1.0/C__~1/Source/include\thread.hpp **** #if (INCLUDE_vTaskDelete == 1)
 242:C:/Users/niels/DOCUME~1/ELEKTR~1/JAAR2~1/ECS/ECSL/software/STM32/STM32B~1/HAL/GEMEEN~1/THIRD_~1/FREERT~1.0/C__~1/Source/include\thread.hpp ****         /**
 243:C:/Users/niels/DOCUME~1/ELEKTR~1/JAAR2~1/ECS/ECSL/software/STM32/STM32B~1/HAL/GEMEEN~1/THIRD_~1/FREERT~1.0/C__~1/Source/include\thread.hpp ****          *  Called on exit from your Run() routine. 
 244:C:/Users/niels/DOCUME~1/ELEKTR~1/JAAR2~1/ECS/ECSL/software/STM32/STM32B~1/HAL/GEMEEN~1/THIRD_~1/FREERT~1.0/C__~1/Source/include\thread.hpp ****          *  
 245:C:/Users/niels/DOCUME~1/ELEKTR~1/JAAR2~1/ECS/ECSL/software/STM32/STM32B~1/HAL/GEMEEN~1/THIRD_~1/FREERT~1.0/C__~1/Source/include\thread.hpp ****          *  It is optional whether you implement this or not.
 246:C:/Users/niels/DOCUME~1/ELEKTR~1/JAAR2~1/ECS/ECSL/software/STM32/STM32B~1/HAL/GEMEEN~1/THIRD_~1/FREERT~1.0/C__~1/Source/include\thread.hpp ****          *
 247:C:/Users/niels/DOCUME~1/ELEKTR~1/JAAR2~1/ECS/ECSL/software/STM32/STM32B~1/HAL/GEMEEN~1/THIRD_~1/FREERT~1.0/C__~1/Source/include\thread.hpp ****          *  If you allow your Thread to exit its Run method, 
 248:C:/Users/niels/DOCUME~1/ELEKTR~1/JAAR2~1/ECS/ECSL/software/STM32/STM32B~1/HAL/GEMEEN~1/THIRD_~1/FREERT~1.0/C__~1/Source/include\thread.hpp ****          *  implementing a Cleanup method allows you to call 
 249:C:/Users/niels/DOCUME~1/ELEKTR~1/JAAR2~1/ECS/ECSL/software/STM32/STM32B~1/HAL/GEMEEN~1/THIRD_~1/FREERT~1.0/C__~1/Source/include\thread.hpp ****          *  your Thread's destructor. If you decide to call delete
 250:C:/Users/niels/DOCUME~1/ELEKTR~1/JAAR2~1/ECS/ECSL/software/STM32/STM32B~1/HAL/GEMEEN~1/THIRD_~1/FREERT~1.0/C__~1/Source/include\thread.hpp ****          *  in your Cleanup function, be aware that additional 
 251:C:/Users/niels/DOCUME~1/ELEKTR~1/JAAR2~1/ECS/ECSL/software/STM32/STM32B~1/HAL/GEMEEN~1/THIRD_~1/FREERT~1.0/C__~1/Source/include\thread.hpp ****          *  derived classes shouldn't call delete. 
 252:C:/Users/niels/DOCUME~1/ELEKTR~1/JAAR2~1/ECS/ECSL/software/STM32/STM32B~1/HAL/GEMEEN~1/THIRD_~1/FREERT~1.0/C__~1/Source/include\thread.hpp ****          */ 
 253:C:/Users/niels/DOCUME~1/ELEKTR~1/JAAR2~1/ECS/ECSL/software/STM32/STM32B~1/HAL/GEMEEN~1/THIRD_~1/FREERT~1.0/C__~1/Source/include\thread.hpp ****         virtual void Cleanup();
 254:C:/Users/niels/DOCUME~1/ELEKTR~1/JAAR2~1/ECS/ECSL/software/STM32/STM32B~1/HAL/GEMEEN~1/THIRD_~1/FREERT~1.0/C__~1/Source/include\thread.hpp **** #else
 255:C:/Users/niels/DOCUME~1/ELEKTR~1/JAAR2~1/ECS/ECSL/software/STM32/STM32B~1/HAL/GEMEEN~1/THIRD_~1/FREERT~1.0/C__~1/Source/include\thread.hpp ****         /**
 256:C:/Users/niels/DOCUME~1/ELEKTR~1/JAAR2~1/ECS/ECSL/software/STM32/STM32B~1/HAL/GEMEEN~1/THIRD_~1/FREERT~1.0/C__~1/Source/include\thread.hpp ****          *  If we can't delete a task, it makes no sense to have a
 257:C:/Users/niels/DOCUME~1/ELEKTR~1/JAAR2~1/ECS/ECSL/software/STM32/STM32B~1/HAL/GEMEEN~1/THIRD_~1/FREERT~1.0/C__~1/Source/include\thread.hpp ****          *  Cleanup routine.
 258:C:/Users/niels/DOCUME~1/ELEKTR~1/JAAR2~1/ECS/ECSL/software/STM32/STM32B~1/HAL/GEMEEN~1/THIRD_~1/FREERT~1.0/C__~1/Source/include\thread.hpp ****          */
 259:C:/Users/niels/DOCUME~1/ELEKTR~1/JAAR2~1/ECS/ECSL/software/STM32/STM32B~1/HAL/GEMEEN~1/THIRD_~1/FREERT~1.0/C__~1/Source/include\thread.hpp **** #endif
 260:C:/Users/niels/DOCUME~1/ELEKTR~1/JAAR2~1/ECS/ECSL/software/STM32/STM32B~1/HAL/GEMEEN~1/THIRD_~1/FREERT~1.0/C__~1/Source/include\thread.hpp **** 
 261:C:/Users/niels/DOCUME~1/ELEKTR~1/JAAR2~1/ECS/ECSL/software/STM32/STM32B~1/HAL/GEMEEN~1/THIRD_~1/FREERT~1.0/C__~1/Source/include\thread.hpp **** #if (INCLUDE_vTaskDelay == 1)
 262:C:/Users/niels/DOCUME~1/ELEKTR~1/JAAR2~1/ECS/ECSL/software/STM32/STM32B~1/HAL/GEMEEN~1/THIRD_~1/FREERT~1.0/C__~1/Source/include\thread.hpp ****         /**
 263:C:/Users/niels/DOCUME~1/ELEKTR~1/JAAR2~1/ECS/ECSL/software/STM32/STM32B~1/HAL/GEMEEN~1/THIRD_~1/FREERT~1.0/C__~1/Source/include\thread.hpp ****          *  Delay this thread for at least Delay ticks.
 264:C:/Users/niels/DOCUME~1/ELEKTR~1/JAAR2~1/ECS/ECSL/software/STM32/STM32B~1/HAL/GEMEEN~1/THIRD_~1/FREERT~1.0/C__~1/Source/include\thread.hpp ****          *
 265:C:/Users/niels/DOCUME~1/ELEKTR~1/JAAR2~1/ECS/ECSL/software/STM32/STM32B~1/HAL/GEMEEN~1/THIRD_~1/FREERT~1.0/C__~1/Source/include\thread.hpp ****          *  @param Delay How long to delay the thread.
 266:C:/Users/niels/DOCUME~1/ELEKTR~1/JAAR2~1/ECS/ECSL/software/STM32/STM32B~1/HAL/GEMEEN~1/THIRD_~1/FREERT~1.0/C__~1/Source/include\thread.hpp ****          */
 267:C:/Users/niels/DOCUME~1/ELEKTR~1/JAAR2~1/ECS/ECSL/software/STM32/STM32B~1/HAL/GEMEEN~1/THIRD_~1/FREERT~1.0/C__~1/Source/include\thread.hpp ****         void inline Delay(const TickType_t Delay)
 158              	 .loc 2 267 21
 159              	 .cfi_startproc
 160              	 
 161              	 
 162 0000 80B5     	 push {r7,lr}
 163              	 .cfi_def_cfa_offset 8
 164              	 .cfi_offset 7,-8
 165              	 .cfi_offset 14,-4
 166 0002 82B0     	 sub sp,sp,#8
 167              	 .cfi_def_cfa_offset 16
 168 0004 00AF     	 add r7,sp,#0
 169              	 .cfi_def_cfa_register 7
 170 0006 7860     	 str r0,[r7,#4]
 171 0008 3960     	 str r1,[r7]
 268:C:/Users/niels/DOCUME~1/ELEKTR~1/JAAR2~1/ECS/ECSL/software/STM32/STM32B~1/HAL/GEMEEN~1/THIRD_~1/FREERT~1.0/C__~1/Source/include\thread.hpp ****         {
 269:C:/Users/niels/DOCUME~1/ELEKTR~1/JAAR2~1/ECS/ECSL/software/STM32/STM32B~1/HAL/GEMEEN~1/THIRD_~1/FREERT~1.0/C__~1/Source/include\thread.hpp ****             vTaskDelay(Delay);
 172              	 .loc 2 269 23
 173 000a 3868     	 ldr r0,[r7]
 174 000c FFF7FEFF 	 bl vTaskDelay
 270:C:/Users/niels/DOCUME~1/ELEKTR~1/JAAR2~1/ECS/ECSL/software/STM32/STM32B~1/HAL/GEMEEN~1/THIRD_~1/FREERT~1.0/C__~1/Source/include\thread.hpp ****         }
 175              	 .loc 2 270 9
 176 0010 00BF     	 nop
 177 0012 0837     	 adds r7,r7,#8
 178              	 .cfi_def_cfa_offset 8
 179 0014 BD46     	 mov sp,r7
 180              	 .cfi_def_cfa_register 13
 181              	 
 182 0016 80BD     	 pop {r7,pc}
ARM GAS   			page 13


 183              	 .cfi_endproc
 184              	.LFE1221:
 185              	 .size _ZN12cpp_freertos6Thread5DelayEm,.-_ZN12cpp_freertos6Thread5DelayEm
 186              	 .section .text._ZN7StdTaakC2ERKNSt7__cxx1112basic_stringIcSt11char_traitsIcESaIcEEEt8TaakPrio,"ax",%progbits
 187              	 .align 1
 188              	 .global _ZN7StdTaakC2ERKNSt7__cxx1112basic_stringIcSt11char_traitsIcESaIcEEEt8TaakPrio
 189              	 .syntax unified
 190              	 .thumb
 191              	 .thumb_func
 192              	 .type _ZN7StdTaakC2ERKNSt7__cxx1112basic_stringIcSt11char_traitsIcESaIcEEEt8TaakPrio,%function
 193              	_ZN7StdTaakC2ERKNSt7__cxx1112basic_stringIcSt11char_traitsIcESaIcEEEt8TaakPrio:
 194              	.LFB1244:
 195              	 .file 3 "C:\\Users\\niels\\Documents\\Elektrotechniek\\Jaar 2\\ECS\\ECSL\\software\\STM32\\STM32Basis\\gemeenschappelijk\\ESEFreeRTOS\\stdTaak.cpp"
   1:C:\Users\niels\Documents\Elektrotechniek\Jaar 2\ECS\ECSL\software\STM32\STM32Basis\gemeenschappelijk\ESEFreeRTOS\stdTaak.cpp **** /*!
   2:C:\Users\niels\Documents\Elektrotechniek\Jaar 2\ECS\ECSL\software\STM32\STM32Basis\gemeenschappelijk\ESEFreeRTOS\stdTaak.cpp **** @file
   3:C:\Users\niels\Documents\Elektrotechniek\Jaar 2\ECS\ECSL\software\STM32\STM32Basis\gemeenschappelijk\ESEFreeRTOS\stdTaak.cpp **** Implementatie van de c++ schil voor gebruik van de FreeRTOS
   4:C:\Users\niels\Documents\Elektrotechniek\Jaar 2\ECS\ECSL\software\STM32\STM32Basis\gemeenschappelijk\ESEFreeRTOS\stdTaak.cpp **** @version $Rev: 2892 $
   5:C:\Users\niels\Documents\Elektrotechniek\Jaar 2\ECS\ECSL\software\STM32\STM32Basis\gemeenschappelijk\ESEFreeRTOS\stdTaak.cpp **** @author $Author: ewout $
   6:C:\Users\niels\Documents\Elektrotechniek\Jaar 2\ECS\ECSL\software\STM32\STM32Basis\gemeenschappelijk\ESEFreeRTOS\stdTaak.cpp **** 
   7:C:\Users\niels\Documents\Elektrotechniek\Jaar 2\ECS\ECSL\software\STM32\STM32Basis\gemeenschappelijk\ESEFreeRTOS\stdTaak.cpp **** @copyright Copyright 2017-2018 Hogeschool van Arnhem en Nijmegen, ir drs E.J Boks
   8:C:\Users\niels\Documents\Elektrotechniek\Jaar 2\ECS\ECSL\software\STM32\STM32Basis\gemeenschappelijk\ESEFreeRTOS\stdTaak.cpp **** 
   9:C:\Users\niels\Documents\Elektrotechniek\Jaar 2\ECS\ECSL\software\STM32\STM32Basis\gemeenschappelijk\ESEFreeRTOS\stdTaak.cpp **** $URL: http://svn.hanese.nl/docenten/svn/ewout/vakken/algemeen/software/STM32/STM32Basis/HAL/gemeens
  10:C:\Users\niels\Documents\Elektrotechniek\Jaar 2\ECS\ECSL\software\STM32\STM32Basis\gemeenschappelijk\ESEFreeRTOS\stdTaak.cpp **** $Id: ESEBoardController.h 2892 2018-02-27 19:33:20Z ewout $
  11:C:\Users\niels\Documents\Elektrotechniek\Jaar 2\ECS\ECSL\software\STM32\STM32Basis\gemeenschappelijk\ESEFreeRTOS\stdTaak.cpp **** ************************************************************************/
  12:C:\Users\niels\Documents\Elektrotechniek\Jaar 2\ECS\ECSL\software\STM32\STM32Basis\gemeenschappelijk\ESEFreeRTOS\stdTaak.cpp **** #include <algdef.h>
  13:C:\Users\niels\Documents\Elektrotechniek\Jaar 2\ECS\ECSL\software\STM32\STM32Basis\gemeenschappelijk\ESEFreeRTOS\stdTaak.cpp **** #include <stdTaak.h>
  14:C:\Users\niels\Documents\Elektrotechniek\Jaar 2\ECS\ECSL\software\STM32\STM32Basis\gemeenschappelijk\ESEFreeRTOS\stdTaak.cpp **** 
  15:C:\Users\niels\Documents\Elektrotechniek\Jaar 2\ECS\ECSL\software\STM32\STM32Basis\gemeenschappelijk\ESEFreeRTOS\stdTaak.cpp **** StdTaak::StdTaak(const std::string &naam,
 196              	 .loc 3 15 1
 197              	 .cfi_startproc
 198              	 
 199              	 
 200 0000 80B5     	 push {r7,lr}
 201              	 .cfi_def_cfa_offset 8
 202              	 .cfi_offset 7,-8
 203              	 .cfi_offset 14,-4
 204 0002 84B0     	 sub sp,sp,#16
 205              	 .cfi_def_cfa_offset 24
 206 0004 00AF     	 add r7,sp,#0
 207              	 .cfi_def_cfa_register 7
 208 0006 F860     	 str r0,[r7,#12]
 209 0008 B960     	 str r1,[r7,#8]
 210 000a 3B60     	 str r3,[r7]
 211 000c 1346     	 mov r3,r2
 212 000e FB80     	 strh r3,[r7,#6]
 213              	.LBB2:
  16:C:\Users\niels\Documents\Elektrotechniek\Jaar 2\ECS\ECSL\software\STM32\STM32Basis\gemeenschappelijk\ESEFreeRTOS\stdTaak.cpp ****                  const UInt16 stackGrootte,
  17:C:\Users\niels\Documents\Elektrotechniek\Jaar 2\ECS\ECSL\software\STM32\STM32Basis\gemeenschappelijk\ESEFreeRTOS\stdTaak.cpp ****                  const TaakPrio prioriteit) : Thread(naam, stackGrootte,
  18:C:\Users\niels\Documents\Elektrotechniek\Jaar 2\ECS\ECSL\software\STM32\STM32Basis\gemeenschappelijk\ESEFreeRTOS\stdTaak.cpp **** 													 static_cast<UInt32>(prioriteit)),
  19:C:\Users\niels\Documents\Elektrotechniek\Jaar 2\ECS\ECSL\software\STM32\STM32Basis\gemeenschappelijk\ESEFreeRTOS\stdTaak.cpp ****                                               brievenbus(QueueAantal,
  20:C:\Users\niels\Documents\Elektrotechniek\Jaar 2\ECS\ECSL\software\STM32\STM32Basis\gemeenschappelijk\ESEFreeRTOS\stdTaak.cpp **** 														 QueueMsgGrootte)
 214              	 .loc 3 20 31
 215 0010 F868     	 ldr r0,[r7,#12]
 216 0012 3B68     	 ldr r3,[r7]
 217 0014 FA88     	 ldrh r2,[r7,#6]
 218 0016 B968     	 ldr r1,[r7,#8]
 219 0018 FFF7FEFF 	 bl _ZN12cpp_freertos6ThreadC2ERKNSt7__cxx1112basic_stringIcSt11char_traitsIcESaIcEEEtm
ARM GAS   			page 14


 220 001c 0B4A     	 ldr r2,.L10
 221 001e FB68     	 ldr r3,[r7,#12]
 222 0020 1A60     	 str r2,[r3]
 223 0022 FB68     	 ldr r3,[r7,#12]
 224 0024 2C33     	 adds r3,r3,#44
 225 0026 1846     	 mov r0,r3
 226 0028 FFF7FEFF 	 bl _ZN10StdTaakMsgILj16EEC1Ev
 227 002c FB68     	 ldr r3,[r7,#12]
 228 002e 7833     	 adds r3,r3,#120
 229 0030 4C22     	 movs r2,#76
 230 0032 1821     	 movs r1,#24
 231 0034 1846     	 mov r0,r3
 232 0036 FFF7FEFF 	 bl _ZN12cpp_freertos5DequeC1Emm
  21:C:\Users\niels\Documents\Elektrotechniek\Jaar 2\ECS\ECSL\software\STM32\STM32Basis\gemeenschappelijk\ESEFreeRTOS\stdTaak.cpp **** {
  22:C:\Users\niels\Documents\Elektrotechniek\Jaar 2\ECS\ECSL\software\STM32\STM32Basis\gemeenschappelijk\ESEFreeRTOS\stdTaak.cpp **** 	registreer(this,prioriteit);
 233              	 .loc 3 22 12
 234 003a 3968     	 ldr r1,[r7]
 235 003c F868     	 ldr r0,[r7,#12]
 236 003e FFF7FEFF 	 bl _ZN7StdTaak10registreerEPS_8TaakPrio
 237              	.LBE2:
  23:C:\Users\niels\Documents\Elektrotechniek\Jaar 2\ECS\ECSL\software\STM32\STM32Basis\gemeenschappelijk\ESEFreeRTOS\stdTaak.cpp **** }
 238              	 .loc 3 23 1
 239 0042 FB68     	 ldr r3,[r7,#12]
 240 0044 1846     	 mov r0,r3
 241 0046 1037     	 adds r7,r7,#16
 242              	 .cfi_def_cfa_offset 8
 243 0048 BD46     	 mov sp,r7
 244              	 .cfi_def_cfa_register 13
 245              	 
 246 004a 80BD     	 pop {r7,pc}
 247              	.L11:
 248              	 .align 2
 249              	.L10:
 250 004c 08000000 	 .word _ZTV7StdTaak+8
 251              	 .cfi_endproc
 252              	.LFE1244:
 253              	 .size _ZN7StdTaakC2ERKNSt7__cxx1112basic_stringIcSt11char_traitsIcESaIcEEEt8TaakPrio,.-_ZN7StdTaakC2ERKNSt7__cxx1112basic_stringIcSt11char_traitsIcESaIcEEEt8TaakPrio
 254              	 .global _ZN7StdTaakC1ERKNSt7__cxx1112basic_stringIcSt11char_traitsIcESaIcEEEt8TaakPrio
 255              	 .thumb_set _ZN7StdTaakC1ERKNSt7__cxx1112basic_stringIcSt11char_traitsIcESaIcEEEt8TaakPrio,_ZN7StdTaakC2ERKNSt7__cxx1112basic_stringIcSt11char_traitsIcESaIcEEEt8TaakPrio
 256              	 .section .text._ZN7StdTaak14geefPrioriteitEv,"ax",%progbits
 257              	 .align 1
 258              	 .global _ZN7StdTaak14geefPrioriteitEv
 259              	 .syntax unified
 260              	 .thumb
 261              	 .thumb_func
 262              	 .type _ZN7StdTaak14geefPrioriteitEv,%function
 263              	_ZN7StdTaak14geefPrioriteitEv:
 264              	.LFB1246:
  24:C:\Users\niels\Documents\Elektrotechniek\Jaar 2\ECS\ECSL\software\STM32\STM32Basis\gemeenschappelijk\ESEFreeRTOS\stdTaak.cpp **** 
  25:C:\Users\niels\Documents\Elektrotechniek\Jaar 2\ECS\ECSL\software\STM32\STM32Basis\gemeenschappelijk\ESEFreeRTOS\stdTaak.cpp **** TaakPrio StdTaak::geefPrioriteit()
  26:C:\Users\niels\Documents\Elektrotechniek\Jaar 2\ECS\ECSL\software\STM32\STM32Basis\gemeenschappelijk\ESEFreeRTOS\stdTaak.cpp **** {
 265              	 .loc 3 26 1
 266              	 .cfi_startproc
 267              	 
 268              	 
 269 0000 80B5     	 push {r7,lr}
 270              	 .cfi_def_cfa_offset 8
ARM GAS   			page 15


 271              	 .cfi_offset 7,-8
 272              	 .cfi_offset 14,-4
 273 0002 84B0     	 sub sp,sp,#16
 274              	 .cfi_def_cfa_offset 24
 275 0004 00AF     	 add r7,sp,#0
 276              	 .cfi_def_cfa_register 7
 277 0006 7860     	 str r0,[r7,#4]
  27:C:\Users\niels\Documents\Elektrotechniek\Jaar 2\ECS\ECSL\software\STM32\STM32Basis\gemeenschappelijk\ESEFreeRTOS\stdTaak.cpp **** 	const auto prio = static_cast<TaakPrio>(GetPriority());
 278              	 .loc 3 27 53
 279 0008 7B68     	 ldr r3,[r7,#4]
 280 000a 1846     	 mov r0,r3
 281 000c FFF7FEFF 	 bl _ZN12cpp_freertos6Thread11GetPriorityEv
 282 0010 0346     	 mov r3,r0
 283              	 .loc 3 27 55
 284 0012 FB60     	 str r3,[r7,#12]
  28:C:\Users\niels\Documents\Elektrotechniek\Jaar 2\ECS\ECSL\software\STM32\STM32Basis\gemeenschappelijk\ESEFreeRTOS\stdTaak.cpp **** 	return(prio);
 285              	 .loc 3 28 13
 286 0014 FB68     	 ldr r3,[r7,#12]
  29:C:\Users\niels\Documents\Elektrotechniek\Jaar 2\ECS\ECSL\software\STM32\STM32Basis\gemeenschappelijk\ESEFreeRTOS\stdTaak.cpp **** }
 287              	 .loc 3 29 1
 288 0016 1846     	 mov r0,r3
 289 0018 1037     	 adds r7,r7,#16
 290              	 .cfi_def_cfa_offset 8
 291 001a BD46     	 mov sp,r7
 292              	 .cfi_def_cfa_register 13
 293              	 
 294 001c 80BD     	 pop {r7,pc}
 295              	 .cfi_endproc
 296              	.LFE1246:
 297              	 .size _ZN7StdTaak14geefPrioriteitEv,.-_ZN7StdTaak14geefPrioriteitEv
 298              	 .global _ZN7StdTaak10takenIndexE
 299              	 .section .bss._ZN7StdTaak10takenIndexE,"aw",%nobits
 300              	 .align 2
 301              	 .type _ZN7StdTaak10takenIndexE,%object
 302              	 .size _ZN7StdTaak10takenIndexE,16
 303              	_ZN7StdTaak10takenIndexE:
 304 0000 00000000 	 .space 16
 304      00000000 
 304      00000000 
 304      00000000 
 305              	 .section .rodata
 306              	 .align 2
 307              	.LC0:
 308 0000 696E6465 	 .ascii "index < AantalTaken\000"
 308      78203C20 
 308      41616E74 
 308      616C5461 
 308      6B656E00 
 309              	 .align 2
 310              	.LC1:
 311 0014 73746174 	 .ascii "static void StdTaak::registreer(StdTaak*, TaakPrio)"
 311      69632076 
 311      6F696420 
 311      53746454 
 311      61616B3A 
 312 0047 00       	 .ascii "\000"
 313              	 .align 2
ARM GAS   			page 16


 314              	.LC2:
 315 0048 433A5C55 	 .ascii "C:\\Users\\niels\\Documents\\Elektrotechniek\\Jaar "
 315      73657273 
 315      5C6E6965 
 315      6C735C44 
 315      6F63756D 
 316 0076 325C4543 	 .ascii "2\\ECS\\ECSL\\software\\STM32\\STM32Basis\\gemeensc"
 316      535C4543 
 316      534C5C73 
 316      6F667477 
 316      6172655C 
 317 00a3 68617070 	 .ascii "happelijk\\ESEFreeRTOS\\stdTaak.cpp\000"
 317      656C696A 
 317      6B5C4553 
 317      45467265 
 317      6552544F 
 318              	 .section .text._ZN7StdTaak10registreerEPS_8TaakPrio,"ax",%progbits
 319              	 .align 1
 320              	 .global _ZN7StdTaak10registreerEPS_8TaakPrio
 321              	 .syntax unified
 322              	 .thumb
 323              	 .thumb_func
 324              	 .type _ZN7StdTaak10registreerEPS_8TaakPrio,%function
 325              	_ZN7StdTaak10registreerEPS_8TaakPrio:
 326              	.LFB1247:
  30:C:\Users\niels\Documents\Elektrotechniek\Jaar 2\ECS\ECSL\software\STM32\STM32Basis\gemeenschappelijk\ESEFreeRTOS\stdTaak.cpp **** 
  31:C:\Users\niels\Documents\Elektrotechniek\Jaar 2\ECS\ECSL\software\STM32\STM32Basis\gemeenschappelijk\ESEFreeRTOS\stdTaak.cpp **** StdTaak *StdTaak::takenIndex[StdTaak::AantalTaken];
  32:C:\Users\niels\Documents\Elektrotechniek\Jaar 2\ECS\ECSL\software\STM32\STM32Basis\gemeenschappelijk\ESEFreeRTOS\stdTaak.cpp **** 
  33:C:\Users\niels\Documents\Elektrotechniek\Jaar 2\ECS\ECSL\software\STM32\STM32Basis\gemeenschappelijk\ESEFreeRTOS\stdTaak.cpp **** void StdTaak::registreer(StdTaak *const tp, const TaakPrio prio)
  34:C:\Users\niels\Documents\Elektrotechniek\Jaar 2\ECS\ECSL\software\STM32\STM32Basis\gemeenschappelijk\ESEFreeRTOS\stdTaak.cpp **** {
 327              	 .loc 3 34 1
 328              	 .cfi_startproc
 329              	 
 330              	 
 331 0000 80B5     	 push {r7,lr}
 332              	 .cfi_def_cfa_offset 8
 333              	 .cfi_offset 7,-8
 334              	 .cfi_offset 14,-4
 335 0002 84B0     	 sub sp,sp,#16
 336              	 .cfi_def_cfa_offset 24
 337 0004 00AF     	 add r7,sp,#0
 338              	 .cfi_def_cfa_register 7
 339 0006 7860     	 str r0,[r7,#4]
 340 0008 3960     	 str r1,[r7]
  35:C:\Users\niels\Documents\Elektrotechniek\Jaar 2\ECS\ECSL\software\STM32\STM32Basis\gemeenschappelijk\ESEFreeRTOS\stdTaak.cpp **** 	const auto index = static_cast<Teller>(prio)-2;
 341              	 .loc 3 35 21
 342 000a 3B68     	 ldr r3,[r7]
 343              	 .loc 3 35 13
 344 000c 023B     	 subs r3,r3,#2
 345 000e FB60     	 str r3,[r7,#12]
  36:C:\Users\niels\Documents\Elektrotechniek\Jaar 2\ECS\ECSL\software\STM32\STM32Basis\gemeenschappelijk\ESEFreeRTOS\stdTaak.cpp **** 	assert(index < AantalTaken);
 346              	 .loc 3 36 2
 347 0010 FB68     	 ldr r3,[r7,#12]
 348 0012 032B     	 cmp r3,#3
 349 0014 05D9     	 bls .L15
 350              	 .loc 3 36 2 is_stmt 0 discriminator 1
 351 0016 074B     	 ldr r3,.L16
ARM GAS   			page 17


 352 0018 074A     	 ldr r2,.L16+4
 353 001a 2421     	 movs r1,#36
 354 001c 0748     	 ldr r0,.L16+8
 355 001e FFF7FEFF 	 bl __assert_func
 356              	.L15:
  37:C:\Users\niels\Documents\Elektrotechniek\Jaar 2\ECS\ECSL\software\STM32\STM32Basis\gemeenschappelijk\ESEFreeRTOS\stdTaak.cpp **** 	takenIndex[index] = tp;
 357              	 .loc 3 37 20 is_stmt 1
 358 0022 0749     	 ldr r1,.L16+12
 359 0024 FB68     	 ldr r3,[r7,#12]
 360 0026 7A68     	 ldr r2,[r7,#4]
 361 0028 41F82320 	 str r2,[r1,r3,lsl#2]
  38:C:\Users\niels\Documents\Elektrotechniek\Jaar 2\ECS\ECSL\software\STM32\STM32Basis\gemeenschappelijk\ESEFreeRTOS\stdTaak.cpp **** }
 362              	 .loc 3 38 1
 363 002c 00BF     	 nop
 364 002e 1037     	 adds r7,r7,#16
 365              	 .cfi_def_cfa_offset 8
 366 0030 BD46     	 mov sp,r7
 367              	 .cfi_def_cfa_register 13
 368              	 
 369 0032 80BD     	 pop {r7,pc}
 370              	.L17:
 371              	 .align 2
 372              	.L16:
 373 0034 00000000 	 .word .LC0
 374 0038 14000000 	 .word .LC1
 375 003c 48000000 	 .word .LC2
 376 0040 00000000 	 .word _ZN7StdTaak10takenIndexE
 377              	 .cfi_endproc
 378              	.LFE1247:
 379              	 .size _ZN7StdTaak10registreerEPS_8TaakPrio,.-_ZN7StdTaak10registreerEPS_8TaakPrio
 380              	 .section .rodata
 381 00c5 000000   	 .align 2
 382              	.LC3:
 383 00c8 73746174 	 .ascii "static StdTaak* StdTaak::geefTaak(TaakPrio)\000"
 383      69632053 
 383      74645461 
 383      616B2A20 
 383      53746454 
 384              	 .align 2
 385              	.LC4:
 386 00f4 6E756C6C 	 .ascii "nullptr != taakPtr\000"
 386      70747220 
 386      213D2074 
 386      61616B50 
 386      747200
 387              	 .section .text._ZN7StdTaak8geefTaakE8TaakPrio,"ax",%progbits
 388              	 .align 1
 389              	 .global _ZN7StdTaak8geefTaakE8TaakPrio
 390              	 .syntax unified
 391              	 .thumb
 392              	 .thumb_func
 393              	 .type _ZN7StdTaak8geefTaakE8TaakPrio,%function
 394              	_ZN7StdTaak8geefTaakE8TaakPrio:
 395              	.LFB1248:
  39:C:\Users\niels\Documents\Elektrotechniek\Jaar 2\ECS\ECSL\software\STM32\STM32Basis\gemeenschappelijk\ESEFreeRTOS\stdTaak.cpp **** 
  40:C:\Users\niels\Documents\Elektrotechniek\Jaar 2\ECS\ECSL\software\STM32\STM32Basis\gemeenschappelijk\ESEFreeRTOS\stdTaak.cpp **** StdTaak *StdTaak::geefTaak(const TaakPrio prio)
  41:C:\Users\niels\Documents\Elektrotechniek\Jaar 2\ECS\ECSL\software\STM32\STM32Basis\gemeenschappelijk\ESEFreeRTOS\stdTaak.cpp **** {
ARM GAS   			page 18


 396              	 .loc 3 41 1
 397              	 .cfi_startproc
 398              	 
 399              	 
 400 0000 80B5     	 push {r7,lr}
 401              	 .cfi_def_cfa_offset 8
 402              	 .cfi_offset 7,-8
 403              	 .cfi_offset 14,-4
 404 0002 84B0     	 sub sp,sp,#16
 405              	 .cfi_def_cfa_offset 24
 406 0004 00AF     	 add r7,sp,#0
 407              	 .cfi_def_cfa_register 7
 408 0006 7860     	 str r0,[r7,#4]
  42:C:\Users\niels\Documents\Elektrotechniek\Jaar 2\ECS\ECSL\software\STM32\STM32Basis\gemeenschappelijk\ESEFreeRTOS\stdTaak.cpp **** 	const auto index = static_cast<Teller>(prio)-2;
 409              	 .loc 3 42 21
 410 0008 7B68     	 ldr r3,[r7,#4]
 411              	 .loc 3 42 13
 412 000a 023B     	 subs r3,r3,#2
 413 000c FB60     	 str r3,[r7,#12]
  43:C:\Users\niels\Documents\Elektrotechniek\Jaar 2\ECS\ECSL\software\STM32\STM32Basis\gemeenschappelijk\ESEFreeRTOS\stdTaak.cpp **** 	assert(index < AantalTaken);
 414              	 .loc 3 43 2
 415 000e FB68     	 ldr r3,[r7,#12]
 416 0010 032B     	 cmp r3,#3
 417 0012 05D9     	 bls .L19
 418              	 .loc 3 43 2 is_stmt 0 discriminator 1
 419 0014 0C4B     	 ldr r3,.L22
 420 0016 0D4A     	 ldr r2,.L22+4
 421 0018 2B21     	 movs r1,#43
 422 001a 0D48     	 ldr r0,.L22+8
 423 001c FFF7FEFF 	 bl __assert_func
 424              	.L19:
  44:C:\Users\niels\Documents\Elektrotechniek\Jaar 2\ECS\ECSL\software\STM32\STM32Basis\gemeenschappelijk\ESEFreeRTOS\stdTaak.cpp **** 	auto * const taakPtr = takenIndex[index];
 425              	 .loc 3 44 15 is_stmt 1
 426 0020 0C4A     	 ldr r2,.L22+12
 427 0022 FB68     	 ldr r3,[r7,#12]
 428 0024 52F82330 	 ldr r3,[r2,r3,lsl#2]
 429 0028 BB60     	 str r3,[r7,#8]
  45:C:\Users\niels\Documents\Elektrotechniek\Jaar 2\ECS\ECSL\software\STM32\STM32Basis\gemeenschappelijk\ESEFreeRTOS\stdTaak.cpp **** 	assert(nullptr != taakPtr);
 430              	 .loc 3 45 2
 431 002a BB68     	 ldr r3,[r7,#8]
 432 002c 002B     	 cmp r3,#0
 433 002e 05D1     	 bne .L20
 434              	 .loc 3 45 2 is_stmt 0 discriminator 1
 435 0030 094B     	 ldr r3,.L22+16
 436 0032 064A     	 ldr r2,.L22+4
 437 0034 2D21     	 movs r1,#45
 438 0036 0648     	 ldr r0,.L22+8
 439 0038 FFF7FEFF 	 bl __assert_func
 440              	.L20:
  46:C:\Users\niels\Documents\Elektrotechniek\Jaar 2\ECS\ECSL\software\STM32\STM32Basis\gemeenschappelijk\ESEFreeRTOS\stdTaak.cpp **** 	return(taakPtr);
 441              	 .loc 3 46 16 is_stmt 1
 442 003c BB68     	 ldr r3,[r7,#8]
  47:C:\Users\niels\Documents\Elektrotechniek\Jaar 2\ECS\ECSL\software\STM32\STM32Basis\gemeenschappelijk\ESEFreeRTOS\stdTaak.cpp **** }
 443              	 .loc 3 47 1
 444 003e 1846     	 mov r0,r3
 445 0040 1037     	 adds r7,r7,#16
 446              	 .cfi_def_cfa_offset 8
ARM GAS   			page 19


 447 0042 BD46     	 mov sp,r7
 448              	 .cfi_def_cfa_register 13
 449              	 
 450 0044 80BD     	 pop {r7,pc}
 451              	.L23:
 452 0046 00BF     	 .align 2
 453              	.L22:
 454 0048 00000000 	 .word .LC0
 455 004c C8000000 	 .word .LC3
 456 0050 48000000 	 .word .LC2
 457 0054 00000000 	 .word _ZN7StdTaak10takenIndexE
 458 0058 F4000000 	 .word .LC4
 459              	 .cfi_endproc
 460              	.LFE1248:
 461              	 .size _ZN7StdTaak8geefTaakE8TaakPrio,.-_ZN7StdTaak8geefTaakE8TaakPrio
 462              	 .section .text._ZN7StdTaak12stuurBerichtERK10StdTaakMsgILj16EE,"ax",%progbits
 463              	 .align 1
 464              	 .global _ZN7StdTaak12stuurBerichtERK10StdTaakMsgILj16EE
 465              	 .syntax unified
 466              	 .thumb
 467              	 .thumb_func
 468              	 .type _ZN7StdTaak12stuurBerichtERK10StdTaakMsgILj16EE,%function
 469              	_ZN7StdTaak12stuurBerichtERK10StdTaakMsgILj16EE:
 470              	.LFB1249:
  48:C:\Users\niels\Documents\Elektrotechniek\Jaar 2\ECS\ECSL\software\STM32\STM32Basis\gemeenschappelijk\ESEFreeRTOS\stdTaak.cpp **** 
  49:C:\Users\niels\Documents\Elektrotechniek\Jaar 2\ECS\ECSL\software\STM32\STM32Basis\gemeenschappelijk\ESEFreeRTOS\stdTaak.cpp **** void StdTaak::stuurBericht(const StdTaak::StdMsg &msg)
  50:C:\Users\niels\Documents\Elektrotechniek\Jaar 2\ECS\ECSL\software\STM32\STM32Basis\gemeenschappelijk\ESEFreeRTOS\stdTaak.cpp **** {
 471              	 .loc 3 50 1
 472              	 .cfi_startproc
 473              	 
 474              	 
 475 0000 80B5     	 push {r7,lr}
 476              	 .cfi_def_cfa_offset 8
 477              	 .cfi_offset 7,-8
 478              	 .cfi_offset 14,-4
 479 0002 84B0     	 sub sp,sp,#16
 480              	 .cfi_def_cfa_offset 24
 481 0004 00AF     	 add r7,sp,#0
 482              	 .cfi_def_cfa_register 7
 483 0006 7860     	 str r0,[r7,#4]
 484 0008 3960     	 str r1,[r7]
  51:C:\Users\niels\Documents\Elektrotechniek\Jaar 2\ECS\ECSL\software\STM32\STM32Basis\gemeenschappelijk\ESEFreeRTOS\stdTaak.cpp **** 	const auto taakID = msg.geefOntvanger();
 485              	 .loc 3 51 39
 486 000a 3868     	 ldr r0,[r7]
 487 000c FFF7FEFF 	 bl _ZNK10StdTaakMsgILj16EE13geefOntvangerEv
 488 0010 F860     	 str r0,[r7,#12]
  52:C:\Users\niels\Documents\Elektrotechniek\Jaar 2\ECS\ECSL\software\STM32\STM32Basis\gemeenschappelijk\ESEFreeRTOS\stdTaak.cpp **** 	auto * const ontvanger = geefTaak(taakID);
 489              	 .loc 3 52 35
 490 0012 F868     	 ldr r0,[r7,#12]
 491 0014 FFF7FEFF 	 bl _ZN7StdTaak8geefTaakE8TaakPrio
 492 0018 B860     	 str r0,[r7,#8]
  53:C:\Users\niels\Documents\Elektrotechniek\Jaar 2\ECS\ECSL\software\STM32\STM32Basis\gemeenschappelijk\ESEFreeRTOS\stdTaak.cpp **** 	ontvanger->brievenbus.Enqueue(const_cast<StdMsg *>(&msg));
 493              	 .loc 3 53 31
 494 001a BB68     	 ldr r3,[r7,#8]
 495 001c 7833     	 adds r3,r3,#120
 496 001e 3968     	 ldr r1,[r7]
 497 0020 1846     	 mov r0,r3
ARM GAS   			page 20


 498 0022 FFF7FEFF 	 bl _ZN12cpp_freertos5Queue7EnqueueEPv
  54:C:\Users\niels\Documents\Elektrotechniek\Jaar 2\ECS\ECSL\software\STM32\STM32Basis\gemeenschappelijk\ESEFreeRTOS\stdTaak.cpp **** }
 499              	 .loc 3 54 1
 500 0026 00BF     	 nop
 501 0028 1037     	 adds r7,r7,#16
 502              	 .cfi_def_cfa_offset 8
 503 002a BD46     	 mov sp,r7
 504              	 .cfi_def_cfa_register 13
 505              	 
 506 002c 80BD     	 pop {r7,pc}
 507              	 .cfi_endproc
 508              	.LFE1249:
 509              	 .size _ZN7StdTaak12stuurBerichtERK10StdTaakMsgILj16EE,.-_ZN7StdTaak12stuurBerichtERK10StdTaakMsgILj16EE
 510              	 .section .text._ZN7StdTaak14wachtOpBerichtEt,"ax",%progbits
 511              	 .align 1
 512              	 .global _ZN7StdTaak14wachtOpBerichtEt
 513              	 .syntax unified
 514              	 .thumb
 515              	 .thumb_func
 516              	 .type _ZN7StdTaak14wachtOpBerichtEt,%function
 517              	_ZN7StdTaak14wachtOpBerichtEt:
 518              	.LFB1250:
  55:C:\Users\niels\Documents\Elektrotechniek\Jaar 2\ECS\ECSL\software\STM32\STM32Basis\gemeenschappelijk\ESEFreeRTOS\stdTaak.cpp **** 
  56:C:\Users\niels\Documents\Elektrotechniek\Jaar 2\ECS\ECSL\software\STM32\STM32Basis\gemeenschappelijk\ESEFreeRTOS\stdTaak.cpp **** FoutCode StdTaak::wachtOpBericht(const UInt16 msecs)
  57:C:\Users\niels\Documents\Elektrotechniek\Jaar 2\ECS\ECSL\software\STM32\STM32Basis\gemeenschappelijk\ESEFreeRTOS\stdTaak.cpp **** {
 519              	 .loc 3 57 1
 520              	 .cfi_startproc
 521              	 
 522              	 
 523 0000 80B5     	 push {r7,lr}
 524              	 .cfi_def_cfa_offset 8
 525              	 .cfi_offset 7,-8
 526              	 .cfi_offset 14,-4
 527 0002 84B0     	 sub sp,sp,#16
 528              	 .cfi_def_cfa_offset 24
 529 0004 00AF     	 add r7,sp,#0
 530              	 .cfi_def_cfa_register 7
 531 0006 7860     	 str r0,[r7,#4]
 532 0008 0B46     	 mov r3,r1
 533 000a 7B80     	 strh r3,[r7,#2]
  58:C:\Users\niels\Documents\Elektrotechniek\Jaar 2\ECS\ECSL\software\STM32\STM32Basis\gemeenschappelijk\ESEFreeRTOS\stdTaak.cpp **** 	const auto aantalWachtTicks = ((0 != msecs) ? aantalTicks(msecs) : portMAX_DELAY );
 534              	 .loc 3 58 46
 535 000c 7B88     	 ldrh r3,[r7,#2]
 536 000e 002B     	 cmp r3,#0
 537 0010 05D0     	 beq .L26
 538              	 .loc 3 58 59 discriminator 1
 539 0012 7B88     	 ldrh r3,[r7,#2]
 540 0014 1846     	 mov r0,r3
 541 0016 FFF7FEFF 	 bl _ZN7StdTaak11aantalTicksEm
 542 001a 0346     	 mov r3,r0
 543 001c 01E0     	 b .L27
 544              	.L26:
 545              	 .loc 3 58 46 discriminator 2
 546 001e 4FF0FF33 	 mov r3,#-1
 547              	.L27:
 548              	 .loc 3 58 83 discriminator 4
 549 0022 FB60     	 str r3,[r7,#12]
ARM GAS   			page 21


  59:C:\Users\niels\Documents\Elektrotechniek\Jaar 2\ECS\ECSL\software\STM32\STM32Basis\gemeenschappelijk\ESEFreeRTOS\stdTaak.cpp **** 
  60:C:\Users\niels\Documents\Elektrotechniek\Jaar 2\ECS\ECSL\software\STM32\STM32Basis\gemeenschappelijk\ESEFreeRTOS\stdTaak.cpp **** 	const bool nieuwAanwezig = brievenbus.Dequeue(&nieuwBericht,aantalWachtTicks);
 550              	 .loc 3 60 47 discriminator 4
 551 0024 7B68     	 ldr r3,[r7,#4]
 552 0026 03F17800 	 add r0,r3,#120
 553              	 .loc 3 60 48 discriminator 4
 554 002a 7B68     	 ldr r3,[r7,#4]
 555 002c 2C33     	 adds r3,r3,#44
 556              	 .loc 3 60 47 discriminator 4
 557 002e FA68     	 ldr r2,[r7,#12]
 558 0030 1946     	 mov r1,r3
 559 0032 FFF7FEFF 	 bl _ZN12cpp_freertos5Queue7DequeueEPvm
 560 0036 0346     	 mov r3,r0
 561 0038 FB72     	 strb r3,[r7,#11]
  61:C:\Users\niels\Documents\Elektrotechniek\Jaar 2\ECS\ECSL\software\STM32\STM32Basis\gemeenschappelijk\ESEFreeRTOS\stdTaak.cpp **** 
  62:C:\Users\niels\Documents\Elektrotechniek\Jaar 2\ECS\ECSL\software\STM32\STM32Basis\gemeenschappelijk\ESEFreeRTOS\stdTaak.cpp **** 	return((true==nieuwAanwezig) ? FoutCode::Ok : FoutCode::Waarschuwing);
 562              	 .loc 3 62 31 discriminator 4
 563 003a FB7A     	 ldrb r3,[r7,#11]
 564 003c 012B     	 cmp r3,#1
 565 003e 14BF     	 ite ne
 566 0040 0123     	 movne r3,#1
 567 0042 0023     	 moveq r3,#0
 568 0044 DBB2     	 uxtb r3,r3
  63:C:\Users\niels\Documents\Elektrotechniek\Jaar 2\ECS\ECSL\software\STM32\STM32Basis\gemeenschappelijk\ESEFreeRTOS\stdTaak.cpp **** }
 569              	 .loc 3 63 1 discriminator 4
 570 0046 1846     	 mov r0,r3
 571 0048 1037     	 adds r7,r7,#16
 572              	 .cfi_def_cfa_offset 8
 573 004a BD46     	 mov sp,r7
 574              	 .cfi_def_cfa_register 13
 575              	 
 576 004c 80BD     	 pop {r7,pc}
 577              	 .cfi_endproc
 578              	.LFE1250:
 579              	 .size _ZN7StdTaak14wachtOpBerichtEt,.-_ZN7StdTaak14wachtOpBerichtEt
 580              	 .section .rodata._ZZN7StdTaak11aantalTicksEmE19ticksInMsecsPeriode,"a"
 581              	 .align 2
 582              	 .type _ZZN7StdTaak11aantalTicksEmE19ticksInMsecsPeriode,%object
 583              	 .size _ZZN7StdTaak11aantalTicksEmE19ticksInMsecsPeriode,4
 584              	_ZZN7StdTaak11aantalTicksEmE19ticksInMsecsPeriode:
 585 0000 01000000 	 .word 1
 586              	 .section .text._ZN7StdTaak11aantalTicksEm,"ax",%progbits
 587              	 .align 1
 588              	 .global _ZN7StdTaak11aantalTicksEm
 589              	 .syntax unified
 590              	 .thumb
 591              	 .thumb_func
 592              	 .type _ZN7StdTaak11aantalTicksEm,%function
 593              	_ZN7StdTaak11aantalTicksEm:
 594              	.LFB1251:
  64:C:\Users\niels\Documents\Elektrotechniek\Jaar 2\ECS\ECSL\software\STM32\STM32Basis\gemeenschappelijk\ESEFreeRTOS\stdTaak.cpp **** 
  65:C:\Users\niels\Documents\Elektrotechniek\Jaar 2\ECS\ECSL\software\STM32\STM32Basis\gemeenschappelijk\ESEFreeRTOS\stdTaak.cpp **** UInt32 StdTaak::aantalTicks(const UInt32 msecs)
  66:C:\Users\niels\Documents\Elektrotechniek\Jaar 2\ECS\ECSL\software\STM32\STM32Basis\gemeenschappelijk\ESEFreeRTOS\stdTaak.cpp **** {
 595              	 .loc 3 66 1
 596              	 .cfi_startproc
 597              	 
 598              	 
ARM GAS   			page 22


 599              	 
 600 0000 80B4     	 push {r7}
 601              	 .cfi_def_cfa_offset 4
 602              	 .cfi_offset 7,-4
 603 0002 85B0     	 sub sp,sp,#20
 604              	 .cfi_def_cfa_offset 24
 605 0004 00AF     	 add r7,sp,#0
 606              	 .cfi_def_cfa_register 7
 607 0006 7860     	 str r0,[r7,#4]
  67:C:\Users\niels\Documents\Elektrotechniek\Jaar 2\ECS\ECSL\software\STM32\STM32Basis\gemeenschappelijk\ESEFreeRTOS\stdTaak.cpp **** 	assert(0 != configTICK_RATE_HZ);
  68:C:\Users\niels\Documents\Elektrotechniek\Jaar 2\ECS\ECSL\software\STM32\STM32Basis\gemeenschappelijk\ESEFreeRTOS\stdTaak.cpp **** 	static constexpr auto ticksInMsecsPeriode = 1000/configTICK_RATE_HZ;
  69:C:\Users\niels\Documents\Elektrotechniek\Jaar 2\ECS\ECSL\software\STM32\STM32Basis\gemeenschappelijk\ESEFreeRTOS\stdTaak.cpp **** 	assert(0 != ticksInMsecsPeriode);
  70:C:\Users\niels\Documents\Elektrotechniek\Jaar 2\ECS\ECSL\software\STM32\STM32Basis\gemeenschappelijk\ESEFreeRTOS\stdTaak.cpp **** 
  71:C:\Users\niels\Documents\Elektrotechniek\Jaar 2\ECS\ECSL\software\STM32\STM32Basis\gemeenschappelijk\ESEFreeRTOS\stdTaak.cpp **** 	const auto periode = msecs/ticksInMsecsPeriode;
 608              	 .loc 3 71 13
 609 0008 7B68     	 ldr r3,[r7,#4]
 610 000a FB60     	 str r3,[r7,#12]
  72:C:\Users\niels\Documents\Elektrotechniek\Jaar 2\ECS\ECSL\software\STM32\STM32Basis\gemeenschappelijk\ESEFreeRTOS\stdTaak.cpp **** 
  73:C:\Users\niels\Documents\Elektrotechniek\Jaar 2\ECS\ECSL\software\STM32\STM32Basis\gemeenschappelijk\ESEFreeRTOS\stdTaak.cpp **** 	const auto uit = ((periode != 0) ? periode : ticksInMsecsPeriode);
 611              	 .loc 3 73 35
 612 000c FB68     	 ldr r3,[r7,#12]
 613 000e 002B     	 cmp r3,#0
 614 0010 01D0     	 beq .L30
 615              	 .loc 3 73 35 is_stmt 0 discriminator 1
 616 0012 FB68     	 ldr r3,[r7,#12]
 617 0014 00E0     	 b .L31
 618              	.L30:
 619              	 .loc 3 73 35 discriminator 2
 620 0016 0123     	 movs r3,#1
 621              	.L31:
 622              	 .loc 3 73 13 is_stmt 1 discriminator 4
 623 0018 BB60     	 str r3,[r7,#8]
  74:C:\Users\niels\Documents\Elektrotechniek\Jaar 2\ECS\ECSL\software\STM32\STM32Basis\gemeenschappelijk\ESEFreeRTOS\stdTaak.cpp **** 
  75:C:\Users\niels\Documents\Elektrotechniek\Jaar 2\ECS\ECSL\software\STM32\STM32Basis\gemeenschappelijk\ESEFreeRTOS\stdTaak.cpp **** 	return(uit);
 624              	 .loc 3 75 12 discriminator 4
 625 001a BB68     	 ldr r3,[r7,#8]
  76:C:\Users\niels\Documents\Elektrotechniek\Jaar 2\ECS\ECSL\software\STM32\STM32Basis\gemeenschappelijk\ESEFreeRTOS\stdTaak.cpp **** }
 626              	 .loc 3 76 1 discriminator 4
 627 001c 1846     	 mov r0,r3
 628 001e 1437     	 adds r7,r7,#20
 629              	 .cfi_def_cfa_offset 4
 630 0020 BD46     	 mov sp,r7
 631              	 .cfi_def_cfa_register 13
 632              	 
 633 0022 5DF8047B 	 ldr r7,[sp],#4
 634              	 .cfi_restore 7
 635              	 .cfi_def_cfa_offset 0
 636 0026 7047     	 bx lr
 637              	 .cfi_endproc
 638              	.LFE1251:
 639              	 .size _ZN7StdTaak11aantalTicksEm,.-_ZN7StdTaak11aantalTicksEm
 640              	 .section .text._ZNK7StdTaak8geefTypeEv,"ax",%progbits
 641              	 .align 1
 642              	 .global _ZNK7StdTaak8geefTypeEv
 643              	 .syntax unified
 644              	 .thumb
 645              	 .thumb_func
ARM GAS   			page 23


 646              	 .type _ZNK7StdTaak8geefTypeEv,%function
 647              	_ZNK7StdTaak8geefTypeEv:
 648              	.LFB1252:
  77:C:\Users\niels\Documents\Elektrotechniek\Jaar 2\ECS\ECSL\software\STM32\STM32Basis\gemeenschappelijk\ESEFreeRTOS\stdTaak.cpp **** 
  78:C:\Users\niels\Documents\Elektrotechniek\Jaar 2\ECS\ECSL\software\STM32\STM32Basis\gemeenschappelijk\ESEFreeRTOS\stdTaak.cpp **** MsgType StdTaak::geefType() const
  79:C:\Users\niels\Documents\Elektrotechniek\Jaar 2\ECS\ECSL\software\STM32\STM32Basis\gemeenschappelijk\ESEFreeRTOS\stdTaak.cpp **** {
 649              	 .loc 3 79 1
 650              	 .cfi_startproc
 651              	 
 652              	 
 653 0000 80B5     	 push {r7,lr}
 654              	 .cfi_def_cfa_offset 8
 655              	 .cfi_offset 7,-8
 656              	 .cfi_offset 14,-4
 657 0002 84B0     	 sub sp,sp,#16
 658              	 .cfi_def_cfa_offset 24
 659 0004 00AF     	 add r7,sp,#0
 660              	 .cfi_def_cfa_register 7
 661 0006 7860     	 str r0,[r7,#4]
  80:C:\Users\niels\Documents\Elektrotechniek\Jaar 2\ECS\ECSL\software\STM32\STM32Basis\gemeenschappelijk\ESEFreeRTOS\stdTaak.cpp **** 	const auto antwoord = nieuwBericht.geefType();
 662              	 .loc 3 80 45
 663 0008 7B68     	 ldr r3,[r7,#4]
 664 000a 2C33     	 adds r3,r3,#44
 665 000c 1846     	 mov r0,r3
 666 000e FFF7FEFF 	 bl _ZNK10StdTaakMsgILj16EE8geefTypeEv
 667 0012 F860     	 str r0,[r7,#12]
  81:C:\Users\niels\Documents\Elektrotechniek\Jaar 2\ECS\ECSL\software\STM32\STM32Basis\gemeenschappelijk\ESEFreeRTOS\stdTaak.cpp **** 	return(antwoord);
 668              	 .loc 3 81 17
 669 0014 FB68     	 ldr r3,[r7,#12]
  82:C:\Users\niels\Documents\Elektrotechniek\Jaar 2\ECS\ECSL\software\STM32\STM32Basis\gemeenschappelijk\ESEFreeRTOS\stdTaak.cpp **** }
 670              	 .loc 3 82 1
 671 0016 1846     	 mov r0,r3
 672 0018 1037     	 adds r7,r7,#16
 673              	 .cfi_def_cfa_offset 8
 674 001a BD46     	 mov sp,r7
 675              	 .cfi_def_cfa_register 13
 676              	 
 677 001c 80BD     	 pop {r7,pc}
 678              	 .cfi_endproc
 679              	.LFE1252:
 680              	 .size _ZNK7StdTaak8geefTypeEv,.-_ZNK7StdTaak8geefTypeEv
 681              	 .section .text._ZNK7StdTaak10geefZenderEv,"ax",%progbits
 682              	 .align 1
 683              	 .global _ZNK7StdTaak10geefZenderEv
 684              	 .syntax unified
 685              	 .thumb
 686              	 .thumb_func
 687              	 .type _ZNK7StdTaak10geefZenderEv,%function
 688              	_ZNK7StdTaak10geefZenderEv:
 689              	.LFB1253:
  83:C:\Users\niels\Documents\Elektrotechniek\Jaar 2\ECS\ECSL\software\STM32\STM32Basis\gemeenschappelijk\ESEFreeRTOS\stdTaak.cpp **** 
  84:C:\Users\niels\Documents\Elektrotechniek\Jaar 2\ECS\ECSL\software\STM32\STM32Basis\gemeenschappelijk\ESEFreeRTOS\stdTaak.cpp **** TaakPrio StdTaak::geefZender() const
  85:C:\Users\niels\Documents\Elektrotechniek\Jaar 2\ECS\ECSL\software\STM32\STM32Basis\gemeenschappelijk\ESEFreeRTOS\stdTaak.cpp **** {
 690              	 .loc 3 85 1
 691              	 .cfi_startproc
 692              	 
 693              	 
ARM GAS   			page 24


 694 0000 80B5     	 push {r7,lr}
 695              	 .cfi_def_cfa_offset 8
 696              	 .cfi_offset 7,-8
 697              	 .cfi_offset 14,-4
 698 0002 84B0     	 sub sp,sp,#16
 699              	 .cfi_def_cfa_offset 24
 700 0004 00AF     	 add r7,sp,#0
 701              	 .cfi_def_cfa_register 7
 702 0006 7860     	 str r0,[r7,#4]
  86:C:\Users\niels\Documents\Elektrotechniek\Jaar 2\ECS\ECSL\software\STM32\STM32Basis\gemeenschappelijk\ESEFreeRTOS\stdTaak.cpp **** 	const auto antwoord = nieuwBericht.geefZender();
 703              	 .loc 3 86 47
 704 0008 7B68     	 ldr r3,[r7,#4]
 705 000a 2C33     	 adds r3,r3,#44
 706 000c 1846     	 mov r0,r3
 707 000e FFF7FEFF 	 bl _ZNK10StdTaakMsgILj16EE10geefZenderEv
 708 0012 F860     	 str r0,[r7,#12]
  87:C:\Users\niels\Documents\Elektrotechniek\Jaar 2\ECS\ECSL\software\STM32\STM32Basis\gemeenschappelijk\ESEFreeRTOS\stdTaak.cpp **** 	return(antwoord);
 709              	 .loc 3 87 17
 710 0014 FB68     	 ldr r3,[r7,#12]
  88:C:\Users\niels\Documents\Elektrotechniek\Jaar 2\ECS\ECSL\software\STM32\STM32Basis\gemeenschappelijk\ESEFreeRTOS\stdTaak.cpp **** }
 711              	 .loc 3 88 1
 712 0016 1846     	 mov r0,r3
 713 0018 1037     	 adds r7,r7,#16
 714              	 .cfi_def_cfa_offset 8
 715 001a BD46     	 mov sp,r7
 716              	 .cfi_def_cfa_register 13
 717              	 
 718 001c 80BD     	 pop {r7,pc}
 719              	 .cfi_endproc
 720              	.LFE1253:
 721              	 .size _ZNK7StdTaak10geefZenderEv,.-_ZNK7StdTaak10geefZenderEv
 722              	 .section .text._ZNK7StdTaak13geefOntvangerEv,"ax",%progbits
 723              	 .align 1
 724              	 .global _ZNK7StdTaak13geefOntvangerEv
 725              	 .syntax unified
 726              	 .thumb
 727              	 .thumb_func
 728              	 .type _ZNK7StdTaak13geefOntvangerEv,%function
 729              	_ZNK7StdTaak13geefOntvangerEv:
 730              	.LFB1254:
  89:C:\Users\niels\Documents\Elektrotechniek\Jaar 2\ECS\ECSL\software\STM32\STM32Basis\gemeenschappelijk\ESEFreeRTOS\stdTaak.cpp **** 
  90:C:\Users\niels\Documents\Elektrotechniek\Jaar 2\ECS\ECSL\software\STM32\STM32Basis\gemeenschappelijk\ESEFreeRTOS\stdTaak.cpp **** TaakPrio StdTaak::geefOntvanger() const
  91:C:\Users\niels\Documents\Elektrotechniek\Jaar 2\ECS\ECSL\software\STM32\STM32Basis\gemeenschappelijk\ESEFreeRTOS\stdTaak.cpp **** {
 731              	 .loc 3 91 1
 732              	 .cfi_startproc
 733              	 
 734              	 
 735 0000 80B5     	 push {r7,lr}
 736              	 .cfi_def_cfa_offset 8
 737              	 .cfi_offset 7,-8
 738              	 .cfi_offset 14,-4
 739 0002 84B0     	 sub sp,sp,#16
 740              	 .cfi_def_cfa_offset 24
 741 0004 00AF     	 add r7,sp,#0
 742              	 .cfi_def_cfa_register 7
 743 0006 7860     	 str r0,[r7,#4]
  92:C:\Users\niels\Documents\Elektrotechniek\Jaar 2\ECS\ECSL\software\STM32\STM32Basis\gemeenschappelijk\ESEFreeRTOS\stdTaak.cpp **** 	const auto antwoord = nieuwBericht.geefOntvanger();
ARM GAS   			page 25


 744              	 .loc 3 92 50
 745 0008 7B68     	 ldr r3,[r7,#4]
 746 000a 2C33     	 adds r3,r3,#44
 747 000c 1846     	 mov r0,r3
 748 000e FFF7FEFF 	 bl _ZNK10StdTaakMsgILj16EE13geefOntvangerEv
 749 0012 F860     	 str r0,[r7,#12]
  93:C:\Users\niels\Documents\Elektrotechniek\Jaar 2\ECS\ECSL\software\STM32\STM32Basis\gemeenschappelijk\ESEFreeRTOS\stdTaak.cpp **** 	return(antwoord);
 750              	 .loc 3 93 17
 751 0014 FB68     	 ldr r3,[r7,#12]
  94:C:\Users\niels\Documents\Elektrotechniek\Jaar 2\ECS\ECSL\software\STM32\STM32Basis\gemeenschappelijk\ESEFreeRTOS\stdTaak.cpp **** }
 752              	 .loc 3 94 1
 753 0016 1846     	 mov r0,r3
 754 0018 1037     	 adds r7,r7,#16
 755              	 .cfi_def_cfa_offset 8
 756 001a BD46     	 mov sp,r7
 757              	 .cfi_def_cfa_register 13
 758              	 
 759 001c 80BD     	 pop {r7,pc}
 760              	 .cfi_endproc
 761              	.LFE1254:
 762              	 .size _ZNK7StdTaak13geefOntvangerEv,.-_ZNK7StdTaak13geefOntvangerEv
 763              	 .section .text._ZNK7StdTaak11geefBerichtEv,"ax",%progbits
 764              	 .align 1
 765              	 .global _ZNK7StdTaak11geefBerichtEv
 766              	 .syntax unified
 767              	 .thumb
 768              	 .thumb_func
 769              	 .type _ZNK7StdTaak11geefBerichtEv,%function
 770              	_ZNK7StdTaak11geefBerichtEv:
 771              	.LFB1255:
  95:C:\Users\niels\Documents\Elektrotechniek\Jaar 2\ECS\ECSL\software\STM32\STM32Basis\gemeenschappelijk\ESEFreeRTOS\stdTaak.cpp **** 
  96:C:\Users\niels\Documents\Elektrotechniek\Jaar 2\ECS\ECSL\software\STM32\STM32Basis\gemeenschappelijk\ESEFreeRTOS\stdTaak.cpp **** StdTaak::StdMsg StdTaak::geefBericht() const
  97:C:\Users\niels\Documents\Elektrotechniek\Jaar 2\ECS\ECSL\software\STM32\STM32Basis\gemeenschappelijk\ESEFreeRTOS\stdTaak.cpp **** {
 772              	 .loc 3 97 1
 773              	 .cfi_startproc
 774              	 
 775              	 
 776 0000 80B5     	 push {r7,lr}
 777              	 .cfi_def_cfa_offset 8
 778              	 .cfi_offset 7,-8
 779              	 .cfi_offset 14,-4
 780 0002 82B0     	 sub sp,sp,#8
 781              	 .cfi_def_cfa_offset 16
 782 0004 00AF     	 add r7,sp,#0
 783              	 .cfi_def_cfa_register 7
 784 0006 7860     	 str r0,[r7,#4]
 785 0008 3960     	 str r1,[r7]
  98:C:\Users\niels\Documents\Elektrotechniek\Jaar 2\ECS\ECSL\software\STM32\STM32Basis\gemeenschappelijk\ESEFreeRTOS\stdTaak.cpp **** 	/* maak een kopie. */
  99:C:\Users\niels\Documents\Elektrotechniek\Jaar 2\ECS\ECSL\software\STM32\STM32Basis\gemeenschappelijk\ESEFreeRTOS\stdTaak.cpp **** 	const auto kopie(nieuwBericht);
 786              	 .loc 3 99 13
 787 000a 7A68     	 ldr r2,[r7,#4]
 788 000c 3B68     	 ldr r3,[r7]
 789 000e 1046     	 mov r0,r2
 790 0010 2C33     	 adds r3,r3,#44
 791 0012 4C22     	 movs r2,#76
 792 0014 1946     	 mov r1,r3
 793 0016 FFF7FEFF 	 bl memcpy
ARM GAS   			page 26


 100:C:\Users\niels\Documents\Elektrotechniek\Jaar 2\ECS\ECSL\software\STM32\STM32Basis\gemeenschappelijk\ESEFreeRTOS\stdTaak.cpp **** 	return(kopie);
 794              	 .loc 3 100 14
 795 001a 00BF     	 nop
 101:C:\Users\niels\Documents\Elektrotechniek\Jaar 2\ECS\ECSL\software\STM32\STM32Basis\gemeenschappelijk\ESEFreeRTOS\stdTaak.cpp **** }
 796              	 .loc 3 101 1
 797 001c 7868     	 ldr r0,[r7,#4]
 798 001e 0837     	 adds r7,r7,#8
 799              	 .cfi_def_cfa_offset 8
 800 0020 BD46     	 mov sp,r7
 801              	 .cfi_def_cfa_register 13
 802              	 
 803 0022 80BD     	 pop {r7,pc}
 804              	 .cfi_endproc
 805              	.LFE1255:
 806              	 .size _ZNK7StdTaak11geefBerichtEv,.-_ZNK7StdTaak11geefBerichtEv
 807              	 .section .text._ZN7StdTaak17isBerichtAanwezigEv,"ax",%progbits
 808              	 .align 1
 809              	 .global _ZN7StdTaak17isBerichtAanwezigEv
 810              	 .syntax unified
 811              	 .thumb
 812              	 .thumb_func
 813              	 .type _ZN7StdTaak17isBerichtAanwezigEv,%function
 814              	_ZN7StdTaak17isBerichtAanwezigEv:
 815              	.LFB1256:
 102:C:\Users\niels\Documents\Elektrotechniek\Jaar 2\ECS\ECSL\software\STM32\STM32Basis\gemeenschappelijk\ESEFreeRTOS\stdTaak.cpp **** 
 103:C:\Users\niels\Documents\Elektrotechniek\Jaar 2\ECS\ECSL\software\STM32\STM32Basis\gemeenschappelijk\ESEFreeRTOS\stdTaak.cpp **** bool StdTaak::isBerichtAanwezig()
 104:C:\Users\niels\Documents\Elektrotechniek\Jaar 2\ECS\ECSL\software\STM32\STM32Basis\gemeenschappelijk\ESEFreeRTOS\stdTaak.cpp **** {
 816              	 .loc 3 104 1
 817              	 .cfi_startproc
 818              	 
 819              	 
 820 0000 80B5     	 push {r7,lr}
 821              	 .cfi_def_cfa_offset 8
 822              	 .cfi_offset 7,-8
 823              	 .cfi_offset 14,-4
 824 0002 84B0     	 sub sp,sp,#16
 825              	 .cfi_def_cfa_offset 24
 826 0004 00AF     	 add r7,sp,#0
 827              	 .cfi_def_cfa_register 7
 828 0006 7860     	 str r0,[r7,#4]
 105:C:\Users\niels\Documents\Elektrotechniek\Jaar 2\ECS\ECSL\software\STM32\STM32Basis\gemeenschappelijk\ESEFreeRTOS\stdTaak.cpp **** 	const bool aanwezig = (false == brievenbus.IsEmpty());
 829              	 .loc 3 105 52
 830 0008 7B68     	 ldr r3,[r7,#4]
 831 000a 7833     	 adds r3,r3,#120
 832 000c 1846     	 mov r0,r3
 833 000e FFF7FEFF 	 bl _ZN12cpp_freertos5Queue7IsEmptyEv
 834 0012 0346     	 mov r3,r0
 835              	 .loc 3 105 54
 836 0014 002B     	 cmp r3,#0
 837 0016 0CBF     	 ite eq
 838 0018 0123     	 moveq r3,#1
 839 001a 0023     	 movne r3,#0
 840 001c FB73     	 strb r3,[r7,#15]
 106:C:\Users\niels\Documents\Elektrotechniek\Jaar 2\ECS\ECSL\software\STM32\STM32Basis\gemeenschappelijk\ESEFreeRTOS\stdTaak.cpp **** 	return(aanwezig);
 841              	 .loc 3 106 17
 842 001e FB7B     	 ldrb r3,[r7,#15]
 107:C:\Users\niels\Documents\Elektrotechniek\Jaar 2\ECS\ECSL\software\STM32\STM32Basis\gemeenschappelijk\ESEFreeRTOS\stdTaak.cpp **** }
ARM GAS   			page 27


 843              	 .loc 3 107 1
 844 0020 1846     	 mov r0,r3
 845 0022 1037     	 adds r7,r7,#16
 846              	 .cfi_def_cfa_offset 8
 847 0024 BD46     	 mov sp,r7
 848              	 .cfi_def_cfa_register 13
 849              	 
 850 0026 80BD     	 pop {r7,pc}
 851              	 .cfi_endproc
 852              	.LFE1256:
 853              	 .size _ZN7StdTaak17isBerichtAanwezigEv,.-_ZN7StdTaak17isBerichtAanwezigEv
 854              	 .section .text._ZN7StdTaak5wachtEm,"ax",%progbits
 855              	 .align 1
 856              	 .global _ZN7StdTaak5wachtEm
 857              	 .syntax unified
 858              	 .thumb
 859              	 .thumb_func
 860              	 .type _ZN7StdTaak5wachtEm,%function
 861              	_ZN7StdTaak5wachtEm:
 862              	.LFB1257:
 108:C:\Users\niels\Documents\Elektrotechniek\Jaar 2\ECS\ECSL\software\STM32\STM32Basis\gemeenschappelijk\ESEFreeRTOS\stdTaak.cpp **** 
 109:C:\Users\niels\Documents\Elektrotechniek\Jaar 2\ECS\ECSL\software\STM32\STM32Basis\gemeenschappelijk\ESEFreeRTOS\stdTaak.cpp **** FoutCode StdTaak::wacht(const Teller msecs)
 110:C:\Users\niels\Documents\Elektrotechniek\Jaar 2\ECS\ECSL\software\STM32\STM32Basis\gemeenschappelijk\ESEFreeRTOS\stdTaak.cpp **** {
 863              	 .loc 3 110 1
 864              	 .cfi_startproc
 865              	 
 866              	 
 867 0000 80B5     	 push {r7,lr}
 868              	 .cfi_def_cfa_offset 8
 869              	 .cfi_offset 7,-8
 870              	 .cfi_offset 14,-4
 871 0002 84B0     	 sub sp,sp,#16
 872              	 .cfi_def_cfa_offset 24
 873 0004 00AF     	 add r7,sp,#0
 874              	 .cfi_def_cfa_register 7
 875 0006 7860     	 str r0,[r7,#4]
 876 0008 3960     	 str r1,[r7]
 111:C:\Users\niels\Documents\Elektrotechniek\Jaar 2\ECS\ECSL\software\STM32\STM32Basis\gemeenschappelijk\ESEFreeRTOS\stdTaak.cpp **** 	/* kap de vertraging af op het minimum.  */
 112:C:\Users\niels\Documents\Elektrotechniek\Jaar 2\ECS\ECSL\software\STM32\STM32Basis\gemeenschappelijk\ESEFreeRTOS\stdTaak.cpp **** 	const auto rauweVertraging = msecs / portTICK_PERIOD_MS;
 877              	 .loc 3 112 13
 878 000a 3B68     	 ldr r3,[r7]
 879 000c FB60     	 str r3,[r7,#12]
 113:C:\Users\niels\Documents\Elektrotechniek\Jaar 2\ECS\ECSL\software\STM32\STM32Basis\gemeenschappelijk\ESEFreeRTOS\stdTaak.cpp **** 	const auto vertraging = (rauweVertraging > 1) ? rauweVertraging : 1;
 880              	 .loc 3 113 13
 881 000e FB68     	 ldr r3,[r7,#12]
 882 0010 012B     	 cmp r3,#1
 883 0012 38BF     	 it cc
 884 0014 0123     	 movcc r3,#1
 885 0016 BB60     	 str r3,[r7,#8]
 114:C:\Users\niels\Documents\Elektrotechniek\Jaar 2\ECS\ECSL\software\STM32\STM32Basis\gemeenschappelijk\ESEFreeRTOS\stdTaak.cpp **** 
 115:C:\Users\niels\Documents\Elektrotechniek\Jaar 2\ECS\ECSL\software\STM32\STM32Basis\gemeenschappelijk\ESEFreeRTOS\stdTaak.cpp **** 	Delay(vertraging);
 886              	 .loc 3 115 7
 887 0018 7B68     	 ldr r3,[r7,#4]
 888 001a B968     	 ldr r1,[r7,#8]
 889 001c 1846     	 mov r0,r3
 890 001e FFF7FEFF 	 bl _ZN12cpp_freertos6Thread5DelayEm
 116:C:\Users\niels\Documents\Elektrotechniek\Jaar 2\ECS\ECSL\software\STM32\STM32Basis\gemeenschappelijk\ESEFreeRTOS\stdTaak.cpp **** 
ARM GAS   			page 28


 117:C:\Users\niels\Documents\Elektrotechniek\Jaar 2\ECS\ECSL\software\STM32\STM32Basis\gemeenschappelijk\ESEFreeRTOS\stdTaak.cpp **** 	return (FC::Ok);
 891              	 .loc 3 117 16
 892 0022 0023     	 movs r3,#0
 118:C:\Users\niels\Documents\Elektrotechniek\Jaar 2\ECS\ECSL\software\STM32\STM32Basis\gemeenschappelijk\ESEFreeRTOS\stdTaak.cpp **** }
 893              	 .loc 3 118 1
 894 0024 1846     	 mov r0,r3
 895 0026 1037     	 adds r7,r7,#16
 896              	 .cfi_def_cfa_offset 8
 897 0028 BD46     	 mov sp,r7
 898              	 .cfi_def_cfa_register 13
 899              	 
 900 002a 80BD     	 pop {r7,pc}
 901              	 .cfi_endproc
 902              	.LFE1257:
 903              	 .size _ZN7StdTaak5wachtEm,.-_ZN7StdTaak5wachtEm
 904              	 .section .text._ZN10StdTaakMsgILj16EEC2Ev,"axG",%progbits,_ZN10StdTaakMsgILj16EEC5Ev,comdat
 905              	 .align 1
 906              	 .weak _ZN10StdTaakMsgILj16EEC2Ev
 907              	 .syntax unified
 908              	 .thumb
 909              	 .thumb_func
 910              	 .type _ZN10StdTaakMsgILj16EEC2Ev,%function
 911              	_ZN10StdTaakMsgILj16EEC2Ev:
 912              	.LFB1455:
 913              	 .file 4 "C:/Users/niels/DOCUME~1/ELEKTR~1/JAAR2~1/ECS/ECSL/software/STM32/STM32B~1/GEMEEN~1/ESEFRE~1/h/stdTaak.h"
   1:C:/Users/niels/DOCUME~1/ELEKTR~1/JAAR2~1/ECS/ECSL/software/STM32/STM32B~1/GEMEEN~1/ESEFRE~1/h\stdTaak.h **** /*!
   2:C:/Users/niels/DOCUME~1/ELEKTR~1/JAAR2~1/ECS/ECSL/software/STM32/STM32B~1/GEMEEN~1/ESEFRE~1/h\stdTaak.h **** @file
   3:C:/Users/niels/DOCUME~1/ELEKTR~1/JAAR2~1/ECS/ECSL/software/STM32/STM32B~1/GEMEEN~1/ESEFRE~1/h\stdTaak.h **** API van de c++ schil voor gebruik van de FreeRTOS
   4:C:/Users/niels/DOCUME~1/ELEKTR~1/JAAR2~1/ECS/ECSL/software/STM32/STM32B~1/GEMEEN~1/ESEFRE~1/h\stdTaak.h **** @version $Rev: 2892 $
   5:C:/Users/niels/DOCUME~1/ELEKTR~1/JAAR2~1/ECS/ECSL/software/STM32/STM32B~1/GEMEEN~1/ESEFRE~1/h\stdTaak.h **** @author $Author: ewout $
   6:C:/Users/niels/DOCUME~1/ELEKTR~1/JAAR2~1/ECS/ECSL/software/STM32/STM32B~1/GEMEEN~1/ESEFRE~1/h\stdTaak.h **** 
   7:C:/Users/niels/DOCUME~1/ELEKTR~1/JAAR2~1/ECS/ECSL/software/STM32/STM32B~1/GEMEEN~1/ESEFRE~1/h\stdTaak.h **** @copyright Copyright 2017-2018 Hogeschool van Arnhem en Nijmegen, ir drs E.J Boks
   8:C:/Users/niels/DOCUME~1/ELEKTR~1/JAAR2~1/ECS/ECSL/software/STM32/STM32B~1/GEMEEN~1/ESEFRE~1/h\stdTaak.h **** 
   9:C:/Users/niels/DOCUME~1/ELEKTR~1/JAAR2~1/ECS/ECSL/software/STM32/STM32B~1/GEMEEN~1/ESEFRE~1/h\stdTaak.h **** $URL: http://svn.hanese.nl/docenten/svn/ewout/vakken/algemeen/software/STM32/STM32Basis/HAL/gemeens
  10:C:/Users/niels/DOCUME~1/ELEKTR~1/JAAR2~1/ECS/ECSL/software/STM32/STM32B~1/GEMEEN~1/ESEFRE~1/h\stdTaak.h **** $Id: ESEBoardController.h 2892 2018-02-27 19:33:20Z ewout $
  11:C:/Users/niels/DOCUME~1/ELEKTR~1/JAAR2~1/ECS/ECSL/software/STM32/STM32B~1/GEMEEN~1/ESEFRE~1/h\stdTaak.h **** ************************************************************************/
  12:C:/Users/niels/DOCUME~1/ELEKTR~1/JAAR2~1/ECS/ECSL/software/STM32/STM32B~1/GEMEEN~1/ESEFRE~1/h\stdTaak.h **** 
  13:C:/Users/niels/DOCUME~1/ELEKTR~1/JAAR2~1/ECS/ECSL/software/STM32/STM32B~1/GEMEEN~1/ESEFRE~1/h\stdTaak.h **** #ifndef ESE_BSP_STDTaak_H
  14:C:/Users/niels/DOCUME~1/ELEKTR~1/JAAR2~1/ECS/ECSL/software/STM32/STM32B~1/GEMEEN~1/ESEFRE~1/h\stdTaak.h **** #define ESE_BSP_STDTaak_H
  15:C:/Users/niels/DOCUME~1/ELEKTR~1/JAAR2~1/ECS/ECSL/software/STM32/STM32B~1/GEMEEN~1/ESEFRE~1/h\stdTaak.h **** 
  16:C:/Users/niels/DOCUME~1/ELEKTR~1/JAAR2~1/ECS/ECSL/software/STM32/STM32B~1/GEMEEN~1/ESEFRE~1/h\stdTaak.h **** #include <thread.hpp>
  17:C:/Users/niels/DOCUME~1/ELEKTR~1/JAAR2~1/ECS/ECSL/software/STM32/STM32B~1/GEMEEN~1/ESEFRE~1/h\stdTaak.h **** #include <queue.hpp>
  18:C:/Users/niels/DOCUME~1/ELEKTR~1/JAAR2~1/ECS/ECSL/software/STM32/STM32B~1/GEMEEN~1/ESEFRE~1/h\stdTaak.h **** 
  19:C:/Users/niels/DOCUME~1/ELEKTR~1/JAAR2~1/ECS/ECSL/software/STM32/STM32B~1/GEMEEN~1/ESEFRE~1/h\stdTaak.h **** #include <assert.h>
  20:C:/Users/niels/DOCUME~1/ELEKTR~1/JAAR2~1/ECS/ECSL/software/STM32/STM32B~1/GEMEEN~1/ESEFRE~1/h\stdTaak.h **** #include <semaphore.hpp>
  21:C:/Users/niels/DOCUME~1/ELEKTR~1/JAAR2~1/ECS/ECSL/software/STM32/STM32B~1/GEMEEN~1/ESEFRE~1/h\stdTaak.h **** #include <algdef.h>
  22:C:/Users/niels/DOCUME~1/ELEKTR~1/JAAR2~1/ECS/ECSL/software/STM32/STM32B~1/GEMEEN~1/ESEFRE~1/h\stdTaak.h **** 
  23:C:/Users/niels/DOCUME~1/ELEKTR~1/JAAR2~1/ECS/ECSL/software/STM32/STM32B~1/GEMEEN~1/ESEFRE~1/h\stdTaak.h **** using namespace cpp_freertos;
  24:C:/Users/niels/DOCUME~1/ELEKTR~1/JAAR2~1/ECS/ECSL/software/STM32/STM32B~1/GEMEEN~1/ESEFRE~1/h\stdTaak.h **** 
  25:C:/Users/niels/DOCUME~1/ELEKTR~1/JAAR2~1/ECS/ECSL/software/STM32/STM32B~1/GEMEEN~1/ESEFRE~1/h\stdTaak.h **** /*! @enum De taken prioriteiten.
  26:C:/Users/niels/DOCUME~1/ELEKTR~1/JAAR2~1/ECS/ECSL/software/STM32/STM32B~1/GEMEEN~1/ESEFRE~1/h\stdTaak.h ****  * @note FreeRTOS prioriteiten zijn van laag (lager nummer) naar hoog (hoger nummer),
  27:C:/Users/niels/DOCUME~1/ELEKTR~1/JAAR2~1/ECS/ECSL/software/STM32/STM32B~1/GEMEEN~1/ESEFRE~1/h\stdTaak.h ****  * dit in tegenstelling tot bijvoorbeeld Micrium UCOSII/III */
  28:C:/Users/niels/DOCUME~1/ELEKTR~1/JAAR2~1/ECS/ECSL/software/STM32/STM32B~1/GEMEEN~1/ESEFRE~1/h\stdTaak.h **** enum class TaakPrio
  29:C:/Users/niels/DOCUME~1/ELEKTR~1/JAAR2~1/ECS/ECSL/software/STM32/STM32B~1/GEMEEN~1/ESEFRE~1/h\stdTaak.h **** {
  30:C:/Users/niels/DOCUME~1/ELEKTR~1/JAAR2~1/ECS/ECSL/software/STM32/STM32B~1/GEMEEN~1/ESEFRE~1/h\stdTaak.h **** 	Taak1=2,  /* lowest prio */
  31:C:/Users/niels/DOCUME~1/ELEKTR~1/JAAR2~1/ECS/ECSL/software/STM32/STM32B~1/GEMEEN~1/ESEFRE~1/h\stdTaak.h **** 	Taak2,
  32:C:/Users/niels/DOCUME~1/ELEKTR~1/JAAR2~1/ECS/ECSL/software/STM32/STM32B~1/GEMEEN~1/ESEFRE~1/h\stdTaak.h **** 	Taak3,
ARM GAS   			page 29


  33:C:/Users/niels/DOCUME~1/ELEKTR~1/JAAR2~1/ECS/ECSL/software/STM32/STM32B~1/GEMEEN~1/ESEFRE~1/h\stdTaak.h **** 	Taak4,
  34:C:/Users/niels/DOCUME~1/ELEKTR~1/JAAR2~1/ECS/ECSL/software/STM32/STM32B~1/GEMEEN~1/ESEFRE~1/h\stdTaak.h **** 	//Taak5, /* highest prio */
  35:C:/Users/niels/DOCUME~1/ELEKTR~1/JAAR2~1/ECS/ECSL/software/STM32/STM32B~1/GEMEEN~1/ESEFRE~1/h\stdTaak.h **** 	Onbekend
  36:C:/Users/niels/DOCUME~1/ELEKTR~1/JAAR2~1/ECS/ECSL/software/STM32/STM32B~1/GEMEEN~1/ESEFRE~1/h\stdTaak.h **** };
  37:C:/Users/niels/DOCUME~1/ELEKTR~1/JAAR2~1/ECS/ECSL/software/STM32/STM32B~1/GEMEEN~1/ESEFRE~1/h\stdTaak.h **** 
  38:C:/Users/niels/DOCUME~1/ELEKTR~1/JAAR2~1/ECS/ECSL/software/STM32/STM32B~1/GEMEEN~1/ESEFRE~1/h\stdTaak.h **** enum class MsgType
  39:C:/Users/niels/DOCUME~1/ELEKTR~1/JAAR2~1/ECS/ECSL/software/STM32/STM32B~1/GEMEEN~1/ESEFRE~1/h\stdTaak.h **** {
  40:C:/Users/niels/DOCUME~1/ELEKTR~1/JAAR2~1/ECS/ECSL/software/STM32/STM32B~1/GEMEEN~1/ESEFRE~1/h\stdTaak.h **** 	TouchGebeurd,
  41:C:/Users/niels/DOCUME~1/ELEKTR~1/JAAR2~1/ECS/ECSL/software/STM32/STM32B~1/GEMEEN~1/ESEFRE~1/h\stdTaak.h **** 	ADCGebeurd,
  42:C:/Users/niels/DOCUME~1/ELEKTR~1/JAAR2~1/ECS/ECSL/software/STM32/STM32B~1/GEMEEN~1/ESEFRE~1/h\stdTaak.h **** 	KnopGedrukt,
  43:C:/Users/niels/DOCUME~1/ELEKTR~1/JAAR2~1/ECS/ECSL/software/STM32/STM32B~1/GEMEEN~1/ESEFRE~1/h\stdTaak.h **** 	StartStopGedrukt,
  44:C:/Users/niels/DOCUME~1/ELEKTR~1/JAAR2~1/ECS/ECSL/software/STM32/STM32B~1/GEMEEN~1/ESEFRE~1/h\stdTaak.h **** 	SignaalKeuzeVeranderd,
  45:C:/Users/niels/DOCUME~1/ELEKTR~1/JAAR2~1/ECS/ECSL/software/STM32/STM32B~1/GEMEEN~1/ESEFRE~1/h\stdTaak.h **** 	SignaalAmplitudeVeranderd,
  46:C:/Users/niels/DOCUME~1/ELEKTR~1/JAAR2~1/ECS/ECSL/software/STM32/STM32B~1/GEMEEN~1/ESEFRE~1/h\stdTaak.h **** 	VerbindingGemaakt,
  47:C:/Users/niels/DOCUME~1/ELEKTR~1/JAAR2~1/ECS/ECSL/software/STM32/STM32B~1/GEMEEN~1/ESEFRE~1/h\stdTaak.h **** 	VerbindingLosgemaakt,
  48:C:/Users/niels/DOCUME~1/ELEKTR~1/JAAR2~1/ECS/ECSL/software/STM32/STM32B~1/GEMEEN~1/ESEFRE~1/h\stdTaak.h **** 	Onbekend
  49:C:/Users/niels/DOCUME~1/ELEKTR~1/JAAR2~1/ECS/ECSL/software/STM32/STM32B~1/GEMEEN~1/ESEFRE~1/h\stdTaak.h **** };
  50:C:/Users/niels/DOCUME~1/ELEKTR~1/JAAR2~1/ECS/ECSL/software/STM32/STM32B~1/GEMEEN~1/ESEFRE~1/h\stdTaak.h **** 
  51:C:/Users/niels/DOCUME~1/ELEKTR~1/JAAR2~1/ECS/ECSL/software/STM32/STM32B~1/GEMEEN~1/ESEFRE~1/h\stdTaak.h **** template<const unsigned int Grootte>
  52:C:/Users/niels/DOCUME~1/ELEKTR~1/JAAR2~1/ECS/ECSL/software/STM32/STM32B~1/GEMEEN~1/ESEFRE~1/h\stdTaak.h **** class StdTaakMsg
  53:C:/Users/niels/DOCUME~1/ELEKTR~1/JAAR2~1/ECS/ECSL/software/STM32/STM32B~1/GEMEEN~1/ESEFRE~1/h\stdTaak.h **** {
  54:C:/Users/niels/DOCUME~1/ELEKTR~1/JAAR2~1/ECS/ECSL/software/STM32/STM32B~1/GEMEEN~1/ESEFRE~1/h\stdTaak.h **** public:
  55:C:/Users/niels/DOCUME~1/ELEKTR~1/JAAR2~1/ECS/ECSL/software/STM32/STM32B~1/GEMEEN~1/ESEFRE~1/h\stdTaak.h **** 	/*! @brief voor ontvangst */
  56:C:/Users/niels/DOCUME~1/ELEKTR~1/JAAR2~1/ECS/ECSL/software/STM32/STM32B~1/GEMEEN~1/ESEFRE~1/h\stdTaak.h **** 	StdTaakMsg() : zender(TaakPrio::Onbekend),
 914              	 .loc 4 56 2
 915              	 .cfi_startproc
 916              	 
 917              	 
 918              	 
 919 0000 80B4     	 push {r7}
 920              	 .cfi_def_cfa_offset 4
 921              	 .cfi_offset 7,-4
 922 0002 83B0     	 sub sp,sp,#12
 923              	 .cfi_def_cfa_offset 16
 924 0004 00AF     	 add r7,sp,#0
 925              	 .cfi_def_cfa_register 7
 926 0006 7860     	 str r0,[r7,#4]
 927              	.LBB3:
  57:C:/Users/niels/DOCUME~1/ELEKTR~1/JAAR2~1/ECS/ECSL/software/STM32/STM32B~1/GEMEEN~1/ESEFRE~1/h\stdTaak.h **** 	               ontvanger(TaakPrio::Onbekend),
  58:C:/Users/niels/DOCUME~1/ELEKTR~1/JAAR2~1/ECS/ECSL/software/STM32/STM32B~1/GEMEEN~1/ESEFRE~1/h\stdTaak.h **** 	               type(MsgType::Onbekend)
 928              	 .loc 4 58 39
 929 0008 7B68     	 ldr r3,[r7,#4]
 930 000a 0622     	 movs r2,#6
 931 000c 1A60     	 str r2,[r3]
 932 000e 7B68     	 ldr r3,[r7,#4]
 933 0010 0622     	 movs r2,#6
 934 0012 5A60     	 str r2,[r3,#4]
 935 0014 7B68     	 ldr r3,[r7,#4]
 936 0016 0822     	 movs r2,#8
 937 0018 9A60     	 str r2,[r3,#8]
 938              	.LBE3:
  59:C:/Users/niels/DOCUME~1/ELEKTR~1/JAAR2~1/ECS/ECSL/software/STM32/STM32B~1/GEMEEN~1/ESEFRE~1/h\stdTaak.h **** 	{
  60:C:/Users/niels/DOCUME~1/ELEKTR~1/JAAR2~1/ECS/ECSL/software/STM32/STM32B~1/GEMEEN~1/ESEFRE~1/h\stdTaak.h **** 
  61:C:/Users/niels/DOCUME~1/ELEKTR~1/JAAR2~1/ECS/ECSL/software/STM32/STM32B~1/GEMEEN~1/ESEFRE~1/h\stdTaak.h **** 	};
 939              	 .loc 4 61 2
 940 001a 7B68     	 ldr r3,[r7,#4]
 941 001c 1846     	 mov r0,r3
ARM GAS   			page 30


 942 001e 0C37     	 adds r7,r7,#12
 943              	 .cfi_def_cfa_offset 4
 944 0020 BD46     	 mov sp,r7
 945              	 .cfi_def_cfa_register 13
 946              	 
 947 0022 5DF8047B 	 ldr r7,[sp],#4
 948              	 .cfi_restore 7
 949              	 .cfi_def_cfa_offset 0
 950 0026 7047     	 bx lr
 951              	 .cfi_endproc
 952              	.LFE1455:
 953              	 .size _ZN10StdTaakMsgILj16EEC2Ev,.-_ZN10StdTaakMsgILj16EEC2Ev
 954              	 .weak _ZN10StdTaakMsgILj16EEC1Ev
 955              	 .thumb_set _ZN10StdTaakMsgILj16EEC1Ev,_ZN10StdTaakMsgILj16EEC2Ev
 956              	 .section .text._ZNK10StdTaakMsgILj16EE13geefOntvangerEv,"axG",%progbits,_ZNK10StdTaakMsgILj16EE13geefOntvangerEv,comdat
 957              	 .align 1
 958              	 .weak _ZNK10StdTaakMsgILj16EE13geefOntvangerEv
 959              	 .syntax unified
 960              	 .thumb
 961              	 .thumb_func
 962              	 .type _ZNK10StdTaakMsgILj16EE13geefOntvangerEv,%function
 963              	_ZNK10StdTaakMsgILj16EE13geefOntvangerEv:
 964              	.LFB1457:
  62:C:/Users/niels/DOCUME~1/ELEKTR~1/JAAR2~1/ECS/ECSL/software/STM32/STM32B~1/GEMEEN~1/ESEFRE~1/h\stdTaak.h **** 
  63:C:/Users/niels/DOCUME~1/ELEKTR~1/JAAR2~1/ECS/ECSL/software/STM32/STM32B~1/GEMEEN~1/ESEFRE~1/h\stdTaak.h **** 	/*! @brief voor verzenden */
  64:C:/Users/niels/DOCUME~1/ELEKTR~1/JAAR2~1/ECS/ECSL/software/STM32/STM32B~1/GEMEEN~1/ESEFRE~1/h\stdTaak.h **** 	StdTaakMsg(const TaakPrio z,
  65:C:/Users/niels/DOCUME~1/ELEKTR~1/JAAR2~1/ECS/ECSL/software/STM32/STM32B~1/GEMEEN~1/ESEFRE~1/h\stdTaak.h **** 	           const TaakPrio o,
  66:C:/Users/niels/DOCUME~1/ELEKTR~1/JAAR2~1/ECS/ECSL/software/STM32/STM32B~1/GEMEEN~1/ESEFRE~1/h\stdTaak.h **** 	           const MsgType t) : zender(z),ontvanger(o),type(t)
  67:C:/Users/niels/DOCUME~1/ELEKTR~1/JAAR2~1/ECS/ECSL/software/STM32/STM32B~1/GEMEEN~1/ESEFRE~1/h\stdTaak.h **** 	{
  68:C:/Users/niels/DOCUME~1/ELEKTR~1/JAAR2~1/ECS/ECSL/software/STM32/STM32B~1/GEMEEN~1/ESEFRE~1/h\stdTaak.h **** 
  69:C:/Users/niels/DOCUME~1/ELEKTR~1/JAAR2~1/ECS/ECSL/software/STM32/STM32B~1/GEMEEN~1/ESEFRE~1/h\stdTaak.h **** 	};
  70:C:/Users/niels/DOCUME~1/ELEKTR~1/JAAR2~1/ECS/ECSL/software/STM32/STM32B~1/GEMEEN~1/ESEFRE~1/h\stdTaak.h **** 
  71:C:/Users/niels/DOCUME~1/ELEKTR~1/JAAR2~1/ECS/ECSL/software/STM32/STM32B~1/GEMEEN~1/ESEFRE~1/h\stdTaak.h **** 	UInt32 operator [] (const Teller index) const
  72:C:/Users/niels/DOCUME~1/ELEKTR~1/JAAR2~1/ECS/ECSL/software/STM32/STM32B~1/GEMEEN~1/ESEFRE~1/h\stdTaak.h **** 	{
  73:C:/Users/niels/DOCUME~1/ELEKTR~1/JAAR2~1/ECS/ECSL/software/STM32/STM32B~1/GEMEEN~1/ESEFRE~1/h\stdTaak.h **** 		assert(index < Grootte);
  74:C:/Users/niels/DOCUME~1/ELEKTR~1/JAAR2~1/ECS/ECSL/software/STM32/STM32B~1/GEMEEN~1/ESEFRE~1/h\stdTaak.h **** 		return(vracht[index]);
  75:C:/Users/niels/DOCUME~1/ELEKTR~1/JAAR2~1/ECS/ECSL/software/STM32/STM32B~1/GEMEEN~1/ESEFRE~1/h\stdTaak.h **** 	};
  76:C:/Users/niels/DOCUME~1/ELEKTR~1/JAAR2~1/ECS/ECSL/software/STM32/STM32B~1/GEMEEN~1/ESEFRE~1/h\stdTaak.h **** 
  77:C:/Users/niels/DOCUME~1/ELEKTR~1/JAAR2~1/ECS/ECSL/software/STM32/STM32B~1/GEMEEN~1/ESEFRE~1/h\stdTaak.h **** 	void zetVracht(const Teller index,const UInt32 waarde)
  78:C:/Users/niels/DOCUME~1/ELEKTR~1/JAAR2~1/ECS/ECSL/software/STM32/STM32B~1/GEMEEN~1/ESEFRE~1/h\stdTaak.h **** 	{
  79:C:/Users/niels/DOCUME~1/ELEKTR~1/JAAR2~1/ECS/ECSL/software/STM32/STM32B~1/GEMEEN~1/ESEFRE~1/h\stdTaak.h **** 		assert(index < Grootte);
  80:C:/Users/niels/DOCUME~1/ELEKTR~1/JAAR2~1/ECS/ECSL/software/STM32/STM32B~1/GEMEEN~1/ESEFRE~1/h\stdTaak.h **** 		vracht[index] = waarde;
  81:C:/Users/niels/DOCUME~1/ELEKTR~1/JAAR2~1/ECS/ECSL/software/STM32/STM32B~1/GEMEEN~1/ESEFRE~1/h\stdTaak.h **** 	};
  82:C:/Users/niels/DOCUME~1/ELEKTR~1/JAAR2~1/ECS/ECSL/software/STM32/STM32B~1/GEMEEN~1/ESEFRE~1/h\stdTaak.h **** 
  83:C:/Users/niels/DOCUME~1/ELEKTR~1/JAAR2~1/ECS/ECSL/software/STM32/STM32B~1/GEMEEN~1/ESEFRE~1/h\stdTaak.h **** 	MsgType geefType() const
  84:C:/Users/niels/DOCUME~1/ELEKTR~1/JAAR2~1/ECS/ECSL/software/STM32/STM32B~1/GEMEEN~1/ESEFRE~1/h\stdTaak.h **** 	{
  85:C:/Users/niels/DOCUME~1/ELEKTR~1/JAAR2~1/ECS/ECSL/software/STM32/STM32B~1/GEMEEN~1/ESEFRE~1/h\stdTaak.h **** 		return(type);
  86:C:/Users/niels/DOCUME~1/ELEKTR~1/JAAR2~1/ECS/ECSL/software/STM32/STM32B~1/GEMEEN~1/ESEFRE~1/h\stdTaak.h **** 	};
  87:C:/Users/niels/DOCUME~1/ELEKTR~1/JAAR2~1/ECS/ECSL/software/STM32/STM32B~1/GEMEEN~1/ESEFRE~1/h\stdTaak.h **** 
  88:C:/Users/niels/DOCUME~1/ELEKTR~1/JAAR2~1/ECS/ECSL/software/STM32/STM32B~1/GEMEEN~1/ESEFRE~1/h\stdTaak.h **** 	TaakPrio geefOntvanger() const
 965              	 .loc 4 88 11
 966              	 .cfi_startproc
 967              	 
 968              	 
 969              	 
 970 0000 80B4     	 push {r7}
 971              	 .cfi_def_cfa_offset 4
ARM GAS   			page 31


 972              	 .cfi_offset 7,-4
 973 0002 83B0     	 sub sp,sp,#12
 974              	 .cfi_def_cfa_offset 16
 975 0004 00AF     	 add r7,sp,#0
 976              	 .cfi_def_cfa_register 7
 977 0006 7860     	 str r0,[r7,#4]
  89:C:/Users/niels/DOCUME~1/ELEKTR~1/JAAR2~1/ECS/ECSL/software/STM32/STM32B~1/GEMEEN~1/ESEFRE~1/h\stdTaak.h **** 	{
  90:C:/Users/niels/DOCUME~1/ELEKTR~1/JAAR2~1/ECS/ECSL/software/STM32/STM32B~1/GEMEEN~1/ESEFRE~1/h\stdTaak.h **** 		return(ontvanger);
 978              	 .loc 4 90 19
 979 0008 7B68     	 ldr r3,[r7,#4]
 980 000a 5B68     	 ldr r3,[r3,#4]
  91:C:/Users/niels/DOCUME~1/ELEKTR~1/JAAR2~1/ECS/ECSL/software/STM32/STM32B~1/GEMEEN~1/ESEFRE~1/h\stdTaak.h **** 	};
 981              	 .loc 4 91 2
 982 000c 1846     	 mov r0,r3
 983 000e 0C37     	 adds r7,r7,#12
 984              	 .cfi_def_cfa_offset 4
 985 0010 BD46     	 mov sp,r7
 986              	 .cfi_def_cfa_register 13
 987              	 
 988 0012 5DF8047B 	 ldr r7,[sp],#4
 989              	 .cfi_restore 7
 990              	 .cfi_def_cfa_offset 0
 991 0016 7047     	 bx lr
 992              	 .cfi_endproc
 993              	.LFE1457:
 994              	 .size _ZNK10StdTaakMsgILj16EE13geefOntvangerEv,.-_ZNK10StdTaakMsgILj16EE13geefOntvangerEv
 995              	 .section .text._ZNK10StdTaakMsgILj16EE8geefTypeEv,"axG",%progbits,_ZNK10StdTaakMsgILj16EE8geefTypeEv,comdat
 996              	 .align 1
 997              	 .weak _ZNK10StdTaakMsgILj16EE8geefTypeEv
 998              	 .syntax unified
 999              	 .thumb
 1000              	 .thumb_func
 1001              	 .type _ZNK10StdTaakMsgILj16EE8geefTypeEv,%function
 1002              	_ZNK10StdTaakMsgILj16EE8geefTypeEv:
 1003              	.LFB1458:
  83:C:/Users/niels/DOCUME~1/ELEKTR~1/JAAR2~1/ECS/ECSL/software/STM32/STM32B~1/GEMEEN~1/ESEFRE~1/h\stdTaak.h **** 	{
 1004              	 .loc 4 83 10
 1005              	 .cfi_startproc
 1006              	 
 1007              	 
 1008              	 
 1009 0000 80B4     	 push {r7}
 1010              	 .cfi_def_cfa_offset 4
 1011              	 .cfi_offset 7,-4
 1012 0002 83B0     	 sub sp,sp,#12
 1013              	 .cfi_def_cfa_offset 16
 1014 0004 00AF     	 add r7,sp,#0
 1015              	 .cfi_def_cfa_register 7
 1016 0006 7860     	 str r0,[r7,#4]
  85:C:/Users/niels/DOCUME~1/ELEKTR~1/JAAR2~1/ECS/ECSL/software/STM32/STM32B~1/GEMEEN~1/ESEFRE~1/h\stdTaak.h **** 	};
 1017              	 .loc 4 85 14
 1018 0008 7B68     	 ldr r3,[r7,#4]
 1019 000a 9B68     	 ldr r3,[r3,#8]
  86:C:/Users/niels/DOCUME~1/ELEKTR~1/JAAR2~1/ECS/ECSL/software/STM32/STM32B~1/GEMEEN~1/ESEFRE~1/h\stdTaak.h **** 
 1020              	 .loc 4 86 2
 1021 000c 1846     	 mov r0,r3
 1022 000e 0C37     	 adds r7,r7,#12
ARM GAS   			page 32


 1023              	 .cfi_def_cfa_offset 4
 1024 0010 BD46     	 mov sp,r7
 1025              	 .cfi_def_cfa_register 13
 1026              	 
 1027 0012 5DF8047B 	 ldr r7,[sp],#4
 1028              	 .cfi_restore 7
 1029              	 .cfi_def_cfa_offset 0
 1030 0016 7047     	 bx lr
 1031              	 .cfi_endproc
 1032              	.LFE1458:
 1033              	 .size _ZNK10StdTaakMsgILj16EE8geefTypeEv,.-_ZNK10StdTaakMsgILj16EE8geefTypeEv
 1034              	 .section .text._ZNK10StdTaakMsgILj16EE10geefZenderEv,"axG",%progbits,_ZNK10StdTaakMsgILj16EE10geefZenderEv,comdat
 1035              	 .align 1
 1036              	 .weak _ZNK10StdTaakMsgILj16EE10geefZenderEv
 1037              	 .syntax unified
 1038              	 .thumb
 1039              	 .thumb_func
 1040              	 .type _ZNK10StdTaakMsgILj16EE10geefZenderEv,%function
 1041              	_ZNK10StdTaakMsgILj16EE10geefZenderEv:
 1042              	.LFB1459:
  92:C:/Users/niels/DOCUME~1/ELEKTR~1/JAAR2~1/ECS/ECSL/software/STM32/STM32B~1/GEMEEN~1/ESEFRE~1/h\stdTaak.h **** 
  93:C:/Users/niels/DOCUME~1/ELEKTR~1/JAAR2~1/ECS/ECSL/software/STM32/STM32B~1/GEMEEN~1/ESEFRE~1/h\stdTaak.h **** 	TaakPrio geefZender() const
 1043              	 .loc 4 93 11
 1044              	 .cfi_startproc
 1045              	 
 1046              	 
 1047              	 
 1048 0000 80B4     	 push {r7}
 1049              	 .cfi_def_cfa_offset 4
 1050              	 .cfi_offset 7,-4
 1051 0002 83B0     	 sub sp,sp,#12
 1052              	 .cfi_def_cfa_offset 16
 1053 0004 00AF     	 add r7,sp,#0
 1054              	 .cfi_def_cfa_register 7
 1055 0006 7860     	 str r0,[r7,#4]
  94:C:/Users/niels/DOCUME~1/ELEKTR~1/JAAR2~1/ECS/ECSL/software/STM32/STM32B~1/GEMEEN~1/ESEFRE~1/h\stdTaak.h **** 	{
  95:C:/Users/niels/DOCUME~1/ELEKTR~1/JAAR2~1/ECS/ECSL/software/STM32/STM32B~1/GEMEEN~1/ESEFRE~1/h\stdTaak.h **** 		return(zender);
 1056              	 .loc 4 95 16
 1057 0008 7B68     	 ldr r3,[r7,#4]
 1058 000a 1B68     	 ldr r3,[r3]
  96:C:/Users/niels/DOCUME~1/ELEKTR~1/JAAR2~1/ECS/ECSL/software/STM32/STM32B~1/GEMEEN~1/ESEFRE~1/h\stdTaak.h **** 	};
 1059              	 .loc 4 96 2
 1060 000c 1846     	 mov r0,r3
 1061 000e 0C37     	 adds r7,r7,#12
 1062              	 .cfi_def_cfa_offset 4
 1063 0010 BD46     	 mov sp,r7
 1064              	 .cfi_def_cfa_register 13
 1065              	 
 1066 0012 5DF8047B 	 ldr r7,[sp],#4
 1067              	 .cfi_restore 7
 1068              	 .cfi_def_cfa_offset 0
 1069 0016 7047     	 bx lr
 1070              	 .cfi_endproc
 1071              	.LFE1459:
 1072              	 .size _ZNK10StdTaakMsgILj16EE10geefZenderEv,.-_ZNK10StdTaakMsgILj16EE10geefZenderEv
 1073              	 .weak _ZTV7StdTaak
 1074              	 .section .rodata._ZTV7StdTaak,"aG",%progbits,_ZTV7StdTaak,comdat
ARM GAS   			page 33


 1075              	 .align 2
 1076              	 .type _ZTV7StdTaak,%object
 1077              	 .size _ZTV7StdTaak,20
 1078              	_ZTV7StdTaak:
 1079 0000 00000000 	 .word 0
 1080 0004 00000000 	 .word 0
 1081 0008 00000000 	 .word 0
 1082 000c 00000000 	 .word 0
 1083 0010 00000000 	 .word __cxa_pure_virtual
 1084              	 .text
 1085              	.Letext0:
 1086              	 .file 5 "c:\\progra~2\\gnuarm~1\\102021~1.10\\arm-none-eabi\\include\\machine\\_default_types.h"
 1087              	 .file 6 "c:\\progra~2\\gnuarm~1\\102021~1.10\\lib\\gcc\\arm-none-eabi\\10.3.1\\include\\stddef.h"
 1088              	 .file 7 "c:\\progra~2\\gnuarm~1\\102021~1.10\\lib\\gcc\\arm-none-eabi\\10.3.1\\include\\stdarg.h"
 1089              	 .file 8 "c:\\progra~2\\gnuarm~1\\102021~1.10\\arm-none-eabi\\include\\sys\\_types.h"
 1090              	 .file 9 "c:\\progra~2\\gnuarm~1\\102021~1.10\\arm-none-eabi\\include\\sys\\reent.h"
 1091              	 .file 10 "c:\\progra~2\\gnuarm~1\\102021~1.10\\arm-none-eabi\\include\\sys\\lock.h"
 1092              	 .file 11 "c:\\progra~2\\gnuarm~1\\102021~1.10\\arm-none-eabi\\include\\sys\\_stdint.h"
 1093              	 .file 12 "c:\\progra~2\\gnuarm~1\\102021~1.10\\arm-none-eabi\\include\\stdio.h"
 1094              	 .file 13 "c:\\progra~2\\gnuarm~1\\102021~1.10\\arm-none-eabi\\include\\stdint.h"
 1095              	 .file 14 "c:\\progra~2\\gnuarm~1\\102021~1.10\\arm-none-eabi\\include\\c++\\10.3.1\\bits\\basic_string.h"
 1096              	 .file 15 "c:\\progra~2\\gnuarm~1\\102021~1.10\\arm-none-eabi\\include\\c++\\10.3.1\\bits\\cpp_type_traits.h"
 1097              	 .file 16 "c:\\progra~2\\gnuarm~1\\102021~1.10\\arm-none-eabi\\include\\c++\\10.3.1\\cmath"
 1098              	 .file 17 "c:\\progra~2\\gnuarm~1\\102021~1.10\\arm-none-eabi\\include\\c++\\10.3.1\\bits\\std_abs.h"
 1099              	 .file 18 "c:\\progra~2\\gnuarm~1\\102021~1.10\\arm-none-eabi\\include\\c++\\10.3.1\\bits\\exception_ptr.h"
 1100              	 .file 19 "c:\\progra~2\\gnuarm~1\\102021~1.10\\arm-none-eabi\\include\\c++\\10.3.1\\arm-none-eabi\\thumb\\v7e-m+fp\\hard\\bits\\c++config.h"
 1101              	 .file 20 "c:\\progra~2\\gnuarm~1\\102021~1.10\\arm-none-eabi\\include\\c++\\10.3.1\\type_traits"
 1102              	 .file 21 "c:\\progra~2\\gnuarm~1\\102021~1.10\\arm-none-eabi\\include\\c++\\10.3.1\\bits\\stl_pair.h"
 1103              	 .file 22 "c:\\progra~2\\gnuarm~1\\102021~1.10\\arm-none-eabi\\include\\c++\\10.3.1\\debug\\debug.h"
 1104              	 .file 23 "c:\\progra~2\\gnuarm~1\\102021~1.10\\arm-none-eabi\\include\\c++\\10.3.1\\cwchar"
 1105              	 .file 24 "c:\\progra~2\\gnuarm~1\\102021~1.10\\arm-none-eabi\\include\\c++\\10.3.1\\bits\\char_traits.h"
 1106              	 .file 25 "c:\\progra~2\\gnuarm~1\\102021~1.10\\arm-none-eabi\\include\\c++\\10.3.1\\cstdint"
 1107              	 .file 26 "c:\\progra~2\\gnuarm~1\\102021~1.10\\arm-none-eabi\\include\\c++\\10.3.1\\bits\\allocator.h"
 1108              	 .file 27 "c:\\progra~2\\gnuarm~1\\102021~1.10\\arm-none-eabi\\include\\c++\\10.3.1\\clocale"
 1109              	 .file 28 "c:\\progra~2\\gnuarm~1\\102021~1.10\\arm-none-eabi\\include\\c++\\10.3.1\\cstdlib"
 1110              	 .file 29 "c:\\progra~2\\gnuarm~1\\102021~1.10\\arm-none-eabi\\include\\c++\\10.3.1\\cstdio"
 1111              	 .file 30 "c:\\progra~2\\gnuarm~1\\102021~1.10\\arm-none-eabi\\include\\c++\\10.3.1\\bits\\alloc_traits.h"
 1112              	 .file 31 "c:\\progra~2\\gnuarm~1\\102021~1.10\\arm-none-eabi\\include\\c++\\10.3.1\\initializer_list"
 1113              	 .file 32 "c:\\progra~2\\gnuarm~1\\102021~1.10\\arm-none-eabi\\include\\c++\\10.3.1\\bits\\stringfwd.h"
 1114              	 .file 33 "c:\\progra~2\\gnuarm~1\\102021~1.10\\arm-none-eabi\\include\\c++\\10.3.1\\bits\\stl_iterator_base_types.h"
 1115              	 .file 34 "<built-in>"
 1116              	 .file 35 "c:\\progra~2\\gnuarm~1\\102021~1.10\\arm-none-eabi\\include\\c++\\10.3.1\\bits\\predefined_ops.h"
 1117              	 .file 36 "c:\\progra~2\\gnuarm~1\\102021~1.10\\arm-none-eabi\\include\\c++\\10.3.1\\ext\\new_allocator.h"
 1118              	 .file 37 "c:\\progra~2\\gnuarm~1\\102021~1.10\\arm-none-eabi\\include\\c++\\10.3.1\\ext\\alloc_traits.h"
 1119              	 .file 38 "c:\\progra~2\\gnuarm~1\\102021~1.10\\arm-none-eabi\\include\\c++\\10.3.1\\bits\\stl_iterator.h"
 1120              	 .file 39 "c:\\progra~2\\gnuarm~1\\102021~1.10\\arm-none-eabi\\include\\math.h"
 1121              	 .file 40 "c:\\progra~2\\gnuarm~1\\102021~1.10\\arm-none-eabi\\include\\stdlib.h"
 1122              	 .file 41 "c:\\progra~2\\gnuarm~1\\102021~1.10\\arm-none-eabi\\include\\c++\\10.3.1\\math.h"
 1123              	 .file 42 "C:/Users/niels/DOCUME~1/ELEKTR~1/JAAR2~1/ECS/ECSL/software/algemeen/h/algdef.h"
 1124              	 .file 43 "c:\\progra~2\\gnuarm~1\\102021~1.10\\arm-none-eabi\\include\\wchar.h"
 1125              	 .file 44 "c:\\progra~2\\gnuarm~1\\102021~1.10\\arm-none-eabi\\include\\locale.h"
 1126              	 .file 45 "C:/Users/niels/DOCUME~1/ELEKTR~1/JAAR2~1/ECS/ECSL/software/STM32/STM32B~1/HAL/GEMEEN~1/THIRD_~1/FreeRTOS/Source/portable/GCC/ARM_CM4F/portmacro.h"
 1127              	 .file 46 "C:/Users/niels/DOCUME~1/ELEKTR~1/JAAR2~1/ECS/ECSL/software/STM32/STM32B~1/HAL/GEMEEN~1/THIRD_~1/FreeRTOS/Source/include/task.h"
 1128              	 .file 47 "C:/Users/niels/DOCUME~1/ELEKTR~1/JAAR2~1/ECS/ECSL/software/STM32/STM32B~1/HAL/GEMEEN~1/THIRD_~1/FREERT~1.0/C__~1/Source/include/mutex.hpp"
 1129              	 .file 48 "C:/Users/niels/DOCUME~1/ELEKTR~1/JAAR2~1/ECS/ECSL/software/STM32/STM32B~1/HAL/GEMEEN~1/THIRD_~1/FREERT~1.0/C__~1/Source/include/queue.hpp"