ARM GAS   			page 1


   1              	 .cpu cortex-m4
   2              	 .arch armv7e-m
   3              	 .fpu fpv4-sp-d16
   4              	 .eabi_attribute 27,1
   5              	 .eabi_attribute 28,1
   6              	 .eabi_attribute 20,1
   7              	 .eabi_attribute 21,1
   8              	 .eabi_attribute 23,3
   9              	 .eabi_attribute 24,1
  10              	 .eabi_attribute 25,1
  11              	 .eabi_attribute 26,1
  12              	 .eabi_attribute 30,6
  13              	 .eabi_attribute 34,0
  14              	 .eabi_attribute 18,4
  15              	 .file "DigProcesAansturing.cpp"
  16              	 .text
  17              	.Ltext0:
  18              	 .cfi_sections .debug_frame
  19              	 .section .rodata._ZL2PI,"a"
  20              	 .align 2
  21              	 .type _ZL2PI,%object
  22              	 .size _ZL2PI,4
  23              	_ZL2PI:
  24 0000 DB0F4940 	 .word 1078530011
  25              	 .section .rodata._ZL2CR,"a"
  26              	 .type _ZL2CR,%object
  27              	 .size _ZL2CR,1
  28              	_ZL2CR:
  29 0000 0D       	 .byte 13
  30              	 .section .rodata._ZL2LF,"a"
  31              	 .type _ZL2LF,%object
  32              	 .size _ZL2LF,1
  33              	_ZL2LF:
  34 0000 0A       	 .byte 10
  35              	 .section .rodata._ZL9BACKSPACE,"a"
  36              	 .type _ZL9BACKSPACE,%object
  37              	 .size _ZL9BACKSPACE,1
  38              	_ZL9BACKSPACE:
  39 0000 08       	 .byte 8
  40              	 .section .rodata._ZL5SPACE,"a"
  41              	 .type _ZL5SPACE,%object
  42              	 .size _ZL5SPACE,1
  43              	_ZL5SPACE:
  44 0000 20       	 .byte 32
  45              	 .section .rodata._ZL3ESC,"a"
  46              	 .type _ZL3ESC,%object
  47              	 .size _ZL3ESC,1
  48              	_ZL3ESC:
  49 0000 1B       	 .byte 27
  50              	 .section .rodata._ZL9cmdLengte,"a"
  51              	 .align 2
  52              	 .type _ZL9cmdLengte,%object
  53              	 .size _ZL9cmdLengte,4
  54              	_ZL9cmdLengte:
  55 0000 0E000000 	 .word 14
  56              	 .section .rodata._ZL27MaxOverdrachtFunktieGrootte,"a"
  57              	 .align 2
ARM GAS   			page 2


  58              	 .type _ZL27MaxOverdrachtFunktieGrootte,%object
  59              	 .size _ZL27MaxOverdrachtFunktieGrootte,4
  60              	_ZL27MaxOverdrachtFunktieGrootte:
  61 0000 00020000 	 .word 512
  62              	 .section .rodata._ZL19TotaalPakketGrootte,"a"
  63              	 .align 2
  64              	 .type _ZL19TotaalPakketGrootte,%object
  65              	 .size _ZL19TotaalPakketGrootte,4
  66              	_ZL19TotaalPakketGrootte:
  67 0000 0E020000 	 .word 526
  68              	 .section .text._ZN19DigProcesAansturing17zetProcesControleENS_14ProcesControleE,"ax",%progbits
  69              	 .align 1
  70              	 .global _ZN19DigProcesAansturing17zetProcesControleENS_14ProcesControleE
  71              	 .syntax unified
  72              	 .thumb
  73              	 .thumb_func
  74              	 .type _ZN19DigProcesAansturing17zetProcesControleENS_14ProcesControleE,%function
  75              	_ZN19DigProcesAansturing17zetProcesControleENS_14ProcesControleE:
  76              	.LFB262:
  77              	 .file 1 "C:\\Users\\niels\\Documents\\Elektrotechniek\\Jaar 2\\ECS\\ECSL\\software\\STM32\\STM32Basis\\HAL\\gemeenschappelijk\\Third_Party\\ESE_BSP\\DigProcesAansturing\\DigProcesAansturing.cpp"
   1:C:\Users\niels\Documents\Elektrotechniek\Jaar 2\ECS\ECSL\software\STM32\STM32Basis\HAL\gemeenschappelijk\Third_Party\ESE_BSP\DigProcesAansturing\DigProcesAansturing.cpp **** 
   2:C:\Users\niels\Documents\Elektrotechniek\Jaar 2\ECS\ECSL\software\STM32\STM32Basis\HAL\gemeenschappelijk\Third_Party\ESE_BSP\DigProcesAansturing\DigProcesAansturing.cpp **** /*!
   3:C:\Users\niels\Documents\Elektrotechniek\Jaar 2\ECS\ECSL\software\STM32\STM32Basis\HAL\gemeenschappelijk\Third_Party\ESE_BSP\DigProcesAansturing\DigProcesAansturing.cpp ****   @file
   4:C:\Users\niels\Documents\Elektrotechniek\Jaar 2\ECS\ECSL\software\STM32\STM32Basis\HAL\gemeenschappelijk\Third_Party\ESE_BSP\DigProcesAansturing\DigProcesAansturing.cpp ****   Implementatie om de Digitale Proces Processor aan te sturen
   5:C:\Users\niels\Documents\Elektrotechniek\Jaar 2\ECS\ECSL\software\STM32\STM32Basis\HAL\gemeenschappelijk\Third_Party\ESE_BSP\DigProcesAansturing\DigProcesAansturing.cpp **** 
   6:C:\Users\niels\Documents\Elektrotechniek\Jaar 2\ECS\ECSL\software\STM32\STM32Basis\HAL\gemeenschappelijk\Third_Party\ESE_BSP\DigProcesAansturing\DigProcesAansturing.cpp ****   @version $Rev: 3445 $
   7:C:\Users\niels\Documents\Elektrotechniek\Jaar 2\ECS\ECSL\software\STM32\STM32Basis\HAL\gemeenschappelijk\Third_Party\ESE_BSP\DigProcesAansturing\DigProcesAansturing.cpp ****   @author $Author: ewout $
   8:C:\Users\niels\Documents\Elektrotechniek\Jaar 2\ECS\ECSL\software\STM32\STM32Basis\HAL\gemeenschappelijk\Third_Party\ESE_BSP\DigProcesAansturing\DigProcesAansturing.cpp **** 
   9:C:\Users\niels\Documents\Elektrotechniek\Jaar 2\ECS\ECSL\software\STM32\STM32Basis\HAL\gemeenschappelijk\Third_Party\ESE_BSP\DigProcesAansturing\DigProcesAansturing.cpp ****   @copyright Copyright 2002-2017 HAN Embedded Systems Engineering
  10:C:\Users\niels\Documents\Elektrotechniek\Jaar 2\ECS\ECSL\software\STM32\STM32Basis\HAL\gemeenschappelijk\Third_Party\ESE_BSP\DigProcesAansturing\DigProcesAansturing.cpp **** 
  11:C:\Users\niels\Documents\Elektrotechniek\Jaar 2\ECS\ECSL\software\STM32\STM32Basis\HAL\gemeenschappelijk\Third_Party\ESE_BSP\DigProcesAansturing\DigProcesAansturing.cpp ****   $Id: DigProcesAansturing.cpp 3445 2019-03-14 16:19:08Z ewout $
  12:C:\Users\niels\Documents\Elektrotechniek\Jaar 2\ECS\ECSL\software\STM32\STM32Basis\HAL\gemeenschappelijk\Third_Party\ESE_BSP\DigProcesAansturing\DigProcesAansturing.cpp **** ************************************************************************/
  13:C:\Users\niels\Documents\Elektrotechniek\Jaar 2\ECS\ECSL\software\STM32\STM32Basis\HAL\gemeenschappelijk\Third_Party\ESE_BSP\DigProcesAansturing\DigProcesAansturing.cpp **** 
  14:C:\Users\niels\Documents\Elektrotechniek\Jaar 2\ECS\ECSL\software\STM32\STM32Basis\HAL\gemeenschappelijk\Third_Party\ESE_BSP\DigProcesAansturing\DigProcesAansturing.cpp **** #include <DigProcesAansturing.h>
  15:C:\Users\niels\Documents\Elektrotechniek\Jaar 2\ECS\ECSL\software\STM32\STM32Basis\HAL\gemeenschappelijk\Third_Party\ESE_BSP\DigProcesAansturing\DigProcesAansturing.cpp **** 
  16:C:\Users\niels\Documents\Elektrotechniek\Jaar 2\ECS\ECSL\software\STM32\STM32Basis\HAL\gemeenschappelijk\Third_Party\ESE_BSP\DigProcesAansturing\DigProcesAansturing.cpp **** void DigProcesAansturing::zetProcesControle(const DigProcesAansturing::ProcesControle controle)
  17:C:\Users\niels\Documents\Elektrotechniek\Jaar 2\ECS\ECSL\software\STM32\STM32Basis\HAL\gemeenschappelijk\Third_Party\ESE_BSP\DigProcesAansturing\DigProcesAansturing.cpp **** {
  78              	 .loc 1 17 1
  79              	 .cfi_startproc
  80              	 
  81              	 
  82 0000 80B5     	 push {r7,lr}
  83              	 .cfi_def_cfa_offset 8
  84              	 .cfi_offset 7,-8
  85              	 .cfi_offset 14,-4
  86 0002 82B0     	 sub sp,sp,#8
  87              	 .cfi_def_cfa_offset 16
  88 0004 00AF     	 add r7,sp,#0
  89              	 .cfi_def_cfa_register 7
  90 0006 7860     	 str r0,[r7,#4]
  91 0008 0B46     	 mov r3,r1
  92 000a FB70     	 strb r3,[r7,#3]
  18:C:\Users\niels\Documents\Elektrotechniek\Jaar 2\ECS\ECSL\software\STM32\STM32Basis\HAL\gemeenschappelijk\Third_Party\ESE_BSP\DigProcesAansturing\DigProcesAansturing.cpp **** 	this->operator [] (1) = static_cast<UInt8>(controle);
  93              	 .loc 1 18 22
  94 000c 7B68     	 ldr r3,[r7,#4]
  95 000e 0121     	 movs r1,#1
  96 0010 1846     	 mov r0,r3
ARM GAS   			page 3


  97 0012 FFF7FEFF 	 bl _ZNK10DataPakketIhEixEm
  98 0016 0246     	 mov r2,r0
  99              	 .loc 1 18 24
 100 0018 FB78     	 ldrb r3,[r7,#3]
 101 001a 1370     	 strb r3,[r2]
  19:C:\Users\niels\Documents\Elektrotechniek\Jaar 2\ECS\ECSL\software\STM32\STM32Basis\HAL\gemeenschappelijk\Third_Party\ESE_BSP\DigProcesAansturing\DigProcesAansturing.cpp **** }
 102              	 .loc 1 19 1
 103 001c 00BF     	 nop
 104 001e 0837     	 adds r7,r7,#8
 105              	 .cfi_def_cfa_offset 8
 106 0020 BD46     	 mov sp,r7
 107              	 .cfi_def_cfa_register 13
 108              	 
 109 0022 80BD     	 pop {r7,pc}
 110              	 .cfi_endproc
 111              	.LFE262:
 112              	 .size _ZN19DigProcesAansturing17zetProcesControleENS_14ProcesControleE,.-_ZN19DigProcesAansturing17zetProcesControleENS_14ProcesControleE
 113              	 .section .text._ZN19DigProcesAansturing13zetProcesTypeENS_10ProcesTypeE,"ax",%progbits
 114              	 .align 1
 115              	 .global _ZN19DigProcesAansturing13zetProcesTypeENS_10ProcesTypeE
 116              	 .syntax unified
 117              	 .thumb
 118              	 .thumb_func
 119              	 .type _ZN19DigProcesAansturing13zetProcesTypeENS_10ProcesTypeE,%function
 120              	_ZN19DigProcesAansturing13zetProcesTypeENS_10ProcesTypeE:
 121              	.LFB263:
  20:C:\Users\niels\Documents\Elektrotechniek\Jaar 2\ECS\ECSL\software\STM32\STM32Basis\HAL\gemeenschappelijk\Third_Party\ESE_BSP\DigProcesAansturing\DigProcesAansturing.cpp **** 
  21:C:\Users\niels\Documents\Elektrotechniek\Jaar 2\ECS\ECSL\software\STM32\STM32Basis\HAL\gemeenschappelijk\Third_Party\ESE_BSP\DigProcesAansturing\DigProcesAansturing.cpp **** void DigProcesAansturing::zetProcesType(const DigProcesAansturing::ProcesType type)
  22:C:\Users\niels\Documents\Elektrotechniek\Jaar 2\ECS\ECSL\software\STM32\STM32Basis\HAL\gemeenschappelijk\Third_Party\ESE_BSP\DigProcesAansturing\DigProcesAansturing.cpp **** {
 122              	 .loc 1 22 1
 123              	 .cfi_startproc
 124              	 
 125              	 
 126 0000 80B5     	 push {r7,lr}
 127              	 .cfi_def_cfa_offset 8
 128              	 .cfi_offset 7,-8
 129              	 .cfi_offset 14,-4
 130 0002 82B0     	 sub sp,sp,#8
 131              	 .cfi_def_cfa_offset 16
 132 0004 00AF     	 add r7,sp,#0
 133              	 .cfi_def_cfa_register 7
 134 0006 7860     	 str r0,[r7,#4]
 135 0008 0B46     	 mov r3,r1
 136 000a FB70     	 strb r3,[r7,#3]
  23:C:\Users\niels\Documents\Elektrotechniek\Jaar 2\ECS\ECSL\software\STM32\STM32Basis\HAL\gemeenschappelijk\Third_Party\ESE_BSP\DigProcesAansturing\DigProcesAansturing.cpp **** 	this->operator [] (1) = static_cast<UInt8>(type);
 137              	 .loc 1 23 22
 138 000c 7B68     	 ldr r3,[r7,#4]
 139 000e 0121     	 movs r1,#1
 140 0010 1846     	 mov r0,r3
 141 0012 FFF7FEFF 	 bl _ZNK10DataPakketIhEixEm
 142 0016 0246     	 mov r2,r0
 143              	 .loc 1 23 24
 144 0018 FB78     	 ldrb r3,[r7,#3]
 145 001a 1370     	 strb r3,[r2]
  24:C:\Users\niels\Documents\Elektrotechniek\Jaar 2\ECS\ECSL\software\STM32\STM32Basis\HAL\gemeenschappelijk\Third_Party\ESE_BSP\DigProcesAansturing\DigProcesAansturing.cpp **** }
 146              	 .loc 1 24 1
 147 001c 00BF     	 nop
ARM GAS   			page 4


 148 001e 0837     	 adds r7,r7,#8
 149              	 .cfi_def_cfa_offset 8
 150 0020 BD46     	 mov sp,r7
 151              	 .cfi_def_cfa_register 13
 152              	 
 153 0022 80BD     	 pop {r7,pc}
 154              	 .cfi_endproc
 155              	.LFE263:
 156              	 .size _ZN19DigProcesAansturing13zetProcesTypeENS_10ProcesTypeE,.-_ZN19DigProcesAansturing13zetProcesTypeENS_10ProcesTypeE
 157              	 .section .text._ZN19DigProcesAansturing11zetKommandoENS_9ProcesCmdE,"ax",%progbits
 158              	 .align 1
 159              	 .global _ZN19DigProcesAansturing11zetKommandoENS_9ProcesCmdE
 160              	 .syntax unified
 161              	 .thumb
 162              	 .thumb_func
 163              	 .type _ZN19DigProcesAansturing11zetKommandoENS_9ProcesCmdE,%function
 164              	_ZN19DigProcesAansturing11zetKommandoENS_9ProcesCmdE:
 165              	.LFB264:
  25:C:\Users\niels\Documents\Elektrotechniek\Jaar 2\ECS\ECSL\software\STM32\STM32Basis\HAL\gemeenschappelijk\Third_Party\ESE_BSP\DigProcesAansturing\DigProcesAansturing.cpp **** 
  26:C:\Users\niels\Documents\Elektrotechniek\Jaar 2\ECS\ECSL\software\STM32\STM32Basis\HAL\gemeenschappelijk\Third_Party\ESE_BSP\DigProcesAansturing\DigProcesAansturing.cpp **** void DigProcesAansturing::zetKommando(const DigProcesAansturing::ProcesCmd cmd)
  27:C:\Users\niels\Documents\Elektrotechniek\Jaar 2\ECS\ECSL\software\STM32\STM32Basis\HAL\gemeenschappelijk\Third_Party\ESE_BSP\DigProcesAansturing\DigProcesAansturing.cpp **** {
 166              	 .loc 1 27 1
 167              	 .cfi_startproc
 168              	 
 169              	 
 170 0000 80B5     	 push {r7,lr}
 171              	 .cfi_def_cfa_offset 8
 172              	 .cfi_offset 7,-8
 173              	 .cfi_offset 14,-4
 174 0002 82B0     	 sub sp,sp,#8
 175              	 .cfi_def_cfa_offset 16
 176 0004 00AF     	 add r7,sp,#0
 177              	 .cfi_def_cfa_register 7
 178 0006 7860     	 str r0,[r7,#4]
 179 0008 0B46     	 mov r3,r1
 180 000a FB70     	 strb r3,[r7,#3]
  28:C:\Users\niels\Documents\Elektrotechniek\Jaar 2\ECS\ECSL\software\STM32\STM32Basis\HAL\gemeenschappelijk\Third_Party\ESE_BSP\DigProcesAansturing\DigProcesAansturing.cpp **** 	this->operator [] (0) = static_cast<UInt8>(cmd);
 181              	 .loc 1 28 22
 182 000c 7B68     	 ldr r3,[r7,#4]
 183 000e 0021     	 movs r1,#0
 184 0010 1846     	 mov r0,r3
 185 0012 FFF7FEFF 	 bl _ZNK10DataPakketIhEixEm
 186 0016 0246     	 mov r2,r0
 187              	 .loc 1 28 24
 188 0018 FB78     	 ldrb r3,[r7,#3]
 189 001a 1370     	 strb r3,[r2]
  29:C:\Users\niels\Documents\Elektrotechniek\Jaar 2\ECS\ECSL\software\STM32\STM32Basis\HAL\gemeenschappelijk\Third_Party\ESE_BSP\DigProcesAansturing\DigProcesAansturing.cpp **** }
 190              	 .loc 1 29 1
 191 001c 00BF     	 nop
 192 001e 0837     	 adds r7,r7,#8
 193              	 .cfi_def_cfa_offset 8
 194 0020 BD46     	 mov sp,r7
 195              	 .cfi_def_cfa_register 13
 196              	 
 197 0022 80BD     	 pop {r7,pc}
 198              	 .cfi_endproc
 199              	.LFE264:
ARM GAS   			page 5


 200              	 .size _ZN19DigProcesAansturing11zetKommandoENS_9ProcesCmdE,.-_ZN19DigProcesAansturing11zetKommandoENS_9ProcesCmdE
 201              	 .section .text._ZN19DigProcesAansturing11zetSampFreqEm,"ax",%progbits
 202              	 .align 1
 203              	 .global _ZN19DigProcesAansturing11zetSampFreqEm
 204              	 .syntax unified
 205              	 .thumb
 206              	 .thumb_func
 207              	 .type _ZN19DigProcesAansturing11zetSampFreqEm,%function
 208              	_ZN19DigProcesAansturing11zetSampFreqEm:
 209              	.LFB265:
  30:C:\Users\niels\Documents\Elektrotechniek\Jaar 2\ECS\ECSL\software\STM32\STM32Basis\HAL\gemeenschappelijk\Third_Party\ESE_BSP\DigProcesAansturing\DigProcesAansturing.cpp **** 
  31:C:\Users\niels\Documents\Elektrotechniek\Jaar 2\ECS\ECSL\software\STM32\STM32Basis\HAL\gemeenschappelijk\Third_Party\ESE_BSP\DigProcesAansturing\DigProcesAansturing.cpp **** void DigProcesAansturing::zetSampFreq(const UInt32 freq)
  32:C:\Users\niels\Documents\Elektrotechniek\Jaar 2\ECS\ECSL\software\STM32\STM32Basis\HAL\gemeenschappelijk\Third_Party\ESE_BSP\DigProcesAansturing\DigProcesAansturing.cpp **** {
 210              	 .loc 1 32 1
 211              	 .cfi_startproc
 212              	 
 213              	 
 214 0000 80B5     	 push {r7,lr}
 215              	 .cfi_def_cfa_offset 8
 216              	 .cfi_offset 7,-8
 217              	 .cfi_offset 14,-4
 218 0002 84B0     	 sub sp,sp,#16
 219              	 .cfi_def_cfa_offset 24
 220 0004 00AF     	 add r7,sp,#0
 221              	 .cfi_def_cfa_register 7
 222 0006 7860     	 str r0,[r7,#4]
 223 0008 3960     	 str r1,[r7]
  33:C:\Users\niels\Documents\Elektrotechniek\Jaar 2\ECS\ECSL\software\STM32\STM32Basis\HAL\gemeenschappelijk\Third_Party\ESE_BSP\DigProcesAansturing\DigProcesAansturing.cpp **** 	zetKommando(ProcesCmd::ZetSampFreq);
 224              	 .loc 1 33 13
 225 000a 0221     	 movs r1,#2
 226 000c 7868     	 ldr r0,[r7,#4]
 227 000e FFF7FEFF 	 bl _ZN19DigProcesAansturing11zetKommandoENS_9ProcesCmdE
  34:C:\Users\niels\Documents\Elektrotechniek\Jaar 2\ECS\ECSL\software\STM32\STM32Basis\HAL\gemeenschappelijk\Third_Party\ESE_BSP\DigProcesAansturing\DigProcesAansturing.cpp **** 
  35:C:\Users\niels\Documents\Elektrotechniek\Jaar 2\ECS\ECSL\software\STM32\STM32Basis\HAL\gemeenschappelijk\Third_Party\ESE_BSP\DigProcesAansturing\DigProcesAansturing.cpp **** 	/* kopieer de parameter naar de array */
  36:C:\Users\niels\Documents\Elektrotechniek\Jaar 2\ECS\ECSL\software\STM32\STM32Basis\HAL\gemeenschappelijk\Third_Party\ESE_BSP\DigProcesAansturing\DigProcesAansturing.cpp **** 	UInt8 * const dstPtr = &(this->operator [] (1));
 228              	 .loc 1 36 47
 229 0012 7B68     	 ldr r3,[r7,#4]
 230 0014 0121     	 movs r1,#1
 231 0016 1846     	 mov r0,r3
 232 0018 FFF7FEFF 	 bl _ZNK10DataPakketIhEixEm
 233 001c F860     	 str r0,[r7,#12]
  37:C:\Users\niels\Documents\Elektrotechniek\Jaar 2\ECS\ECSL\software\STM32\STM32Basis\HAL\gemeenschappelijk\Third_Party\ESE_BSP\DigProcesAansturing\DigProcesAansturing.cpp **** 	memcpy(dstPtr, reinterpret_cast<UInt8 *>(const_cast<UInt32 *>(&freq)),sizeof(UInt32));
 234              	 .loc 1 37 8
 235 001e 3B46     	 mov r3,r7
 236 0020 0422     	 movs r2,#4
 237 0022 1946     	 mov r1,r3
 238 0024 F868     	 ldr r0,[r7,#12]
 239 0026 FFF7FEFF 	 bl memcpy
  38:C:\Users\niels\Documents\Elektrotechniek\Jaar 2\ECS\ECSL\software\STM32\STM32Basis\HAL\gemeenschappelijk\Third_Party\ESE_BSP\DigProcesAansturing\DigProcesAansturing.cpp **** }
 240              	 .loc 1 38 1
 241 002a 00BF     	 nop
 242 002c 1037     	 adds r7,r7,#16
 243              	 .cfi_def_cfa_offset 8
 244 002e BD46     	 mov sp,r7
 245              	 .cfi_def_cfa_register 13
 246              	 
 247 0030 80BD     	 pop {r7,pc}
ARM GAS   			page 6


 248              	 .cfi_endproc
 249              	.LFE265:
 250              	 .size _ZN19DigProcesAansturing11zetSampFreqEm,.-_ZN19DigProcesAansturing11zetSampFreqEm
 251              	 .section .text._ZN19DigProcesAansturing18zetNuldeOrdeParamsEf,"ax",%progbits
 252              	 .align 1
 253              	 .global _ZN19DigProcesAansturing18zetNuldeOrdeParamsEf
 254              	 .syntax unified
 255              	 .thumb
 256              	 .thumb_func
 257              	 .type _ZN19DigProcesAansturing18zetNuldeOrdeParamsEf,%function
 258              	_ZN19DigProcesAansturing18zetNuldeOrdeParamsEf:
 259              	.LFB266:
  39:C:\Users\niels\Documents\Elektrotechniek\Jaar 2\ECS\ECSL\software\STM32\STM32Basis\HAL\gemeenschappelijk\Third_Party\ESE_BSP\DigProcesAansturing\DigProcesAansturing.cpp **** 
  40:C:\Users\niels\Documents\Elektrotechniek\Jaar 2\ECS\ECSL\software\STM32\STM32Basis\HAL\gemeenschappelijk\Third_Party\ESE_BSP\DigProcesAansturing\DigProcesAansturing.cpp **** void DigProcesAansturing::zetNuldeOrdeParams(const float param)
  41:C:\Users\niels\Documents\Elektrotechniek\Jaar 2\ECS\ECSL\software\STM32\STM32Basis\HAL\gemeenschappelijk\Third_Party\ESE_BSP\DigProcesAansturing\DigProcesAansturing.cpp **** {
 260              	 .loc 1 41 1
 261              	 .cfi_startproc
 262              	 
 263              	 
 264 0000 80B5     	 push {r7,lr}
 265              	 .cfi_def_cfa_offset 8
 266              	 .cfi_offset 7,-8
 267              	 .cfi_offset 14,-4
 268 0002 84B0     	 sub sp,sp,#16
 269              	 .cfi_def_cfa_offset 24
 270 0004 00AF     	 add r7,sp,#0
 271              	 .cfi_def_cfa_register 7
 272 0006 7860     	 str r0,[r7,#4]
 273 0008 87ED000A 	 vstr.32 s0,[r7]
  42:C:\Users\niels\Documents\Elektrotechniek\Jaar 2\ECS\ECSL\software\STM32\STM32Basis\HAL\gemeenschappelijk\Third_Party\ESE_BSP\DigProcesAansturing\DigProcesAansturing.cpp **** 	zetKommando(ProcesCmd::ZetNuldeOrdeParams);
 274              	 .loc 1 42 13
 275 000c 0321     	 movs r1,#3
 276 000e 7868     	 ldr r0,[r7,#4]
 277 0010 FFF7FEFF 	 bl _ZN19DigProcesAansturing11zetKommandoENS_9ProcesCmdE
  43:C:\Users\niels\Documents\Elektrotechniek\Jaar 2\ECS\ECSL\software\STM32\STM32Basis\HAL\gemeenschappelijk\Third_Party\ESE_BSP\DigProcesAansturing\DigProcesAansturing.cpp **** 
  44:C:\Users\niels\Documents\Elektrotechniek\Jaar 2\ECS\ECSL\software\STM32\STM32Basis\HAL\gemeenschappelijk\Third_Party\ESE_BSP\DigProcesAansturing\DigProcesAansturing.cpp **** 	/* kopieer de parameter naar de array */
  45:C:\Users\niels\Documents\Elektrotechniek\Jaar 2\ECS\ECSL\software\STM32\STM32Basis\HAL\gemeenschappelijk\Third_Party\ESE_BSP\DigProcesAansturing\DigProcesAansturing.cpp **** 	UInt8 * const dstPtr = &(this->operator [] (1));
 278              	 .loc 1 45 47
 279 0014 7B68     	 ldr r3,[r7,#4]
 280 0016 0121     	 movs r1,#1
 281 0018 1846     	 mov r0,r3
 282 001a FFF7FEFF 	 bl _ZNK10DataPakketIhEixEm
 283 001e F860     	 str r0,[r7,#12]
  46:C:\Users\niels\Documents\Elektrotechniek\Jaar 2\ECS\ECSL\software\STM32\STM32Basis\HAL\gemeenschappelijk\Third_Party\ESE_BSP\DigProcesAansturing\DigProcesAansturing.cpp **** 	memcpy(dstPtr, reinterpret_cast<UInt8 *>(const_cast<float *>(&param)),sizeof(float));
 284              	 .loc 1 46 8
 285 0020 3B46     	 mov r3,r7
 286 0022 0422     	 movs r2,#4
 287 0024 1946     	 mov r1,r3
 288 0026 F868     	 ldr r0,[r7,#12]
 289 0028 FFF7FEFF 	 bl memcpy
  47:C:\Users\niels\Documents\Elektrotechniek\Jaar 2\ECS\ECSL\software\STM32\STM32Basis\HAL\gemeenschappelijk\Third_Party\ESE_BSP\DigProcesAansturing\DigProcesAansturing.cpp **** }
 290              	 .loc 1 47 1
 291 002c 00BF     	 nop
 292 002e 1037     	 adds r7,r7,#16
 293              	 .cfi_def_cfa_offset 8
 294 0030 BD46     	 mov sp,r7
 295              	 .cfi_def_cfa_register 13
ARM GAS   			page 7


 296              	 
 297 0032 80BD     	 pop {r7,pc}
 298              	 .cfi_endproc
 299              	.LFE266:
 300              	 .size _ZN19DigProcesAansturing18zetNuldeOrdeParamsEf,.-_ZN19DigProcesAansturing18zetNuldeOrdeParamsEf
 301              	 .section .text._ZN19DigProcesAansturing19zetEersteOrdeParamsEff,"ax",%progbits
 302              	 .align 1
 303              	 .global _ZN19DigProcesAansturing19zetEersteOrdeParamsEff
 304              	 .syntax unified
 305              	 .thumb
 306              	 .thumb_func
 307              	 .type _ZN19DigProcesAansturing19zetEersteOrdeParamsEff,%function
 308              	_ZN19DigProcesAansturing19zetEersteOrdeParamsEff:
 309              	.LFB267:
  48:C:\Users\niels\Documents\Elektrotechniek\Jaar 2\ECS\ECSL\software\STM32\STM32Basis\HAL\gemeenschappelijk\Third_Party\ESE_BSP\DigProcesAansturing\DigProcesAansturing.cpp **** 
  49:C:\Users\niels\Documents\Elektrotechniek\Jaar 2\ECS\ECSL\software\STM32\STM32Basis\HAL\gemeenschappelijk\Third_Party\ESE_BSP\DigProcesAansturing\DigProcesAansturing.cpp **** void DigProcesAansturing::zetEersteOrdeParams(const float kpparam, const float tauparam)
  50:C:\Users\niels\Documents\Elektrotechniek\Jaar 2\ECS\ECSL\software\STM32\STM32Basis\HAL\gemeenschappelijk\Third_Party\ESE_BSP\DigProcesAansturing\DigProcesAansturing.cpp **** {
 310              	 .loc 1 50 1
 311              	 .cfi_startproc
 312              	 
 313              	 
 314 0000 80B5     	 push {r7,lr}
 315              	 .cfi_def_cfa_offset 8
 316              	 .cfi_offset 7,-8
 317              	 .cfi_offset 14,-4
 318 0002 86B0     	 sub sp,sp,#24
 319              	 .cfi_def_cfa_offset 32
 320 0004 00AF     	 add r7,sp,#0
 321              	 .cfi_def_cfa_register 7
 322 0006 F860     	 str r0,[r7,#12]
 323 0008 87ED020A 	 vstr.32 s0,[r7,#8]
 324 000c C7ED010A 	 vstr.32 s1,[r7,#4]
  51:C:\Users\niels\Documents\Elektrotechniek\Jaar 2\ECS\ECSL\software\STM32\STM32Basis\HAL\gemeenschappelijk\Third_Party\ESE_BSP\DigProcesAansturing\DigProcesAansturing.cpp **** 	zetKommando(ProcesCmd::ZetEersteOrdeParams);
 325              	 .loc 1 51 13
 326 0010 0421     	 movs r1,#4
 327 0012 F868     	 ldr r0,[r7,#12]
 328 0014 FFF7FEFF 	 bl _ZN19DigProcesAansturing11zetKommandoENS_9ProcesCmdE
  52:C:\Users\niels\Documents\Elektrotechniek\Jaar 2\ECS\ECSL\software\STM32\STM32Basis\HAL\gemeenschappelijk\Third_Party\ESE_BSP\DigProcesAansturing\DigProcesAansturing.cpp **** 
  53:C:\Users\niels\Documents\Elektrotechniek\Jaar 2\ECS\ECSL\software\STM32\STM32Basis\HAL\gemeenschappelijk\Third_Party\ESE_BSP\DigProcesAansturing\DigProcesAansturing.cpp **** 	/* kopieer de paramaters naar de array */
  54:C:\Users\niels\Documents\Elektrotechniek\Jaar 2\ECS\ECSL\software\STM32\STM32Basis\HAL\gemeenschappelijk\Third_Party\ESE_BSP\DigProcesAansturing\DigProcesAansturing.cpp **** 	UInt8 *dstPtr = &(this->operator [] (1));
 329              	 .loc 1 54 40
 330 0018 FB68     	 ldr r3,[r7,#12]
 331 001a 0121     	 movs r1,#1
 332 001c 1846     	 mov r0,r3
 333 001e FFF7FEFF 	 bl _ZNK10DataPakketIhEixEm
 334 0022 7861     	 str r0,[r7,#20]
  55:C:\Users\niels\Documents\Elektrotechniek\Jaar 2\ECS\ECSL\software\STM32\STM32Basis\HAL\gemeenschappelijk\Third_Party\ESE_BSP\DigProcesAansturing\DigProcesAansturing.cpp **** 	memcpy(dstPtr, reinterpret_cast<UInt8 *>(const_cast<float *>(&kpparam)),sizeof(float));
 335              	 .loc 1 55 8
 336 0024 07F10803 	 add r3,r7,#8
 337 0028 0422     	 movs r2,#4
 338 002a 1946     	 mov r1,r3
 339 002c 7869     	 ldr r0,[r7,#20]
 340 002e FFF7FEFF 	 bl memcpy
  56:C:\Users\niels\Documents\Elektrotechniek\Jaar 2\ECS\ECSL\software\STM32\STM32Basis\HAL\gemeenschappelijk\Third_Party\ESE_BSP\DigProcesAansturing\DigProcesAansturing.cpp **** 	dstPtr += sizeof(float);
 341              	 .loc 1 56 9
 342 0032 7B69     	 ldr r3,[r7,#20]
 343 0034 0433     	 adds r3,r3,#4
ARM GAS   			page 8


 344 0036 7B61     	 str r3,[r7,#20]
  57:C:\Users\niels\Documents\Elektrotechniek\Jaar 2\ECS\ECSL\software\STM32\STM32Basis\HAL\gemeenschappelijk\Third_Party\ESE_BSP\DigProcesAansturing\DigProcesAansturing.cpp **** 	memcpy(dstPtr, reinterpret_cast<UInt8 *>(const_cast<float *>(&tauparam)),sizeof(float));
 345              	 .loc 1 57 8
 346 0038 3B1D     	 adds r3,r7,#4
 347 003a 0422     	 movs r2,#4
 348 003c 1946     	 mov r1,r3
 349 003e 7869     	 ldr r0,[r7,#20]
 350 0040 FFF7FEFF 	 bl memcpy
  58:C:\Users\niels\Documents\Elektrotechniek\Jaar 2\ECS\ECSL\software\STM32\STM32Basis\HAL\gemeenschappelijk\Third_Party\ESE_BSP\DigProcesAansturing\DigProcesAansturing.cpp **** }
 351              	 .loc 1 58 1
 352 0044 00BF     	 nop
 353 0046 1837     	 adds r7,r7,#24
 354              	 .cfi_def_cfa_offset 8
 355 0048 BD46     	 mov sp,r7
 356              	 .cfi_def_cfa_register 13
 357              	 
 358 004a 80BD     	 pop {r7,pc}
 359              	 .cfi_endproc
 360              	.LFE267:
 361              	 .size _ZN19DigProcesAansturing19zetEersteOrdeParamsEff,.-_ZN19DigProcesAansturing19zetEersteOrdeParamsEff
 362              	 .section .text._ZN19DigProcesAansturing19zetTweedeOrdeParamsEfff,"ax",%progbits
 363              	 .align 1
 364              	 .global _ZN19DigProcesAansturing19zetTweedeOrdeParamsEfff
 365              	 .syntax unified
 366              	 .thumb
 367              	 .thumb_func
 368              	 .type _ZN19DigProcesAansturing19zetTweedeOrdeParamsEfff,%function
 369              	_ZN19DigProcesAansturing19zetTweedeOrdeParamsEfff:
 370              	.LFB268:
  59:C:\Users\niels\Documents\Elektrotechniek\Jaar 2\ECS\ECSL\software\STM32\STM32Basis\HAL\gemeenschappelijk\Third_Party\ESE_BSP\DigProcesAansturing\DigProcesAansturing.cpp **** 
  60:C:\Users\niels\Documents\Elektrotechniek\Jaar 2\ECS\ECSL\software\STM32\STM32Basis\HAL\gemeenschappelijk\Third_Party\ESE_BSP\DigProcesAansturing\DigProcesAansturing.cpp **** void DigProcesAansturing::zetTweedeOrdeParams(const float kpparam, const float omega0param, const f
  61:C:\Users\niels\Documents\Elektrotechniek\Jaar 2\ECS\ECSL\software\STM32\STM32Basis\HAL\gemeenschappelijk\Third_Party\ESE_BSP\DigProcesAansturing\DigProcesAansturing.cpp **** {
 371              	 .loc 1 61 1
 372              	 .cfi_startproc
 373              	 
 374              	 
 375 0000 80B5     	 push {r7,lr}
 376              	 .cfi_def_cfa_offset 8
 377              	 .cfi_offset 7,-8
 378              	 .cfi_offset 14,-4
 379 0002 86B0     	 sub sp,sp,#24
 380              	 .cfi_def_cfa_offset 32
 381 0004 00AF     	 add r7,sp,#0
 382              	 .cfi_def_cfa_register 7
 383 0006 F860     	 str r0,[r7,#12]
 384 0008 87ED020A 	 vstr.32 s0,[r7,#8]
 385 000c C7ED010A 	 vstr.32 s1,[r7,#4]
 386 0010 87ED001A 	 vstr.32 s2,[r7]
  62:C:\Users\niels\Documents\Elektrotechniek\Jaar 2\ECS\ECSL\software\STM32\STM32Basis\HAL\gemeenschappelijk\Third_Party\ESE_BSP\DigProcesAansturing\DigProcesAansturing.cpp **** 	zetKommando(ProcesCmd::ZetTweedeOrdeParams);
 387              	 .loc 1 62 13
 388 0014 0521     	 movs r1,#5
 389 0016 F868     	 ldr r0,[r7,#12]
 390 0018 FFF7FEFF 	 bl _ZN19DigProcesAansturing11zetKommandoENS_9ProcesCmdE
  63:C:\Users\niels\Documents\Elektrotechniek\Jaar 2\ECS\ECSL\software\STM32\STM32Basis\HAL\gemeenschappelijk\Third_Party\ESE_BSP\DigProcesAansturing\DigProcesAansturing.cpp **** 
  64:C:\Users\niels\Documents\Elektrotechniek\Jaar 2\ECS\ECSL\software\STM32\STM32Basis\HAL\gemeenschappelijk\Third_Party\ESE_BSP\DigProcesAansturing\DigProcesAansturing.cpp **** 	/* kopieer de paramaters naar de array */
  65:C:\Users\niels\Documents\Elektrotechniek\Jaar 2\ECS\ECSL\software\STM32\STM32Basis\HAL\gemeenschappelijk\Third_Party\ESE_BSP\DigProcesAansturing\DigProcesAansturing.cpp **** 	UInt8 *dstPtr = &(this->operator [] (1));
 391              	 .loc 1 65 40
ARM GAS   			page 9


 392 001c FB68     	 ldr r3,[r7,#12]
 393 001e 0121     	 movs r1,#1
 394 0020 1846     	 mov r0,r3
 395 0022 FFF7FEFF 	 bl _ZNK10DataPakketIhEixEm
 396 0026 7861     	 str r0,[r7,#20]
  66:C:\Users\niels\Documents\Elektrotechniek\Jaar 2\ECS\ECSL\software\STM32\STM32Basis\HAL\gemeenschappelijk\Third_Party\ESE_BSP\DigProcesAansturing\DigProcesAansturing.cpp **** 	memcpy(dstPtr, reinterpret_cast<UInt8 *>(const_cast<float *>(&kpparam)),sizeof(float));
 397              	 .loc 1 66 8
 398 0028 07F10803 	 add r3,r7,#8
 399 002c 0422     	 movs r2,#4
 400 002e 1946     	 mov r1,r3
 401 0030 7869     	 ldr r0,[r7,#20]
 402 0032 FFF7FEFF 	 bl memcpy
  67:C:\Users\niels\Documents\Elektrotechniek\Jaar 2\ECS\ECSL\software\STM32\STM32Basis\HAL\gemeenschappelijk\Third_Party\ESE_BSP\DigProcesAansturing\DigProcesAansturing.cpp **** 	dstPtr += sizeof(float);
 403              	 .loc 1 67 9
 404 0036 7B69     	 ldr r3,[r7,#20]
 405 0038 0433     	 adds r3,r3,#4
 406 003a 7B61     	 str r3,[r7,#20]
  68:C:\Users\niels\Documents\Elektrotechniek\Jaar 2\ECS\ECSL\software\STM32\STM32Basis\HAL\gemeenschappelijk\Third_Party\ESE_BSP\DigProcesAansturing\DigProcesAansturing.cpp **** 	memcpy(dstPtr, reinterpret_cast<UInt8 *>(const_cast<float *>(&omega0param)),sizeof(float));
 407              	 .loc 1 68 8
 408 003c 3B1D     	 adds r3,r7,#4
 409 003e 0422     	 movs r2,#4
 410 0040 1946     	 mov r1,r3
 411 0042 7869     	 ldr r0,[r7,#20]
 412 0044 FFF7FEFF 	 bl memcpy
  69:C:\Users\niels\Documents\Elektrotechniek\Jaar 2\ECS\ECSL\software\STM32\STM32Basis\HAL\gemeenschappelijk\Third_Party\ESE_BSP\DigProcesAansturing\DigProcesAansturing.cpp **** 	dstPtr += sizeof(float);
 413              	 .loc 1 69 9
 414 0048 7B69     	 ldr r3,[r7,#20]
 415 004a 0433     	 adds r3,r3,#4
 416 004c 7B61     	 str r3,[r7,#20]
  70:C:\Users\niels\Documents\Elektrotechniek\Jaar 2\ECS\ECSL\software\STM32\STM32Basis\HAL\gemeenschappelijk\Third_Party\ESE_BSP\DigProcesAansturing\DigProcesAansturing.cpp **** 	memcpy(dstPtr, reinterpret_cast<UInt8 *>(const_cast<float *>(&betaparam)),sizeof(float));
 417              	 .loc 1 70 8
 418 004e 3B46     	 mov r3,r7
 419 0050 0422     	 movs r2,#4
 420 0052 1946     	 mov r1,r3
 421 0054 7869     	 ldr r0,[r7,#20]
 422 0056 FFF7FEFF 	 bl memcpy
  71:C:\Users\niels\Documents\Elektrotechniek\Jaar 2\ECS\ECSL\software\STM32\STM32Basis\HAL\gemeenschappelijk\Third_Party\ESE_BSP\DigProcesAansturing\DigProcesAansturing.cpp **** }
 423              	 .loc 1 71 1
 424 005a 00BF     	 nop
 425 005c 1837     	 adds r7,r7,#24
 426              	 .cfi_def_cfa_offset 8
 427 005e BD46     	 mov sp,r7
 428              	 .cfi_def_cfa_register 13
 429              	 
 430 0060 80BD     	 pop {r7,pc}
 431              	 .cfi_endproc
 432              	.LFE268:
 433              	 .size _ZN19DigProcesAansturing19zetTweedeOrdeParamsEfff,.-_ZN19DigProcesAansturing19zetTweedeOrdeParamsEfff
 434              	 .section .text._ZN19DigProcesAansturing19zetCustomOverdrachtERK10DataPakketIfE,"ax",%progbits
 435              	 .align 1
 436              	 .global _ZN19DigProcesAansturing19zetCustomOverdrachtERK10DataPakketIfE
 437              	 .syntax unified
 438              	 .thumb
 439              	 .thumb_func
 440              	 .type _ZN19DigProcesAansturing19zetCustomOverdrachtERK10DataPakketIfE,%function
 441              	_ZN19DigProcesAansturing19zetCustomOverdrachtERK10DataPakketIfE:
 442              	.LFB269:
ARM GAS   			page 10


  72:C:\Users\niels\Documents\Elektrotechniek\Jaar 2\ECS\ECSL\software\STM32\STM32Basis\HAL\gemeenschappelijk\Third_Party\ESE_BSP\DigProcesAansturing\DigProcesAansturing.cpp **** 
  73:C:\Users\niels\Documents\Elektrotechniek\Jaar 2\ECS\ECSL\software\STM32\STM32Basis\HAL\gemeenschappelijk\Third_Party\ESE_BSP\DigProcesAansturing\DigProcesAansturing.cpp **** void DigProcesAansturing::zetCustomOverdracht(const DataPakket<float> &custom)
  74:C:\Users\niels\Documents\Elektrotechniek\Jaar 2\ECS\ECSL\software\STM32\STM32Basis\HAL\gemeenschappelijk\Third_Party\ESE_BSP\DigProcesAansturing\DigProcesAansturing.cpp **** {
 443              	 .loc 1 74 1
 444              	 .cfi_startproc
 445              	 
 446              	 
 447 0000 80B5     	 push {r7,lr}
 448              	 .cfi_def_cfa_offset 8
 449              	 .cfi_offset 7,-8
 450              	 .cfi_offset 14,-4
 451 0002 86B0     	 sub sp,sp,#24
 452              	 .cfi_def_cfa_offset 32
 453 0004 00AF     	 add r7,sp,#0
 454              	 .cfi_def_cfa_register 7
 455 0006 7860     	 str r0,[r7,#4]
 456 0008 3960     	 str r1,[r7]
  75:C:\Users\niels\Documents\Elektrotechniek\Jaar 2\ECS\ECSL\software\STM32\STM32Basis\HAL\gemeenschappelijk\Third_Party\ESE_BSP\DigProcesAansturing\DigProcesAansturing.cpp **** 	zetKommando(ProcesCmd::ZetCustomOverdrachtFunktie);
 457              	 .loc 1 75 13
 458 000a 0721     	 movs r1,#7
 459 000c 7868     	 ldr r0,[r7,#4]
 460 000e FFF7FEFF 	 bl _ZN19DigProcesAansturing11zetKommandoENS_9ProcesCmdE
  76:C:\Users\niels\Documents\Elektrotechniek\Jaar 2\ECS\ECSL\software\STM32\STM32Basis\HAL\gemeenschappelijk\Third_Party\ESE_BSP\DigProcesAansturing\DigProcesAansturing.cpp **** 
  77:C:\Users\niels\Documents\Elektrotechniek\Jaar 2\ECS\ECSL\software\STM32\STM32Basis\HAL\gemeenschappelijk\Third_Party\ESE_BSP\DigProcesAansturing\DigProcesAansturing.cpp **** 	const UInt16 customgrootte = static_cast<UInt16>(custom.geefGrootte());
 461              	 .loc 1 77 69
 462 0012 3868     	 ldr r0,[r7]
 463 0014 FFF7FEFF 	 bl _ZNK10DataPakketIfE11geefGrootteEv
 464 0018 0346     	 mov r3,r0
 465              	 .loc 1 77 71
 466 001a 9BB2     	 uxth r3,r3
 467 001c FB81     	 strh r3,[r7,#14]
  78:C:\Users\niels\Documents\Elektrotechniek\Jaar 2\ECS\ECSL\software\STM32\STM32Basis\HAL\gemeenschappelijk\Third_Party\ESE_BSP\DigProcesAansturing\DigProcesAansturing.cpp **** 
  79:C:\Users\niels\Documents\Elektrotechniek\Jaar 2\ECS\ECSL\software\STM32\STM32Basis\HAL\gemeenschappelijk\Third_Party\ESE_BSP\DigProcesAansturing\DigProcesAansturing.cpp **** 	UInt8 *dstPtr = &(this->operator [] (1));
 468              	 .loc 1 79 40
 469 001e 7B68     	 ldr r3,[r7,#4]
 470 0020 0121     	 movs r1,#1
 471 0022 1846     	 mov r0,r3
 472 0024 FFF7FEFF 	 bl _ZNK10DataPakketIhEixEm
 473 0028 7861     	 str r0,[r7,#20]
  80:C:\Users\niels\Documents\Elektrotechniek\Jaar 2\ECS\ECSL\software\STM32\STM32Basis\HAL\gemeenschappelijk\Third_Party\ESE_BSP\DigProcesAansturing\DigProcesAansturing.cpp **** 	memcpy(dstPtr, reinterpret_cast<UInt8 *>(const_cast<UInt16 *>(&customgrootte)),sizeof(UInt16));
 474              	 .loc 1 80 8
 475 002a 07F10E03 	 add r3,r7,#14
 476 002e 0222     	 movs r2,#2
 477 0030 1946     	 mov r1,r3
 478 0032 7869     	 ldr r0,[r7,#20]
 479 0034 FFF7FEFF 	 bl memcpy
  81:C:\Users\niels\Documents\Elektrotechniek\Jaar 2\ECS\ECSL\software\STM32\STM32Basis\HAL\gemeenschappelijk\Third_Party\ESE_BSP\DigProcesAansturing\DigProcesAansturing.cpp **** 	dstPtr =  &(this->operator [] (cmdLengte));
 480              	 .loc 1 81 42
 481 0038 7B68     	 ldr r3,[r7,#4]
 482 003a 0E21     	 movs r1,#14
 483 003c 1846     	 mov r0,r3
 484 003e FFF7FEFF 	 bl _ZNK10DataPakketIhEixEm
 485 0042 7861     	 str r0,[r7,#20]
  82:C:\Users\niels\Documents\Elektrotechniek\Jaar 2\ECS\ECSL\software\STM32\STM32Basis\HAL\gemeenschappelijk\Third_Party\ESE_BSP\DigProcesAansturing\DigProcesAansturing.cpp **** 	UInt8 * const srcPtr = reinterpret_cast<UInt8 *>(const_cast<float *>(&(custom[0])));
 486              	 .loc 1 82 81
 487 0044 0021     	 movs r1,#0
 488 0046 3868     	 ldr r0,[r7]
ARM GAS   			page 11


 489 0048 FFF7FEFF 	 bl _ZNK10DataPakketIfEixEm
 490 004c 3861     	 str r0,[r7,#16]
  83:C:\Users\niels\Documents\Elektrotechniek\Jaar 2\ECS\ECSL\software\STM32\STM32Basis\HAL\gemeenschappelijk\Third_Party\ESE_BSP\DigProcesAansturing\DigProcesAansturing.cpp **** 
  84:C:\Users\niels\Documents\Elektrotechniek\Jaar 2\ECS\ECSL\software\STM32\STM32Basis\HAL\gemeenschappelijk\Third_Party\ESE_BSP\DigProcesAansturing\DigProcesAansturing.cpp **** 	memcpy(dstPtr, srcPtr, customgrootte*sizeof(float));
 491              	 .loc 1 84 25
 492 004e FB89     	 ldrh r3,[r7,#14]
 493              	 .loc 1 84 8
 494 0050 9B00     	 lsls r3,r3,#2
 495 0052 1A46     	 mov r2,r3
 496 0054 3969     	 ldr r1,[r7,#16]
 497 0056 7869     	 ldr r0,[r7,#20]
 498 0058 FFF7FEFF 	 bl memcpy
  85:C:\Users\niels\Documents\Elektrotechniek\Jaar 2\ECS\ECSL\software\STM32\STM32Basis\HAL\gemeenschappelijk\Third_Party\ESE_BSP\DigProcesAansturing\DigProcesAansturing.cpp **** }
 499              	 .loc 1 85 1
 500 005c 00BF     	 nop
 501 005e 1837     	 adds r7,r7,#24
 502              	 .cfi_def_cfa_offset 8
 503 0060 BD46     	 mov sp,r7
 504              	 .cfi_def_cfa_register 13
 505              	 
 506 0062 80BD     	 pop {r7,pc}
 507              	 .cfi_endproc
 508              	.LFE269:
 509              	 .size _ZN19DigProcesAansturing19zetCustomOverdrachtERK10DataPakketIfE,.-_ZN19DigProcesAansturing19zetCustomOverdrachtERK10DataPakketIfE
 510              	 .section .text._ZNK19DigProcesAansturing18maakCommandoPakketEv,"ax",%progbits
 511              	 .align 1
 512              	 .global _ZNK19DigProcesAansturing18maakCommandoPakketEv
 513              	 .syntax unified
 514              	 .thumb
 515              	 .thumb_func
 516              	 .type _ZNK19DigProcesAansturing18maakCommandoPakketEv,%function
 517              	_ZNK19DigProcesAansturing18maakCommandoPakketEv:
 518              	.LFB270:
  86:C:\Users\niels\Documents\Elektrotechniek\Jaar 2\ECS\ECSL\software\STM32\STM32Basis\HAL\gemeenschappelijk\Third_Party\ESE_BSP\DigProcesAansturing\DigProcesAansturing.cpp **** 
  87:C:\Users\niels\Documents\Elektrotechniek\Jaar 2\ECS\ECSL\software\STM32\STM32Basis\HAL\gemeenschappelijk\Third_Party\ESE_BSP\DigProcesAansturing\DigProcesAansturing.cpp **** DataPakket<UInt8> DigProcesAansturing::maakCommandoPakket() const
  88:C:\Users\niels\Documents\Elektrotechniek\Jaar 2\ECS\ECSL\software\STM32\STM32Basis\HAL\gemeenschappelijk\Third_Party\ESE_BSP\DigProcesAansturing\DigProcesAansturing.cpp **** {
 519              	 .loc 1 88 1
 520              	 .cfi_startproc
 521              	 
 522              	 
 523 0000 80B5     	 push {r7,lr}
 524              	 .cfi_def_cfa_offset 8
 525              	 .cfi_offset 7,-8
 526              	 .cfi_offset 14,-4
 527 0002 82B0     	 sub sp,sp,#8
 528              	 .cfi_def_cfa_offset 16
 529 0004 00AF     	 add r7,sp,#0
 530              	 .cfi_def_cfa_register 7
 531 0006 7860     	 str r0,[r7,#4]
 532 0008 3960     	 str r1,[r7]
  89:C:\Users\niels\Documents\Elektrotechniek\Jaar 2\ECS\ECSL\software\STM32\STM32Basis\HAL\gemeenschappelijk\Third_Party\ESE_BSP\DigProcesAansturing\DigProcesAansturing.cpp **** 	const DataPakket<UInt8> pakje(&(this->operator [] (0)),cmdLengte);
 533              	 .loc 1 89 54
 534 000a 3B68     	 ldr r3,[r7]
 535 000c 0021     	 movs r1,#0
 536 000e 1846     	 mov r0,r3
 537 0010 FFF7FEFF 	 bl _ZNK10DataPakketIhEixEm
 538 0014 0346     	 mov r3,r0
ARM GAS   			page 12


 539              	 .loc 1 89 66
 540 0016 0E22     	 movs r2,#14
 541 0018 1946     	 mov r1,r3
 542 001a 7868     	 ldr r0,[r7,#4]
 543 001c FFF7FEFF 	 bl _ZN10DataPakketIhEC1EPhm
  90:C:\Users\niels\Documents\Elektrotechniek\Jaar 2\ECS\ECSL\software\STM32\STM32Basis\HAL\gemeenschappelijk\Third_Party\ESE_BSP\DigProcesAansturing\DigProcesAansturing.cpp **** 	return(pakje);
 544              	 .loc 1 90 14
 545 0020 00BF     	 nop
  91:C:\Users\niels\Documents\Elektrotechniek\Jaar 2\ECS\ECSL\software\STM32\STM32Basis\HAL\gemeenschappelijk\Third_Party\ESE_BSP\DigProcesAansturing\DigProcesAansturing.cpp **** }
 546              	 .loc 1 91 1
 547 0022 7868     	 ldr r0,[r7,#4]
 548 0024 0837     	 adds r7,r7,#8
 549              	 .cfi_def_cfa_offset 8
 550 0026 BD46     	 mov sp,r7
 551              	 .cfi_def_cfa_register 13
 552              	 
 553 0028 80BD     	 pop {r7,pc}
 554              	 .cfi_endproc
 555              	.LFE270:
 556              	 .size _ZNK19DigProcesAansturing18maakCommandoPakketEv,.-_ZNK19DigProcesAansturing18maakCommandoPakketEv
 557              	 .section .text._ZNK19DigProcesAansturing16maakCustomPakketEv,"ax",%progbits
 558              	 .align 1
 559              	 .global _ZNK19DigProcesAansturing16maakCustomPakketEv
 560              	 .syntax unified
 561              	 .thumb
 562              	 .thumb_func
 563              	 .type _ZNK19DigProcesAansturing16maakCustomPakketEv,%function
 564              	_ZNK19DigProcesAansturing16maakCustomPakketEv:
 565              	.LFB271:
  92:C:\Users\niels\Documents\Elektrotechniek\Jaar 2\ECS\ECSL\software\STM32\STM32Basis\HAL\gemeenschappelijk\Third_Party\ESE_BSP\DigProcesAansturing\DigProcesAansturing.cpp **** 
  93:C:\Users\niels\Documents\Elektrotechniek\Jaar 2\ECS\ECSL\software\STM32\STM32Basis\HAL\gemeenschappelijk\Third_Party\ESE_BSP\DigProcesAansturing\DigProcesAansturing.cpp **** DataPakket<UInt8> DigProcesAansturing::maakCustomPakket() const
  94:C:\Users\niels\Documents\Elektrotechniek\Jaar 2\ECS\ECSL\software\STM32\STM32Basis\HAL\gemeenschappelijk\Third_Party\ESE_BSP\DigProcesAansturing\DigProcesAansturing.cpp **** {
 566              	 .loc 1 94 1
 567              	 .cfi_startproc
 568              	 
 569              	 
 570 0000 80B5     	 push {r7,lr}
 571              	 .cfi_def_cfa_offset 8
 572              	 .cfi_offset 7,-8
 573              	 .cfi_offset 14,-4
 574 0002 82B0     	 sub sp,sp,#8
 575              	 .cfi_def_cfa_offset 16
 576 0004 00AF     	 add r7,sp,#0
 577              	 .cfi_def_cfa_register 7
 578 0006 7860     	 str r0,[r7,#4]
 579 0008 3960     	 str r1,[r7]
  95:C:\Users\niels\Documents\Elektrotechniek\Jaar 2\ECS\ECSL\software\STM32\STM32Basis\HAL\gemeenschappelijk\Third_Party\ESE_BSP\DigProcesAansturing\DigProcesAansturing.cpp **** 	const DataPakket<UInt8> pakje(&(this->operator [] (cmdLengte)),MaxOverdrachtFunktieGrootte);
 580              	 .loc 1 95 62
 581 000a 3B68     	 ldr r3,[r7]
 582 000c 0E21     	 movs r1,#14
 583 000e 1846     	 mov r0,r3
 584 0010 FFF7FEFF 	 bl _ZNK10DataPakketIhEixEm
 585 0014 0346     	 mov r3,r0
 586              	 .loc 1 95 92
 587 0016 4FF40072 	 mov r2,#512
 588 001a 1946     	 mov r1,r3
 589 001c 7868     	 ldr r0,[r7,#4]
ARM GAS   			page 13


 590 001e FFF7FEFF 	 bl _ZN10DataPakketIhEC1EPhm
  96:C:\Users\niels\Documents\Elektrotechniek\Jaar 2\ECS\ECSL\software\STM32\STM32Basis\HAL\gemeenschappelijk\Third_Party\ESE_BSP\DigProcesAansturing\DigProcesAansturing.cpp **** 	return(pakje);
 591              	 .loc 1 96 14
 592 0022 00BF     	 nop
  97:C:\Users\niels\Documents\Elektrotechniek\Jaar 2\ECS\ECSL\software\STM32\STM32Basis\HAL\gemeenschappelijk\Third_Party\ESE_BSP\DigProcesAansturing\DigProcesAansturing.cpp **** }
 593              	 .loc 1 97 1
 594 0024 7868     	 ldr r0,[r7,#4]
 595 0026 0837     	 adds r7,r7,#8
 596              	 .cfi_def_cfa_offset 8
 597 0028 BD46     	 mov sp,r7
 598              	 .cfi_def_cfa_register 13
 599              	 
 600 002a 80BD     	 pop {r7,pc}
 601              	 .cfi_endproc
 602              	.LFE271:
 603              	 .size _ZNK19DigProcesAansturing16maakCustomPakketEv,.-_ZNK19DigProcesAansturing16maakCustomPakketEv
 604              	 .section .text._ZNK19DigProcesAansturing20identificeerCommandoEv,"ax",%progbits
 605              	 .align 1
 606              	 .global _ZNK19DigProcesAansturing20identificeerCommandoEv
 607              	 .syntax unified
 608              	 .thumb
 609              	 .thumb_func
 610              	 .type _ZNK19DigProcesAansturing20identificeerCommandoEv,%function
 611              	_ZNK19DigProcesAansturing20identificeerCommandoEv:
 612              	.LFB272:
  98:C:\Users\niels\Documents\Elektrotechniek\Jaar 2\ECS\ECSL\software\STM32\STM32Basis\HAL\gemeenschappelijk\Third_Party\ESE_BSP\DigProcesAansturing\DigProcesAansturing.cpp **** 
  99:C:\Users\niels\Documents\Elektrotechniek\Jaar 2\ECS\ECSL\software\STM32\STM32Basis\HAL\gemeenschappelijk\Third_Party\ESE_BSP\DigProcesAansturing\DigProcesAansturing.cpp **** 
 100:C:\Users\niels\Documents\Elektrotechniek\Jaar 2\ECS\ECSL\software\STM32\STM32Basis\HAL\gemeenschappelijk\Third_Party\ESE_BSP\DigProcesAansturing\DigProcesAansturing.cpp **** DigProcesAansturing::ProcesCmd DigProcesAansturing::identificeerCommando() const
 101:C:\Users\niels\Documents\Elektrotechniek\Jaar 2\ECS\ECSL\software\STM32\STM32Basis\HAL\gemeenschappelijk\Third_Party\ESE_BSP\DigProcesAansturing\DigProcesAansturing.cpp **** {
 613              	 .loc 1 101 1
 614              	 .cfi_startproc
 615              	 
 616              	 
 617 0000 80B5     	 push {r7,lr}
 618              	 .cfi_def_cfa_offset 8
 619              	 .cfi_offset 7,-8
 620              	 .cfi_offset 14,-4
 621 0002 84B0     	 sub sp,sp,#16
 622              	 .cfi_def_cfa_offset 24
 623 0004 00AF     	 add r7,sp,#0
 624              	 .cfi_def_cfa_register 7
 625 0006 7860     	 str r0,[r7,#4]
 102:C:\Users\niels\Documents\Elektrotechniek\Jaar 2\ECS\ECSL\software\STM32\STM32Basis\HAL\gemeenschappelijk\Third_Party\ESE_BSP\DigProcesAansturing\DigProcesAansturing.cpp **** 	const auto cmd = static_cast<ProcesCmd>(this->operator [] (0));
 626              	 .loc 1 102 62
 627 0008 7B68     	 ldr r3,[r7,#4]
 628 000a 0021     	 movs r1,#0
 629 000c 1846     	 mov r0,r3
 630 000e FFF7FEFF 	 bl _ZNK10DataPakketIhEixEm
 631 0012 0346     	 mov r3,r0
 632              	 .loc 1 102 63
 633 0014 1B78     	 ldrb r3,[r3]
 634 0016 FB73     	 strb r3,[r7,#15]
 103:C:\Users\niels\Documents\Elektrotechniek\Jaar 2\ECS\ECSL\software\STM32\STM32Basis\HAL\gemeenschappelijk\Third_Party\ESE_BSP\DigProcesAansturing\DigProcesAansturing.cpp **** 
 104:C:\Users\niels\Documents\Elektrotechniek\Jaar 2\ECS\ECSL\software\STM32\STM32Basis\HAL\gemeenschappelijk\Third_Party\ESE_BSP\DigProcesAansturing\DigProcesAansturing.cpp **** 	return(cmd);
 635              	 .loc 1 104 12
 636 0018 FB7B     	 ldrb r3,[r7,#15]
 105:C:\Users\niels\Documents\Elektrotechniek\Jaar 2\ECS\ECSL\software\STM32\STM32Basis\HAL\gemeenschappelijk\Third_Party\ESE_BSP\DigProcesAansturing\DigProcesAansturing.cpp **** }
ARM GAS   			page 14


 637              	 .loc 1 105 1
 638 001a 1846     	 mov r0,r3
 639 001c 1037     	 adds r7,r7,#16
 640              	 .cfi_def_cfa_offset 8
 641 001e BD46     	 mov sp,r7
 642              	 .cfi_def_cfa_register 13
 643              	 
 644 0020 80BD     	 pop {r7,pc}
 645              	 .cfi_endproc
 646              	.LFE272:
 647              	 .size _ZNK19DigProcesAansturing20identificeerCommandoEv,.-_ZNK19DigProcesAansturing20identificeerCommandoEv
 648              	 .section .rodata
 649              	 .align 2
 650              	.LC0:
 651 0000 28696465 	 .ascii "(identificeerCommando() == ProcesCmd::ZetSampFreq)\000"
 651      6E746966 
 651      69636565 
 651      72436F6D 
 651      6D616E64 
 652 0033 00       	 .align 2
 653              	.LC1:
 654 0034 55496E74 	 .ascii "UInt32 DigProcesAansturing::geefSampFreq() const\000"
 654      33322044 
 654      69675072 
 654      6F636573 
 654      41616E73 
 655 0065 000000   	 .align 2
 656              	.LC2:
 657 0068 433A5C55 	 .ascii "C:\\Users\\niels\\Documents\\Elektrotechniek\\Jaar "
 657      73657273 
 657      5C6E6965 
 657      6C735C44 
 657      6F63756D 
 658 0096 325C4543 	 .ascii "2\\ECS\\ECSL\\software\\STM32\\STM32Basis\\HAL\\gem"
 658      535C4543 
 658      534C5C73 
 658      6F667477 
 658      6172655C 
 659 00c2 65656E73 	 .ascii "eenschappelijk\\Third_Party\\ESE_BSP\\DigProcesAans"
 659      63686170 
 659      70656C69 
 659      6A6B5C54 
 659      68697264 
 660 00f2 74757269 	 .ascii "turing\\DigProcesAansturing.cpp\000"
 660      6E675C44 
 660      69675072 
 660      6F636573 
 660      41616E73 
 661              	 .section .text._ZNK19DigProcesAansturing12geefSampFreqEv,"ax",%progbits
 662              	 .align 1
 663              	 .global _ZNK19DigProcesAansturing12geefSampFreqEv
 664              	 .syntax unified
 665              	 .thumb
 666              	 .thumb_func
 667              	 .type _ZNK19DigProcesAansturing12geefSampFreqEv,%function
 668              	_ZNK19DigProcesAansturing12geefSampFreqEv:
 669              	.LFB273:
ARM GAS   			page 15


 106:C:\Users\niels\Documents\Elektrotechniek\Jaar 2\ECS\ECSL\software\STM32\STM32Basis\HAL\gemeenschappelijk\Third_Party\ESE_BSP\DigProcesAansturing\DigProcesAansturing.cpp **** 
 107:C:\Users\niels\Documents\Elektrotechniek\Jaar 2\ECS\ECSL\software\STM32\STM32Basis\HAL\gemeenschappelijk\Third_Party\ESE_BSP\DigProcesAansturing\DigProcesAansturing.cpp **** UInt32 DigProcesAansturing::geefSampFreq() const
 108:C:\Users\niels\Documents\Elektrotechniek\Jaar 2\ECS\ECSL\software\STM32\STM32Basis\HAL\gemeenschappelijk\Third_Party\ESE_BSP\DigProcesAansturing\DigProcesAansturing.cpp **** {
 670              	 .loc 1 108 1
 671              	 .cfi_startproc
 672              	 
 673              	 
 674 0000 80B5     	 push {r7,lr}
 675              	 .cfi_def_cfa_offset 8
 676              	 .cfi_offset 7,-8
 677              	 .cfi_offset 14,-4
 678 0002 84B0     	 sub sp,sp,#16
 679              	 .cfi_def_cfa_offset 24
 680 0004 00AF     	 add r7,sp,#0
 681              	 .cfi_def_cfa_register 7
 682 0006 7860     	 str r0,[r7,#4]
 109:C:\Users\niels\Documents\Elektrotechniek\Jaar 2\ECS\ECSL\software\STM32\STM32Basis\HAL\gemeenschappelijk\Third_Party\ESE_BSP\DigProcesAansturing\DigProcesAansturing.cpp **** 	assert((identificeerCommando() == ProcesCmd::ZetSampFreq));
 683              	 .loc 1 109 2
 684 0008 7868     	 ldr r0,[r7,#4]
 685 000a FFF7FEFF 	 bl _ZNK19DigProcesAansturing20identificeerCommandoEv
 686 000e 0346     	 mov r3,r0
 687 0010 022B     	 cmp r3,#2
 688 0012 05D0     	 beq .L16
 689              	 .loc 1 109 2 is_stmt 0 discriminator 1
 690 0014 0B4B     	 ldr r3,.L18
 691 0016 0C4A     	 ldr r2,.L18+4
 692 0018 6D21     	 movs r1,#109
 693 001a 0C48     	 ldr r0,.L18+8
 694 001c FFF7FEFF 	 bl __assert_func
 695              	.L16:
 110:C:\Users\niels\Documents\Elektrotechniek\Jaar 2\ECS\ECSL\software\STM32\STM32Basis\HAL\gemeenschappelijk\Third_Party\ESE_BSP\DigProcesAansturing\DigProcesAansturing.cpp **** 
 111:C:\Users\niels\Documents\Elektrotechniek\Jaar 2\ECS\ECSL\software\STM32\STM32Basis\HAL\gemeenschappelijk\Third_Party\ESE_BSP\DigProcesAansturing\DigProcesAansturing.cpp **** 	UInt32 fs;
 112:C:\Users\niels\Documents\Elektrotechniek\Jaar 2\ECS\ECSL\software\STM32\STM32Basis\HAL\gemeenschappelijk\Third_Party\ESE_BSP\DigProcesAansturing\DigProcesAansturing.cpp **** 	UInt8 const * const srcPtr = &(this->operator [] (1));
 696              	 .loc 1 112 53 is_stmt 1
 697 0020 7B68     	 ldr r3,[r7,#4]
 698 0022 0121     	 movs r1,#1
 699 0024 1846     	 mov r0,r3
 700 0026 FFF7FEFF 	 bl _ZNK10DataPakketIhEixEm
 701 002a F860     	 str r0,[r7,#12]
 113:C:\Users\niels\Documents\Elektrotechniek\Jaar 2\ECS\ECSL\software\STM32\STM32Basis\HAL\gemeenschappelijk\Third_Party\ESE_BSP\DigProcesAansturing\DigProcesAansturing.cpp **** 	memcpy(reinterpret_cast<UInt8 *>(&fs),srcPtr,sizeof(UInt32));
 702              	 .loc 1 113 8
 703 002c 07F10803 	 add r3,r7,#8
 704 0030 0422     	 movs r2,#4
 705 0032 F968     	 ldr r1,[r7,#12]
 706 0034 1846     	 mov r0,r3
 707 0036 FFF7FEFF 	 bl memcpy
 114:C:\Users\niels\Documents\Elektrotechniek\Jaar 2\ECS\ECSL\software\STM32\STM32Basis\HAL\gemeenschappelijk\Third_Party\ESE_BSP\DigProcesAansturing\DigProcesAansturing.cpp **** 	return(fs);
 708              	 .loc 1 114 11
 709 003a BB68     	 ldr r3,[r7,#8]
 115:C:\Users\niels\Documents\Elektrotechniek\Jaar 2\ECS\ECSL\software\STM32\STM32Basis\HAL\gemeenschappelijk\Third_Party\ESE_BSP\DigProcesAansturing\DigProcesAansturing.cpp **** }
 710              	 .loc 1 115 1
 711 003c 1846     	 mov r0,r3
 712 003e 1037     	 adds r7,r7,#16
 713              	 .cfi_def_cfa_offset 8
 714 0040 BD46     	 mov sp,r7
 715              	 .cfi_def_cfa_register 13
 716              	 
ARM GAS   			page 16


 717 0042 80BD     	 pop {r7,pc}
 718              	.L19:
 719              	 .align 2
 720              	.L18:
 721 0044 00000000 	 .word .LC0
 722 0048 34000000 	 .word .LC1
 723 004c 68000000 	 .word .LC2
 724              	 .cfi_endproc
 725              	.LFE273:
 726              	 .size _ZNK19DigProcesAansturing12geefSampFreqEv,.-_ZNK19DigProcesAansturing12geefSampFreqEv
 727              	 .section .text._ZNK19DigProcesAansturing18geefProcesControleEv,"ax",%progbits
 728              	 .align 1
 729              	 .global _ZNK19DigProcesAansturing18geefProcesControleEv
 730              	 .syntax unified
 731              	 .thumb
 732              	 .thumb_func
 733              	 .type _ZNK19DigProcesAansturing18geefProcesControleEv,%function
 734              	_ZNK19DigProcesAansturing18geefProcesControleEv:
 735              	.LFB274:
 116:C:\Users\niels\Documents\Elektrotechniek\Jaar 2\ECS\ECSL\software\STM32\STM32Basis\HAL\gemeenschappelijk\Third_Party\ESE_BSP\DigProcesAansturing\DigProcesAansturing.cpp **** 
 117:C:\Users\niels\Documents\Elektrotechniek\Jaar 2\ECS\ECSL\software\STM32\STM32Basis\HAL\gemeenschappelijk\Third_Party\ESE_BSP\DigProcesAansturing\DigProcesAansturing.cpp **** DigProcesAansturing::ProcesControle DigProcesAansturing::geefProcesControle() const
 118:C:\Users\niels\Documents\Elektrotechniek\Jaar 2\ECS\ECSL\software\STM32\STM32Basis\HAL\gemeenschappelijk\Third_Party\ESE_BSP\DigProcesAansturing\DigProcesAansturing.cpp **** {
 736              	 .loc 1 118 1
 737              	 .cfi_startproc
 738              	 
 739              	 
 740 0000 80B5     	 push {r7,lr}
 741              	 .cfi_def_cfa_offset 8
 742              	 .cfi_offset 7,-8
 743              	 .cfi_offset 14,-4
 744 0002 84B0     	 sub sp,sp,#16
 745              	 .cfi_def_cfa_offset 24
 746 0004 00AF     	 add r7,sp,#0
 747              	 .cfi_def_cfa_register 7
 748 0006 7860     	 str r0,[r7,#4]
 119:C:\Users\niels\Documents\Elektrotechniek\Jaar 2\ECS\ECSL\software\STM32\STM32Basis\HAL\gemeenschappelijk\Third_Party\ESE_BSP\DigProcesAansturing\DigProcesAansturing.cpp **** 	const auto controle = static_cast<ProcesControle>(this->operator [] (1));
 749              	 .loc 1 119 72
 750 0008 7B68     	 ldr r3,[r7,#4]
 751 000a 0121     	 movs r1,#1
 752 000c 1846     	 mov r0,r3
 753 000e FFF7FEFF 	 bl _ZNK10DataPakketIhEixEm
 754 0012 0346     	 mov r3,r0
 755              	 .loc 1 119 73
 756 0014 1B78     	 ldrb r3,[r3]
 757 0016 FB73     	 strb r3,[r7,#15]
 120:C:\Users\niels\Documents\Elektrotechniek\Jaar 2\ECS\ECSL\software\STM32\STM32Basis\HAL\gemeenschappelijk\Third_Party\ESE_BSP\DigProcesAansturing\DigProcesAansturing.cpp **** 	return(controle);
 758              	 .loc 1 120 17
 759 0018 FB7B     	 ldrb r3,[r7,#15]
 121:C:\Users\niels\Documents\Elektrotechniek\Jaar 2\ECS\ECSL\software\STM32\STM32Basis\HAL\gemeenschappelijk\Third_Party\ESE_BSP\DigProcesAansturing\DigProcesAansturing.cpp **** }
 760              	 .loc 1 121 1
 761 001a 1846     	 mov r0,r3
 762 001c 1037     	 adds r7,r7,#16
 763              	 .cfi_def_cfa_offset 8
 764 001e BD46     	 mov sp,r7
 765              	 .cfi_def_cfa_register 13
 766              	 
 767 0020 80BD     	 pop {r7,pc}
ARM GAS   			page 17


 768              	 .cfi_endproc
 769              	.LFE274:
 770              	 .size _ZNK19DigProcesAansturing18geefProcesControleEv,.-_ZNK19DigProcesAansturing18geefProcesControleEv
 771              	 .section .text._ZNK19DigProcesAansturing14geefProcestypeEv,"ax",%progbits
 772              	 .align 1
 773              	 .global _ZNK19DigProcesAansturing14geefProcestypeEv
 774              	 .syntax unified
 775              	 .thumb
 776              	 .thumb_func
 777              	 .type _ZNK19DigProcesAansturing14geefProcestypeEv,%function
 778              	_ZNK19DigProcesAansturing14geefProcestypeEv:
 779              	.LFB275:
 122:C:\Users\niels\Documents\Elektrotechniek\Jaar 2\ECS\ECSL\software\STM32\STM32Basis\HAL\gemeenschappelijk\Third_Party\ESE_BSP\DigProcesAansturing\DigProcesAansturing.cpp **** 
 123:C:\Users\niels\Documents\Elektrotechniek\Jaar 2\ECS\ECSL\software\STM32\STM32Basis\HAL\gemeenschappelijk\Third_Party\ESE_BSP\DigProcesAansturing\DigProcesAansturing.cpp **** DigProcesAansturing::ProcesType DigProcesAansturing::geefProcestype() const
 124:C:\Users\niels\Documents\Elektrotechniek\Jaar 2\ECS\ECSL\software\STM32\STM32Basis\HAL\gemeenschappelijk\Third_Party\ESE_BSP\DigProcesAansturing\DigProcesAansturing.cpp **** {
 780              	 .loc 1 124 1
 781              	 .cfi_startproc
 782              	 
 783              	 
 784 0000 80B5     	 push {r7,lr}
 785              	 .cfi_def_cfa_offset 8
 786              	 .cfi_offset 7,-8
 787              	 .cfi_offset 14,-4
 788 0002 84B0     	 sub sp,sp,#16
 789              	 .cfi_def_cfa_offset 24
 790 0004 00AF     	 add r7,sp,#0
 791              	 .cfi_def_cfa_register 7
 792 0006 7860     	 str r0,[r7,#4]
 125:C:\Users\niels\Documents\Elektrotechniek\Jaar 2\ECS\ECSL\software\STM32\STM32Basis\HAL\gemeenschappelijk\Third_Party\ESE_BSP\DigProcesAansturing\DigProcesAansturing.cpp **** 	const auto type = static_cast<ProcesType>(this->operator [] (1));
 793              	 .loc 1 125 64
 794 0008 7B68     	 ldr r3,[r7,#4]
 795 000a 0121     	 movs r1,#1
 796 000c 1846     	 mov r0,r3
 797 000e FFF7FEFF 	 bl _ZNK10DataPakketIhEixEm
 798 0012 0346     	 mov r3,r0
 799              	 .loc 1 125 65
 800 0014 1B78     	 ldrb r3,[r3]
 801 0016 FB73     	 strb r3,[r7,#15]
 126:C:\Users\niels\Documents\Elektrotechniek\Jaar 2\ECS\ECSL\software\STM32\STM32Basis\HAL\gemeenschappelijk\Third_Party\ESE_BSP\DigProcesAansturing\DigProcesAansturing.cpp **** 	return(type);
 802              	 .loc 1 126 13
 803 0018 FB7B     	 ldrb r3,[r7,#15]
 127:C:\Users\niels\Documents\Elektrotechniek\Jaar 2\ECS\ECSL\software\STM32\STM32Basis\HAL\gemeenschappelijk\Third_Party\ESE_BSP\DigProcesAansturing\DigProcesAansturing.cpp **** }
 804              	 .loc 1 127 1
 805 001a 1846     	 mov r0,r3
 806 001c 1037     	 adds r7,r7,#16
 807              	 .cfi_def_cfa_offset 8
 808 001e BD46     	 mov sp,r7
 809              	 .cfi_def_cfa_register 13
 810              	 
 811 0020 80BD     	 pop {r7,pc}
 812              	 .cfi_endproc
 813              	.LFE275:
 814              	 .size _ZNK19DigProcesAansturing14geefProcestypeEv,.-_ZNK19DigProcesAansturing14geefProcestypeEv
 815              	 .section .rodata
 816 0111 000000   	 .align 2
 817              	.LC3:
 818 0114 28696465 	 .ascii "(identificeerCommando() >= ProcesCmd::ZetNuldeOrdeP"
ARM GAS   			page 18


 818      6E746966 
 818      69636565 
 818      72436F6D 
 818      6D616E64 
 819 0147 6172616D 	 .ascii "arams) && (identificeerCommando() <= ProcesCmd::Zet"
 819      73292026 
 819      26202869 
 819      64656E74 
 819      69666963 
 820 017a 54776565 	 .ascii "TweedeOrdeParams)\000"
 820      64654F72 
 820      64655061 
 820      72616D73 
 820      2900
 821              	 .align 2
 822              	.LC4:
 823 018c 666C6F61 	 .ascii "float DigProcesAansturing::geefKp() const\000"
 823      74204469 
 823      6750726F 
 823      63657341 
 823      616E7374 
 824              	 .section .text._ZNK19DigProcesAansturing6geefKpEv,"ax",%progbits
 825              	 .align 1
 826              	 .global _ZNK19DigProcesAansturing6geefKpEv
 827              	 .syntax unified
 828              	 .thumb
 829              	 .thumb_func
 830              	 .type _ZNK19DigProcesAansturing6geefKpEv,%function
 831              	_ZNK19DigProcesAansturing6geefKpEv:
 832              	.LFB276:
 128:C:\Users\niels\Documents\Elektrotechniek\Jaar 2\ECS\ECSL\software\STM32\STM32Basis\HAL\gemeenschappelijk\Third_Party\ESE_BSP\DigProcesAansturing\DigProcesAansturing.cpp **** 
 129:C:\Users\niels\Documents\Elektrotechniek\Jaar 2\ECS\ECSL\software\STM32\STM32Basis\HAL\gemeenschappelijk\Third_Party\ESE_BSP\DigProcesAansturing\DigProcesAansturing.cpp **** 
 130:C:\Users\niels\Documents\Elektrotechniek\Jaar 2\ECS\ECSL\software\STM32\STM32Basis\HAL\gemeenschappelijk\Third_Party\ESE_BSP\DigProcesAansturing\DigProcesAansturing.cpp **** float DigProcesAansturing::geefKp() const
 131:C:\Users\niels\Documents\Elektrotechniek\Jaar 2\ECS\ECSL\software\STM32\STM32Basis\HAL\gemeenschappelijk\Third_Party\ESE_BSP\DigProcesAansturing\DigProcesAansturing.cpp **** {
 833              	 .loc 1 131 1
 834              	 .cfi_startproc
 835              	 
 836              	 
 837 0000 80B5     	 push {r7,lr}
 838              	 .cfi_def_cfa_offset 8
 839              	 .cfi_offset 7,-8
 840              	 .cfi_offset 14,-4
 841 0002 84B0     	 sub sp,sp,#16
 842              	 .cfi_def_cfa_offset 24
 843 0004 00AF     	 add r7,sp,#0
 844              	 .cfi_def_cfa_register 7
 845 0006 7860     	 str r0,[r7,#4]
 132:C:\Users\niels\Documents\Elektrotechniek\Jaar 2\ECS\ECSL\software\STM32\STM32Basis\HAL\gemeenschappelijk\Third_Party\ESE_BSP\DigProcesAansturing\DigProcesAansturing.cpp **** 	assert((identificeerCommando() >= ProcesCmd::ZetNuldeOrdeParams) &&
 846              	 .loc 1 132 2
 847 0008 7868     	 ldr r0,[r7,#4]
 848 000a FFF7FEFF 	 bl _ZNK19DigProcesAansturing20identificeerCommandoEv
 849 000e 0346     	 mov r3,r0
 850 0010 022B     	 cmp r3,#2
 851 0012 05D9     	 bls .L25
 852              	 .loc 1 132 2 is_stmt 0 discriminator 1
 853 0014 7868     	 ldr r0,[r7,#4]
 854 0016 FFF7FEFF 	 bl _ZNK19DigProcesAansturing20identificeerCommandoEv
ARM GAS   			page 19


 855 001a 0346     	 mov r3,r0
 856 001c 052B     	 cmp r3,#5
 857 001e 05D9     	 bls .L28
 858              	.L25:
 859              	 .loc 1 132 2 discriminator 3
 860 0020 0D4B     	 ldr r3,.L29
 861 0022 0E4A     	 ldr r2,.L29+4
 862 0024 8421     	 movs r1,#132
 863 0026 0E48     	 ldr r0,.L29+8
 864 0028 FFF7FEFF 	 bl __assert_func
 865              	.L28:
 133:C:\Users\niels\Documents\Elektrotechniek\Jaar 2\ECS\ECSL\software\STM32\STM32Basis\HAL\gemeenschappelijk\Third_Party\ESE_BSP\DigProcesAansturing\DigProcesAansturing.cpp **** 				   (identificeerCommando() <= ProcesCmd::ZetTweedeOrdeParams));
 134:C:\Users\niels\Documents\Elektrotechniek\Jaar 2\ECS\ECSL\software\STM32\STM32Basis\HAL\gemeenschappelijk\Third_Party\ESE_BSP\DigProcesAansturing\DigProcesAansturing.cpp **** 	float kpparam;
 135:C:\Users\niels\Documents\Elektrotechniek\Jaar 2\ECS\ECSL\software\STM32\STM32Basis\HAL\gemeenschappelijk\Third_Party\ESE_BSP\DigProcesAansturing\DigProcesAansturing.cpp **** 	auto srcPtr = &(this->operator [] (1));
 866              	 .loc 1 135 38 is_stmt 1
 867 002c 7B68     	 ldr r3,[r7,#4]
 868 002e 0121     	 movs r1,#1
 869 0030 1846     	 mov r0,r3
 870 0032 FFF7FEFF 	 bl _ZNK10DataPakketIhEixEm
 871 0036 F860     	 str r0,[r7,#12]
 136:C:\Users\niels\Documents\Elektrotechniek\Jaar 2\ECS\ECSL\software\STM32\STM32Basis\HAL\gemeenschappelijk\Third_Party\ESE_BSP\DigProcesAansturing\DigProcesAansturing.cpp **** 	memcpy(reinterpret_cast<UInt8 *>(&kpparam),srcPtr,sizeof(float));
 872              	 .loc 1 136 8
 873 0038 07F10803 	 add r3,r7,#8
 874 003c 0422     	 movs r2,#4
 875 003e F968     	 ldr r1,[r7,#12]
 876 0040 1846     	 mov r0,r3
 877 0042 FFF7FEFF 	 bl memcpy
 137:C:\Users\niels\Documents\Elektrotechniek\Jaar 2\ECS\ECSL\software\STM32\STM32Basis\HAL\gemeenschappelijk\Third_Party\ESE_BSP\DigProcesAansturing\DigProcesAansturing.cpp **** 	return(kpparam);
 878              	 .loc 1 137 16
 879 0046 BB68     	 ldr r3,[r7,#8]
 880 0048 07EE903A 	 vmov s15,r3
 138:C:\Users\niels\Documents\Elektrotechniek\Jaar 2\ECS\ECSL\software\STM32\STM32Basis\HAL\gemeenschappelijk\Third_Party\ESE_BSP\DigProcesAansturing\DigProcesAansturing.cpp **** }
 881              	 .loc 1 138 1
 882 004c B0EE670A 	 vmov.f32 s0,s15
 883 0050 1037     	 adds r7,r7,#16
 884              	 .cfi_def_cfa_offset 8
 885 0052 BD46     	 mov sp,r7
 886              	 .cfi_def_cfa_register 13
 887              	 
 888 0054 80BD     	 pop {r7,pc}
 889              	.L30:
 890 0056 00BF     	 .align 2
 891              	.L29:
 892 0058 14010000 	 .word .LC3
 893 005c 8C010000 	 .word .LC4
 894 0060 68000000 	 .word .LC2
 895              	 .cfi_endproc
 896              	.LFE276:
 897              	 .size _ZNK19DigProcesAansturing6geefKpEv,.-_ZNK19DigProcesAansturing6geefKpEv
 898              	 .section .rodata
 899 01b6 0000     	 .align 2
 900              	.LC5:
 901 01b8 28696465 	 .ascii "(identificeerCommando() == ProcesCmd::ZetEersteOrde"
 901      6E746966 
 901      69636565 
 901      72436F6D 
 901      6D616E64 
ARM GAS   			page 20


 902 01eb 50617261 	 .ascii "Params)\000"
 902      6D732900 
 903 01f3 00       	 .align 2
 904              	.LC6:
 905 01f4 666C6F61 	 .ascii "float DigProcesAansturing::geefTau() const\000"
 905      74204469 
 905      6750726F 
 905      63657341 
 905      616E7374 
 906              	 .section .text._ZNK19DigProcesAansturing7geefTauEv,"ax",%progbits
 907              	 .align 1
 908              	 .global _ZNK19DigProcesAansturing7geefTauEv
 909              	 .syntax unified
 910              	 .thumb
 911              	 .thumb_func
 912              	 .type _ZNK19DigProcesAansturing7geefTauEv,%function
 913              	_ZNK19DigProcesAansturing7geefTauEv:
 914              	.LFB277:
 139:C:\Users\niels\Documents\Elektrotechniek\Jaar 2\ECS\ECSL\software\STM32\STM32Basis\HAL\gemeenschappelijk\Third_Party\ESE_BSP\DigProcesAansturing\DigProcesAansturing.cpp **** 
 140:C:\Users\niels\Documents\Elektrotechniek\Jaar 2\ECS\ECSL\software\STM32\STM32Basis\HAL\gemeenschappelijk\Third_Party\ESE_BSP\DigProcesAansturing\DigProcesAansturing.cpp **** float DigProcesAansturing::geefTau() const
 141:C:\Users\niels\Documents\Elektrotechniek\Jaar 2\ECS\ECSL\software\STM32\STM32Basis\HAL\gemeenschappelijk\Third_Party\ESE_BSP\DigProcesAansturing\DigProcesAansturing.cpp **** {
 915              	 .loc 1 141 1
 916              	 .cfi_startproc
 917              	 
 918              	 
 919 0000 80B5     	 push {r7,lr}
 920              	 .cfi_def_cfa_offset 8
 921              	 .cfi_offset 7,-8
 922              	 .cfi_offset 14,-4
 923 0002 84B0     	 sub sp,sp,#16
 924              	 .cfi_def_cfa_offset 24
 925 0004 00AF     	 add r7,sp,#0
 926              	 .cfi_def_cfa_register 7
 927 0006 7860     	 str r0,[r7,#4]
 142:C:\Users\niels\Documents\Elektrotechniek\Jaar 2\ECS\ECSL\software\STM32\STM32Basis\HAL\gemeenschappelijk\Third_Party\ESE_BSP\DigProcesAansturing\DigProcesAansturing.cpp **** 	assert((identificeerCommando() == ProcesCmd::ZetEersteOrdeParams));
 928              	 .loc 1 142 2
 929 0008 7868     	 ldr r0,[r7,#4]
 930 000a FFF7FEFF 	 bl _ZNK19DigProcesAansturing20identificeerCommandoEv
 931 000e 0346     	 mov r3,r0
 932 0010 042B     	 cmp r3,#4
 933 0012 05D0     	 beq .L32
 934              	 .loc 1 142 2 is_stmt 0 discriminator 1
 935 0014 0D4B     	 ldr r3,.L34
 936 0016 0E4A     	 ldr r2,.L34+4
 937 0018 8E21     	 movs r1,#142
 938 001a 0E48     	 ldr r0,.L34+8
 939 001c FFF7FEFF 	 bl __assert_func
 940              	.L32:
 143:C:\Users\niels\Documents\Elektrotechniek\Jaar 2\ECS\ECSL\software\STM32\STM32Basis\HAL\gemeenschappelijk\Third_Party\ESE_BSP\DigProcesAansturing\DigProcesAansturing.cpp **** 
 144:C:\Users\niels\Documents\Elektrotechniek\Jaar 2\ECS\ECSL\software\STM32\STM32Basis\HAL\gemeenschappelijk\Third_Party\ESE_BSP\DigProcesAansturing\DigProcesAansturing.cpp **** 	float tauparam;
 145:C:\Users\niels\Documents\Elektrotechniek\Jaar 2\ECS\ECSL\software\STM32\STM32Basis\HAL\gemeenschappelijk\Third_Party\ESE_BSP\DigProcesAansturing\DigProcesAansturing.cpp **** 	auto srcPtr = &(this->operator [] (1+sizeof(float)));
 941              	 .loc 1 145 52 is_stmt 1
 942 0020 7B68     	 ldr r3,[r7,#4]
 943 0022 0521     	 movs r1,#5
 944 0024 1846     	 mov r0,r3
 945 0026 FFF7FEFF 	 bl _ZNK10DataPakketIhEixEm
 946 002a F860     	 str r0,[r7,#12]
ARM GAS   			page 21


 146:C:\Users\niels\Documents\Elektrotechniek\Jaar 2\ECS\ECSL\software\STM32\STM32Basis\HAL\gemeenschappelijk\Third_Party\ESE_BSP\DigProcesAansturing\DigProcesAansturing.cpp **** 	memcpy(reinterpret_cast<UInt8 *>(&tauparam),srcPtr,sizeof(float));
 947              	 .loc 1 146 8
 948 002c 07F10803 	 add r3,r7,#8
 949 0030 0422     	 movs r2,#4
 950 0032 F968     	 ldr r1,[r7,#12]
 951 0034 1846     	 mov r0,r3
 952 0036 FFF7FEFF 	 bl memcpy
 147:C:\Users\niels\Documents\Elektrotechniek\Jaar 2\ECS\ECSL\software\STM32\STM32Basis\HAL\gemeenschappelijk\Third_Party\ESE_BSP\DigProcesAansturing\DigProcesAansturing.cpp **** 	return(tauparam);
 953              	 .loc 1 147 17
 954 003a BB68     	 ldr r3,[r7,#8]
 955 003c 07EE903A 	 vmov s15,r3
 148:C:\Users\niels\Documents\Elektrotechniek\Jaar 2\ECS\ECSL\software\STM32\STM32Basis\HAL\gemeenschappelijk\Third_Party\ESE_BSP\DigProcesAansturing\DigProcesAansturing.cpp **** }
 956              	 .loc 1 148 1
 957 0040 B0EE670A 	 vmov.f32 s0,s15
 958 0044 1037     	 adds r7,r7,#16
 959              	 .cfi_def_cfa_offset 8
 960 0046 BD46     	 mov sp,r7
 961              	 .cfi_def_cfa_register 13
 962              	 
 963 0048 80BD     	 pop {r7,pc}
 964              	.L35:
 965 004a 00BF     	 .align 2
 966              	.L34:
 967 004c B8010000 	 .word .LC5
 968 0050 F4010000 	 .word .LC6
 969 0054 68000000 	 .word .LC2
 970              	 .cfi_endproc
 971              	.LFE277:
 972              	 .size _ZNK19DigProcesAansturing7geefTauEv,.-_ZNK19DigProcesAansturing7geefTauEv
 973              	 .section .rodata
 974 021f 00       	 .align 2
 975              	.LC7:
 976 0220 28696465 	 .ascii "(identificeerCommando() == ProcesCmd::ZetTweedeOrde"
 976      6E746966 
 976      69636565 
 976      72436F6D 
 976      6D616E64 
 977 0253 50617261 	 .ascii "Params)\000"
 977      6D732900 
 978 025b 00       	 .align 2
 979              	.LC8:
 980 025c 666C6F61 	 .ascii "float DigProcesAansturing::geefOmega0() const\000"
 980      74204469 
 980      6750726F 
 980      63657341 
 980      616E7374 
 981              	 .section .text._ZNK19DigProcesAansturing10geefOmega0Ev,"ax",%progbits
 982              	 .align 1
 983              	 .global _ZNK19DigProcesAansturing10geefOmega0Ev
 984              	 .syntax unified
 985              	 .thumb
 986              	 .thumb_func
 987              	 .type _ZNK19DigProcesAansturing10geefOmega0Ev,%function
 988              	_ZNK19DigProcesAansturing10geefOmega0Ev:
 989              	.LFB278:
 149:C:\Users\niels\Documents\Elektrotechniek\Jaar 2\ECS\ECSL\software\STM32\STM32Basis\HAL\gemeenschappelijk\Third_Party\ESE_BSP\DigProcesAansturing\DigProcesAansturing.cpp **** 
 150:C:\Users\niels\Documents\Elektrotechniek\Jaar 2\ECS\ECSL\software\STM32\STM32Basis\HAL\gemeenschappelijk\Third_Party\ESE_BSP\DigProcesAansturing\DigProcesAansturing.cpp **** float DigProcesAansturing::geefOmega0() const
ARM GAS   			page 22


 151:C:\Users\niels\Documents\Elektrotechniek\Jaar 2\ECS\ECSL\software\STM32\STM32Basis\HAL\gemeenschappelijk\Third_Party\ESE_BSP\DigProcesAansturing\DigProcesAansturing.cpp **** {
 990              	 .loc 1 151 1
 991              	 .cfi_startproc
 992              	 
 993              	 
 994 0000 80B5     	 push {r7,lr}
 995              	 .cfi_def_cfa_offset 8
 996              	 .cfi_offset 7,-8
 997              	 .cfi_offset 14,-4
 998 0002 84B0     	 sub sp,sp,#16
 999              	 .cfi_def_cfa_offset 24
 1000 0004 00AF     	 add r7,sp,#0
 1001              	 .cfi_def_cfa_register 7
 1002 0006 7860     	 str r0,[r7,#4]
 152:C:\Users\niels\Documents\Elektrotechniek\Jaar 2\ECS\ECSL\software\STM32\STM32Basis\HAL\gemeenschappelijk\Third_Party\ESE_BSP\DigProcesAansturing\DigProcesAansturing.cpp **** 	assert((identificeerCommando() == ProcesCmd::ZetTweedeOrdeParams));
 1003              	 .loc 1 152 2
 1004 0008 7868     	 ldr r0,[r7,#4]
 1005 000a FFF7FEFF 	 bl _ZNK19DigProcesAansturing20identificeerCommandoEv
 1006 000e 0346     	 mov r3,r0
 1007 0010 052B     	 cmp r3,#5
 1008 0012 05D0     	 beq .L37
 1009              	 .loc 1 152 2 is_stmt 0 discriminator 1
 1010 0014 0D4B     	 ldr r3,.L39
 1011 0016 0E4A     	 ldr r2,.L39+4
 1012 0018 9821     	 movs r1,#152
 1013 001a 0E48     	 ldr r0,.L39+8
 1014 001c FFF7FEFF 	 bl __assert_func
 1015              	.L37:
 153:C:\Users\niels\Documents\Elektrotechniek\Jaar 2\ECS\ECSL\software\STM32\STM32Basis\HAL\gemeenschappelijk\Third_Party\ESE_BSP\DigProcesAansturing\DigProcesAansturing.cpp **** 
 154:C:\Users\niels\Documents\Elektrotechniek\Jaar 2\ECS\ECSL\software\STM32\STM32Basis\HAL\gemeenschappelijk\Third_Party\ESE_BSP\DigProcesAansturing\DigProcesAansturing.cpp **** 	float omega0param;
 155:C:\Users\niels\Documents\Elektrotechniek\Jaar 2\ECS\ECSL\software\STM32\STM32Basis\HAL\gemeenschappelijk\Third_Party\ESE_BSP\DigProcesAansturing\DigProcesAansturing.cpp **** 	auto srcPtr = &(this->operator [] (1+sizeof(float)));
 1016              	 .loc 1 155 52 is_stmt 1
 1017 0020 7B68     	 ldr r3,[r7,#4]
 1018 0022 0521     	 movs r1,#5
 1019 0024 1846     	 mov r0,r3
 1020 0026 FFF7FEFF 	 bl _ZNK10DataPakketIhEixEm
 1021 002a F860     	 str r0,[r7,#12]
 156:C:\Users\niels\Documents\Elektrotechniek\Jaar 2\ECS\ECSL\software\STM32\STM32Basis\HAL\gemeenschappelijk\Third_Party\ESE_BSP\DigProcesAansturing\DigProcesAansturing.cpp **** 	memcpy(reinterpret_cast<UInt8 *>(&omega0param),srcPtr,sizeof(float));
 1022              	 .loc 1 156 8
 1023 002c 07F10803 	 add r3,r7,#8
 1024 0030 0422     	 movs r2,#4
 1025 0032 F968     	 ldr r1,[r7,#12]
 1026 0034 1846     	 mov r0,r3
 1027 0036 FFF7FEFF 	 bl memcpy
 157:C:\Users\niels\Documents\Elektrotechniek\Jaar 2\ECS\ECSL\software\STM32\STM32Basis\HAL\gemeenschappelijk\Third_Party\ESE_BSP\DigProcesAansturing\DigProcesAansturing.cpp **** 	return(omega0param);
 1028              	 .loc 1 157 20
 1029 003a BB68     	 ldr r3,[r7,#8]
 1030 003c 07EE903A 	 vmov s15,r3
 158:C:\Users\niels\Documents\Elektrotechniek\Jaar 2\ECS\ECSL\software\STM32\STM32Basis\HAL\gemeenschappelijk\Third_Party\ESE_BSP\DigProcesAansturing\DigProcesAansturing.cpp **** }
 1031              	 .loc 1 158 1
 1032 0040 B0EE670A 	 vmov.f32 s0,s15
 1033 0044 1037     	 adds r7,r7,#16
 1034              	 .cfi_def_cfa_offset 8
 1035 0046 BD46     	 mov sp,r7
 1036              	 .cfi_def_cfa_register 13
 1037              	 
 1038 0048 80BD     	 pop {r7,pc}
ARM GAS   			page 23


 1039              	.L40:
 1040 004a 00BF     	 .align 2
 1041              	.L39:
 1042 004c 20020000 	 .word .LC7
 1043 0050 5C020000 	 .word .LC8
 1044 0054 68000000 	 .word .LC2
 1045              	 .cfi_endproc
 1046              	.LFE278:
 1047              	 .size _ZNK19DigProcesAansturing10geefOmega0Ev,.-_ZNK19DigProcesAansturing10geefOmega0Ev
 1048              	 .section .rodata
 1049 028a 0000     	 .align 2
 1050              	.LC9:
 1051 028c 666C6F61 	 .ascii "float DigProcesAansturing::geefBeta() const\000"
 1051      74204469 
 1051      6750726F 
 1051      63657341 
 1051      616E7374 
 1052              	 .section .text._ZNK19DigProcesAansturing8geefBetaEv,"ax",%progbits
 1053              	 .align 1
 1054              	 .global _ZNK19DigProcesAansturing8geefBetaEv
 1055              	 .syntax unified
 1056              	 .thumb
 1057              	 .thumb_func
 1058              	 .type _ZNK19DigProcesAansturing8geefBetaEv,%function
 1059              	_ZNK19DigProcesAansturing8geefBetaEv:
 1060              	.LFB279:
 159:C:\Users\niels\Documents\Elektrotechniek\Jaar 2\ECS\ECSL\software\STM32\STM32Basis\HAL\gemeenschappelijk\Third_Party\ESE_BSP\DigProcesAansturing\DigProcesAansturing.cpp **** 
 160:C:\Users\niels\Documents\Elektrotechniek\Jaar 2\ECS\ECSL\software\STM32\STM32Basis\HAL\gemeenschappelijk\Third_Party\ESE_BSP\DigProcesAansturing\DigProcesAansturing.cpp **** float DigProcesAansturing::geefBeta() const
 161:C:\Users\niels\Documents\Elektrotechniek\Jaar 2\ECS\ECSL\software\STM32\STM32Basis\HAL\gemeenschappelijk\Third_Party\ESE_BSP\DigProcesAansturing\DigProcesAansturing.cpp **** {
 1061              	 .loc 1 161 1
 1062              	 .cfi_startproc
 1063              	 
 1064              	 
 1065 0000 80B5     	 push {r7,lr}
 1066              	 .cfi_def_cfa_offset 8
 1067              	 .cfi_offset 7,-8
 1068              	 .cfi_offset 14,-4
 1069 0002 84B0     	 sub sp,sp,#16
 1070              	 .cfi_def_cfa_offset 24
 1071 0004 00AF     	 add r7,sp,#0
 1072              	 .cfi_def_cfa_register 7
 1073 0006 7860     	 str r0,[r7,#4]
 162:C:\Users\niels\Documents\Elektrotechniek\Jaar 2\ECS\ECSL\software\STM32\STM32Basis\HAL\gemeenschappelijk\Third_Party\ESE_BSP\DigProcesAansturing\DigProcesAansturing.cpp **** 	assert((identificeerCommando() == ProcesCmd::ZetTweedeOrdeParams));
 1074              	 .loc 1 162 2
 1075 0008 7868     	 ldr r0,[r7,#4]
 1076 000a FFF7FEFF 	 bl _ZNK19DigProcesAansturing20identificeerCommandoEv
 1077 000e 0346     	 mov r3,r0
 1078 0010 052B     	 cmp r3,#5
 1079 0012 05D0     	 beq .L42
 1080              	 .loc 1 162 2 is_stmt 0 discriminator 1
 1081 0014 0D4B     	 ldr r3,.L44
 1082 0016 0E4A     	 ldr r2,.L44+4
 1083 0018 A221     	 movs r1,#162
 1084 001a 0E48     	 ldr r0,.L44+8
 1085 001c FFF7FEFF 	 bl __assert_func
 1086              	.L42:
 163:C:\Users\niels\Documents\Elektrotechniek\Jaar 2\ECS\ECSL\software\STM32\STM32Basis\HAL\gemeenschappelijk\Third_Party\ESE_BSP\DigProcesAansturing\DigProcesAansturing.cpp **** 
ARM GAS   			page 24


 164:C:\Users\niels\Documents\Elektrotechniek\Jaar 2\ECS\ECSL\software\STM32\STM32Basis\HAL\gemeenschappelijk\Third_Party\ESE_BSP\DigProcesAansturing\DigProcesAansturing.cpp **** 	float betaparam;
 165:C:\Users\niels\Documents\Elektrotechniek\Jaar 2\ECS\ECSL\software\STM32\STM32Basis\HAL\gemeenschappelijk\Third_Party\ESE_BSP\DigProcesAansturing\DigProcesAansturing.cpp **** 	auto srcPtr = &(this->operator [] (1+(2*sizeof(float))));
 1087              	 .loc 1 165 56 is_stmt 1
 1088 0020 7B68     	 ldr r3,[r7,#4]
 1089 0022 0921     	 movs r1,#9
 1090 0024 1846     	 mov r0,r3
 1091 0026 FFF7FEFF 	 bl _ZNK10DataPakketIhEixEm
 1092 002a F860     	 str r0,[r7,#12]
 166:C:\Users\niels\Documents\Elektrotechniek\Jaar 2\ECS\ECSL\software\STM32\STM32Basis\HAL\gemeenschappelijk\Third_Party\ESE_BSP\DigProcesAansturing\DigProcesAansturing.cpp **** 	memcpy(reinterpret_cast<UInt8 *>(&betaparam),srcPtr,sizeof(float));
 1093              	 .loc 1 166 8
 1094 002c 07F10803 	 add r3,r7,#8
 1095 0030 0422     	 movs r2,#4
 1096 0032 F968     	 ldr r1,[r7,#12]
 1097 0034 1846     	 mov r0,r3
 1098 0036 FFF7FEFF 	 bl memcpy
 167:C:\Users\niels\Documents\Elektrotechniek\Jaar 2\ECS\ECSL\software\STM32\STM32Basis\HAL\gemeenschappelijk\Third_Party\ESE_BSP\DigProcesAansturing\DigProcesAansturing.cpp **** 	return(betaparam);
 1099              	 .loc 1 167 18
 1100 003a BB68     	 ldr r3,[r7,#8]
 1101 003c 07EE903A 	 vmov s15,r3
 168:C:\Users\niels\Documents\Elektrotechniek\Jaar 2\ECS\ECSL\software\STM32\STM32Basis\HAL\gemeenschappelijk\Third_Party\ESE_BSP\DigProcesAansturing\DigProcesAansturing.cpp **** }
 1102              	 .loc 1 168 1
 1103 0040 B0EE670A 	 vmov.f32 s0,s15
 1104 0044 1037     	 adds r7,r7,#16
 1105              	 .cfi_def_cfa_offset 8
 1106 0046 BD46     	 mov sp,r7
 1107              	 .cfi_def_cfa_register 13
 1108              	 
 1109 0048 80BD     	 pop {r7,pc}
 1110              	.L45:
 1111 004a 00BF     	 .align 2
 1112              	.L44:
 1113 004c 20020000 	 .word .LC7
 1114 0050 8C020000 	 .word .LC9
 1115 0054 68000000 	 .word .LC2
 1116              	 .cfi_endproc
 1117              	.LFE279:
 1118              	 .size _ZNK19DigProcesAansturing8geefBetaEv,.-_ZNK19DigProcesAansturing8geefBetaEv
 1119              	 .section .rodata
 1120              	 .align 2
 1121              	.LC10:
 1122 02b8 696E6465 	 .ascii "index < grootte\000"
 1122      78203C20 
 1122      67726F6F 
 1122      74746500 
 1123              	 .align 2
 1124              	.LC11:
 1125 02c8 74747970 	 .ascii "ttype& DataPakket<ttype>::operator[](UInt32) const "
 1125      65262044 
 1125      61746150 
 1125      616B6B65 
 1125      743C7474 
 1126 02fb 5B776974 	 .ascii "[with ttype = unsigned char; UInt32 = long unsigned"
 1126      68207474 
 1126      79706520 
 1126      3D20756E 
 1126      7369676E 
 1127 032e 20696E74 	 .ascii " int]\000"
ARM GAS   			page 25


 1127      5D00
 1128              	 .align 2
 1129              	.LC12:
 1130 0334 433A2F55 	 .ascii "C:/Users/niels/DOCUME~1/ELEKTR~1/JAAR2~1/ECS/ECSL/s"
 1130      73657273 
 1130      2F6E6965 
 1130      6C732F44 
 1130      4F43554D 
 1131 0367 6F667477 	 .ascii "oftware/algemeen/h/dataPakket.h\000"
 1131      6172652F 
 1131      616C6765 
 1131      6D65656E 
 1131      2F682F64 
 1132              	 .section .text._ZNK10DataPakketIhEixEm,"axG",%progbits,_ZNK10DataPakketIhEixEm,comdat
 1133              	 .align 1
 1134              	 .weak _ZNK10DataPakketIhEixEm
 1135              	 .syntax unified
 1136              	 .thumb
 1137              	 .thumb_func
 1138              	 .type _ZNK10DataPakketIhEixEm,%function
 1139              	_ZNK10DataPakketIhEixEm:
 1140              	.LFB280:
 1141              	 .file 2 "C:/Users/niels/DOCUME~1/ELEKTR~1/JAAR2~1/ECS/ECSL/software/algemeen/h/dataPakket.h"
   1:C:/Users/niels/DOCUME~1/ELEKTR~1/JAAR2~1/ECS/ECSL/software/algemeen/h\dataPakket.h **** /******************************************************************************
   2:C:/Users/niels/DOCUME~1/ELEKTR~1/JAAR2~1/ECS/ECSL/software/algemeen/h\dataPakket.h ****  * Project        : ES2 Project 3 en DSB Practicum
   3:C:/Users/niels/DOCUME~1/ELEKTR~1/JAAR2~1/ECS/ECSL/software/algemeen/h\dataPakket.h ****  * Copyright      : 2010-2015 - H. Arends en E.J Boks
   4:C:/Users/niels/DOCUME~1/ELEKTR~1/JAAR2~1/ECS/ECSL/software/algemeen/h\dataPakket.h ****  ******************************************************************************
   5:C:/Users/niels/DOCUME~1/ELEKTR~1/JAAR2~1/ECS/ECSL/software/algemeen/h\dataPakket.h **** 
   6:C:/Users/niels/DOCUME~1/ELEKTR~1/JAAR2~1/ECS/ECSL/software/algemeen/h\dataPakket.h ****  Template voor het bundelen van data.
   7:C:/Users/niels/DOCUME~1/ELEKTR~1/JAAR2~1/ECS/ECSL/software/algemeen/h\dataPakket.h **** 
   8:C:/Users/niels/DOCUME~1/ELEKTR~1/JAAR2~1/ECS/ECSL/software/algemeen/h\dataPakket.h **** ******************************************************************************/
   9:C:/Users/niels/DOCUME~1/ELEKTR~1/JAAR2~1/ECS/ECSL/software/algemeen/h\dataPakket.h **** /* $Id: dataPakket.h 3672 2019-10-29 12:15:09Z ewout $                       */
  10:C:/Users/niels/DOCUME~1/ELEKTR~1/JAAR2~1/ECS/ECSL/software/algemeen/h\dataPakket.h **** 
  11:C:/Users/niels/DOCUME~1/ELEKTR~1/JAAR2~1/ECS/ECSL/software/algemeen/h\dataPakket.h **** #ifndef HANESE_DataPakket_H_
  12:C:/Users/niels/DOCUME~1/ELEKTR~1/JAAR2~1/ECS/ECSL/software/algemeen/h\dataPakket.h **** #define HANESE_DataPakket_H_
  13:C:/Users/niels/DOCUME~1/ELEKTR~1/JAAR2~1/ECS/ECSL/software/algemeen/h\dataPakket.h **** 
  14:C:/Users/niels/DOCUME~1/ELEKTR~1/JAAR2~1/ECS/ECSL/software/algemeen/h\dataPakket.h **** #include <stdio.h>
  15:C:/Users/niels/DOCUME~1/ELEKTR~1/JAAR2~1/ECS/ECSL/software/algemeen/h\dataPakket.h **** #include <string.h>
  16:C:/Users/niels/DOCUME~1/ELEKTR~1/JAAR2~1/ECS/ECSL/software/algemeen/h\dataPakket.h **** #include <assert.h>
  17:C:/Users/niels/DOCUME~1/ELEKTR~1/JAAR2~1/ECS/ECSL/software/algemeen/h\dataPakket.h **** #include <algdef.h>
  18:C:/Users/niels/DOCUME~1/ELEKTR~1/JAAR2~1/ECS/ECSL/software/algemeen/h\dataPakket.h **** 
  19:C:/Users/niels/DOCUME~1/ELEKTR~1/JAAR2~1/ECS/ECSL/software/algemeen/h\dataPakket.h **** /******************************************************************************
  20:C:/Users/niels/DOCUME~1/ELEKTR~1/JAAR2~1/ECS/ECSL/software/algemeen/h\dataPakket.h ****   Defines
  21:C:/Users/niels/DOCUME~1/ELEKTR~1/JAAR2~1/ECS/ECSL/software/algemeen/h\dataPakket.h **** ******************************************************************************/
  22:C:/Users/niels/DOCUME~1/ELEKTR~1/JAAR2~1/ECS/ECSL/software/algemeen/h\dataPakket.h **** const char CR='\r';
  23:C:/Users/niels/DOCUME~1/ELEKTR~1/JAAR2~1/ECS/ECSL/software/algemeen/h\dataPakket.h **** const char LF='\n';
  24:C:/Users/niels/DOCUME~1/ELEKTR~1/JAAR2~1/ECS/ECSL/software/algemeen/h\dataPakket.h **** const char BACKSPACE='\b';
  25:C:/Users/niels/DOCUME~1/ELEKTR~1/JAAR2~1/ECS/ECSL/software/algemeen/h\dataPakket.h **** const char SPACE=' ';
  26:C:/Users/niels/DOCUME~1/ELEKTR~1/JAAR2~1/ECS/ECSL/software/algemeen/h\dataPakket.h **** const char ESC=0x1B;
  27:C:/Users/niels/DOCUME~1/ELEKTR~1/JAAR2~1/ECS/ECSL/software/algemeen/h\dataPakket.h **** 
  28:C:/Users/niels/DOCUME~1/ELEKTR~1/JAAR2~1/ECS/ECSL/software/algemeen/h\dataPakket.h **** template<typename ttype>
  29:C:/Users/niels/DOCUME~1/ELEKTR~1/JAAR2~1/ECS/ECSL/software/algemeen/h\dataPakket.h **** class DataPakket
  30:C:/Users/niels/DOCUME~1/ELEKTR~1/JAAR2~1/ECS/ECSL/software/algemeen/h\dataPakket.h **** {
  31:C:/Users/niels/DOCUME~1/ELEKTR~1/JAAR2~1/ECS/ECSL/software/algemeen/h\dataPakket.h **** public:
  32:C:/Users/niels/DOCUME~1/ELEKTR~1/JAAR2~1/ECS/ECSL/software/algemeen/h\dataPakket.h **** 
  33:C:/Users/niels/DOCUME~1/ELEKTR~1/JAAR2~1/ECS/ECSL/software/algemeen/h\dataPakket.h **** 	DataPakket(ttype * const dataPtr,
  34:C:/Users/niels/DOCUME~1/ELEKTR~1/JAAR2~1/ECS/ECSL/software/algemeen/h\dataPakket.h **** 			   const UInt32 gr) : data(dataPtr),grootte(gr)
ARM GAS   			page 26


  35:C:/Users/niels/DOCUME~1/ELEKTR~1/JAAR2~1/ECS/ECSL/software/algemeen/h\dataPakket.h **** 	{
  36:C:/Users/niels/DOCUME~1/ELEKTR~1/JAAR2~1/ECS/ECSL/software/algemeen/h\dataPakket.h **** 		assert(nullptr != dataPtr);
  37:C:/Users/niels/DOCUME~1/ELEKTR~1/JAAR2~1/ECS/ECSL/software/algemeen/h\dataPakket.h **** 		assert(0 != grootte);
  38:C:/Users/niels/DOCUME~1/ELEKTR~1/JAAR2~1/ECS/ECSL/software/algemeen/h\dataPakket.h **** 	};
  39:C:/Users/niels/DOCUME~1/ELEKTR~1/JAAR2~1/ECS/ECSL/software/algemeen/h\dataPakket.h **** 
  40:C:/Users/niels/DOCUME~1/ELEKTR~1/JAAR2~1/ECS/ECSL/software/algemeen/h\dataPakket.h **** 	UInt32 geefGrootte() const
  41:C:/Users/niels/DOCUME~1/ELEKTR~1/JAAR2~1/ECS/ECSL/software/algemeen/h\dataPakket.h **** 	{
  42:C:/Users/niels/DOCUME~1/ELEKTR~1/JAAR2~1/ECS/ECSL/software/algemeen/h\dataPakket.h **** 		return(grootte);
  43:C:/Users/niels/DOCUME~1/ELEKTR~1/JAAR2~1/ECS/ECSL/software/algemeen/h\dataPakket.h **** 	};
  44:C:/Users/niels/DOCUME~1/ELEKTR~1/JAAR2~1/ECS/ECSL/software/algemeen/h\dataPakket.h **** 
  45:C:/Users/niels/DOCUME~1/ELEKTR~1/JAAR2~1/ECS/ECSL/software/algemeen/h\dataPakket.h **** 	DataPakket<ttype> & operator =  (ttype const * const dataPtr)
  46:C:/Users/niels/DOCUME~1/ELEKTR~1/JAAR2~1/ECS/ECSL/software/algemeen/h\dataPakket.h **** 	{
  47:C:/Users/niels/DOCUME~1/ELEKTR~1/JAAR2~1/ECS/ECSL/software/algemeen/h\dataPakket.h **** 		const auto hoeveelheidBytes = sizeof(ttype)*grootte;
  48:C:/Users/niels/DOCUME~1/ELEKTR~1/JAAR2~1/ECS/ECSL/software/algemeen/h\dataPakket.h **** 		assert(0!= hoeveelheidBytes);
  49:C:/Users/niels/DOCUME~1/ELEKTR~1/JAAR2~1/ECS/ECSL/software/algemeen/h\dataPakket.h **** 		auto bestemming = reinterpret_cast<UInt8 *>(data);
  50:C:/Users/niels/DOCUME~1/ELEKTR~1/JAAR2~1/ECS/ECSL/software/algemeen/h\dataPakket.h **** 		const auto bron = reinterpret_cast<UInt8 *>(dataPtr);
  51:C:/Users/niels/DOCUME~1/ELEKTR~1/JAAR2~1/ECS/ECSL/software/algemeen/h\dataPakket.h **** 		memcpy(bestemming,bron,hoeveelheidBytes);
  52:C:/Users/niels/DOCUME~1/ELEKTR~1/JAAR2~1/ECS/ECSL/software/algemeen/h\dataPakket.h **** 		return(*this);
  53:C:/Users/niels/DOCUME~1/ELEKTR~1/JAAR2~1/ECS/ECSL/software/algemeen/h\dataPakket.h **** 	}
  54:C:/Users/niels/DOCUME~1/ELEKTR~1/JAAR2~1/ECS/ECSL/software/algemeen/h\dataPakket.h **** 
  55:C:/Users/niels/DOCUME~1/ELEKTR~1/JAAR2~1/ECS/ECSL/software/algemeen/h\dataPakket.h **** 	DataPakket<ttype> & operator = (const DataPakket<ttype> &rhs)
  56:C:/Users/niels/DOCUME~1/ELEKTR~1/JAAR2~1/ECS/ECSL/software/algemeen/h\dataPakket.h **** 	{
  57:C:/Users/niels/DOCUME~1/ELEKTR~1/JAAR2~1/ECS/ECSL/software/algemeen/h\dataPakket.h **** 		assert(grootte == rhs.grootte);
  58:C:/Users/niels/DOCUME~1/ELEKTR~1/JAAR2~1/ECS/ECSL/software/algemeen/h\dataPakket.h **** 		const auto kopieGrootte = sizeof(ttype)*grootte;
  59:C:/Users/niels/DOCUME~1/ELEKTR~1/JAAR2~1/ECS/ECSL/software/algemeen/h\dataPakket.h **** 
  60:C:/Users/niels/DOCUME~1/ELEKTR~1/JAAR2~1/ECS/ECSL/software/algemeen/h\dataPakket.h **** 		auto bestemming = reinterpret_cast<UInt8 *>(data);
  61:C:/Users/niels/DOCUME~1/ELEKTR~1/JAAR2~1/ECS/ECSL/software/algemeen/h\dataPakket.h **** 		const auto bron = reinterpret_cast<UInt8 *>(rhs.data);
  62:C:/Users/niels/DOCUME~1/ELEKTR~1/JAAR2~1/ECS/ECSL/software/algemeen/h\dataPakket.h **** 		memcpy(bestemming,bron,kopieGrootte);
  63:C:/Users/niels/DOCUME~1/ELEKTR~1/JAAR2~1/ECS/ECSL/software/algemeen/h\dataPakket.h **** 		return(*this);
  64:C:/Users/niels/DOCUME~1/ELEKTR~1/JAAR2~1/ECS/ECSL/software/algemeen/h\dataPakket.h **** 	};
  65:C:/Users/niels/DOCUME~1/ELEKTR~1/JAAR2~1/ECS/ECSL/software/algemeen/h\dataPakket.h **** 
  66:C:/Users/niels/DOCUME~1/ELEKTR~1/JAAR2~1/ECS/ECSL/software/algemeen/h\dataPakket.h **** 	ttype & operator [] (const UInt32 index) const
 1142              	 .loc 2 66 10
 1143              	 .cfi_startproc
 1144              	 
 1145              	 
 1146 0000 80B5     	 push {r7,lr}
 1147              	 .cfi_def_cfa_offset 8
 1148              	 .cfi_offset 7,-8
 1149              	 .cfi_offset 14,-4
 1150 0002 82B0     	 sub sp,sp,#8
 1151              	 .cfi_def_cfa_offset 16
 1152 0004 00AF     	 add r7,sp,#0
 1153              	 .cfi_def_cfa_register 7
 1154 0006 7860     	 str r0,[r7,#4]
 1155 0008 3960     	 str r1,[r7]
  67:C:/Users/niels/DOCUME~1/ELEKTR~1/JAAR2~1/ECS/ECSL/software/algemeen/h\dataPakket.h **** 	{
  68:C:/Users/niels/DOCUME~1/ELEKTR~1/JAAR2~1/ECS/ECSL/software/algemeen/h\dataPakket.h **** 		assert(index < grootte);
 1156              	 .loc 2 68 3
 1157 000a 7B68     	 ldr r3,[r7,#4]
 1158 000c 5B68     	 ldr r3,[r3,#4]
 1159 000e 3A68     	 ldr r2,[r7]
 1160 0010 9A42     	 cmp r2,r3
 1161 0012 05D3     	 bcc .L47
 1162              	 .loc 2 68 3 is_stmt 0 discriminator 1
 1163 0014 064B     	 ldr r3,.L49
 1164 0016 074A     	 ldr r2,.L49+4
ARM GAS   			page 27


 1165 0018 4421     	 movs r1,#68
 1166 001a 0748     	 ldr r0,.L49+8
 1167 001c FFF7FEFF 	 bl __assert_func
 1168              	.L47:
  69:C:/Users/niels/DOCUME~1/ELEKTR~1/JAAR2~1/ECS/ECSL/software/algemeen/h\dataPakket.h **** 		return(data[index]);
 1169              	 .loc 2 69 10 is_stmt 1
 1170 0020 7B68     	 ldr r3,[r7,#4]
 1171 0022 1A68     	 ldr r2,[r3]
 1172              	 .loc 2 69 21
 1173 0024 3B68     	 ldr r3,[r7]
 1174 0026 1344     	 add r3,r3,r2
  70:C:/Users/niels/DOCUME~1/ELEKTR~1/JAAR2~1/ECS/ECSL/software/algemeen/h\dataPakket.h **** 	};
 1175              	 .loc 2 70 2
 1176 0028 1846     	 mov r0,r3
 1177 002a 0837     	 adds r7,r7,#8
 1178              	 .cfi_def_cfa_offset 8
 1179 002c BD46     	 mov sp,r7
 1180              	 .cfi_def_cfa_register 13
 1181              	 
 1182 002e 80BD     	 pop {r7,pc}
 1183              	.L50:
 1184              	 .align 2
 1185              	.L49:
 1186 0030 B8020000 	 .word .LC10
 1187 0034 C8020000 	 .word .LC11
 1188 0038 34030000 	 .word .LC12
 1189              	 .cfi_endproc
 1190              	.LFE280:
 1191              	 .size _ZNK10DataPakketIhEixEm,.-_ZNK10DataPakketIhEixEm
 1192              	 .section .text._ZNK10DataPakketIfE11geefGrootteEv,"axG",%progbits,_ZNK10DataPakketIfE11geefGrootteEv,comdat
 1193              	 .align 1
 1194              	 .weak _ZNK10DataPakketIfE11geefGrootteEv
 1195              	 .syntax unified
 1196              	 .thumb
 1197              	 .thumb_func
 1198              	 .type _ZNK10DataPakketIfE11geefGrootteEv,%function
 1199              	_ZNK10DataPakketIfE11geefGrootteEv:
 1200              	.LFB281:
  40:C:/Users/niels/DOCUME~1/ELEKTR~1/JAAR2~1/ECS/ECSL/software/algemeen/h\dataPakket.h **** 	{
 1201              	 .loc 2 40 9
 1202              	 .cfi_startproc
 1203              	 
 1204              	 
 1205              	 
 1206 0000 80B4     	 push {r7}
 1207              	 .cfi_def_cfa_offset 4
 1208              	 .cfi_offset 7,-4
 1209 0002 83B0     	 sub sp,sp,#12
 1210              	 .cfi_def_cfa_offset 16
 1211 0004 00AF     	 add r7,sp,#0
 1212              	 .cfi_def_cfa_register 7
 1213 0006 7860     	 str r0,[r7,#4]
  42:C:/Users/niels/DOCUME~1/ELEKTR~1/JAAR2~1/ECS/ECSL/software/algemeen/h\dataPakket.h **** 	};
 1214              	 .loc 2 42 17
 1215 0008 7B68     	 ldr r3,[r7,#4]
 1216 000a 5B68     	 ldr r3,[r3,#4]
  43:C:/Users/niels/DOCUME~1/ELEKTR~1/JAAR2~1/ECS/ECSL/software/algemeen/h\dataPakket.h **** 
ARM GAS   			page 28


 1217              	 .loc 2 43 2
 1218 000c 1846     	 mov r0,r3
 1219 000e 0C37     	 adds r7,r7,#12
 1220              	 .cfi_def_cfa_offset 4
 1221 0010 BD46     	 mov sp,r7
 1222              	 .cfi_def_cfa_register 13
 1223              	 
 1224 0012 5DF8047B 	 ldr r7,[sp],#4
 1225              	 .cfi_restore 7
 1226              	 .cfi_def_cfa_offset 0
 1227 0016 7047     	 bx lr
 1228              	 .cfi_endproc
 1229              	.LFE281:
 1230              	 .size _ZNK10DataPakketIfE11geefGrootteEv,.-_ZNK10DataPakketIfE11geefGrootteEv
 1231              	 .section .rodata
 1232 0387 00       	 .align 2
 1233              	.LC13:
 1234 0388 74747970 	 .ascii "ttype& DataPakket<ttype>::operator[](UInt32) const "
 1234      65262044 
 1234      61746150 
 1234      616B6B65 
 1234      743C7474 
 1235 03bb 5B776974 	 .ascii "[with ttype = float; UInt32 = long unsigned int]\000"
 1235      68207474 
 1235      79706520 
 1235      3D20666C 
 1235      6F61743B 
 1236              	 .section .text._ZNK10DataPakketIfEixEm,"axG",%progbits,_ZNK10DataPakketIfEixEm,comdat
 1237              	 .align 1
 1238              	 .weak _ZNK10DataPakketIfEixEm
 1239              	 .syntax unified
 1240              	 .thumb
 1241              	 .thumb_func
 1242              	 .type _ZNK10DataPakketIfEixEm,%function
 1243              	_ZNK10DataPakketIfEixEm:
 1244              	.LFB282:
  66:C:/Users/niels/DOCUME~1/ELEKTR~1/JAAR2~1/ECS/ECSL/software/algemeen/h\dataPakket.h **** 	{
 1245              	 .loc 2 66 10
 1246              	 .cfi_startproc
 1247              	 
 1248              	 
 1249 0000 80B5     	 push {r7,lr}
 1250              	 .cfi_def_cfa_offset 8
 1251              	 .cfi_offset 7,-8
 1252              	 .cfi_offset 14,-4
 1253 0002 82B0     	 sub sp,sp,#8
 1254              	 .cfi_def_cfa_offset 16
 1255 0004 00AF     	 add r7,sp,#0
 1256              	 .cfi_def_cfa_register 7
 1257 0006 7860     	 str r0,[r7,#4]
 1258 0008 3960     	 str r1,[r7]
  68:C:/Users/niels/DOCUME~1/ELEKTR~1/JAAR2~1/ECS/ECSL/software/algemeen/h\dataPakket.h **** 		return(data[index]);
 1259              	 .loc 2 68 3
 1260 000a 7B68     	 ldr r3,[r7,#4]
 1261 000c 5B68     	 ldr r3,[r3,#4]
 1262 000e 3A68     	 ldr r2,[r7]
 1263 0010 9A42     	 cmp r2,r3
ARM GAS   			page 29


 1264 0012 05D3     	 bcc .L54
  68:C:/Users/niels/DOCUME~1/ELEKTR~1/JAAR2~1/ECS/ECSL/software/algemeen/h\dataPakket.h **** 		return(data[index]);
 1265              	 .loc 2 68 3 is_stmt 0 discriminator 1
 1266 0014 074B     	 ldr r3,.L56
 1267 0016 084A     	 ldr r2,.L56+4
 1268 0018 4421     	 movs r1,#68
 1269 001a 0848     	 ldr r0,.L56+8
 1270 001c FFF7FEFF 	 bl __assert_func
 1271              	.L54:
  69:C:/Users/niels/DOCUME~1/ELEKTR~1/JAAR2~1/ECS/ECSL/software/algemeen/h\dataPakket.h **** 	};
 1272              	 .loc 2 69 10 is_stmt 1
 1273 0020 7B68     	 ldr r3,[r7,#4]
 1274 0022 1A68     	 ldr r2,[r3]
  69:C:/Users/niels/DOCUME~1/ELEKTR~1/JAAR2~1/ECS/ECSL/software/algemeen/h\dataPakket.h **** 	};
 1275              	 .loc 2 69 14
 1276 0024 3B68     	 ldr r3,[r7]
 1277 0026 9B00     	 lsls r3,r3,#2
  69:C:/Users/niels/DOCUME~1/ELEKTR~1/JAAR2~1/ECS/ECSL/software/algemeen/h\dataPakket.h **** 	};
 1278              	 .loc 2 69 21
 1279 0028 1344     	 add r3,r3,r2
 1280              	 .loc 2 70 2
 1281 002a 1846     	 mov r0,r3
 1282 002c 0837     	 adds r7,r7,#8
 1283              	 .cfi_def_cfa_offset 8
 1284 002e BD46     	 mov sp,r7
 1285              	 .cfi_def_cfa_register 13
 1286              	 
 1287 0030 80BD     	 pop {r7,pc}
 1288              	.L57:
 1289 0032 00BF     	 .align 2
 1290              	.L56:
 1291 0034 B8020000 	 .word .LC10
 1292 0038 88030000 	 .word .LC13
 1293 003c 34030000 	 .word .LC12
 1294              	 .cfi_endproc
 1295              	.LFE282:
 1296              	 .size _ZNK10DataPakketIfEixEm,.-_ZNK10DataPakketIfEixEm
 1297              	 .section .rodata
 1298              	 .align 2
 1299              	.LC14:
 1300 03ec 6E756C6C 	 .ascii "nullptr != dataPtr\000"
 1300      70747220 
 1300      213D2064 
 1300      61746150 
 1300      747200
 1301 03ff 00       	 .align 2
 1302              	.LC15:
 1303 0400 44617461 	 .ascii "DataPakket<ttype>::DataPakket(ttype*, UInt32) [with"
 1303      50616B6B 
 1303      65743C74 
 1303      74797065 
 1303      3E3A3A44 
 1304 0433 20747479 	 .ascii " ttype = unsigned char; UInt32 = long unsigned int]"
 1304      7065203D 
 1304      20756E73 
 1304      69676E65 
 1304      64206368 
ARM GAS   			page 30


 1305 0466 00       	 .ascii "\000"
 1306 0467 00       	 .align 2
 1307              	.LC16:
 1308 0468 3020213D 	 .ascii "0 != grootte\000"
 1308      2067726F 
 1308      6F747465 
 1308      00
 1309              	 .section .text._ZN10DataPakketIhEC2EPhm,"axG",%progbits,_ZN10DataPakketIhEC5EPhm,comdat
 1310              	 .align 1
 1311              	 .weak _ZN10DataPakketIhEC2EPhm
 1312              	 .syntax unified
 1313              	 .thumb
 1314              	 .thumb_func
 1315              	 .type _ZN10DataPakketIhEC2EPhm,%function
 1316              	_ZN10DataPakketIhEC2EPhm:
 1317              	.LFB284:
  33:C:/Users/niels/DOCUME~1/ELEKTR~1/JAAR2~1/ECS/ECSL/software/algemeen/h\dataPakket.h **** 			   const UInt32 gr) : data(dataPtr),grootte(gr)
 1318              	 .loc 2 33 2
 1319              	 .cfi_startproc
 1320              	 
 1321              	 
 1322 0000 80B5     	 push {r7,lr}
 1323              	 .cfi_def_cfa_offset 8
 1324              	 .cfi_offset 7,-8
 1325              	 .cfi_offset 14,-4
 1326 0002 84B0     	 sub sp,sp,#16
 1327              	 .cfi_def_cfa_offset 24
 1328 0004 00AF     	 add r7,sp,#0
 1329              	 .cfi_def_cfa_register 7
 1330 0006 F860     	 str r0,[r7,#12]
 1331 0008 B960     	 str r1,[r7,#8]
 1332 000a 7A60     	 str r2,[r7,#4]
 1333              	.LBB2:
  34:C:/Users/niels/DOCUME~1/ELEKTR~1/JAAR2~1/ECS/ECSL/software/algemeen/h\dataPakket.h **** 	{
 1334              	 .loc 2 34 50
 1335 000c FB68     	 ldr r3,[r7,#12]
 1336 000e BA68     	 ldr r2,[r7,#8]
 1337 0010 1A60     	 str r2,[r3]
 1338 0012 FB68     	 ldr r3,[r7,#12]
 1339 0014 7A68     	 ldr r2,[r7,#4]
 1340 0016 5A60     	 str r2,[r3,#4]
  36:C:/Users/niels/DOCUME~1/ELEKTR~1/JAAR2~1/ECS/ECSL/software/algemeen/h\dataPakket.h **** 		assert(0 != grootte);
 1341              	 .loc 2 36 3
 1342 0018 BB68     	 ldr r3,[r7,#8]
 1343 001a 002B     	 cmp r3,#0
 1344 001c 05D1     	 bne .L59
  36:C:/Users/niels/DOCUME~1/ELEKTR~1/JAAR2~1/ECS/ECSL/software/algemeen/h\dataPakket.h **** 		assert(0 != grootte);
 1345              	 .loc 2 36 3 is_stmt 0 discriminator 1
 1346 001e 0A4B     	 ldr r3,.L62
 1347 0020 0A4A     	 ldr r2,.L62+4
 1348 0022 2421     	 movs r1,#36
 1349 0024 0A48     	 ldr r0,.L62+8
 1350 0026 FFF7FEFF 	 bl __assert_func
 1351              	.L59:
  37:C:/Users/niels/DOCUME~1/ELEKTR~1/JAAR2~1/ECS/ECSL/software/algemeen/h\dataPakket.h **** 	};
 1352              	 .loc 2 37 3 is_stmt 1
 1353 002a FB68     	 ldr r3,[r7,#12]
ARM GAS   			page 31


 1354 002c 5B68     	 ldr r3,[r3,#4]
 1355 002e 002B     	 cmp r3,#0
 1356 0030 05D1     	 bne .L60
  37:C:/Users/niels/DOCUME~1/ELEKTR~1/JAAR2~1/ECS/ECSL/software/algemeen/h\dataPakket.h **** 	};
 1357              	 .loc 2 37 3 is_stmt 0 discriminator 1
 1358 0032 084B     	 ldr r3,.L62+12
 1359 0034 054A     	 ldr r2,.L62+4
 1360 0036 2521     	 movs r1,#37
 1361 0038 0548     	 ldr r0,.L62+8
 1362 003a FFF7FEFF 	 bl __assert_func
 1363              	.L60:
 1364              	.LBE2:
  38:C:/Users/niels/DOCUME~1/ELEKTR~1/JAAR2~1/ECS/ECSL/software/algemeen/h\dataPakket.h **** 
 1365              	 .loc 2 38 2 is_stmt 1
 1366 003e FB68     	 ldr r3,[r7,#12]
 1367 0040 1846     	 mov r0,r3
 1368 0042 1037     	 adds r7,r7,#16
 1369              	 .cfi_def_cfa_offset 8
 1370 0044 BD46     	 mov sp,r7
 1371              	 .cfi_def_cfa_register 13
 1372              	 
 1373 0046 80BD     	 pop {r7,pc}
 1374              	.L63:
 1375              	 .align 2
 1376              	.L62:
 1377 0048 EC030000 	 .word .LC14
 1378 004c 00040000 	 .word .LC15
 1379 0050 34030000 	 .word .LC12
 1380 0054 68040000 	 .word .LC16
 1381              	 .cfi_endproc
 1382              	.LFE284:
 1383              	 .size _ZN10DataPakketIhEC2EPhm,.-_ZN10DataPakketIhEC2EPhm
 1384              	 .weak _ZN10DataPakketIhEC1EPhm
 1385              	 .thumb_set _ZN10DataPakketIhEC1EPhm,_ZN10DataPakketIhEC2EPhm
 1386              	 .text
 1387              	.Letext0:
 1388              	 .file 3 "c:\\progra~2\\gnuarm~1\\102021~1.10\\arm-none-eabi\\include\\machine\\_default_types.h"
 1389              	 .file 4 "c:\\progra~2\\gnuarm~1\\102021~1.10\\arm-none-eabi\\include\\sys\\_stdint.h"
 1390              	 .file 5 "c:\\progra~2\\gnuarm~1\\102021~1.10\\arm-none-eabi\\include\\c++\\10.3.1\\bits\\cpp_type_traits.h"
 1391              	 .file 6 "c:\\progra~2\\gnuarm~1\\102021~1.10\\arm-none-eabi\\include\\c++\\10.3.1\\cmath"
 1392              	 .file 7 "c:\\progra~2\\gnuarm~1\\102021~1.10\\arm-none-eabi\\include\\c++\\10.3.1\\bits\\std_abs.h"
 1393              	 .file 8 "c:\\progra~2\\gnuarm~1\\102021~1.10\\arm-none-eabi\\include\\c++\\10.3.1\\arm-none-eabi\\thumb\\v7e-m+fp\\hard\\bits\\c++config.h"
 1394              	 .file 9 "c:\\progra~2\\gnuarm~1\\102021~1.10\\arm-none-eabi\\include\\math.h"
 1395              	 .file 10 "c:\\progra~2\\gnuarm~1\\102021~1.10\\arm-none-eabi\\include\\c++\\10.3.1\\math.h"
 1396              	 .file 11 "C:/Users/niels/DOCUME~1/ELEKTR~1/JAAR2~1/ECS/ECSL/software/algemeen/h/algdef.h"
 1397              	 .file 12 "C:/Users/niels/DOCUME~1/ELEKTR~1/JAAR2~1/ECS/ECSL/software/STM32/STM32B~1/HAL/GEMEEN~1/THIRD_~1/ESE_BSP/DIGPRO~1/h/DigProcesAansturing.h"
 1398              	 .file 13 "<built-in>"